
kernel_master_debug.bin:     file format elf32-bigmips

Disassembly of section .text:

00000000 <entry>:
       0:	3c1d0001 	lui	sp,0x1
       4:	37bdffff 	ori	sp,sp,0xffff
       8:	0c0008b4 	jal	22d0 <main>
       c:	00000000 	nop
      10:	08000004 	j	10 <entry+0x10>
      14:	00000000 	nop

00000018 <initialize_cluster_load>:
      18:	3c020005 	lui	v0,0x5
      1c:	03e00008 	jr	ra
      20:	ac4098b0 	sw	zero,-26448(v0)

00000024 <initialize_clusters>:
      24:	27bdffe0 	addiu	sp,sp,-32
      28:	afbf0018 	sw	ra,24(sp)
      2c:	afb10014 	sw	s1,20(sp)
      30:	afb00010 	sw	s0,16(sp)
      34:	0c00093a 	jal	24e8 <get_net_address>
      38:	3c110012 	lui	s1,0x12
      3c:	00512825 	or	a1,v0,s1
      40:	00003021 	move	a2,zero
      44:	00003821 	move	a3,zero
      48:	0c001615 	jal	5854 <Seek>
      4c:	24040012 	li	a0,18
      50:	3c020001 	lui	v0,0x1
      54:	3c102000 	lui	s0,0x2000
      58:	24428abc 	addiu	v0,v0,-30020
      5c:	00002021 	move	a0,zero
      60:	ae020000 	sw	v0,0(s0)
      64:	0c00093e 	jal	24f8 <itoa>
      68:	00000000 	nop
      6c:	ae020000 	sw	v0,0(s0)
      70:	3c020001 	lui	v0,0x1
      74:	24429324 	addiu	v0,v0,-27868
      78:	ae020000 	sw	v0,0(s0)
      7c:	0c00093a 	jal	24e8 <get_net_address>
      80:	00000000 	nop
      84:	00512825 	or	a1,v0,s1
      88:	24040003 	li	a0,3
      8c:	00003021 	move	a2,zero
      90:	0c001615 	jal	5854 <Seek>
      94:	00003821 	move	a3,zero
      98:	8fbf0018 	lw	ra,24(sp)
      9c:	8fb10014 	lw	s1,20(sp)
      a0:	8fb00010 	lw	s0,16(sp)
      a4:	00002021 	move	a0,zero
      a8:	08000eaa 	j	3aa8 <reclustering_setup>
      ac:	27bd0020 	addiu	sp,sp,32

000000b0 <initialize_slaves>:
      b0:	27bdffc8 	addiu	sp,sp,-56
      b4:	afb3001c 	sw	s3,28(sp)
      b8:	3c130005 	lui	s3,0x5
      bc:	afb7002c 	sw	s7,44(sp)
      c0:	afb40020 	sw	s4,32(sp)
      c4:	afbf0030 	sw	ra,48(sp)
      c8:	afb60028 	sw	s6,40(sp)
      cc:	afb50024 	sw	s5,36(sp)
      d0:	afb20018 	sw	s2,24(sp)
      d4:	afb10014 	sw	s1,20(sp)
      d8:	0c001099 	jal	4264 <init_processors>
      dc:	afb00010 	sw	s0,16(sp)
      e0:	8e6298c4 	lw	v0,-26428(s3)
      e4:	3c170005 	lui	s7,0x5
      e8:	00022940 	sll	a1,v0,0x5
      ec:	00022080 	sll	a0,v0,0x2
      f0:	26e797c4 	addiu	a3,s7,-26684
      f4:	00a41023 	subu	v0,a1,a0
      f8:	00471021 	addu	v0,v0,a3
      fc:	8c460014 	lw	a2,20(v0)
     100:	8c54000c 	lw	s4,12(v0)
     104:	00000000 	nop
     108:	00d4182a 	slt	v1,a2,s4
     10c:	1460003f 	bnez	v1,20c <initialize_slaves+0x15c>
     110:	00e0a821 	move	s5,a3
     114:	00e0b021 	move	s6,a3
     118:	8e6298c4 	lw	v0,-26428(s3)
     11c:	00a42023 	subu	a0,a1,a0
     120:	00023140 	sll	a2,v0,0x5
     124:	00022880 	sll	a1,v0,0x2
     128:	00c51823 	subu	v1,a2,a1
     12c:	00952021 	addu	a0,a0,s5
     130:	00751821 	addu	v1,v1,s5
     134:	8c910008 	lw	s1,8(a0)
     138:	8c620010 	lw	v0,16(v1)
     13c:	00000000 	nop
     140:	0051102a 	slt	v0,v0,s1
     144:	14400026 	bnez	v0,1e0 <initialize_slaves+0x130>
     148:	00111200 	sll	v0,s1,0x8
     14c:	00548021 	addu	s0,v0,s4
     150:	08000063 	j	18c <initialize_slaves+0xdc>
     154:	02c09021 	move	s2,s6
     158:	0c001072 	jal	41c8 <add_processor>
     15c:	26310001 	addiu	s1,s1,1
     160:	8e6298c4 	lw	v0,-26428(s3)
     164:	00000000 	nop
     168:	00023140 	sll	a2,v0,0x5
     16c:	00022880 	sll	a1,v0,0x2
     170:	00c51023 	subu	v0,a2,a1
     174:	00521021 	addu	v0,v0,s2
     178:	8c430010 	lw	v1,16(v0)
     17c:	00000000 	nop
     180:	0071182a 	slt	v1,v1,s1
     184:	14600016 	bnez	v1,1e0 <initialize_slaves+0x130>
     188:	26100100 	addiu	s0,s0,256
     18c:	00c51023 	subu	v0,a2,a1
     190:	00521021 	addu	v0,v0,s2
     194:	8c430000 	lw	v1,0(v0)
     198:	8c450004 	lw	a1,4(v0)
     19c:	00031a00 	sll	v1,v1,0x8
     1a0:	00651825 	or	v1,v1,a1
     1a4:	1470ffec 	bne	v1,s0,158 <initialize_slaves+0xa8>
     1a8:	02002021 	move	a0,s0
     1ac:	0c001072 	jal	41c8 <add_processor>
     1b0:	02002021 	move	a0,s0
     1b4:	8e6298c4 	lw	v0,-26428(s3)
     1b8:	26310001 	addiu	s1,s1,1
     1bc:	00023140 	sll	a2,v0,0x5
     1c0:	00022880 	sll	a1,v0,0x2
     1c4:	00c51023 	subu	v0,a2,a1
     1c8:	00521021 	addu	v0,v0,s2
     1cc:	8c430010 	lw	v1,16(v0)
     1d0:	00000000 	nop
     1d4:	0071182a 	slt	v1,v1,s1
     1d8:	1060ffec 	beqz	v1,18c <initialize_slaves+0xdc>
     1dc:	26100100 	addiu	s0,s0,256
     1e0:	8e6298c4 	lw	v0,-26428(s3)
     1e4:	26940001 	addiu	s4,s4,1
     1e8:	00022940 	sll	a1,v0,0x5
     1ec:	00022080 	sll	a0,v0,0x2
     1f0:	00a41023 	subu	v0,a1,a0
     1f4:	00551021 	addu	v0,v0,s5
     1f8:	8c460014 	lw	a2,20(v0)
     1fc:	00000000 	nop
     200:	00d4182a 	slt	v1,a2,s4
     204:	1060ffc4 	beqz	v1,118 <initialize_slaves+0x68>
     208:	00000000 	nop
     20c:	00a41023 	subu	v0,a1,a0
     210:	26e397c4 	addiu	v1,s7,-26684
     214:	00431021 	addu	v0,v0,v1
     218:	8c510010 	lw	s1,16(v0)
     21c:	8c500008 	lw	s0,8(v0)
     220:	8c43000c 	lw	v1,12(v0)
     224:	3210000f 	andi	s0,s0,0xf
     228:	3231000f 	andi	s1,s1,0xf
     22c:	3063000f 	andi	v1,v1,0xf
     230:	30c2000f 	andi	v0,a2,0xf
     234:	00108100 	sll	s0,s0,0x4
     238:	00118900 	sll	s1,s1,0x4
     23c:	02038025 	or	s0,s0,v1
     240:	0c00093a 	jal	24e8 <get_net_address>
     244:	02228825 	or	s1,s1,v0
     248:	3c050011 	lui	a1,0x11
     24c:	00452825 	or	a1,v0,a1
     250:	02003021 	move	a2,s0
     254:	02203821 	move	a3,s1
     258:	0c001615 	jal	5854 <Seek>
     25c:	24040011 	li	a0,17
     260:	3c020001 	lui	v0,0x1
     264:	24428ae0 	addiu	v0,v0,-29984
     268:	3c032000 	lui	v1,0x2000
     26c:	ac620000 	sw	v0,0(v1)
     270:	8fbf0030 	lw	ra,48(sp)
     274:	8fb7002c 	lw	s7,44(sp)
     278:	8fb60028 	lw	s6,40(sp)
     27c:	8fb50024 	lw	s5,36(sp)
     280:	8fb40020 	lw	s4,32(sp)
     284:	8fb3001c 	lw	s3,28(sp)
     288:	8fb20018 	lw	s2,24(sp)
     28c:	8fb10014 	lw	s1,20(sp)
     290:	8fb00010 	lw	s0,16(sp)
     294:	03e00008 	jr	ra
     298:	27bd0038 	addiu	sp,sp,56

0000029c <Aplly_LSFR>:
     29c:	27bdffd0 	addiu	sp,sp,-48
     2a0:	afb30024 	sw	s3,36(sp)
     2a4:	3c130005 	lui	s3,0x5
     2a8:	afa70014 	sw	a3,20(sp)
     2ac:	afa60010 	sw	a2,16(sp)
     2b0:	00a03821 	move	a3,a1
     2b4:	00803021 	move	a2,a0
     2b8:	26641520 	addiu	a0,s3,5408
     2bc:	afbf0028 	sw	ra,40(sp)
     2c0:	afb20020 	sw	s2,32(sp)
     2c4:	afb1001c 	sw	s1,28(sp)
     2c8:	afb00018 	sw	s0,24(sp)
     2cc:	0c001e1b 	jal	786c <GLFSR_init>
     2d0:	3c120005 	lui	s2,0x5
     2d4:	8fa3004c 	lw	v1,76(sp)
     2d8:	8fa20048 	lw	v0,72(sp)
     2dc:	8fa70044 	lw	a3,68(sp)
     2e0:	8fa60040 	lw	a2,64(sp)
     2e4:	2644a460 	addiu	a0,s2,-23456
     2e8:	afa30014 	sw	v1,20(sp)
     2ec:	afa20010 	sw	v0,16(sp)
     2f0:	0c001e1b 	jal	786c <GLFSR_init>
     2f4:	00008021 	move	s0,zero
     2f8:	24110080 	li	s1,128
     2fc:	0c001e39 	jal	78e4 <GLFSR_next>
     300:	26641520 	addiu	a0,s3,5408
     304:	26100001 	addiu	s0,s0,1
     308:	0c001e39 	jal	78e4 <GLFSR_next>
     30c:	2644a460 	addiu	a0,s2,-23456
     310:	1611fffa 	bne	s0,s1,2fc <Aplly_LSFR+0x60>
     314:	00001021 	move	v0,zero
     318:	8fbf0028 	lw	ra,40(sp)
     31c:	8fb30024 	lw	s3,36(sp)
     320:	8fb20020 	lw	s2,32(sp)
     324:	8fb1001c 	lw	s1,28(sp)
     328:	8fb00018 	lw	s0,24(sp)
     32c:	03e00008 	jr	ra
     330:	27bd0030 	addiu	sp,sp,48

00000334 <handle_app_terminated>:
     334:	27bdffc8 	addiu	sp,sp,-56
     338:	3c020001 	lui	v0,0x1
     33c:	afb00010 	sw	s0,16(sp)
     340:	24428af8 	addiu	v0,v0,-29960
     344:	3c102000 	lui	s0,0x2000
     348:	afbf0030 	sw	ra,48(sp)
     34c:	afb7002c 	sw	s7,44(sp)
     350:	afb60028 	sw	s6,40(sp)
     354:	afb3001c 	sw	s3,28(sp)
     358:	afb20018 	sw	s2,24(sp)
     35c:	afb50024 	sw	s5,36(sp)
     360:	afb40020 	sw	s4,32(sp)
     364:	afb10014 	sw	s1,20(sp)
     368:	ae020000 	sw	v0,0(s0)
     36c:	00c09021 	move	s2,a2
     370:	0c00093e 	jal	24f8 <itoa>
     374:	00a09821 	move	s3,a1
     378:	3c030001 	lui	v1,0x1
     37c:	24779324 	addiu	s7,v1,-27868
     380:	ae020000 	sw	v0,0(s0)
     384:	00122202 	srl	a0,s2,0x8
     388:	324500ff 	andi	a1,s2,0xff
     38c:	ae170000 	sw	s7,0(s0)
     390:	0c00137a 	jal	4de8 <get_cluster_ID>
     394:	00000000 	nop
     398:	12600030 	beqz	s3,45c <handle_app_terminated+0x128>
     39c:	0040b021 	move	s6,v0
     3a0:	3c020005 	lui	v0,0x5
     3a4:	3c030005 	lui	v1,0x5
     3a8:	2451149c 	addiu	s1,v0,5276
     3ac:	247597c4 	addiu	s5,v1,-26684
     3b0:	00008021 	move	s0,zero
     3b4:	08000103 	j	40c <handle_app_terminated+0xd8>
     3b8:	3c140005 	lui	s4,0x5
     3bc:	8e8398c4 	lw	v1,-26428(s4)
     3c0:	30e500ff 	andi	a1,a3,0xff
     3c4:	00031140 	sll	v0,v1,0x5
     3c8:	00031880 	sll	v1,v1,0x2
     3cc:	00431023 	subu	v0,v0,v1
     3d0:	00551021 	addu	v0,v0,s5
     3d4:	8c430000 	lw	v1,0(v0)
     3d8:	8c460004 	lw	a2,4(v0)
     3dc:	00031a00 	sll	v1,v1,0x8
     3e0:	00661825 	or	v1,v1,a2
     3e4:	10e30006 	beq	a3,v1,400 <handle_app_terminated+0xcc>
     3e8:	00072202 	srl	a0,a3,0x8
     3ec:	0c00137a 	jal	4de8 <get_cluster_ID>
     3f0:	00000000 	nop
     3f4:	00402021 	move	a0,v0
     3f8:	0c00136f 	jal	4dbc <release_cluster_resources>
     3fc:	24050001 	li	a1,1
     400:	26100001 	addiu	s0,s0,1
     404:	12130015 	beq	s0,s3,45c <handle_app_terminated+0x128>
     408:	26310004 	addiu	s1,s1,4
     40c:	8e270000 	lw	a3,0(s1)
     410:	00000000 	nop
     414:	1647ffe9 	bne	s2,a3,3bc <handle_app_terminated+0x88>
     418:	02c02021 	move	a0,s6
     41c:	8e8398c4 	lw	v1,-26428(s4)
     420:	00000000 	nop
     424:	00031140 	sll	v0,v1,0x5
     428:	00031880 	sll	v1,v1,0x2
     42c:	00431023 	subu	v0,v0,v1
     430:	00551021 	addu	v0,v0,s5
     434:	8c430000 	lw	v1,0(v0)
     438:	8c450004 	lw	a1,4(v0)
     43c:	00031a00 	sll	v1,v1,0x8
     440:	00651825 	or	v1,v1,a1
     444:	1243ffee 	beq	s2,v1,400 <handle_app_terminated+0xcc>
     448:	24050001 	li	a1,1
     44c:	0c00136f 	jal	4dbc <release_cluster_resources>
     450:	26100001 	addiu	s0,s0,1
     454:	1613ffed 	bne	s0,s3,40c <handle_app_terminated+0xd8>
     458:	26310004 	addiu	s1,s1,4
     45c:	3c100005 	lui	s0,0x5
     460:	8e0598f4 	lw	a1,-26380(s0)
     464:	3c060005 	lui	a2,0x5
     468:	24a50001 	addiu	a1,a1,1
     46c:	00051100 	sll	v0,a1,0x4
     470:	00052080 	sll	a0,a1,0x2
     474:	00822021 	addu	a0,a0,v0
     478:	8cc397b8 	lw	v1,-26696(a2)
     47c:	00041080 	sll	v0,a0,0x2
     480:	00822021 	addu	a0,a0,v0
     484:	3c020001 	lui	v0,0x1
     488:	02631821 	addu	v1,s3,v1
     48c:	3c112000 	lui	s1,0x2000
     490:	24428b20 	addiu	v0,v0,-29920
     494:	acc397b8 	sw	v1,-26696(a2)
     498:	ae220000 	sw	v0,0(s1)
     49c:	0c00093e 	jal	24f8 <itoa>
     4a0:	ae0598f4 	sw	a1,-26380(s0)
     4a4:	8e1098f4 	lw	s0,-26380(s0)
     4a8:	ae220000 	sw	v0,0(s1)
     4ac:	3c020001 	lui	v0,0x1
     4b0:	24428b30 	addiu	v0,v0,-29904
     4b4:	24030001 	li	v1,1
     4b8:	ae220000 	sw	v0,0(s1)
     4bc:	1203000c 	beq	s0,v1,4f0 <handle_app_terminated+0x1bc>
     4c0:	3c020001 	lui	v0,0x1
     4c4:	8fbf0030 	lw	ra,48(sp)
     4c8:	8fb7002c 	lw	s7,44(sp)
     4cc:	8fb60028 	lw	s6,40(sp)
     4d0:	8fb50024 	lw	s5,36(sp)
     4d4:	8fb40020 	lw	s4,32(sp)
     4d8:	8fb3001c 	lw	s3,28(sp)
     4dc:	8fb20018 	lw	s2,24(sp)
     4e0:	8fb10014 	lw	s1,20(sp)
     4e4:	8fb00010 	lw	s0,16(sp)
     4e8:	03e00008 	jr	ra
     4ec:	27bd0038 	addiu	sp,sp,56
     4f0:	24428b34 	addiu	v0,v0,-29900
     4f4:	36230300 	ori	v1,s1,0x300
     4f8:	ae220000 	sw	v0,0(s1)
     4fc:	8c640000 	lw	a0,0(v1)
     500:	0c00093e 	jal	24f8 <itoa>
     504:	00000000 	nop
     508:	36230080 	ori	v1,s1,0x80
     50c:	ae220000 	sw	v0,0(s1)
     510:	ae370000 	sw	s7,0(s1)
     514:	ac700000 	sw	s0,0(v1)
     518:	08000131 	j	4c4 <handle_app_terminated+0x190>
     51c:	00000000 	nop

00000520 <send_tasks_location>:
     520:	27bdffd0 	addiu	sp,sp,-48
     524:	afbe0028 	sw	s8,40(sp)
     528:	afb50024 	sw	s5,36(sp)
     52c:	afb3001c 	sw	s3,28(sp)
     530:	afb20018 	sw	s2,24(sp)
     534:	afbf002c 	sw	ra,44(sp)
     538:	afb40020 	sw	s4,32(sp)
     53c:	afb10014 	sw	s1,20(sp)
     540:	afb00010 	sw	s0,16(sp)
     544:	8c860008 	lw	a2,8(a0)
     548:	03a0f021 	move	s8,sp
     54c:	00061080 	sll	v0,a2,0x2
     550:	2442000e 	addiu	v0,v0,14
     554:	000210c2 	srl	v0,v0,0x3
     558:	000210c0 	sll	v0,v0,0x3
     55c:	03a0a821 	move	s5,sp
     560:	03a2e823 	subu	sp,sp,v0
     564:	00809021 	move	s2,a0
     568:	18c0001d 	blez	a2,5e0 <send_tasks_location+0xc0>
     56c:	27b30010 	addiu	s3,sp,16
     570:	02601821 	move	v1,s3
     574:	00002821 	move	a1,zero
     578:	8c820028 	lw	v0,40(a0)
     57c:	24a50001 	addiu	a1,a1,1
     580:	ac620000 	sw	v0,0(v1)
     584:	24840078 	addiu	a0,a0,120
     588:	14c5fffb 	bne	a2,a1,578 <send_tasks_location+0x58>
     58c:	24630004 	addiu	v1,v1,4
     590:	02408021 	move	s0,s2
     594:	00008821 	move	s1,zero
     598:	24140231 	li	s4,561
     59c:	0c000a75 	jal	29d4 <get_service_header_slot>
     5a0:	26310001 	addiu	s1,s1,1
     5a4:	8e030028 	lw	v1,40(s0)
     5a8:	ac540084 	sw	s4,132(v0)
     5ac:	ac43007c 	sw	v1,124(v0)
     5b0:	8e460008 	lw	a2,8(s2)
     5b4:	00402021 	move	a0,v0
     5b8:	ac46009c 	sw	a2,156(v0)
     5bc:	8e030014 	lw	v1,20(s0)
     5c0:	02602821 	move	a1,s3
     5c4:	0c000c4d 	jal	3134 <send_packet>
     5c8:	ac430088 	sw	v1,136(v0)
     5cc:	8e420008 	lw	v0,8(s2)
     5d0:	00000000 	nop
     5d4:	0222102a 	slt	v0,s1,v0
     5d8:	1440fff0 	bnez	v0,59c <send_tasks_location+0x7c>
     5dc:	26100078 	addiu	s0,s0,120
     5e0:	02a0e821 	move	sp,s5
     5e4:	03c0e821 	move	sp,s8
     5e8:	8fbf002c 	lw	ra,44(sp)
     5ec:	8fbe0028 	lw	s8,40(sp)
     5f0:	8fb50024 	lw	s5,36(sp)
     5f4:	8fb40020 	lw	s4,32(sp)
     5f8:	8fb3001c 	lw	s3,28(sp)
     5fc:	8fb20018 	lw	s2,24(sp)
     600:	8fb10014 	lw	s1,20(sp)
     604:	8fb00010 	lw	s0,16(sp)
     608:	03e00008 	jr	ra
     60c:	27bd0030 	addiu	sp,sp,48

00000610 <send_task_release>:
     610:	27bdffc0 	addiu	sp,sp,-64
     614:	afbe0038 	sw	s8,56(sp)
     618:	afb5002c 	sw	s5,44(sp)
     61c:	afb30024 	sw	s3,36(sp)
     620:	afbf003c 	sw	ra,60(sp)
     624:	afb70034 	sw	s7,52(sp)
     628:	afb60030 	sw	s6,48(sp)
     62c:	afb40028 	sw	s4,40(sp)
     630:	afb20020 	sw	s2,32(sp)
     634:	afb1001c 	sw	s1,28(sp)
     638:	afb00018 	sw	s0,24(sp)
     63c:	8c860008 	lw	a2,8(a0)
     640:	03a0f021 	move	s8,sp
     644:	00061080 	sll	v0,a2,0x2
     648:	2442000e 	addiu	v0,v0,14
     64c:	000210c2 	srl	v0,v0,0x3
     650:	000210c0 	sll	v0,v0,0x3
     654:	afdd0010 	sw	sp,16(s8)
     658:	03a2e823 	subu	sp,sp,v0
     65c:	00809821 	move	s3,a0
     660:	18c0004b 	blez	a2,790 <send_task_release+0x180>
     664:	27b50010 	addiu	s5,sp,16
     668:	02a01821 	move	v1,s5
     66c:	00002821 	move	a1,zero
     670:	8c820028 	lw	v0,40(a0)
     674:	24a50001 	addiu	a1,a1,1
     678:	ac620000 	sw	v0,0(v1)
     67c:	24840078 	addiu	a0,a0,120
     680:	14c5fffb 	bne	a2,a1,670 <send_task_release+0x60>
     684:	24630004 	addiu	v1,v1,4
     688:	02608821 	move	s1,s3
     68c:	0000b021 	move	s6,zero
     690:	00009021 	move	s2,zero
     694:	24140001 	li	s4,1
     698:	080001ad 	j	6b4 <send_task_release+0xa4>
     69c:	24170250 	li	s7,592
     6a0:	8e620008 	lw	v0,8(s3)
     6a4:	26520001 	addiu	s2,s2,1
     6a8:	0242102a 	slt	v0,s2,v0
     6ac:	10400022 	beqz	v0,738 <send_task_release+0x128>
     6b0:	26310078 	addiu	s1,s1,120
     6b4:	8e220034 	lw	v0,52(s1)
     6b8:	00000000 	nop
     6bc:	1454fff8 	bne	v0,s4,6a0 <send_task_release+0x90>
     6c0:	00000000 	nop
     6c4:	0c000a75 	jal	29d4 <get_service_header_slot>
     6c8:	00000000 	nop
     6cc:	8e240028 	lw	a0,40(s1)
     6d0:	ac570084 	sw	s7,132(v0)
     6d4:	ac44007c 	sw	a0,124(v0)
     6d8:	8e630008 	lw	v1,8(s3)
     6dc:	00408021 	move	s0,v0
     6e0:	ac43009c 	sw	v1,156(v0)
     6e4:	8e220014 	lw	v0,20(s1)
     6e8:	00000000 	nop
     6ec:	ae020088 	sw	v0,136(s0)
     6f0:	8e23001c 	lw	v1,28(s1)
     6f4:	00000000 	nop
     6f8:	ae0300a0 	sw	v1,160(s0)
     6fc:	8e220020 	lw	v0,32(s1)
     700:	00000000 	nop
     704:	ae0200a8 	sw	v0,168(s0)
     708:	8e6305b4 	lw	v1,1460(s3)
     70c:	0c0010de 	jal	4378 <proc_is_migrating>
     710:	ae0300a4 	sw	v1,164(s0)
     714:	02002021 	move	a0,s0
     718:	10400020 	beqz	v0,79c <send_task_release+0x18c>
     71c:	02a02821 	move	a1,s5
     720:	8e620008 	lw	v0,8(s3)
     724:	26520001 	addiu	s2,s2,1
     728:	0242102a 	slt	v0,s2,v0
     72c:	24160001 	li	s6,1
     730:	1440ffe0 	bnez	v0,6b4 <send_task_release+0xa4>
     734:	26310078 	addiu	s1,s1,120
     738:	12c00016 	beqz	s6,794 <send_task_release+0x184>
     73c:	24020001 	li	v0,1
     740:	3c022000 	lui	v0,0x2000
     744:	34420250 	ori	v0,v0,0x250
     748:	8c430000 	lw	v1,0(v0)
     74c:	00000000 	nop
     750:	1460fffb 	bnez	v1,740 <send_task_release+0x130>
     754:	00000000 	nop
     758:	8fdd0010 	lw	sp,16(s8)
     75c:	03c0e821 	move	sp,s8
     760:	8fdf003c 	lw	ra,60(s8)
     764:	8fbe0038 	lw	s8,56(sp)
     768:	8fb70034 	lw	s7,52(sp)
     76c:	8fb60030 	lw	s6,48(sp)
     770:	8fb5002c 	lw	s5,44(sp)
     774:	8fb40028 	lw	s4,40(sp)
     778:	8fb30024 	lw	s3,36(sp)
     77c:	8fb20020 	lw	s2,32(sp)
     780:	8fb1001c 	lw	s1,28(sp)
     784:	8fb00018 	lw	s0,24(sp)
     788:	03e00008 	jr	ra
     78c:	27bd0040 	addiu	sp,sp,64
     790:	24020001 	li	v0,1
     794:	080001d0 	j	740 <send_task_release+0x130>
     798:	ae620004 	sw	v0,4(s3)
     79c:	8e660008 	lw	a2,8(s3)
     7a0:	0c000c4d 	jal	3134 <send_packet>
     7a4:	00000000 	nop
     7a8:	24020003 	li	v0,3
     7ac:	080001a8 	j	6a0 <send_task_release+0x90>
     7b0:	ae220034 	sw	v0,52(s1)

000007b4 <send_task_allocation>:
     7b4:	27bdffe8 	addiu	sp,sp,-24
     7b8:	afb00010 	sw	s0,16(sp)
     7bc:	afbf0014 	sw	ra,20(sp)
     7c0:	0c000a75 	jal	29d4 <get_service_header_slot>
     7c4:	00808021 	move	s0,a0
     7c8:	8e030008 	lw	v1,8(s0)
     7cc:	24040040 	li	a0,64
     7d0:	ac440084 	sw	a0,132(v0)
     7d4:	ac43007c 	sw	v1,124(v0)
     7d8:	8e030004 	lw	v1,4(s0)
     7dc:	00402021 	move	a0,v0
     7e0:	ac43008c 	sw	v1,140(v0)
     7e4:	8e050000 	lw	a1,0(s0)
     7e8:	00000000 	nop
     7ec:	ac450088 	sw	a1,136(v0)
     7f0:	8e060010 	lw	a2,16(s0)
     7f4:	3c051000 	lui	a1,0x1000
     7f8:	ac4600a4 	sw	a2,164(v0)
     7fc:	8e02000c 	lw	v0,12(s0)
     800:	8fbf0014 	lw	ra,20(sp)
     804:	8fb00010 	lw	s0,16(sp)
     808:	00452825 	or	a1,v0,a1
     80c:	08000c4d 	j	3134 <send_packet>
     810:	27bd0018 	addiu	sp,sp,24

00000814 <send_app_terminated>:
     814:	27bdffe0 	addiu	sp,sp,-32
     818:	afbf0018 	sw	ra,24(sp)
     81c:	afb10014 	sw	s1,20(sp)
     820:	afb00010 	sw	s0,16(sp)
     824:	00a08821 	move	s1,a1
     828:	0c000a75 	jal	29d4 <get_service_header_slot>
     82c:	00808021 	move	s0,a0
     830:	3c030005 	lui	v1,0x5
     834:	8c649898 	lw	a0,-26472(v1)
     838:	24030140 	li	v1,320
     83c:	ac44007c 	sw	a0,124(v0)
     840:	ac430084 	sw	v1,132(v0)
     844:	8e050000 	lw	a1,0(s0)
     848:	00402021 	move	a0,v0
     84c:	ac450088 	sw	a1,136(v0)
     850:	8e030008 	lw	v1,8(s0)
     854:	00000000 	nop
     858:	ac43009c 	sw	v1,156(v0)
     85c:	8e060008 	lw	a2,8(s0)
     860:	0c000c4d 	jal	3134 <send_packet>
     864:	02202821 	move	a1,s1
     868:	3c022000 	lui	v0,0x2000
     86c:	34430250 	ori	v1,v0,0x250
     870:	8c620000 	lw	v0,0(v1)
     874:	00000000 	nop
     878:	1440fffd 	bnez	v0,870 <send_app_terminated+0x5c>
     87c:	00000000 	nop
     880:	8fbf0018 	lw	ra,24(sp)
     884:	8fb10014 	lw	s1,20(sp)
     888:	8fb00010 	lw	s0,16(sp)
     88c:	03e00008 	jr	ra
     890:	27bd0020 	addiu	sp,sp,32

00000894 <SeekInterruptHandler>:
     894:	3c032000 	lui	v1,0x2000
     898:	27bdffc8 	addiu	sp,sp,-56
     89c:	34640554 	ori	a0,v1,0x554
     8a0:	afbf0034 	sw	ra,52(sp)
     8a4:	afbe0030 	sw	s8,48(sp)
     8a8:	afb7002c 	sw	s7,44(sp)
     8ac:	afb60028 	sw	s6,40(sp)
     8b0:	afb50024 	sw	s5,36(sp)
     8b4:	afb40020 	sw	s4,32(sp)
     8b8:	afb3001c 	sw	s3,28(sp)
     8bc:	afb20018 	sw	s2,24(sp)
     8c0:	afb10014 	sw	s1,20(sp)
     8c4:	afb00010 	sw	s0,16(sp)
     8c8:	34650500 	ori	a1,v1,0x500
     8cc:	ac800000 	sw	zero,0(a0)
     8d0:	24020001 	li	v0,1
     8d4:	8cb50000 	lw	s5,0(a1)
     8d8:	ac820000 	sw	v0,0(a0)
     8dc:	24020002 	li	v0,2
     8e0:	8cb40000 	lw	s4,0(a1)
     8e4:	34670370 	ori	a3,v1,0x370
     8e8:	ac820000 	sw	v0,0(a0)
     8ec:	34660394 	ori	a2,v1,0x394
     8f0:	34620380 	ori	v0,v1,0x380
     8f4:	34630390 	ori	v1,v1,0x390
     8f8:	8cb30000 	lw	s3,0(a1)
     8fc:	8cd10000 	lw	s1,0(a2)
     900:	8c440000 	lw	a0,0(v0)
     904:	8c720000 	lw	s2,0(v1)
     908:	8ce70000 	lw	a3,0(a3)
     90c:	00000000 	nop
     910:	2ce20020 	sltiu	v0,a3,32
     914:	1040002b 	beqz	v0,9c4 <SeekInterruptHandler+0x130>
     918:	3c030001 	lui	v1,0x1
     91c:	3c030001 	lui	v1,0x1
     920:	00071080 	sll	v0,a3,0x2
     924:	24639100 	addiu	v1,v1,-28416
     928:	00431021 	addu	v0,v0,v1
     92c:	8c440000 	lw	a0,0(v0)
     930:	00000000 	nop
     934:	00800008 	jr	a0
     938:	00000000 	nop
     93c:	3c020005 	lui	v0,0x5
     940:	90439888 	lbu	v1,-26488(v0)
     944:	00000000 	nop
     948:	106002cd 	beqz	v1,1480 <SeekInterruptHandler+0xbec>
     94c:	27c497c4 	addiu	a0,s8,-26684
     950:	8ee398c4 	lw	v1,-26428(s7)
     954:	00000000 	nop
     958:	00031140 	sll	v0,v1,0x5
     95c:	00031880 	sll	v1,v1,0x2
     960:	00431023 	subu	v0,v0,v1
     964:	00441021 	addu	v0,v0,a0
     968:	8c460000 	lw	a2,0(v0)
     96c:	8c430004 	lw	v1,4(v0)
     970:	00063200 	sll	a2,a2,0x8
     974:	8e640000 	lw	a0,0(s3)
     978:	0c0000cd 	jal	334 <handle_app_terminated>
     97c:	00c33025 	or	a2,a2,v1
     980:	8e640000 	lw	a0,0(s3)
     984:	0c000dc1 	jal	3704 <remove_application>
     988:	00000000 	nop
     98c:	8fbf0034 	lw	ra,52(sp)
     990:	8fbe0030 	lw	s8,48(sp)
     994:	8fb7002c 	lw	s7,44(sp)
     998:	8fb60028 	lw	s6,40(sp)
     99c:	8fb50024 	lw	s5,36(sp)
     9a0:	8fb40020 	lw	s4,32(sp)
     9a4:	8fb3001c 	lw	s3,28(sp)
     9a8:	8fb20018 	lw	s2,24(sp)
     9ac:	8fb10014 	lw	s1,20(sp)
     9b0:	8fb00010 	lw	s0,16(sp)
     9b4:	00001021 	move	v0,zero
     9b8:	03e00008 	jr	ra
     9bc:	27bd0038 	addiu	sp,sp,56
     9c0:	3c030001 	lui	v1,0x1
     9c4:	3c040001 	lui	a0,0x1
     9c8:	3c022000 	lui	v0,0x2000
     9cc:	24638d44 	addiu	v1,v1,-29372
     9d0:	24848d64 	addiu	a0,a0,-29340
     9d4:	ac430000 	sw	v1,0(v0)
     9d8:	ac440000 	sw	a0,0(v0)
     9dc:	08000263 	j	98c <SeekInterruptHandler+0xf8>
     9e0:	00000000 	nop
     9e4:	3c102000 	lui	s0,0x2000
     9e8:	36020300 	ori	v0,s0,0x300
     9ec:	8c440000 	lw	a0,0(v0)
     9f0:	0c00093e 	jal	24f8 <itoa>
     9f4:	00129c02 	srl	s3,s2,0x10
     9f8:	ae020000 	sw	v0,0(s0)
     9fc:	3c020001 	lui	v0,0x1
     a00:	24428b3c 	addiu	v0,v0,-29892
     a04:	02402021 	move	a0,s2
     a08:	ae020000 	sw	v0,0(s0)
     a0c:	0c000985 	jal	2614 <itoh>
     a10:	00000000 	nop
     a14:	ae020000 	sw	v0,0(s0)
     a18:	3c020001 	lui	v0,0x1
     a1c:	24429324 	addiu	v0,v0,-27868
     a20:	02602021 	move	a0,s3
     a24:	ae020000 	sw	v0,0(s0)
     a28:	0c001573 	jal	55cc <GetFreeSlotSourceRouting>
     a2c:	00000000 	nop
     a30:	00402021 	move	a0,v0
     a34:	2403ffff 	li	v1,-1
     a38:	3c020005 	lui	v0,0x5
     a3c:	1083ffd3 	beq	a0,v1,98c <SeekInterruptHandler+0xf8>
     a40:	ac44989c 	sw	a0,-26468(v0)
     a44:	00041080 	sll	v0,a0,0x2
     a48:	00041900 	sll	v1,a0,0x4
     a4c:	00621823 	subu	v1,v1,v0
     a50:	00031180 	sll	v0,v1,0x6
     a54:	00621821 	addu	v1,v1,v0
     a58:	3c020005 	lui	v0,0x5
     a5c:	24423158 	addiu	v0,v0,12632
     a60:	00621821 	addu	v1,v1,v0
     a64:	3c110005 	lui	s1,0x5
     a68:	24040001 	li	a0,1
     a6c:	8e309900 	lw	s0,-26368(s1)
     a70:	ac640080 	sw	a0,128(v1)
     a74:	0c00093a 	jal	24e8 <get_net_address>
     a78:	ac730084 	sw	s3,132(v1)
     a7c:	3042ffff 	andi	v0,v0,0xffff
     a80:	00108400 	sll	s0,s0,0x10
     a84:	02022825 	or	a1,s0,v0
     a88:	02603021 	move	a2,s3
     a8c:	24040005 	li	a0,5
     a90:	0c001615 	jal	5854 <Seek>
     a94:	00003821 	move	a3,zero
     a98:	8e229900 	lw	v0,-26368(s1)
     a9c:	00000000 	nop
     aa0:	24420001 	addiu	v0,v0,1
     aa4:	08000263 	j	98c <SeekInterruptHandler+0xf8>
     aa8:	ae229900 	sw	v0,-26368(s1)
     aac:	02603021 	move	a2,s3
     ab0:	02a02021 	move	a0,s5
     ab4:	0c00163a 	jal	58e8 <ProcessTurns>
     ab8:	02802821 	move	a1,s4
     abc:	00022080 	sll	a0,v0,0x2
     ac0:	00021900 	sll	v1,v0,0x4
     ac4:	00641823 	subu	v1,v1,a0
     ac8:	00032980 	sll	a1,v1,0x6
     acc:	3c040005 	lui	a0,0x5
     ad0:	24923158 	addiu	s2,a0,12632
     ad4:	00651821 	addu	v1,v1,a1
     ad8:	00721821 	addu	v1,v1,s2
     adc:	8c700084 	lw	s0,132(v1)
     ae0:	3c110005 	lui	s1,0x5
     ae4:	0c00093a 	jal	24e8 <get_net_address>
     ae8:	ae22989c 	sw	v0,-26468(s1)
     aec:	3042ffff 	andi	v0,v0,0xffff
     af0:	00108400 	sll	s0,s0,0x10
     af4:	02022825 	or	a1,s0,v0
     af8:	24040003 	li	a0,3
     afc:	00003021 	move	a2,zero
     b00:	0c001615 	jal	5854 <Seek>
     b04:	00003821 	move	a3,zero
     b08:	8e23989c 	lw	v1,-26468(s1)
     b0c:	02a02021 	move	a0,s5
     b10:	00031100 	sll	v0,v1,0x4
     b14:	00031880 	sll	v1,v1,0x2
     b18:	00431023 	subu	v0,v0,v1
     b1c:	00022980 	sll	a1,v0,0x6
     b20:	00451021 	addu	v0,v0,a1
     b24:	00521021 	addu	v0,v0,s2
     b28:	8c470084 	lw	a3,132(v0)
     b2c:	02802821 	move	a1,s4
     b30:	0c001a5f 	jal	697c <resend_control_message>
     b34:	02603021 	move	a2,s3
     b38:	2403ffff 	li	v1,-1
     b3c:	14430209 	bne	v0,v1,1364 <SeekInterruptHandler+0xad0>
     b40:	3c020001 	lui	v0,0x1
     b44:	24428b58 	addiu	v0,v0,-29864
     b48:	3c032000 	lui	v1,0x2000
     b4c:	ac620000 	sw	v0,0(v1)
     b50:	08000263 	j	98c <SeekInterruptHandler+0xf8>
     b54:	00000000 	nop
     b58:	3c020001 	lui	v0,0x1
     b5c:	3c102000 	lui	s0,0x2000
     b60:	24428b70 	addiu	v0,v0,-29840
     b64:	02202021 	move	a0,s1
     b68:	ae020000 	sw	v0,0(s0)
     b6c:	0c000985 	jal	2614 <itoh>
     b70:	00000000 	nop
     b74:	00111902 	srl	v1,s1,0x4
     b78:	3c040001 	lui	a0,0x1
     b7c:	3074000f 	andi	s4,v1,0xf
     b80:	24959324 	addiu	s5,a0,-27868
     b84:	ae020000 	sw	v0,0(s0)
     b88:	02802021 	move	a0,s4
     b8c:	ae150000 	sw	s5,0(s0)
     b90:	0c000d9e 	jal	3678 <get_application_ptr>
     b94:	00000000 	nop
     b98:	00402021 	move	a0,v0
     b9c:	00409821 	move	s3,v0
     ba0:	3c020001 	lui	v0,0x1
     ba4:	24428b8c 	addiu	v0,v0,-29812
     ba8:	ae020000 	sw	v0,0(s0)
     bac:	0c000985 	jal	2614 <itoh>
     bb0:	00000000 	nop
     bb4:	00141a00 	sll	v1,s4,0x8
     bb8:	3224000f 	andi	a0,s1,0xf
     bbc:	00648821 	addu	s1,v1,a0
     bc0:	02202821 	move	a1,s1
     bc4:	ae020000 	sw	v0,0(s0)
     bc8:	02602021 	move	a0,s3
     bcc:	ae150000 	sw	s5,0(s0)
     bd0:	0c000d8b 	jal	362c <set_task_terminated>
     bd4:	00000000 	nop
     bd8:	3c020001 	lui	v0,0x1
     bdc:	24428b94 	addiu	v0,v0,-29804
     be0:	02202021 	move	a0,s1
     be4:	ae020000 	sw	v0,0(s0)
     be8:	0c000985 	jal	2614 <itoh>
     bec:	3252ffff 	andi	s2,s2,0xffff
     bf0:	02402021 	move	a0,s2
     bf4:	ae020000 	sw	v0,0(s0)
     bf8:	3c170005 	lui	s7,0x5
     bfc:	ae150000 	sw	s5,0(s0)
     c00:	0c00138a 	jal	4e28 <get_master_address>
     c04:	3c1e0005 	lui	s8,0x5
     c08:	8ee698c4 	lw	a2,-26428(s7)
     c0c:	00000000 	nop
     c10:	00061880 	sll	v1,a2,0x2
     c14:	00062140 	sll	a0,a2,0x5
     c18:	00832023 	subu	a0,a0,v1
     c1c:	27d697c4 	addiu	s6,s8,-26684
     c20:	00962021 	addu	a0,a0,s6
     c24:	8c830000 	lw	v1,0(a0)
     c28:	8c850004 	lw	a1,4(a0)
     c2c:	00031a00 	sll	v1,v1,0x8
     c30:	00651825 	or	v1,v1,a1
     c34:	104301ff 	beq	v0,v1,1434 <SeekInterruptHandler+0xba0>
     c38:	00c02021 	move	a0,a2
     c3c:	3c020001 	lui	v0,0x1
     c40:	24428ba4 	addiu	v0,v0,-29788
     c44:	02402021 	move	a0,s2
     c48:	ae020000 	sw	v0,0(s0)
     c4c:	0c000985 	jal	2614 <itoh>
     c50:	00000000 	nop
     c54:	ae020000 	sw	v0,0(s0)
     c58:	ae150000 	sw	s5,0(s0)
     c5c:	8e63000c 	lw	v1,12(s3)
     c60:	8e620008 	lw	v0,8(s3)
     c64:	00000000 	nop
     c68:	1462ff48 	bne	v1,v0,98c <SeekInterruptHandler+0xf8>
     c6c:	3c020001 	lui	v0,0x1
     c70:	24428bb4 	addiu	v0,v0,-29772
     c74:	02802021 	move	a0,s4
     c78:	ae020000 	sw	v0,0(s0)
     c7c:	0c000985 	jal	2614 <itoh>
     c80:	00000000 	nop
     c84:	ae020000 	sw	v0,0(s0)
     c88:	ae150000 	sw	s5,0(s0)
     c8c:	8e6305b4 	lw	v1,1460(s3)
     c90:	24020001 	li	v0,1
     c94:	106201f0 	beq	v1,v0,1458 <SeekInterruptHandler+0xbc4>
     c98:	36020300 	ori	v0,s0,0x300
     c9c:	8e650008 	lw	a1,8(s3)
     ca0:	00000000 	nop
     ca4:	18a0ff25 	blez	a1,93c <SeekInterruptHandler+0xa8>
     ca8:	02602021 	move	a0,s3
     cac:	8ee298c4 	lw	v0,-26428(s7)
     cb0:	00000000 	nop
     cb4:	00021940 	sll	v1,v0,0x5
     cb8:	00021080 	sll	v0,v0,0x2
     cbc:	00621823 	subu	v1,v1,v0
     cc0:	3c020005 	lui	v0,0x5
     cc4:	00764021 	addu	t0,v1,s6
     cc8:	2446149c 	addiu	a2,v0,5276
     ccc:	00003821 	move	a3,zero
     cd0:	0800033b 	j	cec <SeekInterruptHandler+0x458>
     cd4:	2409ffff 	li	t1,-1
     cd8:	24e70001 	addiu	a3,a3,1
     cdc:	acc20000 	sw	v0,0(a2)
     ce0:	24840078 	addiu	a0,a0,120
     ce4:	10e5ff15 	beq	a3,a1,93c <SeekInterruptHandler+0xa8>
     ce8:	24c60004 	addiu	a2,a2,4
     cec:	8c820030 	lw	v0,48(a0)
     cf0:	00000000 	nop
     cf4:	1449fff8 	bne	v0,t1,cd8 <SeekInterruptHandler+0x444>
     cf8:	00000000 	nop
     cfc:	8d020000 	lw	v0,0(t0)
     d00:	8d030004 	lw	v1,4(t0)
     d04:	00021200 	sll	v0,v0,0x8
     d08:	08000336 	j	cd8 <SeekInterruptHandler+0x444>
     d0c:	00431025 	or	v0,v0,v1
     d10:	3c020001 	lui	v0,0x1
     d14:	3c102000 	lui	s0,0x2000
     d18:	24428bd0 	addiu	v0,v0,-29744
     d1c:	02202021 	move	a0,s1
     d20:	ae020000 	sw	v0,0(s0)
     d24:	0c000985 	jal	2614 <itoh>
     d28:	00000000 	nop
     d2c:	3c030001 	lui	v1,0x1
     d30:	24739324 	addiu	s3,v1,-27868
     d34:	02202021 	move	a0,s1
     d38:	ae020000 	sw	v0,0(s0)
     d3c:	ae130000 	sw	s3,0(s0)
     d40:	0c001fb0 	jal	7ec0 <get_AppID_with_RH_Address>
     d44:	00000000 	nop
     d48:	00402021 	move	a0,v0
     d4c:	00409021 	move	s2,v0
     d50:	3c020001 	lui	v0,0x1
     d54:	24428bf8 	addiu	v0,v0,-29704
     d58:	ae020000 	sw	v0,0(s0)
     d5c:	0c000985 	jal	2614 <itoh>
     d60:	00000000 	nop
     d64:	ae020000 	sw	v0,0(s0)
     d68:	3c020001 	lui	v0,0x1
     d6c:	24428c0c 	addiu	v0,v0,-29684
     d70:	ae130000 	sw	s3,0(s0)
     d74:	02202021 	move	a0,s1
     d78:	ae020000 	sw	v0,0(s0)
     d7c:	0c000985 	jal	2614 <itoh>
     d80:	00000000 	nop
     d84:	ae020000 	sw	v0,0(s0)
     d88:	2402ffff 	li	v0,-1
     d8c:	ae130000 	sw	s3,0(s0)
     d90:	12420181 	beq	s2,v0,1398 <SeekInterruptHandler+0xb04>
     d94:	36020300 	ori	v0,s0,0x300
     d98:	8c500000 	lw	s0,0(v0)
     d9c:	0c00093a 	jal	24e8 <get_net_address>
     da0:	00108400 	sll	s0,s0,0x10
     da4:	3c0300ff 	lui	v1,0xff
     da8:	02038024 	and	s0,s0,v1
     dac:	02028025 	or	s0,s0,v0
     db0:	00122e00 	sll	a1,s2,0x18
     db4:	00b02825 	or	a1,a1,s0
     db8:	24040001 	li	a0,1
     dbc:	02203021 	move	a2,s1
     dc0:	0c001615 	jal	5854 <Seek>
     dc4:	02403821 	move	a3,s2
     dc8:	02202021 	move	a0,s1
     dcc:	0c00093e 	jal	24f8 <itoa>
     dd0:	3c102000 	lui	s0,0x2000
     dd4:	ae020000 	sw	v0,0(s0)
     dd8:	3c020001 	lui	v0,0x1
     ddc:	24428c50 	addiu	v0,v0,-29616
     de0:	02402021 	move	a0,s2
     de4:	ae130000 	sw	s3,0(s0)
     de8:	ae020000 	sw	v0,0(s0)
     dec:	0c00093e 	jal	24f8 <itoa>
     df0:	00000000 	nop
     df4:	ae020000 	sw	v0,0(s0)
     df8:	3c020001 	lui	v0,0x1
     dfc:	24428c60 	addiu	v0,v0,-29600
     e00:	ae020000 	sw	v0,0(s0)
     e04:	36030300 	ori	v1,s0,0x300
     e08:	8c640000 	lw	a0,0(v1)
     e0c:	0c00093e 	jal	24f8 <itoa>
     e10:	00000000 	nop
     e14:	ae020000 	sw	v0,0(s0)
     e18:	ae130000 	sw	s3,0(s0)
     e1c:	08000263 	j	98c <SeekInterruptHandler+0xf8>
     e20:	00000000 	nop
     e24:	3c030001 	lui	v1,0x1
     e28:	3c050001 	lui	a1,0x1
     e2c:	3c022000 	lui	v0,0x2000
     e30:	24a59324 	addiu	a1,a1,-27868
     e34:	24638c98 	addiu	v1,v1,-29544
     e38:	ac430000 	sw	v1,0(v0)
     e3c:	02202021 	move	a0,s1
     e40:	ac450000 	sw	a1,0(v0)
     e44:	0c000d9e 	jal	3678 <get_application_ptr>
     e48:	00000000 	nop
     e4c:	8c450008 	lw	a1,8(v0)
     e50:	00000000 	nop
     e54:	18a00129 	blez	a1,12fc <SeekInterruptHandler+0xa68>
     e58:	00408021 	move	s0,v0
     e5c:	3c020005 	lui	v0,0x5
     e60:	8c4398c4 	lw	v1,-26428(v0)
     e64:	3c020005 	lui	v0,0x5
     e68:	00032140 	sll	a0,v1,0x5
     e6c:	00031880 	sll	v1,v1,0x2
     e70:	00832023 	subu	a0,a0,v1
     e74:	244297c4 	addiu	v0,v0,-26684
     e78:	3c030005 	lui	v1,0x5
     e7c:	00822021 	addu	a0,a0,v0
     e80:	2468149c 	addiu	t0,v1,5276
     e84:	02003021 	move	a2,s0
     e88:	00003821 	move	a3,zero
     e8c:	080003aa 	j	ea8 <SeekInterruptHandler+0x614>
     e90:	2409ffff 	li	t1,-1
     e94:	24e70001 	addiu	a3,a3,1
     e98:	ad020000 	sw	v0,0(t0)
     e9c:	24c60078 	addiu	a2,a2,120
     ea0:	10e50116 	beq	a3,a1,12fc <SeekInterruptHandler+0xa68>
     ea4:	25080004 	addiu	t0,t0,4
     ea8:	8cc20030 	lw	v0,48(a2)
     eac:	00000000 	nop
     eb0:	1449fff8 	bne	v0,t1,e94 <SeekInterruptHandler+0x600>
     eb4:	00000000 	nop
     eb8:	8c820000 	lw	v0,0(a0)
     ebc:	8c830004 	lw	v1,4(a0)
     ec0:	00021200 	sll	v0,v0,0x8
     ec4:	080003a5 	j	e94 <SeekInterruptHandler+0x600>
     ec8:	00431025 	or	v0,v0,v1
     ecc:	00111102 	srl	v0,s1,0x4
     ed0:	3057000f 	andi	s7,v0,0xf
     ed4:	0c000d9e 	jal	3678 <get_application_ptr>
     ed8:	02e02021 	move	a0,s7
     edc:	00409821 	move	s3,v0
     ee0:	3225000f 	andi	a1,s1,0xf
     ee4:	00171200 	sll	v0,s7,0x8
     ee8:	00452821 	addu	a1,v0,a1
     eec:	0c000d09 	jal	3424 <set_task_allocated>
     ef0:	02602021 	move	a0,s3
     ef4:	00408021 	move	s0,v0
     ef8:	3c020001 	lui	v0,0x1
     efc:	02202021 	move	a0,s1
     f00:	24428cb4 	addiu	v0,v0,-29516
     f04:	3c112000 	lui	s1,0x2000
     f08:	ae220000 	sw	v0,0(s1)
     f0c:	0c000985 	jal	2614 <itoh>
     f10:	00000000 	nop
     f14:	ae220000 	sw	v0,0(s1)
     f18:	3c030001 	lui	v1,0x1
     f1c:	3c020001 	lui	v0,0x1
     f20:	24759324 	addiu	s5,v1,-27868
     f24:	24428cc8 	addiu	v0,v0,-29496
     f28:	02002021 	move	a0,s0
     f2c:	ae350000 	sw	s5,0(s1)
     f30:	ae220000 	sw	v0,0(s1)
     f34:	0c000985 	jal	2614 <itoh>
     f38:	00000000 	nop
     f3c:	ae220000 	sw	v0,0(s1)
     f40:	3c020001 	lui	v0,0x1
     f44:	24428cd0 	addiu	v0,v0,-29488
     f48:	ae350000 	sw	s5,0(s1)
     f4c:	36320300 	ori	s2,s1,0x300
     f50:	ae220000 	sw	v0,0(s1)
     f54:	8e440000 	lw	a0,0(s2)
     f58:	0c00093e 	jal	24f8 <itoa>
     f5c:	00000000 	nop
     f60:	ae220000 	sw	v0,0(s1)
     f64:	ae350000 	sw	s5,0(s1)
     f68:	8e620008 	lw	v0,8(s3)
     f6c:	00000000 	nop
     f70:	1602fe86 	bne	s0,v0,98c <SeekInterruptHandler+0xf8>
     f74:	3c020001 	lui	v0,0x1
     f78:	24428cd8 	addiu	v0,v0,-29480
     f7c:	02e02021 	move	a0,s7
     f80:	ae220000 	sw	v0,0(s1)
     f84:	0c00093e 	jal	24f8 <itoa>
     f88:	00000000 	nop
     f8c:	ae220000 	sw	v0,0(s1)
     f90:	3c020001 	lui	v0,0x1
     f94:	24428cf4 	addiu	v0,v0,-29452
     f98:	ae220000 	sw	v0,0(s1)
     f9c:	8e440000 	lw	a0,0(s2)
     fa0:	0c00093e 	jal	24f8 <itoa>
     fa4:	00000000 	nop
     fa8:	ae220000 	sw	v0,0(s1)
     fac:	ae350000 	sw	s5,0(s1)
     fb0:	8e6305b4 	lw	v1,1460(s3)
     fb4:	24020001 	li	v0,1
     fb8:	1462fe74 	bne	v1,v0,98c <SeekInterruptHandler+0xf8>
     fbc:	00000000 	nop
     fc0:	8e620008 	lw	v0,8(s3)
     fc4:	00000000 	nop
     fc8:	1840011f 	blez	v0,1448 <SeekInterruptHandler+0xbb4>
     fcc:	02609021 	move	s2,s3
     fd0:	00008821 	move	s1,zero
     fd4:	24100504 	li	s0,1284
     fd8:	0000a021 	move	s4,zero
     fdc:	8e440014 	lw	a0,20(s2)
     fe0:	0c001249 	jal	4924 <get_task_location>
     fe4:	00000000 	nop
     fe8:	00022203 	sra	a0,v0,0x8
     fec:	00402821 	move	a1,v0
     ff0:	00111203 	sra	v0,s1,0x8
     ff4:	0044102a 	slt	v0,v0,a0
     ff8:	10400005 	beqz	v0,1010 <SeekInterruptHandler+0x77c>
     ffc:	00101203 	sra	v0,s0,0x8
    1000:	322300ff 	andi	v1,s1,0xff
    1004:	30a20f00 	andi	v0,a1,0xf00
    1008:	00438825 	or	s1,v0,v1
    100c:	00101203 	sra	v0,s0,0x8
    1010:	0082102a 	slt	v0,a0,v0
    1014:	10400005 	beqz	v0,102c <SeekInterruptHandler+0x798>
    1018:	30a300ff 	andi	v1,a1,0xff
    101c:	320300ff 	andi	v1,s0,0xff
    1020:	30a20f00 	andi	v0,a1,0xf00
    1024:	00438025 	or	s0,v0,v1
    1028:	30a300ff 	andi	v1,a1,0xff
    102c:	322200ff 	andi	v0,s1,0xff
    1030:	0043102a 	slt	v0,v0,v1
    1034:	10400004 	beqz	v0,1048 <SeekInterruptHandler+0x7b4>
    1038:	320200ff 	andi	v0,s0,0xff
    103c:	32220f00 	andi	v0,s1,0xf00
    1040:	00628825 	or	s1,v1,v0
    1044:	320200ff 	andi	v0,s0,0xff
    1048:	0062102a 	slt	v0,v1,v0
    104c:	10400002 	beqz	v0,1058 <SeekInterruptHandler+0x7c4>
    1050:	32020f00 	andi	v0,s0,0xf00
    1054:	00628025 	or	s0,v1,v0
    1058:	8e620008 	lw	v0,8(s3)
    105c:	26940001 	addiu	s4,s4,1
    1060:	0282102a 	slt	v0,s4,v0
    1064:	1440ffdd 	bnez	v0,fdc <SeekInterruptHandler+0x748>
    1068:	26520078 	addiu	s2,s2,120
    106c:	00111103 	sra	v0,s1,0x4
    1070:	304200f0 	andi	v0,v0,0xf0
    1074:	3224000f 	andi	a0,s1,0xf
    1078:	00101903 	sra	v1,s0,0x4
    107c:	00822825 	or	a1,a0,v0
    1080:	306300f0 	andi	v1,v1,0xf0
    1084:	3202000f 	andi	v0,s0,0xf
    1088:	0062b025 	or	s6,v1,v0
    108c:	00a0a021 	move	s4,a1
    1090:	8e640000 	lw	a0,0(s3)
    1094:	0c001f9e 	jal	7e78 <set_RH_Address>
    1098:	3c112000 	lui	s1,0x2000
    109c:	3c020001 	lui	v0,0x1
    10a0:	24428d00 	addiu	v0,v0,-29440
    10a4:	ae220000 	sw	v0,0(s1)
    10a8:	36320300 	ori	s2,s1,0x300
    10ac:	8e440000 	lw	a0,0(s2)
    10b0:	0c00093e 	jal	24f8 <itoa>
    10b4:	00000000 	nop
    10b8:	ae220000 	sw	v0,0(s1)
    10bc:	ae350000 	sw	s5,0(s1)
    10c0:	8e500000 	lw	s0,0(s2)
    10c4:	0c00093a 	jal	24e8 <get_net_address>
    10c8:	00108400 	sll	s0,s0,0x10
    10cc:	3c0300ff 	lui	v1,0xff
    10d0:	02038024 	and	s0,s0,v1
    10d4:	00172e00 	sll	a1,s7,0x18
    10d8:	00b02825 	or	a1,a1,s0
    10dc:	00a22825 	or	a1,a1,v0
    10e0:	02c03021 	move	a2,s6
    10e4:	02803821 	move	a3,s4
    10e8:	0c001615 	jal	5854 <Seek>
    10ec:	24040007 	li	a0,7
    10f0:	08000263 	j	98c <SeekInterruptHandler+0xf8>
    10f4:	00000000 	nop
    10f8:	3243ffff 	andi	v1,s2,0xffff
    10fc:	3c020005 	lui	v0,0x5
    1100:	0c00093a 	jal	24e8 <get_net_address>
    1104:	ac439898 	sw	v1,-26472(v0)
    1108:	02402821 	move	a1,s2
    110c:	24040003 	li	a0,3
    1110:	00003021 	move	a2,zero
    1114:	0c001615 	jal	5854 <Seek>
    1118:	00003821 	move	a3,zero
    111c:	0c00002c 	jal	b0 <initialize_slaves>
    1120:	00000000 	nop
    1124:	08000263 	j	98c <SeekInterruptHandler+0xf8>
    1128:	00000000 	nop
    112c:	00113100 	sll	a2,s1,0x4
    1130:	3c020005 	lui	v0,0x5
    1134:	3223000f 	andi	v1,s1,0xf
    1138:	30c60f00 	andi	a2,a2,0xf00
    113c:	8c4498c4 	lw	a0,-26428(v0)
    1140:	00c33025 	or	a2,a2,v1
    1144:	0c00154f 	jal	553c <page_released>
    1148:	3245ffff 	andi	a1,s2,0xffff
    114c:	08000263 	j	98c <SeekInterruptHandler+0xf8>
    1150:	00000000 	nop
    1154:	3c020005 	lui	v0,0x5
    1158:	90439888 	lbu	v1,-26488(v0)
    115c:	00000000 	nop
    1160:	1060fe0a 	beqz	v1,98c <SeekInterruptHandler+0xf8>
    1164:	00003021 	move	a2,zero
    1168:	00003821 	move	a3,zero
    116c:	24040003 	li	a0,3
    1170:	0c001615 	jal	5854 <Seek>
    1174:	02402821 	move	a1,s2
    1178:	3c020005 	lui	v0,0x5
    117c:	8c4498c4 	lw	a0,-26428(v0)
    1180:	0c0013c6 	jal	4f18 <SearchCluster>
    1184:	02202821 	move	a1,s1
    1188:	3c030005 	lui	v1,0x5
    118c:	00408021 	move	s0,v0
    1190:	8c6297b8 	lw	v0,-26696(v1)
    1194:	02202821 	move	a1,s1
    1198:	00511023 	subu	v0,v0,s1
    119c:	02002021 	move	a0,s0
    11a0:	0c00135f 	jal	4d7c <allocate_cluster_resource>
    11a4:	ac6297b8 	sw	v0,-26696(v1)
    11a8:	00102140 	sll	a0,s0,0x5
    11ac:	3c020005 	lui	v0,0x5
    11b0:	00108080 	sll	s0,s0,0x2
    11b4:	00902023 	subu	a0,a0,s0
    11b8:	3c112000 	lui	s1,0x2000
    11bc:	244297c4 	addiu	v0,v0,-26684
    11c0:	00822021 	addu	a0,a0,v0
    11c4:	36230300 	ori	v1,s1,0x300
    11c8:	8c650000 	lw	a1,0(v1)
    11cc:	8c860000 	lw	a2,0(a0)
    11d0:	3c100005 	lui	s0,0x5
    11d4:	8c830004 	lw	v1,4(a0)
    11d8:	8e0298fc 	lw	v0,-26372(s0)
    11dc:	00052c00 	sll	a1,a1,0x10
    11e0:	00063200 	sll	a2,a2,0x8
    11e4:	00a22825 	or	a1,a1,v0
    11e8:	00c33025 	or	a2,a2,v1
    11ec:	3c020005 	lui	v0,0x5
    11f0:	24030001 	li	v1,1
    11f4:	02403821 	move	a3,s2
    11f8:	2404001b 	li	a0,27
    11fc:	0c001615 	jal	5854 <Seek>
    1200:	ac4398f8 	sw	v1,-26376(v0)
    1204:	8e0398fc 	lw	v1,-26372(s0)
    1208:	3c020001 	lui	v0,0x1
    120c:	24630001 	addiu	v1,v1,1
    1210:	24428d30 	addiu	v0,v0,-29392
    1214:	ae220000 	sw	v0,0(s1)
    1218:	08000263 	j	98c <SeekInterruptHandler+0xf8>
    121c:	ae0398fc 	sw	v1,-26372(s0)
    1220:	0c001fc2 	jal	7f08 <get_Secure_Zone_index>
    1224:	02202021 	move	a0,s1
    1228:	02202021 	move	a0,s1
    122c:	00408021 	move	s0,v0
    1230:	0c001fb0 	jal	7ec0 <get_AppID_with_RH_Address>
    1234:	2413ffff 	li	s3,-1
    1238:	12130071 	beq	s0,s3,1400 <SeekInterruptHandler+0xb6c>
    123c:	0040a021 	move	s4,v0
    1240:	3c020005 	lui	v0,0x5
    1244:	24422960 	addiu	v0,v0,10592
    1248:	00108140 	sll	s0,s0,0x5
    124c:	02028021 	addu	s0,s0,v0
    1250:	8e120018 	lw	s2,24(s0)
    1254:	0c00093a 	jal	24e8 <get_net_address>
    1258:	00000000 	nop
    125c:	8e030018 	lw	v1,24(s0)
    1260:	00000000 	nop
    1264:	10730057 	beq	v1,s3,13c4 <SeekInterruptHandler+0xb30>
    1268:	3c022000 	lui	v0,0x2000
    126c:	34420300 	ori	v0,v0,0x300
    1270:	8c500000 	lw	s0,0(v0)
    1274:	0c00093a 	jal	24e8 <get_net_address>
    1278:	00108400 	sll	s0,s0,0x10
    127c:	3244ffff 	andi	a0,s2,0xffff
    1280:	3c0300ff 	lui	v1,0xff
    1284:	02038024 	and	s0,s0,v1
    1288:	00123d03 	sra	a3,s2,0x14
    128c:	00121c03 	sra	v1,s2,0x10
    1290:	00042103 	sra	a0,a0,0x4
    1294:	02028025 	or	s0,s0,v0
    1298:	00142e00 	sll	a1,s4,0x18
    129c:	308400f0 	andi	a0,a0,0xf0
    12a0:	3063000f 	andi	v1,v1,0xf
    12a4:	3246000f 	andi	a2,s2,0xf
    12a8:	30e700f0 	andi	a3,a3,0xf0
    12ac:	00863025 	or	a2,a0,a2
    12b0:	00b02825 	or	a1,a1,s0
    12b4:	00e33825 	or	a3,a3,v1
    12b8:	0c001615 	jal	5854 <Seek>
    12bc:	2404001e 	li	a0,30
    12c0:	08000263 	j	98c <SeekInterruptHandler+0xf8>
    12c4:	00000000 	nop
    12c8:	3c020001 	lui	v0,0x1
    12cc:	3c102000 	lui	s0,0x2000
    12d0:	24428d1c 	addiu	v0,v0,-29412
    12d4:	02402021 	move	a0,s2
    12d8:	ae020000 	sw	v0,0(s0)
    12dc:	0c000985 	jal	2614 <itoh>
    12e0:	00000000 	nop
    12e4:	ae020000 	sw	v0,0(s0)
    12e8:	3c020001 	lui	v0,0x1
    12ec:	24429324 	addiu	v0,v0,-27868
    12f0:	ae020000 	sw	v0,0(s0)
    12f4:	08000263 	j	98c <SeekInterruptHandler+0xf8>
    12f8:	00000000 	nop
    12fc:	3c020005 	lui	v0,0x5
    1300:	90439888 	lbu	v1,-26488(v0)
    1304:	00000000 	nop
    1308:	10600028 	beqz	v1,13ac <SeekInterruptHandler+0xb18>
    130c:	3c020005 	lui	v0,0x5
    1310:	8c4398c4 	lw	v1,-26428(v0)
    1314:	3c020005 	lui	v0,0x5
    1318:	00032140 	sll	a0,v1,0x5
    131c:	00031880 	sll	v1,v1,0x2
    1320:	244297c4 	addiu	v0,v0,-26684
    1324:	00832023 	subu	a0,a0,v1
    1328:	00822021 	addu	a0,a0,v0
    132c:	8c860000 	lw	a2,0(a0)
    1330:	8c820004 	lw	v0,4(a0)
    1334:	00063200 	sll	a2,a2,0x8
    1338:	8e040000 	lw	a0,0(s0)
    133c:	0c0000cd 	jal	334 <handle_app_terminated>
    1340:	00c23025 	or	a2,a2,v0
    1344:	8e0405b8 	lw	a0,1464(s0)
    1348:	0c002159 	jal	8564 <free_Secure_Zone>
    134c:	00000000 	nop
    1350:	8e040000 	lw	a0,0(s0)
    1354:	0c000dc1 	jal	3704 <remove_application>
    1358:	00000000 	nop
    135c:	08000263 	j	98c <SeekInterruptHandler+0xf8>
    1360:	00000000 	nop
    1364:	8e22989c 	lw	v0,-26468(s1)
    1368:	00000000 	nop
    136c:	00021900 	sll	v1,v0,0x4
    1370:	00021080 	sll	v0,v0,0x2
    1374:	00621823 	subu	v1,v1,v0
    1378:	00032180 	sll	a0,v1,0x6
    137c:	00641821 	addu	v1,v1,a0
    1380:	00721821 	addu	v1,v1,s2
    1384:	8c640084 	lw	a0,132(v1)
    1388:	0c0015a9 	jal	56a4 <ClearSlotSourceRouting>
    138c:	00000000 	nop
    1390:	08000263 	j	98c <SeekInterruptHandler+0xf8>
    1394:	00000000 	nop
    1398:	3c020001 	lui	v0,0x1
    139c:	24428c18 	addiu	v0,v0,-29672
    13a0:	ae020000 	sw	v0,0(s0)
    13a4:	08000373 	j	dcc <SeekInterruptHandler+0x538>
    13a8:	02202021 	move	a0,s1
    13ac:	3c050005 	lui	a1,0x5
    13b0:	24a5149c 	addiu	a1,a1,5276
    13b4:	0c000205 	jal	814 <send_app_terminated>
    13b8:	02002021 	move	a0,s0
    13bc:	080004d1 	j	1344 <SeekInterruptHandler+0xab0>
    13c0:	00000000 	nop
    13c4:	34420300 	ori	v0,v0,0x300
    13c8:	8c500000 	lw	s0,0(v0)
    13cc:	0c00093a 	jal	24e8 <get_net_address>
    13d0:	00108400 	sll	s0,s0,0x10
    13d4:	3c0300ff 	lui	v1,0xff
    13d8:	02038024 	and	s0,s0,v1
    13dc:	02028025 	or	s0,s0,v0
    13e0:	00142e00 	sll	a1,s4,0x18
    13e4:	02203021 	move	a2,s1
    13e8:	00b02825 	or	a1,a1,s0
    13ec:	2404001e 	li	a0,30
    13f0:	0c001615 	jal	5854 <Seek>
    13f4:	02203821 	move	a3,s1
    13f8:	08000263 	j	98c <SeekInterruptHandler+0xf8>
    13fc:	00000000 	nop
    1400:	3c020001 	lui	v0,0x1
    1404:	3c102000 	lui	s0,0x2000
    1408:	24428c70 	addiu	v0,v0,-29584
    140c:	02202021 	move	a0,s1
    1410:	ae020000 	sw	v0,0(s0)
    1414:	0c000985 	jal	2614 <itoh>
    1418:	00000000 	nop
    141c:	ae020000 	sw	v0,0(s0)
    1420:	3c020001 	lui	v0,0x1
    1424:	24429324 	addiu	v0,v0,-27868
    1428:	ae020000 	sw	v0,0(s0)
    142c:	0800050b 	j	142c <SeekInterruptHandler+0xb98>
    1430:	00000000 	nop
    1434:	02402821 	move	a1,s2
    1438:	0c00154f 	jal	553c <page_released>
    143c:	02203021 	move	a2,s1
    1440:	08000310 	j	c40 <SeekInterruptHandler+0x3ac>
    1444:	3c020001 	lui	v0,0x1
    1448:	00002821 	move	a1,zero
    144c:	24160054 	li	s6,84
    1450:	08000424 	j	1090 <SeekInterruptHandler+0x7fc>
    1454:	0000a021 	move	s4,zero
    1458:	8c500000 	lw	s0,0(v0)
    145c:	0c00093a 	jal	24e8 <get_net_address>
    1460:	00108400 	sll	s0,s0,0x10
    1464:	8e6705b8 	lw	a3,1464(s3)
    1468:	02022825 	or	a1,s0,v0
    146c:	02803021 	move	a2,s4
    1470:	0c001615 	jal	5854 <Seek>
    1474:	2404000a 	li	a0,10
    1478:	08000263 	j	98c <SeekInterruptHandler+0xf8>
    147c:	00000000 	nop
    1480:	3c050005 	lui	a1,0x5
    1484:	24a5149c 	addiu	a1,a1,5276
    1488:	0c000205 	jal	814 <send_app_terminated>
    148c:	02602021 	move	a0,s3
    1490:	08000260 	j	980 <SeekInterruptHandler+0xec>
    1494:	00000000 	nop

00001498 <send_full_task_migration>:
    1498:	27bdffd8 	addiu	sp,sp,-40
    149c:	afbf0020 	sw	ra,32(sp)
    14a0:	afb3001c 	sw	s3,28(sp)
    14a4:	afb20018 	sw	s2,24(sp)
    14a8:	00c09821 	move	s3,a2
    14ac:	00a09021 	move	s2,a1
    14b0:	afb10014 	sw	s1,20(sp)
    14b4:	afb00010 	sw	s0,16(sp)
    14b8:	0c000a75 	jal	29d4 <get_service_header_slot>
    14bc:	00808821 	move	s1,a0
    14c0:	24030210 	li	v1,528
    14c4:	ac430084 	sw	v1,132(v0)
    14c8:	00002821 	move	a1,zero
    14cc:	00003021 	move	a2,zero
    14d0:	00402021 	move	a0,v0
    14d4:	ac52007c 	sw	s2,124(v0)
    14d8:	ac510088 	sw	s1,136(v0)
    14dc:	0c000c4d 	jal	3134 <send_packet>
    14e0:	ac53009c 	sw	s3,156(v0)
    14e4:	3c020001 	lui	v0,0x1
    14e8:	3c102000 	lui	s0,0x2000
    14ec:	24428d8c 	addiu	v0,v0,-29300
    14f0:	02202021 	move	a0,s1
    14f4:	ae020000 	sw	v0,0(s0)
    14f8:	0c000985 	jal	2614 <itoh>
    14fc:	00000000 	nop
    1500:	ae020000 	sw	v0,0(s0)
    1504:	3c020001 	lui	v0,0x1
    1508:	24428dac 	addiu	v0,v0,-29268
    150c:	02402021 	move	a0,s2
    1510:	ae020000 	sw	v0,0(s0)
    1514:	0c000985 	jal	2614 <itoh>
    1518:	00000000 	nop
    151c:	ae020000 	sw	v0,0(s0)
    1520:	3c020001 	lui	v0,0x1
    1524:	24429324 	addiu	v0,v0,-27868
    1528:	ae020000 	sw	v0,0(s0)
    152c:	02202021 	move	a0,s1
    1530:	02402821 	move	a1,s2
    1534:	0c000e36 	jal	38d8 <change_task_location_TCB>
    1538:	02603021 	move	a2,s3
    153c:	8fbf0020 	lw	ra,32(sp)
    1540:	8fb3001c 	lw	s3,28(sp)
    1544:	8fb20018 	lw	s2,24(sp)
    1548:	8fb10014 	lw	s1,20(sp)
    154c:	8fb00010 	lw	s0,16(sp)
    1550:	24020001 	li	v0,1
    1554:	03e00008 	jr	ra
    1558:	27bd0028 	addiu	sp,sp,40

0000155c <send_app_allocation_map>:
    155c:	27bdffd8 	addiu	sp,sp,-40
    1560:	afbf0024 	sw	ra,36(sp)
    1564:	afb40020 	sw	s4,32(sp)
    1568:	afb3001c 	sw	s3,28(sp)
    156c:	afb20018 	sw	s2,24(sp)
    1570:	afb10014 	sw	s1,20(sp)
    1574:	00c09021 	move	s2,a2
    1578:	afb00010 	sw	s0,16(sp)
    157c:	0080a021 	move	s4,a0
    1580:	0c000a75 	jal	29d4 <get_service_header_slot>
    1584:	00a09821 	move	s3,a1
    1588:	00408821 	move	s1,v0
    158c:	3c100005 	lui	s0,0x5
    1590:	3c020005 	lui	v0,0x5
    1594:	8c4398c4 	lw	v1,-26428(v0)
    1598:	8e029898 	lw	v0,-26472(s0)
    159c:	00032140 	sll	a0,v1,0x5
    15a0:	ae22007c 	sw	v0,124(s1)
    15a4:	00031880 	sll	v1,v1,0x2
    15a8:	3c020005 	lui	v0,0x5
    15ac:	00832023 	subu	a0,a0,v1
    15b0:	244297c4 	addiu	v0,v0,-26684
    15b4:	24030240 	li	v1,576
    15b8:	ae230084 	sw	v1,132(s1)
    15bc:	00822021 	addu	a0,a0,v0
    15c0:	8c830000 	lw	v1,0(a0)
    15c4:	8c820004 	lw	v0,4(a0)
    15c8:	00031a00 	sll	v1,v1,0x8
    15cc:	00621825 	or	v1,v1,v0
    15d0:	ae23008c 	sw	v1,140(s1)
    15d4:	0c00093a 	jal	24e8 <get_net_address>
    15d8:	ae32009c 	sw	s2,156(s1)
    15dc:	8e039898 	lw	v1,-26472(s0)
    15e0:	00000000 	nop
    15e4:	10430006 	beq	v0,v1,1600 <send_app_allocation_map+0xa4>
    15e8:	02202021 	move	a0,s1
    15ec:	8e860008 	lw	a2,8(s4)
    15f0:	00000000 	nop
    15f4:	00063080 	sll	a2,a2,0x2
    15f8:	0c000c4d 	jal	3134 <send_packet>
    15fc:	02602821 	move	a1,s3
    1600:	02202021 	move	a0,s1
    1604:	02602821 	move	a1,s3
    1608:	00123080 	sll	a2,s2,0x2
    160c:	0c000b8c 	jal	2e30 <send_packet_io>
    1610:	2407005a 	li	a3,90
    1614:	3c022000 	lui	v0,0x2000
    1618:	34430250 	ori	v1,v0,0x250
    161c:	8c620000 	lw	v0,0(v1)
    1620:	00000000 	nop
    1624:	1440fffd 	bnez	v0,161c <send_app_allocation_map+0xc0>
    1628:	00000000 	nop
    162c:	8fbf0024 	lw	ra,36(sp)
    1630:	8fb40020 	lw	s4,32(sp)
    1634:	8fb3001c 	lw	s3,28(sp)
    1638:	8fb20018 	lw	s2,24(sp)
    163c:	8fb10014 	lw	s1,20(sp)
    1640:	8fb00010 	lw	s0,16(sp)
    1644:	03e00008 	jr	ra
    1648:	27bd0028 	addiu	sp,sp,40

0000164c <request_task_of_application>:
    164c:	27bdfe88 	addiu	sp,sp,-376
    1650:	3c020001 	lui	v0,0x1
    1654:	afb00150 	sw	s0,336(sp)
    1658:	24428dbc 	addiu	v0,v0,-29252
    165c:	3c102000 	lui	s0,0x2000
    1660:	afbf0174 	sw	ra,372(sp)
    1664:	afb7016c 	sw	s7,364(sp)
    1668:	afb60168 	sw	s6,360(sp)
    166c:	afb40160 	sw	s4,352(sp)
    1670:	afb10154 	sw	s1,340(sp)
    1674:	afbe0170 	sw	s8,368(sp)
    1678:	afb50164 	sw	s5,356(sp)
    167c:	afb3015c 	sw	s3,348(sp)
    1680:	afb20158 	sw	s2,344(sp)
    1684:	ae020000 	sw	v0,0(s0)
    1688:	0c000985 	jal	2614 <itoh>
    168c:	0080b821 	move	s7,a0
    1690:	3c030001 	lui	v1,0x1
    1694:	24769324 	addiu	s6,v1,-27868
    1698:	02e02021 	move	a0,s7
    169c:	ae020000 	sw	v0,0(s0)
    16a0:	ae160000 	sw	s6,0(s0)
    16a4:	0c001199 	jal	4664 <get_task_id_processor>
    16a8:	00000000 	nop
    16ac:	3051ffff 	andi	s1,v0,0xffff
    16b0:	3c020001 	lui	v0,0x1
    16b4:	24428ddc 	addiu	v0,v0,-29220
    16b8:	02202021 	move	a0,s1
    16bc:	ae020000 	sw	v0,0(s0)
    16c0:	0c000985 	jal	2614 <itoh>
    16c4:	00000000 	nop
    16c8:	ae020000 	sw	v0,0(s0)
    16cc:	00112202 	srl	a0,s1,0x8
    16d0:	ae160000 	sw	s6,0(s0)
    16d4:	0c000d9e 	jal	3678 <get_application_ptr>
    16d8:	00000000 	nop
    16dc:	8c440008 	lw	a0,8(v0)
    16e0:	00000000 	nop
    16e4:	18800068 	blez	a0,1888 <request_task_of_application+0x23c>
    16e8:	0040a021 	move	s4,v0
    16ec:	24510014 	addiu	s1,v0,20
    16f0:	8e230014 	lw	v1,20(s1)
    16f4:	2402ffff 	li	v0,-1
    16f8:	10620058 	beq	v1,v0,185c <request_task_of_application+0x210>
    16fc:	00009821 	move	s3,zero
    1700:	0000a821 	move	s5,zero
    1704:	00009021 	move	s2,zero
    1708:	080005cf 	j	173c <request_task_of_application+0xf0>
    170c:	27be0010 	addiu	s8,sp,16
    1710:	001210c0 	sll	v0,s2,0x3
    1714:	001219c0 	sll	v1,s2,0x7
    1718:	00621823 	subu	v1,v1,v0
    171c:	00741821 	addu	v1,v1,s4
    1720:	0244102a 	slt	v0,s2,a0
    1724:	1040003b 	beqz	v0,1814 <request_task_of_application+0x1c8>
    1728:	24710014 	addiu	s1,v1,20
    172c:	8e230014 	lw	v1,20(s1)
    1730:	2402ffff 	li	v0,-1
    1734:	1062004a 	beq	v1,v0,1860 <request_task_of_application+0x214>
    1738:	3c020001 	lui	v0,0x1
    173c:	8e220020 	lw	v0,32(s1)
    1740:	00000000 	nop
    1744:	1440fff2 	bnez	v0,1710 <request_task_of_application+0xc4>
    1748:	26520001 	addiu	s2,s2,1
    174c:	16e3fff0 	bne	s7,v1,1710 <request_task_of_application+0xc4>
    1750:	3c102000 	lui	s0,0x2000
    1754:	3c020001 	lui	v0,0x1
    1758:	24428e10 	addiu	v0,v0,-29168
    175c:	ae020000 	sw	v0,0(s0)
    1760:	3c020001 	lui	v0,0x1
    1764:	24030001 	li	v1,1
    1768:	24428e38 	addiu	v0,v0,-29128
    176c:	ae230020 	sw	v1,32(s1)
    1770:	ae020000 	sw	v0,0(s0)
    1774:	8e240000 	lw	a0,0(s1)
    1778:	0c000985 	jal	2614 <itoh>
    177c:	26b50001 	addiu	s5,s5,1
    1780:	ae020000 	sw	v0,0(s0)
    1784:	3c020001 	lui	v0,0x1
    1788:	24428dac 	addiu	v0,v0,-29268
    178c:	ae020000 	sw	v0,0(s0)
    1790:	8e240014 	lw	a0,20(s1)
    1794:	0c000985 	jal	2614 <itoh>
    1798:	00000000 	nop
    179c:	ae020000 	sw	v0,0(s0)
    17a0:	ae160000 	sw	s6,0(s0)
    17a4:	8e240000 	lw	a0,0(s1)
    17a8:	00131080 	sll	v0,s3,0x2
    17ac:	005e1021 	addu	v0,v0,s8
    17b0:	ac440000 	sw	a0,0(v0)
    17b4:	26630001 	addiu	v1,s3,1
    17b8:	8e240014 	lw	a0,20(s1)
    17bc:	00031880 	sll	v1,v1,0x2
    17c0:	007e1821 	addu	v1,v1,s8
    17c4:	ac640000 	sw	a0,0(v1)
    17c8:	26620002 	addiu	v0,s3,2
    17cc:	8e240010 	lw	a0,16(s1)
    17d0:	00021080 	sll	v0,v0,0x2
    17d4:	005e1021 	addu	v0,v0,s8
    17d8:	ac440000 	sw	a0,0(v0)
    17dc:	26630003 	addiu	v1,s3,3
    17e0:	8e220004 	lw	v0,4(s1)
    17e4:	00031880 	sll	v1,v1,0x2
    17e8:	007e1821 	addu	v1,v1,s8
    17ec:	ac620000 	sw	v0,0(v1)
    17f0:	8e840008 	lw	a0,8(s4)
    17f4:	001210c0 	sll	v0,s2,0x3
    17f8:	001219c0 	sll	v1,s2,0x7
    17fc:	00621823 	subu	v1,v1,v0
    1800:	00741821 	addu	v1,v1,s4
    1804:	0244102a 	slt	v0,s2,a0
    1808:	26730004 	addiu	s3,s3,4
    180c:	1440ffc7 	bnez	v0,172c <request_task_of_application+0xe0>
    1810:	24710014 	addiu	s1,v1,20
    1814:	0c000184 	jal	610 <send_task_release>
    1818:	02802021 	move	a0,s4
    181c:	02802021 	move	a0,s4
    1820:	03c02821 	move	a1,s8
    1824:	0c000557 	jal	155c <send_app_allocation_map>
    1828:	02a03021 	move	a2,s5
    182c:	8fbf0174 	lw	ra,372(sp)
    1830:	8fbe0170 	lw	s8,368(sp)
    1834:	8fb7016c 	lw	s7,364(sp)
    1838:	8fb60168 	lw	s6,360(sp)
    183c:	8fb50164 	lw	s5,356(sp)
    1840:	8fb40160 	lw	s4,352(sp)
    1844:	8fb3015c 	lw	s3,348(sp)
    1848:	8fb20158 	lw	s2,344(sp)
    184c:	8fb10154 	lw	s1,340(sp)
    1850:	8fb00150 	lw	s0,336(sp)
    1854:	03e00008 	jr	ra
    1858:	27bd0178 	addiu	sp,sp,376
    185c:	3c020001 	lui	v0,0x1
    1860:	3c102000 	lui	s0,0x2000
    1864:	24428df0 	addiu	v0,v0,-29200
    1868:	ae020000 	sw	v0,0(s0)
    186c:	8e240000 	lw	a0,0(s1)
    1870:	0c00093e 	jal	24f8 <itoa>
    1874:	00000000 	nop
    1878:	ae020000 	sw	v0,0(s0)
    187c:	ae160000 	sw	s6,0(s0)
    1880:	08000620 	j	1880 <request_task_of_application+0x234>
    1884:	00000000 	nop
    1888:	0000a821 	move	s5,zero
    188c:	08000605 	j	1814 <request_task_of_application+0x1c8>
    1890:	27be0010 	addiu	s8,sp,16

00001894 <request_application>:
    1894:	27bdffc8 	addiu	sp,sp,-56
    1898:	afbe0030 	sw	s8,48(sp)
    189c:	afb7002c 	sw	s7,44(sp)
    18a0:	afb50024 	sw	s5,36(sp)
    18a4:	afb40020 	sw	s4,32(sp)
    18a8:	afbf0034 	sw	ra,52(sp)
    18ac:	afb60028 	sw	s6,40(sp)
    18b0:	afb3001c 	sw	s3,28(sp)
    18b4:	afb20018 	sw	s2,24(sp)
    18b8:	afb10014 	sw	s1,20(sp)
    18bc:	afb00010 	sw	s0,16(sp)
    18c0:	3c020001 	lui	v0,0x1
    18c4:	0080a021 	move	s4,a0
    18c8:	24428e54 	addiu	v0,v0,-29100
    18cc:	8c840008 	lw	a0,8(a0)
    18d0:	3c032000 	lui	v1,0x2000
    18d4:	ac620000 	sw	v0,0(v1)
    18d8:	3c050005 	lui	a1,0x5
    18dc:	8ca298f0 	lw	v0,-26384(a1)
    18e0:	00042100 	sll	a0,a0,0x4
    18e4:	24840008 	addiu	a0,a0,8
    18e8:	8e830008 	lw	v1,8(s4)
    18ec:	03a0f021 	move	s8,sp
    18f0:	2442ffff 	addiu	v0,v0,-1
    18f4:	03a0b821 	move	s7,sp
    18f8:	03a4e823 	subu	sp,sp,a0
    18fc:	aca298f0 	sw	v0,-26384(a1)
    1900:	18600069 	blez	v1,1aa8 <request_application+0x214>
    1904:	27b50010 	addiu	s5,sp,16
    1908:	26910014 	addiu	s1,s4,20
    190c:	8e240014 	lw	a0,20(s1)
    1910:	2402ffff 	li	v0,-1
    1914:	10820057 	beq	a0,v0,1a74 <request_application+0x1e0>
    1918:	00009821 	move	s3,zero
    191c:	0000b021 	move	s6,zero
    1920:	08000655 	j	1954 <request_application+0xc0>
    1924:	00009021 	move	s2,zero
    1928:	001219c0 	sll	v1,s2,0x7
    192c:	00621823 	subu	v1,v1,v0
    1930:	8e820008 	lw	v0,8(s4)
    1934:	00741821 	addu	v1,v1,s4
    1938:	0242102a 	slt	v0,s2,v0
    193c:	10400039 	beqz	v0,1a24 <request_application+0x190>
    1940:	24710014 	addiu	s1,v1,20
    1944:	8e240014 	lw	a0,20(s1)
    1948:	2402ffff 	li	v0,-1
    194c:	1082004a 	beq	a0,v0,1a78 <request_application+0x1e4>
    1950:	3c020001 	lui	v0,0x1
    1954:	3c102000 	lui	s0,0x2000
    1958:	0c0010de 	jal	4378 <proc_is_migrating>
    195c:	26520001 	addiu	s2,s2,1
    1960:	1440fff1 	bnez	v0,1928 <request_application+0x94>
    1964:	001210c0 	sll	v0,s2,0x3
    1968:	3c020001 	lui	v0,0x1
    196c:	24428e38 	addiu	v0,v0,-29128
    1970:	ae020000 	sw	v0,0(s0)
    1974:	8e240000 	lw	a0,0(s1)
    1978:	0c000985 	jal	2614 <itoh>
    197c:	26d60001 	addiu	s6,s6,1
    1980:	ae020000 	sw	v0,0(s0)
    1984:	3c020001 	lui	v0,0x1
    1988:	24428dac 	addiu	v0,v0,-29268
    198c:	ae020000 	sw	v0,0(s0)
    1990:	8e240014 	lw	a0,20(s1)
    1994:	0c000985 	jal	2614 <itoh>
    1998:	00000000 	nop
    199c:	ae020000 	sw	v0,0(s0)
    19a0:	3c020001 	lui	v0,0x1
    19a4:	24429324 	addiu	v0,v0,-27868
    19a8:	ae020000 	sw	v0,0(s0)
    19ac:	8e240000 	lw	a0,0(s1)
    19b0:	00131080 	sll	v0,s3,0x2
    19b4:	00551021 	addu	v0,v0,s5
    19b8:	ac440000 	sw	a0,0(v0)
    19bc:	26630001 	addiu	v1,s3,1
    19c0:	8e240014 	lw	a0,20(s1)
    19c4:	00031880 	sll	v1,v1,0x2
    19c8:	00751821 	addu	v1,v1,s5
    19cc:	ac640000 	sw	a0,0(v1)
    19d0:	26620002 	addiu	v0,s3,2
    19d4:	8e240010 	lw	a0,16(s1)
    19d8:	00021080 	sll	v0,v0,0x2
    19dc:	00551021 	addu	v0,v0,s5
    19e0:	ac440000 	sw	a0,0(v0)
    19e4:	26630003 	addiu	v1,s3,3
    19e8:	8e240004 	lw	a0,4(s1)
    19ec:	00031880 	sll	v1,v1,0x2
    19f0:	00751821 	addu	v1,v1,s5
    19f4:	24020001 	li	v0,1
    19f8:	ac640000 	sw	a0,0(v1)
    19fc:	ae220020 	sw	v0,32(s1)
    1a00:	001219c0 	sll	v1,s2,0x7
    1a04:	001210c0 	sll	v0,s2,0x3
    1a08:	00621823 	subu	v1,v1,v0
    1a0c:	8e820008 	lw	v0,8(s4)
    1a10:	00741821 	addu	v1,v1,s4
    1a14:	0242102a 	slt	v0,s2,v0
    1a18:	26730004 	addiu	s3,s3,4
    1a1c:	1440ffc9 	bnez	v0,1944 <request_application+0xb0>
    1a20:	24710014 	addiu	s1,v1,20
    1a24:	0c000184 	jal	610 <send_task_release>
    1a28:	02802021 	move	a0,s4
    1a2c:	02802021 	move	a0,s4
    1a30:	02a02821 	move	a1,s5
    1a34:	0c000557 	jal	155c <send_app_allocation_map>
    1a38:	02c03021 	move	a2,s6
    1a3c:	02e0e821 	move	sp,s7
    1a40:	03c0e821 	move	sp,s8
    1a44:	8fbf0034 	lw	ra,52(sp)
    1a48:	8fbe0030 	lw	s8,48(sp)
    1a4c:	8fb7002c 	lw	s7,44(sp)
    1a50:	8fb60028 	lw	s6,40(sp)
    1a54:	8fb50024 	lw	s5,36(sp)
    1a58:	8fb40020 	lw	s4,32(sp)
    1a5c:	8fb3001c 	lw	s3,28(sp)
    1a60:	8fb20018 	lw	s2,24(sp)
    1a64:	8fb10014 	lw	s1,20(sp)
    1a68:	8fb00010 	lw	s0,16(sp)
    1a6c:	03e00008 	jr	ra
    1a70:	27bd0038 	addiu	sp,sp,56
    1a74:	3c020001 	lui	v0,0x1
    1a78:	3c102000 	lui	s0,0x2000
    1a7c:	24428df0 	addiu	v0,v0,-29200
    1a80:	ae020000 	sw	v0,0(s0)
    1a84:	8e240000 	lw	a0,0(s1)
    1a88:	0c00093e 	jal	24f8 <itoa>
    1a8c:	00000000 	nop
    1a90:	ae020000 	sw	v0,0(s0)
    1a94:	3c020001 	lui	v0,0x1
    1a98:	24429324 	addiu	v0,v0,-27868
    1a9c:	ae020000 	sw	v0,0(s0)
    1aa0:	080006a8 	j	1aa0 <request_application+0x20c>
    1aa4:	00000000 	nop
    1aa8:	08000689 	j	1a24 <request_application+0x190>
    1aac:	0000b021 	move	s6,zero

00001ab0 <handle_new_app>:
    1ab0:	27bdffc8 	addiu	sp,sp,-56
    1ab4:	3c020001 	lui	v0,0x1
    1ab8:	afb3001c 	sw	s3,28(sp)
    1abc:	24428e64 	addiu	v0,v0,-29084
    1ac0:	3c132000 	lui	s3,0x2000
    1ac4:	afbf0030 	sw	ra,48(sp)
    1ac8:	afbe002c 	sw	s8,44(sp)
    1acc:	afb60028 	sw	s6,40(sp)
    1ad0:	afb50024 	sw	s5,36(sp)
    1ad4:	afb40020 	sw	s4,32(sp)
    1ad8:	afb20018 	sw	s2,24(sp)
    1adc:	afb10014 	sw	s1,20(sp)
    1ae0:	afb00010 	sw	s0,16(sp)
    1ae4:	36760300 	ori	s6,s3,0x300
    1ae8:	ae620000 	sw	v0,0(s3)
    1aec:	8ec20000 	lw	v0,0(s6)
    1af0:	00c08021 	move	s0,a2
    1af4:	03a0f021 	move	s8,sp
    1af8:	00809021 	move	s2,a0
    1afc:	0c00093e 	jal	24f8 <itoa>
    1b00:	00402021 	move	a0,v0
    1b04:	00101880 	sll	v1,s0,0x2
    1b08:	2463000e 	addiu	v1,v1,14
    1b0c:	000318c2 	srl	v1,v1,0x3
    1b10:	000318c0 	sll	v1,v1,0x3
    1b14:	03a0a021 	move	s4,sp
    1b18:	03a3e823 	subu	sp,sp,v1
    1b1c:	3c030001 	lui	v1,0x1
    1b20:	24759324 	addiu	s5,v1,-27868
    1b24:	27b10010 	addiu	s1,sp,16
    1b28:	02202021 	move	a0,s1
    1b2c:	02002821 	move	a1,s0
    1b30:	ae620000 	sw	v0,0(s3)
    1b34:	ae750000 	sw	s5,0(s3)
    1b38:	0c000a8e 	jal	2a38 <DMNI_read_data>
    1b3c:	00000000 	nop
    1b40:	02202821 	move	a1,s1
    1b44:	0c000dcf 	jal	373c <read_and_create_application>
    1b48:	02402021 	move	a0,s2
    1b4c:	8c4305b4 	lw	v1,1460(v0)
    1b50:	00408821 	move	s1,v0
    1b54:	24020001 	li	v0,1
    1b58:	10620041 	beq	v1,v0,1c60 <handle_new_app+0x1b0>
    1b5c:	3c020005 	lui	v0,0x5
    1b60:	8e270008 	lw	a3,8(s1)
    1b64:	00000000 	nop
    1b68:	18e00012 	blez	a3,1bb4 <handle_new_app+0x104>
    1b6c:	3c090005 	lui	t1,0x5
    1b70:	3c090005 	lui	t1,0x5
    1b74:	8d2398c4 	lw	v1,-26428(t1)
    1b78:	3c080005 	lui	t0,0x5
    1b7c:	00031880 	sll	v1,v1,0x2
    1b80:	250298b0 	addiu	v0,t0,-26448
    1b84:	00621021 	addu	v0,v1,v0
    1b88:	8c460000 	lw	a2,0(v0)
    1b8c:	02202021 	move	a0,s1
    1b90:	00002821 	move	a1,zero
    1b94:	8c82002c 	lw	v0,44(a0)
    1b98:	24a50001 	addiu	a1,a1,1
    1b9c:	00c23021 	addu	a2,a2,v0
    1ba0:	14e5fffc 	bne	a3,a1,1b94 <handle_new_app+0xe4>
    1ba4:	24840078 	addiu	a0,a0,120
    1ba8:	250298b0 	addiu	v0,t0,-26448
    1bac:	00621021 	addu	v0,v1,v0
    1bb0:	ac460000 	sw	a2,0(v0)
    1bb4:	3c030005 	lui	v1,0x5
    1bb8:	8c6298f0 	lw	v0,-26384(v1)
    1bbc:	8e250000 	lw	a1,0(s1)
    1bc0:	8d2498c4 	lw	a0,-26428(t1)
    1bc4:	24420001 	addiu	v0,v0,1
    1bc8:	0c0014f6 	jal	53d8 <application_mapping>
    1bcc:	ac6298f0 	sw	v0,-26384(v1)
    1bd0:	14400013 	bnez	v0,1c20 <handle_new_app+0x170>
    1bd4:	3c020001 	lui	v0,0x1
    1bd8:	24428f10 	addiu	v0,v0,-28912
    1bdc:	3c032000 	lui	v1,0x2000
    1be0:	24040003 	li	a0,3
    1be4:	ac620000 	sw	v0,0(v1)
    1be8:	ae240004 	sw	a0,4(s1)
    1bec:	0280e821 	move	sp,s4
    1bf0:	03c0e821 	move	sp,s8
    1bf4:	8fbf0030 	lw	ra,48(sp)
    1bf8:	8fbe002c 	lw	s8,44(sp)
    1bfc:	8fb60028 	lw	s6,40(sp)
    1c00:	8fb50024 	lw	s5,36(sp)
    1c04:	8fb40020 	lw	s4,32(sp)
    1c08:	8fb3001c 	lw	s3,28(sp)
    1c0c:	8fb20018 	lw	s2,24(sp)
    1c10:	8fb10014 	lw	s1,20(sp)
    1c14:	8fb00010 	lw	s0,16(sp)
    1c18:	03e00008 	jr	ra
    1c1c:	27bd0038 	addiu	sp,sp,56
    1c20:	3c020001 	lui	v0,0x1
    1c24:	3c102000 	lui	s0,0x2000
    1c28:	24428f00 	addiu	v0,v0,-28928
    1c2c:	ae020000 	sw	v0,0(s0)
    1c30:	36030300 	ori	v1,s0,0x300
    1c34:	8c640000 	lw	a0,0(v1)
    1c38:	0c00093e 	jal	24f8 <itoa>
    1c3c:	00000000 	nop
    1c40:	ae020000 	sw	v0,0(s0)
    1c44:	24020004 	li	v0,4
    1c48:	ae150000 	sw	s5,0(s0)
    1c4c:	02202021 	move	a0,s1
    1c50:	0c000625 	jal	1894 <request_application>
    1c54:	ae220004 	sw	v0,4(s1)
    1c58:	080006fc 	j	1bf0 <handle_new_app+0x140>
    1c5c:	0280e821 	move	sp,s4
    1c60:	8c4498fc 	lw	a0,-26372(v0)
    1c64:	0c001e5c 	jal	7970 <get_static_SZ>
    1c68:	2484ffff 	addiu	a0,a0,-1
    1c6c:	1040002b 	beqz	v0,1d1c <handle_new_app+0x26c>
    1c70:	00408021 	move	s0,v0
    1c74:	3c020001 	lui	v0,0x1
    1c78:	24428e84 	addiu	v0,v0,-29052
    1c7c:	ae620000 	sw	v0,0(s3)
    1c80:	8ec40000 	lw	a0,0(s6)
    1c84:	0c00093e 	jal	24f8 <itoa>
    1c88:	3c120005 	lui	s2,0x5
    1c8c:	8e4498b4 	lw	a0,-26444(s2)
    1c90:	ae620000 	sw	v0,0(s3)
    1c94:	3c020001 	lui	v0,0x1
    1c98:	24428e94 	addiu	v0,v0,-29036
    1c9c:	ae750000 	sw	s5,0(s3)
    1ca0:	ae620000 	sw	v0,0(s3)
    1ca4:	0c00093e 	jal	24f8 <itoa>
    1ca8:	00000000 	nop
    1cac:	ae620000 	sw	v0,0(s3)
    1cb0:	3c020001 	lui	v0,0x1
    1cb4:	24428e9c 	addiu	v0,v0,-29028
    1cb8:	ae750000 	sw	s5,0(s3)
    1cbc:	02002021 	move	a0,s0
    1cc0:	ae620000 	sw	v0,0(s3)
    1cc4:	0c000985 	jal	2614 <itoh>
    1cc8:	00000000 	nop
    1ccc:	ae620000 	sw	v0,0(s3)
    1cd0:	2402ffff 	li	v0,-1
    1cd4:	ae750000 	sw	s5,0(s3)
    1cd8:	1202000c 	beq	s0,v0,1d0c <handle_new_app+0x25c>
    1cdc:	3c020001 	lui	v0,0x1
    1ce0:	8e4498b4 	lw	a0,-26444(s2)
    1ce4:	0c002240 	jal	8900 <alloc_Secure_Zone>
    1ce8:	00000000 	nop
    1cec:	0c0010f2 	jal	43c8 <print_migrating_list>
    1cf0:	00000000 	nop
    1cf4:	8e270008 	lw	a3,8(s1)
    1cf8:	00000000 	nop
    1cfc:	1ce0ff9c 	bgtz	a3,1b70 <handle_new_app+0xc0>
    1d00:	3c090005 	lui	t1,0x5
    1d04:	080006ee 	j	1bb8 <handle_new_app+0x108>
    1d08:	3c030005 	lui	v1,0x5
    1d0c:	24428eb0 	addiu	v0,v0,-29008
    1d10:	ae620000 	sw	v0,0(s3)
    1d14:	08000745 	j	1d14 <handle_new_app+0x264>
    1d18:	00000000 	nop
    1d1c:	8e250008 	lw	a1,8(s1)
    1d20:	0c001f52 	jal	7d48 <create_shapes>
    1d24:	24040001 	li	a0,1
    1d28:	00408021 	move	s0,v0
    1d2c:	0c00226b 	jal	89ac <print_shapes_found>
    1d30:	00402021 	move	a0,v0
    1d34:	0c0020c8 	jal	8320 <search_shape>
    1d38:	02002021 	move	a0,s0
    1d3c:	0800071d 	j	1c74 <handle_new_app+0x1c4>
    1d40:	00408021 	move	s0,v0

00001d44 <handle_packet>:
    1d44:	27bdfe60 	addiu	sp,sp,-416
    1d48:	afb00180 	sw	s0,384(sp)
    1d4c:	27b00010 	addiu	s0,sp,16
    1d50:	02002021 	move	a0,s0
    1d54:	afbf0198 	sw	ra,408(sp)
    1d58:	afb50194 	sw	s5,404(sp)
    1d5c:	afb40190 	sw	s4,400(sp)
    1d60:	afb3018c 	sw	s3,396(sp)
    1d64:	afb20188 	sw	s2,392(sp)
    1d68:	0c000b5e 	jal	2d78 <read_packet>
    1d6c:	afb10184 	sw	s1,388(sp)
    1d70:	8fa30094 	lw	v1,148(sp)
    1d74:	24020160 	li	v0,352
    1d78:	10620030 	beq	v1,v0,1e3c <handle_packet+0xf8>
    1d7c:	2c620161 	sltiu	v0,v1,353
    1d80:	1440001f 	bnez	v0,1e00 <handle_packet+0xbc>
    1d84:	24020070 	li	v0,112
    1d88:	24020235 	li	v0,565
    1d8c:	106200ae 	beq	v1,v0,2048 <handle_packet+0x304>
    1d90:	2c620236 	sltiu	v0,v1,566
    1d94:	10400039 	beqz	v0,1e7c <handle_packet+0x138>
    1d98:	24020240 	li	v0,576
    1d9c:	24020180 	li	v0,384
    1da0:	106200fa 	beq	v1,v0,218c <handle_packet+0x448>
    1da4:	24020190 	li	v0,400
    1da8:	10620129 	beq	v1,v0,2250 <handle_packet+0x50c>
    1dac:	3c020001 	lui	v0,0x1
    1db0:	3c102000 	lui	s0,0x2000
    1db4:	24429054 	addiu	v0,v0,-28588
    1db8:	ae020000 	sw	v0,0(s0)
    1dbc:	8fa40094 	lw	a0,148(sp)
    1dc0:	0c000985 	jal	2614 <itoh>
    1dc4:	3c110001 	lui	s1,0x1
    1dc8:	ae020000 	sw	v0,0(s0)
    1dcc:	3c020001 	lui	v0,0x1
    1dd0:	26319324 	addiu	s1,s1,-27868
    1dd4:	2442906c 	addiu	v0,v0,-28564
    1dd8:	ae110000 	sw	s1,0(s0)
    1ddc:	36030300 	ori	v1,s0,0x300
    1de0:	ae020000 	sw	v0,0(s0)
    1de4:	8c640000 	lw	a0,0(v1)
    1de8:	0c00093e 	jal	24f8 <itoa>
    1dec:	00000000 	nop
    1df0:	ae020000 	sw	v0,0(s0)
    1df4:	ae110000 	sw	s1,0(s0)
    1df8:	08000796 	j	1e58 <handle_packet+0x114>
    1dfc:	00000000 	nop
    1e00:	106200be 	beq	v1,v0,20fc <handle_packet+0x3b8>
    1e04:	2c620071 	sltiu	v0,v1,113
    1e08:	14400026 	bnez	v0,1ea4 <handle_packet+0x160>
    1e0c:	24020050 	li	v0,80
    1e10:	24020140 	li	v0,320
    1e14:	106200d2 	beq	v1,v0,2160 <handle_packet+0x41c>
    1e18:	24020150 	li	v0,336
    1e1c:	1462ffe4 	bne	v1,v0,1db0 <handle_packet+0x6c>
    1e20:	3c020001 	lui	v0,0x1
    1e24:	8fa40098 	lw	a0,152(sp)
    1e28:	8fa600ac 	lw	a2,172(sp)
    1e2c:	0c0006ac 	jal	1ab0 <handle_new_app>
    1e30:	00002821 	move	a1,zero
    1e34:	08000796 	j	1e58 <handle_packet+0x114>
    1e38:	00000000 	nop
    1e3c:	8fa200a0 	lw	v0,160(sp)
    1e40:	8fa4009c 	lw	a0,156(sp)
    1e44:	3c030005 	lui	v1,0x5
    1e48:	0c000eaa 	jal	3aa8 <reclustering_setup>
    1e4c:	ac629898 	sw	v0,-26472(v1)
    1e50:	0c00002c 	jal	b0 <initialize_slaves>
    1e54:	00000000 	nop
    1e58:	8fbf0198 	lw	ra,408(sp)
    1e5c:	8fb50194 	lw	s5,404(sp)
    1e60:	8fb40190 	lw	s4,400(sp)
    1e64:	8fb3018c 	lw	s3,396(sp)
    1e68:	8fb20188 	lw	s2,392(sp)
    1e6c:	8fb10184 	lw	s1,388(sp)
    1e70:	8fb00180 	lw	s0,384(sp)
    1e74:	03e00008 	jr	ra
    1e78:	27bd01a0 	addiu	sp,sp,416
    1e7c:	106200a5 	beq	v1,v0,2114 <handle_packet+0x3d0>
    1e80:	24020260 	li	v0,608
    1e84:	1462ffca 	bne	v1,v0,1db0 <handle_packet+0x6c>
    1e88:	3c020001 	lui	v0,0x1
    1e8c:	8fa400a0 	lw	a0,160(sp)
    1e90:	8fa500b8 	lw	a1,184(sp)
    1e94:	0c0011dd 	jal	4774 <update_proc_slack_time>
    1e98:	00000000 	nop
    1e9c:	08000796 	j	1e58 <handle_packet+0x114>
    1ea0:	00000000 	nop
    1ea4:	1462ffc2 	bne	v1,v0,1db0 <handle_packet+0x6c>
    1ea8:	3c020001 	lui	v0,0x1
    1eac:	3c020001 	lui	v0,0x1
    1eb0:	3c102000 	lui	s0,0x2000
    1eb4:	24428f34 	addiu	v0,v0,-28876
    1eb8:	ae020000 	sw	v0,0(s0)
    1ebc:	8fa40098 	lw	a0,152(sp)
    1ec0:	0c00093e 	jal	24f8 <itoa>
    1ec4:	00000000 	nop
    1ec8:	3c030001 	lui	v1,0x1
    1ecc:	24759324 	addiu	s5,v1,-27868
    1ed0:	ae020000 	sw	v0,0(s0)
    1ed4:	ae150000 	sw	s5,0(s0)
    1ed8:	8fa40098 	lw	a0,152(sp)
    1edc:	0c000d9e 	jal	3678 <get_application_ptr>
    1ee0:	00042202 	srl	a0,a0,0x8
    1ee4:	8fa50098 	lw	a1,152(sp)
    1ee8:	00402021 	move	a0,v0
    1eec:	0c000d09 	jal	3424 <set_task_allocated>
    1ef0:	0040a021 	move	s4,v0
    1ef4:	00402021 	move	a0,v0
    1ef8:	00408821 	move	s1,v0
    1efc:	3c020001 	lui	v0,0x1
    1f00:	24428f54 	addiu	v0,v0,-28844
    1f04:	ae020000 	sw	v0,0(s0)
    1f08:	0c00093e 	jal	24f8 <itoa>
    1f0c:	00000000 	nop
    1f10:	ae020000 	sw	v0,0(s0)
    1f14:	ae150000 	sw	s5,0(s0)
    1f18:	8e820008 	lw	v0,8(s4)
    1f1c:	00000000 	nop
    1f20:	1622ffcd 	bne	s1,v0,1e58 <handle_packet+0x114>
    1f24:	24020001 	li	v0,1
    1f28:	8e8305b4 	lw	v1,1460(s4)
    1f2c:	00000000 	nop
    1f30:	1462ffc9 	bne	v1,v0,1e58 <handle_packet+0x114>
    1f34:	00000000 	nop
    1f38:	1a2000c9 	blez	s1,2260 <handle_packet+0x51c>
    1f3c:	00008021 	move	s0,zero
    1f40:	02809021 	move	s2,s4
    1f44:	24110504 	li	s1,1284
    1f48:	00009821 	move	s3,zero
    1f4c:	8e440014 	lw	a0,20(s2)
    1f50:	0c001249 	jal	4924 <get_task_location>
    1f54:	26730001 	addiu	s3,s3,1
    1f58:	00022203 	sra	a0,v0,0x8
    1f5c:	00102a03 	sra	a1,s0,0x8
    1f60:	00111a03 	sra	v1,s1,0x8
    1f64:	0083402a 	slt	t0,a0,v1
    1f68:	00a4202a 	slt	a0,a1,a0
    1f6c:	30430f00 	andi	v1,v0,0xf00
    1f70:	304600ff 	andi	a2,v0,0xff
    1f74:	26520078 	addiu	s2,s2,120
    1f78:	320500ff 	andi	a1,s0,0xff
    1f7c:	322900ff 	andi	t1,s1,0xff
    1f80:	10800002 	beqz	a0,1f8c <handle_packet+0x248>
    1f84:	00603821 	move	a3,v1
    1f88:	00658025 	or	s0,v1,a1
    1f8c:	320200ff 	andi	v0,s0,0xff
    1f90:	32050f00 	andi	a1,s0,0xf00
    1f94:	11000002 	beqz	t0,1fa0 <handle_packet+0x25c>
    1f98:	0046182a 	slt	v1,v0,a2
    1f9c:	00e98825 	or	s1,a3,t1
    1fa0:	322200ff 	andi	v0,s1,0xff
    1fa4:	32240f00 	andi	a0,s1,0xf00
    1fa8:	10600002 	beqz	v1,1fb4 <handle_packet+0x270>
    1fac:	00c2102a 	slt	v0,a2,v0
    1fb0:	00c58025 	or	s0,a2,a1
    1fb4:	10400002 	beqz	v0,1fc0 <handle_packet+0x27c>
    1fb8:	00000000 	nop
    1fbc:	00c48825 	or	s1,a2,a0
    1fc0:	8e820008 	lw	v0,8(s4)
    1fc4:	00000000 	nop
    1fc8:	0262102a 	slt	v0,s3,v0
    1fcc:	1440ffdf 	bnez	v0,1f4c <handle_packet+0x208>
    1fd0:	00101103 	sra	v0,s0,0x4
    1fd4:	304200f0 	andi	v0,v0,0xf0
    1fd8:	00111903 	sra	v1,s1,0x4
    1fdc:	3204000f 	andi	a0,s0,0xf
    1fe0:	00822825 	or	a1,a0,v0
    1fe4:	306300f0 	andi	v1,v1,0xf0
    1fe8:	3222000f 	andi	v0,s1,0xf
    1fec:	00629025 	or	s2,v1,v0
    1ff0:	00a08821 	move	s1,a1
    1ff4:	8e840000 	lw	a0,0(s4)
    1ff8:	0c001f9e 	jal	7e78 <set_RH_Address>
    1ffc:	3c102000 	lui	s0,0x2000
    2000:	3c020001 	lui	v0,0x1
    2004:	24428f68 	addiu	v0,v0,-28824
    2008:	36030300 	ori	v1,s0,0x300
    200c:	ae020000 	sw	v0,0(s0)
    2010:	8c640000 	lw	a0,0(v1)
    2014:	0c00093e 	jal	24f8 <itoa>
    2018:	00000000 	nop
    201c:	ae020000 	sw	v0,0(s0)
    2020:	ae150000 	sw	s5,0(s0)
    2024:	0c00093a 	jal	24e8 <get_net_address>
    2028:	00000000 	nop
    202c:	00402821 	move	a1,v0
    2030:	02403021 	move	a2,s2
    2034:	02203821 	move	a3,s1
    2038:	0c001615 	jal	5854 <Seek>
    203c:	24040007 	li	a0,7
    2040:	08000796 	j	1e58 <handle_packet+0x114>
    2044:	00000000 	nop
    2048:	3c020001 	lui	v0,0x1
    204c:	3c112000 	lui	s1,0x2000
    2050:	24428fd0 	addiu	v0,v0,-28720
    2054:	ae220000 	sw	v0,0(s1)
    2058:	36330300 	ori	s3,s1,0x300
    205c:	8e640000 	lw	a0,0(s3)
    2060:	0c00093e 	jal	24f8 <itoa>
    2064:	00000000 	nop
    2068:	ae220000 	sw	v0,0(s1)
    206c:	3c030001 	lui	v1,0x1
    2070:	3c020001 	lui	v0,0x1
    2074:	24729324 	addiu	s2,v1,-27868
    2078:	24428fec 	addiu	v0,v0,-28692
    207c:	ae320000 	sw	s2,0(s1)
    2080:	ae220000 	sw	v0,0(s1)
    2084:	8fa40098 	lw	a0,152(sp)
    2088:	0c00093e 	jal	24f8 <itoa>
    208c:	00000000 	nop
    2090:	ae220000 	sw	v0,0(s1)
    2094:	3c020001 	lui	v0,0x1
    2098:	24429000 	addiu	v0,v0,-28672
    209c:	ae320000 	sw	s2,0(s1)
    20a0:	ae220000 	sw	v0,0(s1)
    20a4:	8fa400a0 	lw	a0,160(sp)
    20a8:	0c000985 	jal	2614 <itoh>
    20ac:	00000000 	nop
    20b0:	ae220000 	sw	v0,0(s1)
    20b4:	ae320000 	sw	s2,0(s1)
    20b8:	8fa40098 	lw	a0,152(sp)
    20bc:	0c000d4e 	jal	3538 <sub_migrations>
    20c0:	00042202 	srl	a0,a0,0x8
    20c4:	10400039 	beqz	v0,21ac <handle_packet+0x468>
    20c8:	00000000 	nop
    20cc:	8fa400ac 	lw	a0,172(sp)
    20d0:	8fa50098 	lw	a1,152(sp)
    20d4:	0c00112e 	jal	44b8 <remove_from_migration_list>
    20d8:	00000000 	nop
    20dc:	3c030001 	lui	v1,0x1
    20e0:	24639038 	addiu	v1,v1,-28616
    20e4:	ae230000 	sw	v1,0(s1)
    20e8:	8fa400ac 	lw	a0,172(sp)
    20ec:	0c000593 	jal	164c <request_task_of_application>
    20f0:	00000000 	nop
    20f4:	08000796 	j	1e58 <handle_packet+0x114>
    20f8:	00000000 	nop
    20fc:	3c020001 	lui	v0,0x1
    2100:	24428f88 	addiu	v0,v0,-28792
    2104:	3c032000 	lui	v1,0x2000
    2108:	ac620000 	sw	v0,0(v1)
    210c:	08000796 	j	1e58 <handle_packet+0x114>
    2110:	00000000 	nop
    2114:	3c020001 	lui	v0,0x1
    2118:	3c102000 	lui	s0,0x2000
    211c:	24428f74 	addiu	v0,v0,-28812
    2120:	36030300 	ori	v1,s0,0x300
    2124:	ae020000 	sw	v0,0(s0)
    2128:	8c640000 	lw	a0,0(v1)
    212c:	0c00093e 	jal	24f8 <itoa>
    2130:	00000000 	nop
    2134:	ae020000 	sw	v0,0(s0)
    2138:	3c020001 	lui	v0,0x1
    213c:	24429324 	addiu	v0,v0,-27868
    2140:	ae020000 	sw	v0,0(s0)
    2144:	8fa500ac 	lw	a1,172(sp)
    2148:	27a400c0 	addiu	a0,sp,192
    214c:	0c000a8e 	jal	2a38 <DMNI_read_data>
    2150:	00052880 	sll	a1,a1,0x2
    2154:	3c030005 	lui	v1,0x5
    2158:	08000796 	j	1e58 <handle_packet+0x114>
    215c:	ac6098f8 	sw	zero,-26376(v1)
    2160:	8fa500ac 	lw	a1,172(sp)
    2164:	3c040005 	lui	a0,0x5
    2168:	0c000a8e 	jal	2a38 <DMNI_read_data>
    216c:	2484149c 	addiu	a0,a0,5276
    2170:	8fa40098 	lw	a0,152(sp)
    2174:	8fa500ac 	lw	a1,172(sp)
    2178:	8fa600a0 	lw	a2,160(sp)
    217c:	0c0000cd 	jal	334 <handle_app_terminated>
    2180:	00000000 	nop
    2184:	08000796 	j	1e58 <handle_packet+0x114>
    2188:	00000000 	nop
    218c:	3c020005 	lui	v0,0x5
    2190:	8fa500a0 	lw	a1,160(sp)
    2194:	8c4498c4 	lw	a0,-26428(v0)
    2198:	8fa60098 	lw	a2,152(sp)
    219c:	0c00154f 	jal	553c <page_released>
    21a0:	00000000 	nop
    21a4:	08000796 	j	1e58 <handle_packet+0x114>
    21a8:	00000000 	nop
    21ac:	8fa40098 	lw	a0,152(sp)
    21b0:	0c000d9e 	jal	3678 <get_application_ptr>
    21b4:	00042202 	srl	a0,a0,0x8
    21b8:	0c000148 	jal	520 <send_tasks_location>
    21bc:	00402021 	move	a0,v0
    21c0:	8fb000ac 	lw	s0,172(sp)
    21c4:	0c00093a 	jal	24e8 <get_net_address>
    21c8:	00000000 	nop
    21cc:	8fa60098 	lw	a2,152(sp)
    21d0:	00108400 	sll	s0,s0,0x10
    21d4:	02022825 	or	a1,s0,v0
    21d8:	00063202 	srl	a2,a2,0x8
    21dc:	00003821 	move	a3,zero
    21e0:	0c001615 	jal	5854 <Seek>
    21e4:	2404000e 	li	a0,14
    21e8:	3c020001 	lui	v0,0x1
    21ec:	24429018 	addiu	v0,v0,-28648
    21f0:	ae220000 	sw	v0,0(s1)
    21f4:	8fa40098 	lw	a0,152(sp)
    21f8:	0c00093e 	jal	24f8 <itoa>
    21fc:	00042202 	srl	a0,a0,0x8
    2200:	ae220000 	sw	v0,0(s1)
    2204:	3c020001 	lui	v0,0x1
    2208:	24429030 	addiu	v0,v0,-28624
    220c:	ae320000 	sw	s2,0(s1)
    2210:	ae220000 	sw	v0,0(s1)
    2214:	8e640000 	lw	a0,0(s3)
    2218:	0c00093e 	jal	24f8 <itoa>
    221c:	00000000 	nop
    2220:	ae220000 	sw	v0,0(s1)
    2224:	ae320000 	sw	s2,0(s1)
    2228:	8fb000ac 	lw	s0,172(sp)
    222c:	0c00093a 	jal	24e8 <get_net_address>
    2230:	00108400 	sll	s0,s0,0x10
    2234:	02022825 	or	a1,s0,v0
    2238:	24040003 	li	a0,3
    223c:	00003021 	move	a2,zero
    2240:	0c001615 	jal	5854 <Seek>
    2244:	00003821 	move	a3,zero
    2248:	08000833 	j	20cc <handle_packet+0x388>
    224c:	00000000 	nop
    2250:	0c000efa 	jal	3be8 <handle_reclustering>
    2254:	02002021 	move	a0,s0
    2258:	08000796 	j	1e58 <handle_packet+0x114>
    225c:	00000000 	nop
    2260:	00002821 	move	a1,zero
    2264:	24120054 	li	s2,84
    2268:	080007fd 	j	1ff4 <handle_packet+0x2b0>
    226c:	00008821 	move	s1,zero

00002270 <handle_pending_application>:
    2270:	3c020001 	lui	v0,0x1
    2274:	27bdffe8 	addiu	sp,sp,-24
    2278:	3c032000 	lui	v1,0x2000
    227c:	24429074 	addiu	v0,v0,-28556
    2280:	afbf0014 	sw	ra,20(sp)
    2284:	afb00010 	sw	s0,16(sp)
    2288:	ac620000 	sw	v0,0(v1)
    228c:	0c000ce5 	jal	3394 <get_next_pending_app>
    2290:	00000000 	nop
    2294:	00402021 	move	a0,v0
    2298:	0c000efc 	jal	3bf0 <reclustering_next_task>
    229c:	00408021 	move	s0,v0
    22a0:	14400005 	bnez	v0,22b8 <handle_pending_application+0x48>
    22a4:	02002021 	move	a0,s0
    22a8:	8fbf0014 	lw	ra,20(sp)
    22ac:	8fb00010 	lw	s0,16(sp)
    22b0:	03e00008 	jr	ra
    22b4:	27bd0018 	addiu	sp,sp,24
    22b8:	24020004 	li	v0,4
    22bc:	ae020004 	sw	v0,4(s0)
    22c0:	8fbf0014 	lw	ra,20(sp)
    22c4:	8fb00010 	lw	s0,16(sp)
    22c8:	08000625 	j	1894 <request_application>
    22cc:	27bd0018 	addiu	sp,sp,24

000022d0 <main>:
    22d0:	27bdffe0 	addiu	sp,sp,-32
    22d4:	afb00010 	sw	s0,16(sp)
    22d8:	3c102000 	lui	s0,0x2000
    22dc:	afbf0018 	sw	ra,24(sp)
    22e0:	36020140 	ori	v0,s0,0x140
    22e4:	afb10014 	sw	s1,20(sp)
    22e8:	8c440000 	lw	a0,0(v0)
    22ec:	0c000937 	jal	24dc <set_net_address>
    22f0:	00000000 	nop
    22f4:	0c00093a 	jal	24e8 <get_net_address>
    22f8:	00000000 	nop
    22fc:	3c040005 	lui	a0,0x5
    2300:	248697c4 	addiu	a2,a0,-26684
    2304:	8c8397c4 	lw	v1,-26684(a0)
    2308:	8cc50004 	lw	a1,4(a2)
    230c:	00031a00 	sll	v1,v1,0x8
    2310:	00651821 	addu	v1,v1,a1
    2314:	10430058 	beq	v0,v1,2478 <main+0x1a8>
    2318:	3c020001 	lui	v0,0x1
    231c:	3c110005 	lui	s1,0x5
    2320:	244290b0 	addiu	v0,v0,-28496
    2324:	ae020000 	sw	v0,0(s0)
    2328:	a2209888 	sb	zero,-26488(s1)
    232c:	0c000d2b 	jal	34ac <initialize_applications>
    2330:	00000000 	nop
    2334:	0c001009 	jal	4024 <init_new_task_list>
    2338:	00000000 	nop
    233c:	0c000a88 	jal	2a20 <init_service_header_slots>
    2340:	00000000 	nop
    2344:	0c001a1f 	jal	687c <initialize_CM_FIFO>
    2348:	00000000 	nop
    234c:	92229888 	lbu	v0,-26488(s1)
    2350:	00000000 	nop
    2354:	14400034 	bnez	v0,2428 <main+0x158>
    2358:	3c020001 	lui	v0,0x1
    235c:	244290e8 	addiu	v0,v0,-28440
    2360:	3c032000 	lui	v1,0x2000
    2364:	ac620000 	sw	v0,0(v1)
    2368:	3c100005 	lui	s0,0x5
    236c:	3c032000 	lui	v1,0x2000
    2370:	34630020 	ori	v1,v1,0x20
    2374:	8c620000 	lw	v0,0(v1)
    2378:	00000000 	nop
    237c:	30420020 	andi	v0,v0,0x20
    2380:	14400013 	bnez	v0,23d0 <main+0x100>
    2384:	00000000 	nop
    2388:	8c620000 	lw	v0,0(v1)
    238c:	00000000 	nop
    2390:	30420080 	andi	v0,v0,0x80
    2394:	1440001e 	bnez	v0,2410 <main+0x140>
    2398:	00000000 	nop
    239c:	8e0298f0 	lw	v0,-26384(s0)
    23a0:	00000000 	nop
    23a4:	14400010 	bnez	v0,23e8 <main+0x118>
    23a8:	00000000 	nop
    23ac:	0c001329 	jal	4ca4 <manage_SZ_migration>
    23b0:	00000000 	nop
    23b4:	3c032000 	lui	v1,0x2000
    23b8:	34630020 	ori	v1,v1,0x20
    23bc:	8c620000 	lw	v0,0(v1)
    23c0:	00000000 	nop
    23c4:	30420020 	andi	v0,v0,0x20
    23c8:	1040ffef 	beqz	v0,2388 <main+0xb8>
    23cc:	00000000 	nop
    23d0:	0c000751 	jal	1d44 <handle_packet>
    23d4:	00000000 	nop
    23d8:	0c001329 	jal	4ca4 <manage_SZ_migration>
    23dc:	00000000 	nop
    23e0:	080008ee 	j	23b8 <main+0xe8>
    23e4:	3c032000 	lui	v1,0x2000
    23e8:	0c000ec3 	jal	3b0c <is_reclustering_NOT_active>
    23ec:	00000000 	nop
    23f0:	1040ffee 	beqz	v0,23ac <main+0xdc>
    23f4:	00000000 	nop
    23f8:	0c00089c 	jal	2270 <handle_pending_application>
    23fc:	00000000 	nop
    2400:	0c001329 	jal	4ca4 <manage_SZ_migration>
    2404:	00000000 	nop
    2408:	080008ee 	j	23b8 <main+0xe8>
    240c:	3c032000 	lui	v1,0x2000
    2410:	0c000225 	jal	894 <SeekInterruptHandler>
    2414:	00000000 	nop
    2418:	0c001329 	jal	4ca4 <manage_SZ_migration>
    241c:	00000000 	nop
    2420:	080008ee 	j	23b8 <main+0xe8>
    2424:	3c032000 	lui	v1,0x2000
    2428:	3c020001 	lui	v0,0x1
    242c:	3c032000 	lui	v1,0x2000
    2430:	244290d0 	addiu	v0,v0,-28464
    2434:	ac620000 	sw	v0,0(v1)
    2438:	0c00093a 	jal	24e8 <get_net_address>
    243c:	3c100005 	lui	s0,0x5
    2440:	00402821 	move	a1,v0
    2444:	2404001c 	li	a0,28
    2448:	00003021 	move	a2,zero
    244c:	0c001615 	jal	5854 <Seek>
    2450:	00003821 	move	a3,zero
    2454:	0c00093a 	jal	24e8 <get_net_address>
    2458:	00000000 	nop
    245c:	00402821 	move	a1,v0
    2460:	24040003 	li	a0,3
    2464:	00003021 	move	a2,zero
    2468:	0c001615 	jal	5854 <Seek>
    246c:	00003821 	move	a3,zero
    2470:	080008dc 	j	2370 <main+0xa0>
    2474:	3c032000 	lui	v1,0x2000
    2478:	3c020005 	lui	v0,0x5
    247c:	8c4398c4 	lw	v1,-26428(v0)
    2480:	3c020001 	lui	v0,0x1
    2484:	00032140 	sll	a0,v1,0x5
    2488:	00031880 	sll	v1,v1,0x2
    248c:	00832023 	subu	a0,a0,v1
    2490:	24429090 	addiu	v0,v0,-28528
    2494:	00862021 	addu	a0,a0,a2
    2498:	ae020000 	sw	v0,0(s0)
    249c:	8c820000 	lw	v0,0(a0)
    24a0:	8c830004 	lw	v1,4(a0)
    24a4:	00021200 	sll	v0,v0,0x8
    24a8:	00431025 	or	v0,v0,v1
    24ac:	24040001 	li	a0,1
    24b0:	3c030005 	lui	v1,0x5
    24b4:	3c110005 	lui	s1,0x5
    24b8:	ac629898 	sw	v0,-26472(v1)
    24bc:	0c000009 	jal	24 <initialize_clusters>
    24c0:	a2249888 	sb	a0,-26488(s1)
    24c4:	0c00002c 	jal	b0 <initialize_slaves>
    24c8:	00000000 	nop
    24cc:	0c000006 	jal	18 <initialize_cluster_load>
    24d0:	00000000 	nop
    24d4:	080008cb 	j	232c <main+0x5c>
    24d8:	00000000 	nop

000024dc <set_net_address>:
    24dc:	3c020005 	lui	v0,0x5
    24e0:	03e00008 	jr	ra
    24e4:	ac4498b8 	sw	a0,-26440(v0)

000024e8 <get_net_address>:
    24e8:	3c030005 	lui	v1,0x5
    24ec:	8c6298b8 	lw	v0,-26440(v1)
    24f0:	03e00008 	jr	ra
    24f4:	00000000 	nop

000024f8 <itoa>:
    24f8:	14800009 	bnez	a0,2520 <itoa+0x28>
    24fc:	00802821 	move	a1,a0
    2500:	3c020005 	lui	v0,0x5
    2504:	2444993c 	addiu	a0,v0,-26308
    2508:	00802821 	move	a1,a0
    250c:	24030030 	li	v1,48
    2510:	a043993c 	sb	v1,-26308(v0)
    2514:	00a01021 	move	v0,a1
    2518:	03e00008 	jr	ra
    251c:	a0800001 	sb	zero,1(a0)
    2520:	3c03cccc 	lui	v1,0xcccc
    2524:	3463cccd 	ori	v1,v1,0xcccd
    2528:	00830019 	multu	a0,v1
    252c:	3c020005 	lui	v0,0x5
    2530:	2446993d 	addiu	a2,v0,-26307
    2534:	3c080005 	lui	t0,0x5
    2538:	24070001 	li	a3,1
    253c:	00001810 	mfhi	v1
    2540:	000318c2 	srl	v1,v1,0x3
    2544:	00031040 	sll	v0,v1,0x1
    2548:	000320c0 	sll	a0,v1,0x3
    254c:	00441021 	addu	v0,v0,a0
    2550:	00a21023 	subu	v0,a1,v0
    2554:	24420030 	addiu	v0,v0,48
    2558:	00602821 	move	a1,v1
    255c:	10a00013 	beqz	a1,25ac <itoa+0xb4>
    2560:	a102993c 	sb	v0,-26308(t0)
    2564:	3c03cccc 	lui	v1,0xcccc
    2568:	3463cccd 	ori	v1,v1,0xcccd
    256c:	00a30019 	multu	a1,v1
    2570:	24e70001 	addiu	a3,a3,1
    2574:	00001810 	mfhi	v1
    2578:	000320c2 	srl	a0,v1,0x3
    257c:	00041040 	sll	v0,a0,0x1
    2580:	000418c0 	sll	v1,a0,0x3
    2584:	00431021 	addu	v0,v0,v1
    2588:	00a21023 	subu	v0,a1,v0
    258c:	24420030 	addiu	v0,v0,48
    2590:	a0c20000 	sb	v0,0(a2)
    2594:	2402000b 	li	v0,11
    2598:	10e2000d 	beq	a3,v0,25d0 <itoa+0xd8>
    259c:	24c60001 	addiu	a2,a2,1
    25a0:	00802821 	move	a1,a0
    25a4:	14a0fff0 	bnez	a1,2568 <itoa+0x70>
    25a8:	3c03cccc 	lui	v1,0xcccc
    25ac:	3c040005 	lui	a0,0x5
    25b0:	24829930 	addiu	v0,a0,-26320
    25b4:	00e21021 	addu	v0,a3,v0
    25b8:	24e3ffff 	addiu	v1,a3,-1
    25bc:	04610008 	bgez	v1,25e0 <itoa+0xe8>
    25c0:	a0400000 	sb	zero,0(v0)
    25c4:	24859930 	addiu	a1,a0,-26320
    25c8:	03e00008 	jr	ra
    25cc:	00a01021 	move	v0,a1
    25d0:	3c040005 	lui	a0,0x5
    25d4:	24829930 	addiu	v0,a0,-26320
    25d8:	2403000a 	li	v1,10
    25dc:	a040000b 	sb	zero,11(v0)
    25e0:	24829930 	addiu	v0,a0,-26320
    25e4:	00621821 	addu	v1,v1,v0
    25e8:	3c020005 	lui	v0,0x5
    25ec:	2505993c 	addiu	a1,t0,-26308
    25f0:	2446992f 	addiu	a2,v0,-26321
    25f4:	90a20000 	lbu	v0,0(a1)
    25f8:	00000000 	nop
    25fc:	a0620000 	sb	v0,0(v1)
    2600:	2463ffff 	addiu	v1,v1,-1
    2604:	1466fffb 	bne	v1,a2,25f4 <itoa+0xfc>
    2608:	24a50001 	addiu	a1,a1,1
    260c:	08000972 	j	25c8 <itoa+0xd0>
    2610:	24859930 	addiu	a1,a0,-26320

00002614 <itoh>:
    2614:	3c080005 	lui	t0,0x5
    2618:	25039924 	addiu	v1,t0,-26332
    261c:	24050030 	li	a1,48
    2620:	24020078 	li	v0,120
    2624:	a0620001 	sb	v0,1(v1)
    2628:	a060000a 	sb	zero,10(v1)
    262c:	1480000b 	bnez	a0,265c <itoh+0x48>
    2630:	a1059924 	sb	a1,-26332(t0)
    2634:	a0650009 	sb	a1,9(v1)
    2638:	a0650002 	sb	a1,2(v1)
    263c:	a0650003 	sb	a1,3(v1)
    2640:	a0650004 	sb	a1,4(v1)
    2644:	a0650005 	sb	a1,5(v1)
    2648:	a0650006 	sb	a1,6(v1)
    264c:	a0650007 	sb	a1,7(v1)
    2650:	a0650008 	sb	a1,8(v1)
    2654:	03e00008 	jr	ra
    2658:	25029924 	addiu	v0,t0,-26332
    265c:	3c020005 	lui	v0,0x5
    2660:	3c030005 	lui	v1,0x5
    2664:	2447992d 	addiu	a3,v0,-26323
    2668:	080009a0 	j	2680 <itoh+0x6c>
    266c:	24639925 	addiu	v1,v1,-26331
    2670:	a0e60000 	sb	a2,0(a3)
    2674:	24e7ffff 	addiu	a3,a3,-1
    2678:	10e3fff6 	beq	a3,v1,2654 <itoh+0x40>
    267c:	00042102 	srl	a0,a0,0x4
    2680:	3082000f 	andi	v0,a0,0xf
    2684:	24460030 	addiu	a2,v0,48
    2688:	24450057 	addiu	a1,v0,87
    268c:	2c42000a 	sltiu	v0,v0,10
    2690:	1440fff7 	bnez	v0,2670 <itoh+0x5c>
    2694:	00000000 	nop
    2698:	0800099d 	j	2674 <itoh+0x60>
    269c:	a0e50000 	sb	a1,0(a3)

000026a0 <abs>:
    26a0:	04800003 	bltz	a0,26b0 <abs+0x10>
    26a4:	00801021 	move	v0,a0
    26a8:	03e00008 	jr	ra
    26ac:	00000000 	nop
    26b0:	03e00008 	jr	ra
    26b4:	00041023 	negu	v0,a0

000026b8 <rand>:
    26b8:	30820001 	andi	v0,a0,0x1
    26bc:	00021023 	negu	v0,v0
    26c0:	3042b400 	andi	v0,v0,0xb400
    26c4:	00042043 	sra	a0,a0,0x1
    26c8:	00822026 	xor	a0,a0,v0
    26cc:	14c00002 	bnez	a2,26d8 <rand+0x20>
    26d0:	0086001a 	div	zero,a0,a2
    26d4:	0007000d 	break	0x7
    26d8:	00001010 	mfhi	v0
    26dc:	03e00008 	jr	ra
    26e0:	00451021 	addu	v0,v0,a1

000026e4 <add>:
    26e4:	03e00008 	jr	ra
    26e8:	00851021 	addu	v0,a0,a1

000026ec <sub>:
    26ec:	03e00008 	jr	ra
    26f0:	00851023 	subu	v0,a0,a1

000026f4 <memset>:
    26f4:	18c00008 	blez	a2,2718 <memset+0x24>
    26f8:	00801021 	move	v0,a0
    26fc:	30a500ff 	andi	a1,a1,0xff
    2700:	00c43021 	addu	a2,a2,a0
    2704:	00801821 	move	v1,a0
    2708:	a0650000 	sb	a1,0(v1)
    270c:	24630001 	addiu	v1,v1,1
    2710:	1466fffd 	bne	v1,a2,2708 <memset+0x14>
    2714:	00000000 	nop
    2718:	03e00008 	jr	ra
    271c:	00000000 	nop

00002720 <fixetoa>:
    2720:	0480004b 	bltz	a0,2850 <fixetoa+0x130>
    2724:	3c0b0005 	lui	t3,0x5
    2728:	10800042 	beqz	a0,2834 <fixetoa+0x114>
    272c:	3c020005 	lui	v0,0x5
    2730:	3c0b0005 	lui	t3,0x5
    2734:	00802821 	move	a1,a0
    2738:	00003021 	move	a2,zero
    273c:	080009d8 	j	2760 <fixetoa+0x40>
    2740:	25679914 	addiu	a3,t3,-26348
    2744:	10400084 	beqz	v0,2958 <fixetoa+0x238>
    2748:	24020030 	li	v0,48
    274c:	a0e20000 	sb	v0,0(a3)
    2750:	24c60001 	addiu	a2,a2,1
    2754:	2402000c 	li	v0,12
    2758:	10c20015 	beq	a2,v0,27b0 <fixetoa+0x90>
    275c:	24e70001 	addiu	a3,a3,1
    2760:	00051fc3 	sra	v1,a1,0x1f
    2764:	10a0fff7 	beqz	a1,2744 <fixetoa+0x24>
    2768:	28c20005 	slti	v0,a2,5
    276c:	3c026666 	lui	v0,0x6666
    2770:	34426667 	ori	v0,v0,0x6667
    2774:	00a20018 	mult	a1,v0
    2778:	24c60001 	addiu	a2,a2,1
    277c:	00001010 	mfhi	v0
    2780:	00021083 	sra	v0,v0,0x2
    2784:	00431023 	subu	v0,v0,v1
    2788:	00021840 	sll	v1,v0,0x1
    278c:	000220c0 	sll	a0,v0,0x3
    2790:	00641821 	addu	v1,v1,a0
    2794:	00a31823 	subu	v1,a1,v1
    2798:	24630030 	addiu	v1,v1,48
    279c:	00402821 	move	a1,v0
    27a0:	2402000c 	li	v0,12
    27a4:	a0e30000 	sb	v1,0(a3)
    27a8:	14c2ffed 	bne	a2,v0,2760 <fixetoa+0x40>
    27ac:	24e70001 	addiu	a3,a3,1
    27b0:	3c090005 	lui	t1,0x5
    27b4:	25229904 	addiu	v0,t1,-26364
    27b8:	2406000c 	li	a2,12
    27bc:	a040000d 	sb	zero,13(v0)
    27c0:	25679914 	addiu	a3,t3,-26348
    27c4:	00002821 	move	a1,zero
    27c8:	25229904 	addiu	v0,t1,-26364
    27cc:	90e40000 	lbu	a0,0(a3)
    27d0:	00c21821 	addu	v1,a2,v0
    27d4:	24c6ffff 	addiu	a2,a2,-1
    27d8:	24a50001 	addiu	a1,a1,1
    27dc:	24e70001 	addiu	a3,a3,1
    27e0:	00c24021 	addu	t0,a2,v0
    27e4:	04c00010 	bltz	a2,2828 <fixetoa+0x108>
    27e8:	a0640000 	sb	a0,0(v1)
    27ec:	24020004 	li	v0,4
    27f0:	14a2fff6 	bne	a1,v0,27cc <fixetoa+0xac>
    27f4:	25229904 	addiu	v0,t1,-26364
    27f8:	2402002e 	li	v0,46
    27fc:	a1020000 	sb	v0,0(t0)
    2800:	24c6ffff 	addiu	a2,a2,-1
    2804:	25229904 	addiu	v0,t1,-26364
    2808:	90e40000 	lbu	a0,0(a3)
    280c:	00c21821 	addu	v1,a2,v0
    2810:	24c6ffff 	addiu	a2,a2,-1
    2814:	24a50001 	addiu	a1,a1,1
    2818:	24e70001 	addiu	a3,a3,1
    281c:	00c24021 	addu	t0,a2,v0
    2820:	04c1fff2 	bgez	a2,27ec <fixetoa+0xcc>
    2824:	a0640000 	sb	a0,0(v1)
    2828:	25259904 	addiu	a1,t1,-26364
    282c:	03e00008 	jr	ra
    2830:	00a01021 	move	v0,a1
    2834:	24449914 	addiu	a0,v0,-26348
    2838:	00802821 	move	a1,a0
    283c:	24030030 	li	v1,48
    2840:	a0439914 	sb	v1,-26348(v0)
    2844:	00a01021 	move	v0,a1
    2848:	03e00008 	jr	ra
    284c:	a0800001 	sb	zero,1(a0)
    2850:	3c026666 	lui	v0,0x6666
    2854:	00042823 	negu	a1,a0
    2858:	344a6667 	ori	t2,v0,0x6667
    285c:	00003021 	move	a2,zero
    2860:	25679914 	addiu	a3,t3,-26348
    2864:	24090030 	li	t1,48
    2868:	08000a22 	j	2888 <fixetoa+0x168>
    286c:	2408000c 	li	t0,12
    2870:	10400040 	beqz	v0,2974 <fixetoa+0x254>
    2874:	00000000 	nop
    2878:	24c60001 	addiu	a2,a2,1
    287c:	a0e90000 	sb	t1,0(a3)
    2880:	10c80012 	beq	a2,t0,28cc <fixetoa+0x1ac>
    2884:	24e70001 	addiu	a3,a3,1
    2888:	00051fc3 	sra	v1,a1,0x1f
    288c:	10a0fff8 	beqz	a1,2870 <fixetoa+0x150>
    2890:	28c20005 	slti	v0,a2,5
    2894:	00aa0018 	mult	a1,t2
    2898:	24c60001 	addiu	a2,a2,1
    289c:	00001010 	mfhi	v0
    28a0:	00021083 	sra	v0,v0,0x2
    28a4:	00431023 	subu	v0,v0,v1
    28a8:	00021840 	sll	v1,v0,0x1
    28ac:	000220c0 	sll	a0,v0,0x3
    28b0:	00641821 	addu	v1,v1,a0
    28b4:	00a31823 	subu	v1,a1,v1
    28b8:	24630030 	addiu	v1,v1,48
    28bc:	a0e30000 	sb	v1,0(a3)
    28c0:	00402821 	move	a1,v0
    28c4:	14c8fff0 	bne	a2,t0,2888 <fixetoa+0x168>
    28c8:	24e70001 	addiu	a3,a3,1
    28cc:	3c090005 	lui	t1,0x5
    28d0:	25229904 	addiu	v0,t1,-26364
    28d4:	a040000e 	sb	zero,14(v0)
    28d8:	2405000d 	li	a1,13
    28dc:	25679914 	addiu	a3,t3,-26348
    28e0:	00003021 	move	a2,zero
    28e4:	25229904 	addiu	v0,t1,-26364
    28e8:	90e40000 	lbu	a0,0(a3)
    28ec:	00a21821 	addu	v1,a1,v0
    28f0:	24a5ffff 	addiu	a1,a1,-1
    28f4:	24c60001 	addiu	a2,a2,1
    28f8:	24e70001 	addiu	a3,a3,1
    28fc:	00a24021 	addu	t0,a1,v0
    2900:	04a00010 	bltz	a1,2944 <fixetoa+0x224>
    2904:	a0640000 	sb	a0,0(v1)
    2908:	24020004 	li	v0,4
    290c:	14c2fff6 	bne	a2,v0,28e8 <fixetoa+0x1c8>
    2910:	25229904 	addiu	v0,t1,-26364
    2914:	2402002e 	li	v0,46
    2918:	a1020000 	sb	v0,0(t0)
    291c:	24a5ffff 	addiu	a1,a1,-1
    2920:	25229904 	addiu	v0,t1,-26364
    2924:	90e40000 	lbu	a0,0(a3)
    2928:	00a21821 	addu	v1,a1,v0
    292c:	24a5ffff 	addiu	a1,a1,-1
    2930:	24c60001 	addiu	a2,a2,1
    2934:	24e70001 	addiu	a3,a3,1
    2938:	00a24021 	addu	t0,a1,v0
    293c:	04a1fff2 	bgez	a1,2908 <fixetoa+0x1e8>
    2940:	a0640000 	sb	a0,0(v1)
    2944:	25259904 	addiu	a1,t1,-26364
    2948:	2402002d 	li	v0,45
    294c:	a1229904 	sb	v0,-26364(t1)
    2950:	03e00008 	jr	ra
    2954:	00a01021 	move	v0,a1
    2958:	3c090005 	lui	t1,0x5
    295c:	25229904 	addiu	v0,t1,-26364
    2960:	00c21021 	addu	v0,a2,v0
    2964:	04c1ff96 	bgez	a2,27c0 <fixetoa+0xa0>
    2968:	a0400001 	sb	zero,1(v0)
    296c:	08000a0b 	j	282c <fixetoa+0x10c>
    2970:	25259904 	addiu	a1,t1,-26364
    2974:	3c090005 	lui	t1,0x5
    2978:	25229904 	addiu	v0,t1,-26364
    297c:	00c21021 	addu	v0,a2,v0
    2980:	24c50001 	addiu	a1,a2,1
    2984:	04a1ffd5 	bgez	a1,28dc <fixetoa+0x1bc>
    2988:	a0400002 	sb	zero,2(v0)
    298c:	08000a52 	j	2948 <fixetoa+0x228>
    2990:	25259904 	addiu	a1,t1,-26364

00002994 <strcpy>:
    2994:	00801821 	move	v1,a0
    2998:	80a20000 	lb	v0,0(a1)
    299c:	24a50001 	addiu	a1,a1,1
    29a0:	a0620000 	sb	v0,0(v1)
    29a4:	1440fffc 	bnez	v0,2998 <strcpy+0x4>
    29a8:	24630001 	addiu	v1,v1,1
    29ac:	03e00008 	jr	ra
    29b0:	00801021 	move	v0,a0

000029b4 <strlen>:
    29b4:	00801821 	move	v1,a0
    29b8:	80620000 	lb	v0,0(v1)
    29bc:	00000000 	nop
    29c0:	1440fffd 	bnez	v0,29b8 <strlen+0x4>
    29c4:	24630001 	addiu	v1,v1,1
    29c8:	00641023 	subu	v0,v1,a0
    29cc:	03e00008 	jr	ra
    29d0:	2442ffff 	addiu	v0,v0,-1

000029d4 <get_service_header_slot>:
    29d4:	3c020005 	lui	v0,0x5
    29d8:	24442c54 	addiu	a0,v0,11348
    29dc:	8c8200b0 	lw	v0,176(a0)
    29e0:	3c030005 	lui	v1,0x5
    29e4:	24632ba0 	addiu	v1,v1,11168
    29e8:	10400007 	beqz	v0,2a08 <get_service_header_slot+0x34>
    29ec:	00802821 	move	a1,a0
    29f0:	24030001 	li	v1,1
    29f4:	3c020005 	lui	v0,0x5
    29f8:	ac432c50 	sw	v1,11344(v0)
    29fc:	00a01021 	move	v0,a1
    2a00:	03e00008 	jr	ra
    2a04:	ac8000b0 	sw	zero,176(a0)
    2a08:	24020001 	li	v0,1
    2a0c:	00602821 	move	a1,v1
    2a10:	ac8200b0 	sw	v0,176(a0)
    2a14:	00a01021 	move	v0,a1
    2a18:	03e00008 	jr	ra
    2a1c:	ac6000b0 	sw	zero,176(v1)

00002a20 <init_service_header_slots>:
    2a20:	24020001 	li	v0,1
    2a24:	3c030005 	lui	v1,0x5
    2a28:	3c040005 	lui	a0,0x5
    2a2c:	ac622c50 	sw	v0,11344(v1)
    2a30:	03e00008 	jr	ra
    2a34:	ac822d04 	sw	v0,11524(a0)

00002a38 <DMNI_read_data>:
    2a38:	3c022000 	lui	v0,0x2000
    2a3c:	3c0c2000 	lui	t4,0x2000
    2a40:	34480230 	ori	t0,v0,0x230
    2a44:	24070001 	li	a3,1
    2a48:	34430200 	ori	v1,v0,0x200
    2a4c:	34460220 	ori	a2,v0,0x220
    2a50:	34420210 	ori	v0,v0,0x210
    2a54:	ac650000 	sw	a1,0(v1)
    2a58:	358b0260 	ori	t3,t4,0x260
    2a5c:	acc70000 	sw	a3,0(a2)
    2a60:	358a0530 	ori	t2,t4,0x530
    2a64:	ac440000 	sw	a0,0(v0)
    2a68:	24090001 	li	t1,1
    2a6c:	ad070000 	sw	a3,0(t0)
    2a70:	8d620000 	lw	v0,0(t3)
    2a74:	00000000 	nop
    2a78:	1040000a 	beqz	v0,2aa4 <DMNI_read_data+0x6c>
    2a7c:	24030001 	li	v1,1
    2a80:	8d420000 	lw	v0,0(t2)
    2a84:	00000000 	nop
    2a88:	1449fff9 	bne	v0,t1,2a70 <DMNI_read_data+0x38>
    2a8c:	3c020001 	lui	v0,0x1
    2a90:	2403ffff 	li	v1,-1
    2a94:	24429180 	addiu	v0,v0,-28288
    2a98:	ad820000 	sw	v0,0(t4)
    2a9c:	03e00008 	jr	ra
    2aa0:	00601021 	move	v0,v1
    2aa4:	03e00008 	jr	ra
    2aa8:	00601021 	move	v0,v1

00002aac <DMNI_send_data>:
    2aac:	3c062000 	lui	a2,0x2000
    2ab0:	00804021 	move	t0,a0
    2ab4:	00a03821 	move	a3,a1
    2ab8:	34c30250 	ori	v1,a2,0x250
    2abc:	8c620000 	lw	v0,0(v1)
    2ac0:	00000000 	nop
    2ac4:	1440fffd 	bnez	v0,2abc <DMNI_send_data+0x10>
    2ac8:	34c20200 	ori	v0,a2,0x200
    2acc:	ac470000 	sw	a3,0(v0)
    2ad0:	34c50230 	ori	a1,a2,0x230
    2ad4:	34c30220 	ori	v1,a2,0x220
    2ad8:	34c40210 	ori	a0,a2,0x210
    2adc:	24020001 	li	v0,1
    2ae0:	ac600000 	sw	zero,0(v1)
    2ae4:	ac880000 	sw	t0,0(a0)
    2ae8:	aca20000 	sw	v0,0(a1)
    2aec:	03e00008 	jr	ra
    2af0:	00000000 	nop

00002af4 <get_last_hop>:
    2af4:	3c060005 	lui	a2,0x5
    2af8:	24c397e0 	addiu	v1,a2,-26656
    2afc:	8c620004 	lw	v0,4(v1)
    2b00:	00000000 	nop
    2b04:	14440012 	bne	v0,a0,2b50 <get_last_hop+0x5c>
    2b08:	00000000 	nop
    2b0c:	8c620008 	lw	v0,8(v1)
    2b10:	00000000 	nop
    2b14:	1445000e 	bne	v0,a1,2b50 <get_last_hop+0x5c>
    2b18:	24020003 	li	v0,3
    2b1c:	8c63000c 	lw	v1,12(v1)
    2b20:	00000000 	nop
    2b24:	10620025 	beq	v1,v0,2bbc <get_last_hop+0xc8>
    2b28:	00000000 	nop
    2b2c:	28620004 	slti	v0,v1,4
    2b30:	1440001e 	bnez	v0,2bac <get_last_hop+0xb8>
    2b34:	24020002 	li	v0,2
    2b38:	24020004 	li	v0,4
    2b3c:	10620027 	beq	v1,v0,2bdc <get_last_hop+0xe8>
    2b40:	00000000 	nop
    2b44:	24020005 	li	v0,5
    2b48:	10620022 	beq	v1,v0,2bd4 <get_last_hop+0xe0>
    2b4c:	24c397e0 	addiu	v1,a2,-26656
    2b50:	8c620024 	lw	v0,36(v1)
    2b54:	00000000 	nop
    2b58:	14440012 	bne	v0,a0,2ba4 <get_last_hop+0xb0>
    2b5c:	00000000 	nop
    2b60:	8c620028 	lw	v0,40(v1)
    2b64:	00000000 	nop
    2b68:	1445000e 	bne	v0,a1,2ba4 <get_last_hop+0xb0>
    2b6c:	00000000 	nop
    2b70:	8c63002c 	lw	v1,44(v1)
    2b74:	24020003 	li	v0,3
    2b78:	10620010 	beq	v1,v0,2bbc <get_last_hop+0xc8>
    2b7c:	00000000 	nop
    2b80:	28620004 	slti	v0,v1,4
    2b84:	1440000f 	bnez	v0,2bc4 <get_last_hop+0xd0>
    2b88:	24020002 	li	v0,2
    2b8c:	24020004 	li	v0,4
    2b90:	10620012 	beq	v1,v0,2bdc <get_last_hop+0xe8>
    2b94:	00000000 	nop
    2b98:	24020005 	li	v0,5
    2b9c:	1062000d 	beq	v1,v0,2bd4 <get_last_hop+0xe0>
    2ba0:	00000000 	nop
    2ba4:	03e00008 	jr	ra
    2ba8:	2402ffff 	li	v0,-1
    2bac:	1462ffe8 	bne	v1,v0,2b50 <get_last_hop+0x5c>
    2bb0:	24c397e0 	addiu	v1,a2,-26656
    2bb4:	03e00008 	jr	ra
    2bb8:	24020003 	li	v0,3
    2bbc:	03e00008 	jr	ra
    2bc0:	24020001 	li	v0,1
    2bc4:	1062fffb 	beq	v1,v0,2bb4 <get_last_hop+0xc0>
    2bc8:	00000000 	nop
    2bcc:	03e00008 	jr	ra
    2bd0:	2402ffff 	li	v0,-1
    2bd4:	03e00008 	jr	ra
    2bd8:	24020002 	li	v0,2
    2bdc:	03e00008 	jr	ra
    2be0:	00001021 	move	v0,zero

00002be4 <find_io_peripheral>:
    2be4:	3c080005 	lui	t0,0x5
    2be8:	250797e0 	addiu	a3,t0,-26656
    2bec:	3082ff00 	andi	v0,a0,0xff00
    2bf0:	8ce30004 	lw	v1,4(a3)
    2bf4:	00022a02 	srl	a1,v0,0x8
    2bf8:	00e04821 	move	t1,a3
    2bfc:	10650007 	beq	v1,a1,2c1c <find_io_peripheral+0x38>
    2c00:	308600ff 	andi	a2,a0,0xff
    2c04:	8d220024 	lw	v0,36(t1)
    2c08:	308400ff 	andi	a0,a0,0xff
    2c0c:	1045000d 	beq	v0,a1,2c44 <find_io_peripheral+0x60>
    2c10:	00001821 	move	v1,zero
    2c14:	03e00008 	jr	ra
    2c18:	00601021 	move	v0,v1
    2c1c:	8ce20008 	lw	v0,8(a3)
    2c20:	00000000 	nop
    2c24:	1446fff7 	bne	v0,a2,2c04 <find_io_peripheral+0x20>
    2c28:	00003821 	move	a3,zero
    2c2c:	250397e0 	addiu	v1,t0,-26656
    2c30:	00071140 	sll	v0,a3,0x5
    2c34:	00431021 	addu	v0,v0,v1
    2c38:	8c430000 	lw	v1,0(v0)
    2c3c:	08000b05 	j	2c14 <find_io_peripheral+0x30>
    2c40:	00000000 	nop
    2c44:	8d220028 	lw	v0,40(t1)
    2c48:	00000000 	nop
    2c4c:	1044fff7 	beq	v0,a0,2c2c <find_io_peripheral+0x48>
    2c50:	24070001 	li	a3,1
    2c54:	03e00008 	jr	ra
    2c58:	00601021 	move	v0,v1

00002c5c <find_peripheral_at_line_column>:
    2c5c:	3c070005 	lui	a3,0x5
    2c60:	24e297e0 	addiu	v0,a3,-26656
    2c64:	8c460004 	lw	a2,4(v0)
    2c68:	00041a02 	srl	v1,a0,0x8
    2c6c:	10660015 	beq	v1,a2,2cc4 <find_peripheral_at_line_column+0x68>
    2c70:	308500ff 	andi	a1,a0,0xff
    2c74:	8c420008 	lw	v0,8(v0)
    2c78:	00000000 	nop
    2c7c:	10a20022 	beq	a1,v0,2d08 <find_peripheral_at_line_column+0xac>
    2c80:	00c3102a 	slt	v0,a2,v1
    2c84:	24e297e0 	addiu	v0,a3,-26656
    2c88:	8c440024 	lw	a0,36(v0)
    2c8c:	00000000 	nop
    2c90:	10640016 	beq	v1,a0,2cec <find_peripheral_at_line_column+0x90>
    2c94:	00000000 	nop
    2c98:	8c420028 	lw	v0,40(v0)
    2c9c:	00000000 	nop
    2ca0:	10a20003 	beq	a1,v0,2cb0 <find_peripheral_at_line_column+0x54>
    2ca4:	00000000 	nop
    2ca8:	03e00008 	jr	ra
    2cac:	00001021 	move	v0,zero
    2cb0:	0083102a 	slt	v0,a0,v1
    2cb4:	1440fffc 	bnez	v0,2ca8 <find_peripheral_at_line_column+0x4c>
    2cb8:	00000000 	nop
    2cbc:	03e00008 	jr	ra
    2cc0:	24020001 	li	v0,1
    2cc4:	8c420008 	lw	v0,8(v0)
    2cc8:	00000000 	nop
    2ccc:	0045102a 	slt	v0,v0,a1
    2cd0:	1040fffa 	beqz	v0,2cbc <find_peripheral_at_line_column+0x60>
    2cd4:	00000000 	nop
    2cd8:	24e297e0 	addiu	v0,a3,-26656
    2cdc:	8c440024 	lw	a0,36(v0)
    2ce0:	00000000 	nop
    2ce4:	1464ffec 	bne	v1,a0,2c98 <find_peripheral_at_line_column+0x3c>
    2ce8:	00000000 	nop
    2cec:	8c420028 	lw	v0,40(v0)
    2cf0:	00000000 	nop
    2cf4:	0045102a 	slt	v0,v0,a1
    2cf8:	1040fff0 	beqz	v0,2cbc <find_peripheral_at_line_column+0x60>
    2cfc:	00000000 	nop
    2d00:	03e00008 	jr	ra
    2d04:	00001021 	move	v0,zero
    2d08:	1440ffde 	bnez	v0,2c84 <find_peripheral_at_line_column+0x28>
    2d0c:	00000000 	nop
    2d10:	08000b2f 	j	2cbc <find_peripheral_at_line_column+0x60>
    2d14:	00000000 	nop

00002d18 <peripheral_connected_to_PE>:
    2d18:	3c020005 	lui	v0,0x5
    2d1c:	244697e0 	addiu	a2,v0,-26656
    2d20:	8cc30004 	lw	v1,4(a2)
    2d24:	00000000 	nop
    2d28:	10640007 	beq	v1,a0,2d48 <peripheral_connected_to_PE+0x30>
    2d2c:	00003821 	move	a3,zero
    2d30:	8cc20024 	lw	v0,36(a2)
    2d34:	00000000 	nop
    2d38:	10440009 	beq	v0,a0,2d60 <peripheral_connected_to_PE+0x48>
    2d3c:	00000000 	nop
    2d40:	03e00008 	jr	ra
    2d44:	00e01021 	move	v0,a3
    2d48:	8cc20008 	lw	v0,8(a2)
    2d4c:	00000000 	nop
    2d50:	1445fff7 	bne	v0,a1,2d30 <peripheral_connected_to_PE+0x18>
    2d54:	00000000 	nop
    2d58:	08000b50 	j	2d40 <peripheral_connected_to_PE+0x28>
    2d5c:	24070001 	li	a3,1
    2d60:	8cc20028 	lw	v0,40(a2)
    2d64:	00000000 	nop
    2d68:	1045fffb 	beq	v0,a1,2d58 <peripheral_connected_to_PE+0x40>
    2d6c:	00000000 	nop
    2d70:	03e00008 	jr	ra
    2d74:	00e01021 	move	v0,a3

00002d78 <read_packet>:
    2d78:	3c032000 	lui	v1,0x2000
    2d7c:	27bdffe8 	addiu	sp,sp,-24
    2d80:	00806021 	move	t4,a0
    2d84:	afb00010 	sw	s0,16(sp)
    2d88:	34680230 	ori	t0,v1,0x230
    2d8c:	3c102000 	lui	s0,0x2000
    2d90:	24040001 	li	a0,1
    2d94:	34650200 	ori	a1,v1,0x200
    2d98:	34660220 	ori	a2,v1,0x220
    2d9c:	25870078 	addiu	a3,t4,120
    2da0:	34630210 	ori	v1,v1,0x210
    2da4:	2402000d 	li	v0,13
    2da8:	afbf0014 	sw	ra,20(sp)
    2dac:	360b0260 	ori	t3,s0,0x260
    2db0:	aca20000 	sw	v0,0(a1)
    2db4:	360a0530 	ori	t2,s0,0x530
    2db8:	acc40000 	sw	a0,0(a2)
    2dbc:	24090001 	li	t1,1
    2dc0:	ac670000 	sw	a3,0(v1)
    2dc4:	ad040000 	sw	a0,0(t0)
    2dc8:	8d620000 	lw	v0,0(t3)
    2dcc:	00000000 	nop
    2dd0:	10400012 	beqz	v0,2e1c <read_packet+0xa4>
    2dd4:	24030001 	li	v1,1
    2dd8:	8d420000 	lw	v0,0(t2)
    2ddc:	00000000 	nop
    2de0:	1449fff9 	bne	v0,t1,2dc8 <read_packet+0x50>
    2de4:	00000000 	nop
    2de8:	8d840078 	lw	a0,120(t4)
    2dec:	0c000985 	jal	2614 <itoh>
    2df0:	00000000 	nop
    2df4:	ae020000 	sw	v0,0(s0)
    2df8:	3c020001 	lui	v0,0x1
    2dfc:	2442919c 	addiu	v0,v0,-28260
    2e00:	ae020000 	sw	v0,0(s0)
    2e04:	2403ffff 	li	v1,-1
    2e08:	8fbf0014 	lw	ra,20(sp)
    2e0c:	8fb00010 	lw	s0,16(sp)
    2e10:	00601021 	move	v0,v1
    2e14:	03e00008 	jr	ra
    2e18:	27bd0018 	addiu	sp,sp,24
    2e1c:	8fbf0014 	lw	ra,20(sp)
    2e20:	8fb00010 	lw	s0,16(sp)
    2e24:	00601021 	move	v0,v1
    2e28:	03e00008 	jr	ra
    2e2c:	27bd0018 	addiu	sp,sp,24

00002e30 <send_packet_io>:
    2e30:	27bdffd8 	addiu	sp,sp,-40
    2e34:	afb3001c 	sw	s3,28(sp)
    2e38:	afb20018 	sw	s2,24(sp)
    2e3c:	afb00010 	sw	s0,16(sp)
    2e40:	afbf0024 	sw	ra,36(sp)
    2e44:	afb40020 	sw	s4,32(sp)
    2e48:	afb10014 	sw	s1,20(sp)
    2e4c:	3c080005 	lui	t0,0x5
    2e50:	8d0297e0 	lw	v0,-26656(t0)
    2e54:	00808021 	move	s0,a0
    2e58:	00a09021 	move	s2,a1
    2e5c:	10470087 	beq	v0,a3,307c <send_packet_io+0x24c>
    2e60:	00c09821 	move	s3,a2
    2e64:	250297e0 	addiu	v0,t0,-26656
    2e68:	8c430020 	lw	v1,32(v0)
    2e6c:	00000000 	nop
    2e70:	10670007 	beq	v1,a3,2e90 <send_packet_io+0x60>
    2e74:	24030001 	li	v1,1
    2e78:	3c020001 	lui	v0,0x1
    2e7c:	244291b8 	addiu	v0,v0,-28232
    2e80:	3c032000 	lui	v1,0x2000
    2e84:	ac620000 	sw	v0,0(v1)
    2e88:	08000ba2 	j	2e88 <send_packet_io+0x58>
    2e8c:	00000000 	nop
    2e90:	250497e0 	addiu	a0,t0,-26656
    2e94:	00031940 	sll	v1,v1,0x5
    2e98:	00641821 	addu	v1,v1,a0
    2e9c:	8c620004 	lw	v0,4(v1)
    2ea0:	8c640008 	lw	a0,8(v1)
    2ea4:	00021200 	sll	v0,v0,0x8
    2ea8:	00441025 	or	v0,v0,a0
    2eac:	ae02007c 	sw	v0,124(s0)
    2eb0:	8c71000c 	lw	s1,12(v1)
    2eb4:	2414ffff 	li	s4,-1
    2eb8:	1234ffef 	beq	s1,s4,2e78 <send_packet_io+0x48>
    2ebc:	2662000b 	addiu	v0,s3,11
    2ec0:	ae020080 	sw	v0,128(s0)
    2ec4:	ae000098 	sw	zero,152(s0)
    2ec8:	0c00093a 	jal	24e8 <get_net_address>
    2ecc:	00000000 	nop
    2ed0:	ae020090 	sw	v0,144(s0)
    2ed4:	8e030090 	lw	v1,144(s0)
    2ed8:	8e020090 	lw	v0,144(s0)
    2edc:	30633f00 	andi	v1,v1,0x3f00
    2ee0:	8e04007c 	lw	a0,124(s0)
    2ee4:	3042003f 	andi	v0,v0,0x3f
    2ee8:	00031882 	srl	v1,v1,0x2
    2eec:	00621825 	or	v1,v1,v0
    2ef0:	00118f00 	sll	s1,s1,0x1c
    2ef4:	02242025 	or	a0,s1,a0
    2ef8:	00031c00 	sll	v1,v1,0x10
    2efc:	00641825 	or	v1,v1,a0
    2f00:	ae030078 	sw	v1,120(s0)
    2f04:	8e020090 	lw	v0,144(s0)
    2f08:	8e040090 	lw	a0,144(s0)
    2f0c:	30423f00 	andi	v0,v0,0x3f00
    2f10:	8e03007c 	lw	v1,124(s0)
    2f14:	3084003f 	andi	a0,a0,0x3f
    2f18:	00021082 	srl	v0,v0,0x2
    2f1c:	00441025 	or	v0,v0,a0
    2f20:	02231825 	or	v1,s1,v1
    2f24:	00021400 	sll	v0,v0,0x10
    2f28:	00431025 	or	v0,v0,v1
    2f2c:	ae02007c 	sw	v0,124(s0)
    2f30:	8e04007c 	lw	a0,124(s0)
    2f34:	0c001596 	jal	5658 <SearchSourceRoutingDestination>
    2f38:	3084ffff 	andi	a0,a0,0xffff
    2f3c:	10540051 	beq	v0,s4,3084 <send_packet_io+0x254>
    2f40:	00403821 	move	a3,v0
    2f44:	00022080 	sll	a0,v0,0x2
    2f48:	00021900 	sll	v1,v0,0x4
    2f4c:	00641823 	subu	v1,v1,a0
    2f50:	00031180 	sll	v0,v1,0x6
    2f54:	00621821 	addu	v1,v1,v0
    2f58:	3c020005 	lui	v0,0x5
    2f5c:	8e040090 	lw	a0,144(s0)
    2f60:	24423158 	addiu	v0,v0,12632
    2f64:	00624021 	addu	t0,v1,v0
    2f68:	8e050090 	lw	a1,144(s0)
    2f6c:	8d060088 	lw	a2,136(t0)
    2f70:	30843f00 	andi	a0,a0,0x3f00
    2f74:	8e03007c 	lw	v1,124(s0)
    2f78:	00042082 	srl	a0,a0,0x2
    2f7c:	30a5003f 	andi	a1,a1,0x3f
    2f80:	2402001f 	li	v0,31
    2f84:	00852025 	or	a0,a0,a1
    2f88:	00461023 	subu	v0,v0,a2
    2f8c:	02231825 	or	v1,s1,v1
    2f90:	00042400 	sll	a0,a0,0x10
    2f94:	00021080 	sll	v0,v0,0x2
    2f98:	00832025 	or	a0,a0,v1
    2f9c:	00501021 	addu	v0,v0,s0
    2fa0:	ac440000 	sw	a0,0(v0)
    2fa4:	10c0000d 	beqz	a2,2fdc <send_packet_io+0x1ac>
    2fa8:	01002021 	move	a0,t0
    2fac:	00002821 	move	a1,zero
    2fb0:	00001021 	move	v0,zero
    2fb4:	00461023 	subu	v0,v0,a2
    2fb8:	24420020 	addiu	v0,v0,32
    2fbc:	8c830000 	lw	v1,0(a0)
    2fc0:	00021080 	sll	v0,v0,0x2
    2fc4:	00501021 	addu	v0,v0,s0
    2fc8:	24a50001 	addiu	a1,a1,1
    2fcc:	ac430000 	sw	v1,0(v0)
    2fd0:	24840004 	addiu	a0,a0,4
    2fd4:	14c5fff7 	bne	a2,a1,2fb4 <send_packet_io+0x184>
    2fd8:	00a01021 	move	v0,a1
    2fdc:	24040001 	li	a0,1
    2fe0:	3c062000 	lui	a2,0x2000
    2fe4:	34c20250 	ori	v0,a2,0x250
    2fe8:	8c430000 	lw	v1,0(v0)
    2fec:	00000000 	nop
    2ff0:	1460fffb 	bnez	v1,2fe0 <send_packet_io+0x1b0>
    2ff4:	34c20300 	ori	v0,a2,0x300
    2ff8:	8c430000 	lw	v1,0(v0)
    2ffc:	24020001 	li	v0,1
    3000:	ae030094 	sw	v1,148(s0)
    3004:	10820038 	beq	a0,v0,30e8 <send_packet_io+0x2b8>
    3008:	34c50210 	ori	a1,a2,0x210
    300c:	34c30200 	ori	v1,a2,0x200
    3010:	26040078 	addiu	a0,s0,120
    3014:	2402000d 	li	v0,13
    3018:	ac620000 	sw	v0,0(v1)
    301c:	aca40000 	sw	a0,0(a1)
    3020:	12600005 	beqz	s3,3038 <send_packet_io+0x208>
    3024:	3c022000 	lui	v0,0x2000
    3028:	34430215 	ori	v1,v0,0x215
    302c:	34420205 	ori	v0,v0,0x205
    3030:	ac530000 	sw	s3,0(v0)
    3034:	ac720000 	sw	s2,0(v1)
    3038:	3c022000 	lui	v0,0x2000
    303c:	34470230 	ori	a3,v0,0x230
    3040:	24030001 	li	v1,1
    3044:	34420220 	ori	v0,v0,0x220
    3048:	ac400000 	sw	zero,0(v0)
    304c:	ace30000 	sw	v1,0(a3)
    3050:	02002021 	move	a0,s0
    3054:	02402821 	move	a1,s2
    3058:	02603021 	move	a2,s3
    305c:	8fbf0024 	lw	ra,36(sp)
    3060:	8fb40020 	lw	s4,32(sp)
    3064:	8fb3001c 	lw	s3,28(sp)
    3068:	8fb20018 	lw	s2,24(sp)
    306c:	8fb10014 	lw	s1,20(sp)
    3070:	8fb00010 	lw	s0,16(sp)
    3074:	08001915 	j	6454 <insert_CM_FIFO>
    3078:	27bd0028 	addiu	sp,sp,40
    307c:	08000ba4 	j	2e90 <send_packet_io+0x60>
    3080:	00001821 	move	v1,zero
    3084:	8e020090 	lw	v0,144(s0)
    3088:	8e040090 	lw	a0,144(s0)
    308c:	30423f00 	andi	v0,v0,0x3f00
    3090:	8e03007c 	lw	v1,124(s0)
    3094:	3084003f 	andi	a0,a0,0x3f
    3098:	00021082 	srl	v0,v0,0x2
    309c:	00441025 	or	v0,v0,a0
    30a0:	02231825 	or	v1,s1,v1
    30a4:	00021400 	sll	v0,v0,0x10
    30a8:	00431025 	or	v0,v0,v1
    30ac:	ae020078 	sw	v0,120(s0)
    30b0:	8e030090 	lw	v1,144(s0)
    30b4:	8e040090 	lw	a0,144(s0)
    30b8:	30633f00 	andi	v1,v1,0x3f00
    30bc:	3084003f 	andi	a0,a0,0x3f
    30c0:	8e02007c 	lw	v0,124(s0)
    30c4:	00031882 	srl	v1,v1,0x2
    30c8:	00641825 	or	v1,v1,a0
    30cc:	02221025 	or	v0,s1,v0
    30d0:	00031c00 	sll	v1,v1,0x10
    30d4:	00621825 	or	v1,v1,v0
    30d8:	00002021 	move	a0,zero
    30dc:	ae03007c 	sw	v1,124(s0)
    30e0:	08000bf9 	j	2fe4 <send_packet_io+0x1b4>
    30e4:	3c062000 	lui	a2,0x2000
    30e8:	00071080 	sll	v0,a3,0x2
    30ec:	00071900 	sll	v1,a3,0x4
    30f0:	00621823 	subu	v1,v1,v0
    30f4:	00032180 	sll	a0,v1,0x6
    30f8:	3c020005 	lui	v0,0x5
    30fc:	00641821 	addu	v1,v1,a0
    3100:	24423158 	addiu	v0,v0,12632
    3104:	00621821 	addu	v1,v1,v0
    3108:	8c640088 	lw	a0,136(v1)
    310c:	2402001f 	li	v0,31
    3110:	00441023 	subu	v0,v0,a0
    3114:	00021080 	sll	v0,v0,0x2
    3118:	02021021 	addu	v0,s0,v0
    311c:	2484000c 	addiu	a0,a0,12
    3120:	34c30200 	ori	v1,a2,0x200
    3124:	ac640000 	sw	a0,0(v1)
    3128:	aca20000 	sw	v0,0(a1)
    312c:	08000c08 	j	3020 <send_packet_io+0x1f0>
    3130:	00000000 	nop

00003134 <send_packet>:
    3134:	27bdffe0 	addiu	sp,sp,-32
    3138:	24c2000b 	addiu	v0,a2,11
    313c:	afbf001c 	sw	ra,28(sp)
    3140:	afb20018 	sw	s2,24(sp)
    3144:	afb10014 	sw	s1,20(sp)
    3148:	afb00010 	sw	s0,16(sp)
    314c:	ac820080 	sw	v0,128(a0)
    3150:	ac800098 	sw	zero,152(a0)
    3154:	00808021 	move	s0,a0
    3158:	00c08821 	move	s1,a2
    315c:	0c00093a 	jal	24e8 <get_net_address>
    3160:	00a09021 	move	s2,a1
    3164:	ae020090 	sw	v0,144(s0)
    3168:	8e04007c 	lw	a0,124(s0)
    316c:	0c001596 	jal	5658 <SearchSourceRoutingDestination>
    3170:	3084ffff 	andi	a0,a0,0xffff
    3174:	00404021 	move	t0,v0
    3178:	2402ffff 	li	v0,-1
    317c:	1102004f 	beq	t0,v0,32bc <send_packet+0x188>
    3180:	00000000 	nop
    3184:	8e030084 	lw	v1,132(s0)
    3188:	24020295 	li	v0,661
    318c:	1062004b 	beq	v1,v0,32bc <send_packet+0x188>
    3190:	00081880 	sll	v1,t0,0x2
    3194:	00082100 	sll	a0,t0,0x4
    3198:	00832023 	subu	a0,a0,v1
    319c:	00041180 	sll	v0,a0,0x6
    31a0:	00822021 	addu	a0,a0,v0
    31a4:	3c020005 	lui	v0,0x5
    31a8:	8e030090 	lw	v1,144(s0)
    31ac:	24423158 	addiu	v0,v0,12632
    31b0:	00823821 	addu	a3,a0,v0
    31b4:	8e050090 	lw	a1,144(s0)
    31b8:	8ce60088 	lw	a2,136(a3)
    31bc:	30633f00 	andi	v1,v1,0x3f00
    31c0:	00031882 	srl	v1,v1,0x2
    31c4:	30a5003f 	andi	a1,a1,0x3f
    31c8:	2402001f 	li	v0,31
    31cc:	8e04007c 	lw	a0,124(s0)
    31d0:	00651825 	or	v1,v1,a1
    31d4:	00461023 	subu	v0,v0,a2
    31d8:	00031c00 	sll	v1,v1,0x10
    31dc:	00021080 	sll	v0,v0,0x2
    31e0:	00641825 	or	v1,v1,a0
    31e4:	00501021 	addu	v0,v0,s0
    31e8:	ac430000 	sw	v1,0(v0)
    31ec:	10c0000d 	beqz	a2,3224 <send_packet+0xf0>
    31f0:	00e02021 	move	a0,a3
    31f4:	00002821 	move	a1,zero
    31f8:	00001021 	move	v0,zero
    31fc:	00461023 	subu	v0,v0,a2
    3200:	24420020 	addiu	v0,v0,32
    3204:	8c830000 	lw	v1,0(a0)
    3208:	00021080 	sll	v0,v0,0x2
    320c:	00501021 	addu	v0,v0,s0
    3210:	24a50001 	addiu	a1,a1,1
    3214:	ac430000 	sw	v1,0(v0)
    3218:	24840004 	addiu	a0,a0,4
    321c:	14c5fff7 	bne	a2,a1,31fc <send_packet+0xc8>
    3220:	00a01021 	move	v0,a1
    3224:	24040001 	li	a0,1
    3228:	3c062000 	lui	a2,0x2000
    322c:	34c20250 	ori	v0,a2,0x250
    3230:	8c430000 	lw	v1,0(v0)
    3234:	00000000 	nop
    3238:	1460fffb 	bnez	v1,3228 <send_packet+0xf4>
    323c:	34c20300 	ori	v0,a2,0x300
    3240:	8c430000 	lw	v1,0(v0)
    3244:	24020001 	li	v0,1
    3248:	ae030094 	sw	v1,148(s0)
    324c:	10820036 	beq	a0,v0,3328 <send_packet+0x1f4>
    3250:	34c50210 	ori	a1,a2,0x210
    3254:	34c30200 	ori	v1,a2,0x200
    3258:	26040078 	addiu	a0,s0,120
    325c:	2402000d 	li	v0,13
    3260:	ac620000 	sw	v0,0(v1)
    3264:	aca40000 	sw	a0,0(a1)
    3268:	12200005 	beqz	s1,3280 <send_packet+0x14c>
    326c:	3c022000 	lui	v0,0x2000
    3270:	34430215 	ori	v1,v0,0x215
    3274:	34420205 	ori	v0,v0,0x205
    3278:	ac510000 	sw	s1,0(v0)
    327c:	ac720000 	sw	s2,0(v1)
    3280:	3c022000 	lui	v0,0x2000
    3284:	34470230 	ori	a3,v0,0x230
    3288:	24030001 	li	v1,1
    328c:	34420220 	ori	v0,v0,0x220
    3290:	ac400000 	sw	zero,0(v0)
    3294:	ace30000 	sw	v1,0(a3)
    3298:	02002021 	move	a0,s0
    329c:	02402821 	move	a1,s2
    32a0:	02203021 	move	a2,s1
    32a4:	8fbf001c 	lw	ra,28(sp)
    32a8:	8fb20018 	lw	s2,24(sp)
    32ac:	8fb10014 	lw	s1,20(sp)
    32b0:	8fb00010 	lw	s0,16(sp)
    32b4:	08001915 	j	6454 <insert_CM_FIFO>
    32b8:	27bd0020 	addiu	sp,sp,32
    32bc:	8e030084 	lw	v1,132(s0)
    32c0:	24020295 	li	v0,661
    32c4:	1062002b 	beq	v1,v0,3374 <send_packet+0x240>
    32c8:	00000000 	nop
    32cc:	8e020090 	lw	v0,144(s0)
    32d0:	8e030090 	lw	v1,144(s0)
    32d4:	30423f00 	andi	v0,v0,0x3f00
    32d8:	3063003f 	andi	v1,v1,0x3f
    32dc:	00021082 	srl	v0,v0,0x2
    32e0:	8e04007c 	lw	a0,124(s0)
    32e4:	00431025 	or	v0,v0,v1
    32e8:	00021400 	sll	v0,v0,0x10
    32ec:	00441025 	or	v0,v0,a0
    32f0:	ae020078 	sw	v0,120(s0)
    32f4:	8e030090 	lw	v1,144(s0)
    32f8:	8e020090 	lw	v0,144(s0)
    32fc:	30633f00 	andi	v1,v1,0x3f00
    3300:	00031882 	srl	v1,v1,0x2
    3304:	3042003f 	andi	v0,v0,0x3f
    3308:	8e04007c 	lw	a0,124(s0)
    330c:	00621825 	or	v1,v1,v0
    3310:	00031c00 	sll	v1,v1,0x10
    3314:	00641825 	or	v1,v1,a0
    3318:	00002021 	move	a0,zero
    331c:	ae03007c 	sw	v1,124(s0)
    3320:	08000c8b 	j	322c <send_packet+0xf8>
    3324:	3c062000 	lui	a2,0x2000
    3328:	00081080 	sll	v0,t0,0x2
    332c:	00081900 	sll	v1,t0,0x4
    3330:	00621823 	subu	v1,v1,v0
    3334:	00032180 	sll	a0,v1,0x6
    3338:	3c020005 	lui	v0,0x5
    333c:	00641821 	addu	v1,v1,a0
    3340:	24423158 	addiu	v0,v0,12632
    3344:	00621821 	addu	v1,v1,v0
    3348:	8c640088 	lw	a0,136(v1)
    334c:	2402001f 	li	v0,31
    3350:	00441023 	subu	v0,v0,a0
    3354:	00021080 	sll	v0,v0,0x2
    3358:	02021021 	addu	v0,s0,v0
    335c:	2484000c 	addiu	a0,a0,12
    3360:	34c30200 	ori	v1,a2,0x200
    3364:	ac640000 	sw	a0,0(v1)
    3368:	aca20000 	sw	v0,0(a1)
    336c:	08000c9a 	j	3268 <send_packet+0x134>
    3370:	00000000 	nop
    3374:	8e03007c 	lw	v1,124(s0)
    3378:	00002021 	move	a0,zero
    337c:	ae030078 	sw	v1,120(s0)
    3380:	8e02007c 	lw	v0,124(s0)
    3384:	00000000 	nop
    3388:	ae02007c 	sw	v0,124(s0)
    338c:	08000c8b 	j	322c <send_packet+0xf8>
    3390:	3c062000 	lui	a2,0x2000

00003394 <get_next_pending_app>:
    3394:	3c020005 	lui	v0,0x5
    3398:	3c030005 	lui	v1,0x5
    339c:	2444a7ac 	addiu	a0,v0,-22612
    33a0:	246714a0 	addiu	a3,v1,5280
    33a4:	00002821 	move	a1,zero
    33a8:	08000cef 	j	33bc <get_next_pending_app+0x28>
    33ac:	24060003 	li	a2,3
    33b0:	248405bc 	addiu	a0,a0,1468
    33b4:	10870011 	beq	a0,a3,33fc <get_next_pending_app+0x68>
    33b8:	00000000 	nop
    33bc:	8c820000 	lw	v0,0(a0)
    33c0:	00000000 	nop
    33c4:	1446fffa 	bne	v0,a2,33b0 <get_next_pending_app+0x1c>
    33c8:	00000000 	nop
    33cc:	10a00007 	beqz	a1,33ec <get_next_pending_app+0x58>
    33d0:	00000000 	nop
    33d4:	8ca20000 	lw	v0,0(a1)
    33d8:	8c83fffc 	lw	v1,-4(a0)
    33dc:	00000000 	nop
    33e0:	0062102a 	slt	v0,v1,v0
    33e4:	1040fff2 	beqz	v0,33b0 <get_next_pending_app+0x1c>
    33e8:	00000000 	nop
    33ec:	2485fffc 	addiu	a1,a0,-4
    33f0:	248405bc 	addiu	a0,a0,1468
    33f4:	1487fff1 	bne	a0,a3,33bc <get_next_pending_app+0x28>
    33f8:	00000000 	nop
    33fc:	10a00003 	beqz	a1,340c <get_next_pending_app+0x78>
    3400:	00a01021 	move	v0,a1
    3404:	03e00008 	jr	ra
    3408:	00000000 	nop
    340c:	3c020001 	lui	v0,0x1
    3410:	244291d4 	addiu	v0,v0,-28204
    3414:	3c032000 	lui	v1,0x2000
    3418:	ac620000 	sw	v0,0(v1)
    341c:	08000d07 	j	341c <get_next_pending_app+0x88>
    3420:	00000000 	nop

00003424 <set_task_allocated>:
    3424:	8c870008 	lw	a3,8(a0)
    3428:	00000000 	nop
    342c:	18e0001c 	blez	a3,34a0 <set_task_allocated+0x7c>
    3430:	00801821 	move	v1,a0
    3434:	00004821 	move	t1,zero
    3438:	00003021 	move	a2,zero
    343c:	08000d19 	j	3464 <set_task_allocated+0x40>
    3440:	24080002 	li	t0,2
    3444:	8c620034 	lw	v0,52(v1)
    3448:	00000000 	nop
    344c:	10480012 	beq	v0,t0,3498 <set_task_allocated+0x74>
    3450:	00000000 	nop
    3454:	24c60001 	addiu	a2,a2,1
    3458:	00c7102a 	slt	v0,a2,a3
    345c:	1040000c 	beqz	v0,3490 <set_task_allocated+0x6c>
    3460:	24630078 	addiu	v1,v1,120
    3464:	8c620014 	lw	v0,20(v1)
    3468:	00000000 	nop
    346c:	1445fff5 	bne	v0,a1,3444 <set_task_allocated+0x20>
    3470:	00000000 	nop
    3474:	ac680034 	sw	t0,52(v1)
    3478:	8c870008 	lw	a3,8(a0)
    347c:	24c60001 	addiu	a2,a2,1
    3480:	00c7102a 	slt	v0,a2,a3
    3484:	25290001 	addiu	t1,t1,1
    3488:	1440fff6 	bnez	v0,3464 <set_task_allocated+0x40>
    348c:	24630078 	addiu	v1,v1,120
    3490:	03e00008 	jr	ra
    3494:	01201021 	move	v0,t1
    3498:	08000d15 	j	3454 <set_task_allocated+0x30>
    349c:	25290001 	addiu	t1,t1,1
    34a0:	00004821 	move	t1,zero
    34a4:	03e00008 	jr	ra
    34a8:	01201021 	move	v0,t1

000034ac <initialize_applications>:
    34ac:	3c020005 	lui	v0,0x5
    34b0:	3c030005 	lui	v1,0x5
    34b4:	2442a7a8 	addiu	v0,v0,-22616
    34b8:	2463149c 	addiu	v1,v1,5276
    34bc:	2405ffff 	li	a1,-1
    34c0:	24040002 	li	a0,2
    34c4:	ac450000 	sw	a1,0(v0)
    34c8:	ac400008 	sw	zero,8(v0)
    34cc:	ac440004 	sw	a0,4(v0)
    34d0:	ac40000c 	sw	zero,12(v0)
    34d4:	ac400010 	sw	zero,16(v0)
    34d8:	244205bc 	addiu	v0,v0,1468
    34dc:	1443fff9 	bne	v0,v1,34c4 <initialize_applications+0x18>
    34e0:	00000000 	nop
    34e4:	03e00008 	jr	ra
    34e8:	00000000 	nop

000034ec <add_migrations>:
    34ec:	3c020005 	lui	v0,0x5
    34f0:	2445a7a8 	addiu	a1,v0,-22616
    34f4:	00001821 	move	v1,zero
    34f8:	24070013 	li	a3,19
    34fc:	08000d43 	j	350c <add_migrations+0x20>
    3500:	00a03021 	move	a2,a1
    3504:	1067000a 	beq	v1,a3,3530 <add_migrations+0x44>
    3508:	24c605bc 	addiu	a2,a2,1468
    350c:	8ca20000 	lw	v0,0(a1)
    3510:	24630001 	addiu	v1,v1,1
    3514:	1444fffb 	bne	v0,a0,3504 <add_migrations+0x18>
    3518:	24a505bc 	addiu	a1,a1,1468
    351c:	8cc20010 	lw	v0,16(a2)
    3520:	00000000 	nop
    3524:	24420001 	addiu	v0,v0,1
    3528:	03e00008 	jr	ra
    352c:	acc20010 	sw	v0,16(a2)
    3530:	03e00008 	jr	ra
    3534:	2402ffff 	li	v0,-1

00003538 <sub_migrations>:
    3538:	3c020005 	lui	v0,0x5
    353c:	2445a7a8 	addiu	a1,v0,-22616
    3540:	00001821 	move	v1,zero
    3544:	24070013 	li	a3,19
    3548:	08000d56 	j	3558 <sub_migrations+0x20>
    354c:	00a03021 	move	a2,a1
    3550:	1067000a 	beq	v1,a3,357c <sub_migrations+0x44>
    3554:	24c605bc 	addiu	a2,a2,1468
    3558:	8ca20000 	lw	v0,0(a1)
    355c:	24630001 	addiu	v1,v1,1
    3560:	1444fffb 	bne	v0,a0,3550 <sub_migrations+0x18>
    3564:	24a505bc 	addiu	a1,a1,1468
    3568:	8cc20010 	lw	v0,16(a2)
    356c:	00000000 	nop
    3570:	2442ffff 	addiu	v0,v0,-1
    3574:	03e00008 	jr	ra
    3578:	acc20010 	sw	v0,16(a2)
    357c:	03e00008 	jr	ra
    3580:	2402ffff 	li	v0,-1

00003584 <get_task_ptr>:
    3584:	27bdffe8 	addiu	sp,sp,-24
    3588:	afbf0014 	sw	ra,20(sp)
    358c:	afb00010 	sw	s0,16(sp)
    3590:	8c870008 	lw	a3,8(a0)
    3594:	00000000 	nop
    3598:	18e0000e 	blez	a3,35d4 <get_task_ptr+0x50>
    359c:	3c020001 	lui	v0,0x1
    35a0:	8c820014 	lw	v0,20(a0)
    35a4:	00000000 	nop
    35a8:	10a20016 	beq	a1,v0,3604 <get_task_ptr+0x80>
    35ac:	00803021 	move	a2,a0
    35b0:	08000d72 	j	35c8 <get_task_ptr+0x44>
    35b4:	00001821 	move	v1,zero
    35b8:	8cc2008c 	lw	v0,140(a2)
    35bc:	00000000 	nop
    35c0:	10a20011 	beq	a1,v0,3608 <get_task_ptr+0x84>
    35c4:	24c60078 	addiu	a2,a2,120
    35c8:	24630001 	addiu	v1,v1,1
    35cc:	1467fffa 	bne	v1,a3,35b8 <get_task_ptr+0x34>
    35d0:	3c020001 	lui	v0,0x1
    35d4:	3c102000 	lui	s0,0x2000
    35d8:	244291fc 	addiu	v0,v0,-28164
    35dc:	00a02021 	move	a0,a1
    35e0:	ae020000 	sw	v0,0(s0)
    35e4:	0c00093e 	jal	24f8 <itoa>
    35e8:	00000000 	nop
    35ec:	ae020000 	sw	v0,0(s0)
    35f0:	3c020001 	lui	v0,0x1
    35f4:	24429324 	addiu	v0,v0,-27868
    35f8:	ae020000 	sw	v0,0(s0)
    35fc:	08000d7f 	j	35fc <get_task_ptr+0x78>
    3600:	00000000 	nop
    3604:	00001821 	move	v1,zero
    3608:	000311c0 	sll	v0,v1,0x7
    360c:	000318c0 	sll	v1,v1,0x3
    3610:	00431023 	subu	v0,v0,v1
    3614:	00441021 	addu	v0,v0,a0
    3618:	8fbf0014 	lw	ra,20(sp)
    361c:	8fb00010 	lw	s0,16(sp)
    3620:	24420014 	addiu	v0,v0,20
    3624:	03e00008 	jr	ra
    3628:	27bd0018 	addiu	sp,sp,24

0000362c <set_task_terminated>:
    362c:	27bdffe8 	addiu	sp,sp,-24
    3630:	afb00010 	sw	s0,16(sp)
    3634:	afbf0014 	sw	ra,20(sp)
    3638:	0c000d61 	jal	3584 <get_task_ptr>
    363c:	00808021 	move	s0,a0
    3640:	00401821 	move	v1,v0
    3644:	8c420020 	lw	v0,32(v0)
    3648:	24040004 	li	a0,4
    364c:	10440006 	beq	v0,a0,3668 <set_task_terminated+0x3c>
    3650:	00000000 	nop
    3654:	8e02000c 	lw	v0,12(s0)
    3658:	00000000 	nop
    365c:	24420001 	addiu	v0,v0,1
    3660:	ae02000c 	sw	v0,12(s0)
    3664:	ac640020 	sw	a0,32(v1)
    3668:	8fbf0014 	lw	ra,20(sp)
    366c:	8fb00010 	lw	s0,16(sp)
    3670:	03e00008 	jr	ra
    3674:	27bd0018 	addiu	sp,sp,24

00003678 <get_application_ptr>:
    3678:	3c020005 	lui	v0,0x5
    367c:	2445a7a8 	addiu	a1,v0,-22616
    3680:	27bdffe8 	addiu	sp,sp,-24
    3684:	00001821 	move	v1,zero
    3688:	24070013 	li	a3,19
    368c:	00a03021 	move	a2,a1
    3690:	afbf0014 	sw	ra,20(sp)
    3694:	08000da9 	j	36a4 <get_application_ptr+0x2c>
    3698:	afb00010 	sw	s0,16(sp)
    369c:	1067000a 	beq	v1,a3,36c8 <get_application_ptr+0x50>
    36a0:	24c605bc 	addiu	a2,a2,1468
    36a4:	8ca20000 	lw	v0,0(a1)
    36a8:	24630001 	addiu	v1,v1,1
    36ac:	1482fffb 	bne	a0,v0,369c <get_application_ptr+0x24>
    36b0:	24a505bc 	addiu	a1,a1,1468
    36b4:	8fbf0014 	lw	ra,20(sp)
    36b8:	8fb00010 	lw	s0,16(sp)
    36bc:	00c01021 	move	v0,a2
    36c0:	03e00008 	jr	ra
    36c4:	27bd0018 	addiu	sp,sp,24
    36c8:	3c020001 	lui	v0,0x1
    36cc:	3c102000 	lui	s0,0x2000
    36d0:	24429214 	addiu	v0,v0,-28140
    36d4:	ae020000 	sw	v0,0(s0)
    36d8:	0c00093e 	jal	24f8 <itoa>
    36dc:	00000000 	nop
    36e0:	ae020000 	sw	v0,0(s0)
    36e4:	3c020001 	lui	v0,0x1
    36e8:	24429324 	addiu	v0,v0,-27868
    36ec:	ae020000 	sw	v0,0(s0)
    36f0:	8fbf0014 	lw	ra,20(sp)
    36f4:	8fb00010 	lw	s0,16(sp)
    36f8:	00001021 	move	v0,zero
    36fc:	03e00008 	jr	ra
    3700:	27bd0018 	addiu	sp,sp,24

00003704 <remove_application>:
    3704:	27bdffe8 	addiu	sp,sp,-24
    3708:	afbf0010 	sw	ra,16(sp)
    370c:	0c000d9e 	jal	3678 <get_application_ptr>
    3710:	00000000 	nop
    3714:	2403ffff 	li	v1,-1
    3718:	24040002 	li	a0,2
    371c:	ac430000 	sw	v1,0(v0)
    3720:	ac440004 	sw	a0,4(v0)
    3724:	ac40000c 	sw	zero,12(v0)
    3728:	ac400008 	sw	zero,8(v0)
    372c:	8fbf0010 	lw	ra,16(sp)
    3730:	00000000 	nop
    3734:	03e00008 	jr	ra
    3738:	27bd0018 	addiu	sp,sp,24

0000373c <read_and_create_application>:
    373c:	27bdffd0 	addiu	sp,sp,-48
    3740:	afb20020 	sw	s2,32(sp)
    3744:	00809021 	move	s2,a0
    3748:	2404ffff 	li	a0,-1
    374c:	afbf0028 	sw	ra,40(sp)
    3750:	afb30024 	sw	s3,36(sp)
    3754:	afb1001c 	sw	s1,28(sp)
    3758:	00a09821 	move	s3,a1
    375c:	0c000d9e 	jal	3678 <get_application_ptr>
    3760:	afb00018 	sw	s0,24(sp)
    3764:	ac520000 	sw	s2,0(v0)
    3768:	00408821 	move	s1,v0
    376c:	3c020001 	lui	v0,0x1
    3770:	3c102000 	lui	s0,0x2000
    3774:	24429234 	addiu	v0,v0,-28108
    3778:	02402021 	move	a0,s2
    377c:	ae020000 	sw	v0,0(s0)
    3780:	0c00093e 	jal	24f8 <itoa>
    3784:	00000000 	nop
    3788:	ae020000 	sw	v0,0(s0)
    378c:	3c020001 	lui	v0,0x1
    3790:	24429324 	addiu	v0,v0,-27868
    3794:	ae020000 	sw	v0,0(s0)
    3798:	8e630000 	lw	v1,0(s3)
    379c:	00000000 	nop
    37a0:	04600046 	bltz	v1,38bc <read_and_create_application+0x180>
    37a4:	ae230008 	sw	v1,8(s1)
    37a8:	ae2005b4 	sw	zero,1460(s1)
    37ac:	8e220008 	lw	v0,8(s1)
    37b0:	00000000 	nop
    37b4:	1840003a 	blez	v0,38a0 <read_and_create_application+0x164>
    37b8:	02201021 	move	v0,s1
    37bc:	26650004 	addiu	a1,s3,4
    37c0:	00125a00 	sll	t3,s2,0x8
    37c4:	00006021 	move	t4,zero
    37c8:	240affff 	li	t2,-1
    37cc:	8ca30000 	lw	v1,0(a1)
    37d0:	24a90068 	addiu	t1,a1,104
    37d4:	afa30010 	sw	v1,16(sp)
    37d8:	8fa20010 	lw	v0,16(sp)
    37dc:	24a80018 	addiu	t0,a1,24
    37e0:	304200ff 	andi	v0,v0,0xff
    37e4:	afa20010 	sw	v0,16(sp)
    37e8:	8fa30010 	lw	v1,16(sp)
    37ec:	8ca20004 	lw	v0,4(a1)
    37f0:	000321c0 	sll	a0,v1,0x7
    37f4:	000318c0 	sll	v1,v1,0x3
    37f8:	00832023 	subu	a0,a0,v1
    37fc:	24840010 	addiu	a0,a0,16
    3800:	02242021 	addu	a0,s1,a0
    3804:	24870004 	addiu	a3,a0,4
    3808:	ace20004 	sw	v0,4(a3)
    380c:	8ca30008 	lw	v1,8(a1)
    3810:	00e03021 	move	a2,a3
    3814:	ace30008 	sw	v1,8(a3)
    3818:	8ca2000c 	lw	v0,12(a1)
    381c:	00000000 	nop
    3820:	ace2000c 	sw	v0,12(a3)
    3824:	8ca30010 	lw	v1,16(a1)
    3828:	acea0014 	sw	t2,20(a3)
    382c:	ace30010 	sw	v1,16(a3)
    3830:	ace00024 	sw	zero,36(a3)
    3834:	8ca30014 	lw	v1,20(a1)
    3838:	8fa20010 	lw	v0,16(sp)
    383c:	ace30018 	sw	v1,24(a3)
    3840:	01621025 	or	v0,t3,v0
    3844:	ac820004 	sw	v0,4(a0)
    3848:	acea001c 	sw	t2,28(a3)
    384c:	8d020000 	lw	v0,0(t0)
    3850:	00000000 	nop
    3854:	01621025 	or	v0,t3,v0
    3858:	acc20028 	sw	v0,40(a2)
    385c:	8d030004 	lw	v1,4(t0)
    3860:	25080008 	addiu	t0,t0,8
    3864:	acc3002c 	sw	v1,44(a2)
    3868:	104a0005 	beq	v0,t2,3880 <read_and_create_application+0x144>
    386c:	24c60008 	addiu	a2,a2,8
    3870:	8ce20024 	lw	v0,36(a3)
    3874:	00000000 	nop
    3878:	24420001 	addiu	v0,v0,1
    387c:	ace20024 	sw	v0,36(a3)
    3880:	1509fff2 	bne	t0,t1,384c <read_and_create_application+0x110>
    3884:	00000000 	nop
    3888:	8e220008 	lw	v0,8(s1)
    388c:	258c0001 	addiu	t4,t4,1
    3890:	0182102a 	slt	v0,t4,v0
    3894:	1440ffcd 	bnez	v0,37cc <read_and_create_application+0x90>
    3898:	01002821 	move	a1,t0
    389c:	02201021 	move	v0,s1
    38a0:	8fbf0028 	lw	ra,40(sp)
    38a4:	8fb30024 	lw	s3,36(sp)
    38a8:	8fb20020 	lw	s2,32(sp)
    38ac:	8fb1001c 	lw	s1,28(sp)
    38b0:	8fb00018 	lw	s0,24(sp)
    38b4:	03e00008 	jr	ra
    38b8:	27bd0030 	addiu	sp,sp,48
    38bc:	3c027fff 	lui	v0,0x7fff
    38c0:	3442ffff 	ori	v0,v0,0xffff
    38c4:	00621024 	and	v0,v1,v0
    38c8:	24030001 	li	v1,1
    38cc:	ae220008 	sw	v0,8(s1)
    38d0:	08000deb 	j	37ac <read_and_create_application+0x70>
    38d4:	ae2305b4 	sw	v1,1460(s1)

000038d8 <change_task_location_TCB>:
    38d8:	27bdffe0 	addiu	sp,sp,-32
    38dc:	afb00010 	sw	s0,16(sp)
    38e0:	00808021 	move	s0,a0
    38e4:	00042203 	sra	a0,a0,0x8
    38e8:	afb10014 	sw	s1,20(sp)
    38ec:	afbf0018 	sw	ra,24(sp)
    38f0:	0c000d9e 	jal	3678 <get_application_ptr>
    38f4:	00c08821 	move	s1,a2
    38f8:	8c450008 	lw	a1,8(v0)
    38fc:	00000000 	nop
    3900:	18a00011 	blez	a1,3948 <change_task_location_TCB+0x70>
    3904:	00403021 	move	a2,v0
    3908:	00401821 	move	v1,v0
    390c:	08000e48 	j	3920 <change_task_location_TCB+0x48>
    3910:	00002021 	move	a0,zero
    3914:	0085102a 	slt	v0,a0,a1
    3918:	1040000b 	beqz	v0,3948 <change_task_location_TCB+0x70>
    391c:	24630078 	addiu	v1,v1,120
    3920:	8c620014 	lw	v0,20(v1)
    3924:	00000000 	nop
    3928:	1602fffa 	bne	s0,v0,3914 <change_task_location_TCB+0x3c>
    392c:	24840001 	addiu	a0,a0,1
    3930:	ac710028 	sw	s1,40(v1)
    3934:	8cc50008 	lw	a1,8(a2)
    3938:	00000000 	nop
    393c:	0085102a 	slt	v0,a0,a1
    3940:	1440fff7 	bnez	v0,3920 <change_task_location_TCB+0x48>
    3944:	24630078 	addiu	v1,v1,120
    3948:	8fbf0018 	lw	ra,24(sp)
    394c:	8fb10014 	lw	s1,20(sp)
    3950:	8fb00010 	lw	s0,16(sp)
    3954:	03e00008 	jr	ra
    3958:	27bd0020 	addiu	sp,sp,32

0000395c <set_task_migrated>:
    395c:	27bdffe0 	addiu	sp,sp,-32
    3960:	afb00010 	sw	s0,16(sp)
    3964:	00808021 	move	s0,a0
    3968:	00042203 	sra	a0,a0,0x8
    396c:	afbf0018 	sw	ra,24(sp)
    3970:	afb10014 	sw	s1,20(sp)
    3974:	0c000d9e 	jal	3678 <get_application_ptr>
    3978:	00a08821 	move	s1,a1
    397c:	00402021 	move	a0,v0
    3980:	0c000d61 	jal	3584 <get_task_ptr>
    3984:	02002821 	move	a1,s0
    3988:	24030003 	li	v1,3
    398c:	ac510014 	sw	s1,20(v0)
    3990:	ac430020 	sw	v1,32(v0)
    3994:	8fbf0018 	lw	ra,24(sp)
    3998:	8fb10014 	lw	s1,20(sp)
    399c:	8fb00010 	lw	s0,16(sp)
    39a0:	03e00008 	jr	ra
    39a4:	27bd0020 	addiu	sp,sp,32

000039a8 <set_task_migrating>:
    39a8:	27bdffe8 	addiu	sp,sp,-24
    39ac:	afb00010 	sw	s0,16(sp)
    39b0:	00808021 	move	s0,a0
    39b4:	afbf0014 	sw	ra,20(sp)
    39b8:	0c000d9e 	jal	3678 <get_application_ptr>
    39bc:	00042203 	sra	a0,a0,0x8
    39c0:	00402021 	move	a0,v0
    39c4:	0c000d61 	jal	3584 <get_task_ptr>
    39c8:	02002821 	move	a1,s0
    39cc:	24030005 	li	v1,5
    39d0:	ac430020 	sw	v1,32(v0)
    39d4:	8fbf0014 	lw	ra,20(sp)
    39d8:	8fb00010 	lw	s0,16(sp)
    39dc:	03e00008 	jr	ra
    39e0:	27bd0018 	addiu	sp,sp,24

000039e4 <print_tasks_location>:
    39e4:	27bdffd0 	addiu	sp,sp,-48
    39e8:	afb3001c 	sw	s3,28(sp)
    39ec:	afbf002c 	sw	ra,44(sp)
    39f0:	afb60028 	sw	s6,40(sp)
    39f4:	afb50024 	sw	s5,36(sp)
    39f8:	afb40020 	sw	s4,32(sp)
    39fc:	afb20018 	sw	s2,24(sp)
    3a00:	afb10014 	sw	s1,20(sp)
    3a04:	0c000d9e 	jal	3678 <get_application_ptr>
    3a08:	afb00010 	sw	s0,16(sp)
    3a0c:	00409821 	move	s3,v0
    3a10:	8c420008 	lw	v0,8(v0)
    3a14:	00000000 	nop
    3a18:	18400019 	blez	v0,3a80 <print_tasks_location+0x9c>
    3a1c:	3c020001 	lui	v0,0x1
    3a20:	24569244 	addiu	s6,v0,-28092
    3a24:	3c030001 	lui	v1,0x1
    3a28:	3c020001 	lui	v0,0x1
    3a2c:	24759254 	addiu	s5,v1,-28076
    3a30:	24549324 	addiu	s4,v0,-27868
    3a34:	02608021 	move	s0,s3
    3a38:	00009021 	move	s2,zero
    3a3c:	3c112000 	lui	s1,0x2000
    3a40:	ae360000 	sw	s6,0(s1)
    3a44:	8e040014 	lw	a0,20(s0)
    3a48:	0c00093e 	jal	24f8 <itoa>
    3a4c:	26520001 	addiu	s2,s2,1
    3a50:	ae220000 	sw	v0,0(s1)
    3a54:	ae350000 	sw	s5,0(s1)
    3a58:	8e040028 	lw	a0,40(s0)
    3a5c:	0c000985 	jal	2614 <itoh>
    3a60:	26100078 	addiu	s0,s0,120
    3a64:	ae220000 	sw	v0,0(s1)
    3a68:	ae340000 	sw	s4,0(s1)
    3a6c:	8e620008 	lw	v0,8(s3)
    3a70:	00000000 	nop
    3a74:	0242102a 	slt	v0,s2,v0
    3a78:	1440fff1 	bnez	v0,3a40 <print_tasks_location+0x5c>
    3a7c:	00000000 	nop
    3a80:	8fbf002c 	lw	ra,44(sp)
    3a84:	8fb60028 	lw	s6,40(sp)
    3a88:	8fb50024 	lw	s5,36(sp)
    3a8c:	8fb40020 	lw	s4,32(sp)
    3a90:	8fb3001c 	lw	s3,28(sp)
    3a94:	8fb20018 	lw	s2,24(sp)
    3a98:	8fb10014 	lw	s1,20(sp)
    3a9c:	8fb00010 	lw	s0,16(sp)
    3aa0:	03e00008 	jr	ra
    3aa4:	27bd0030 	addiu	sp,sp,48

00003aa8 <reclustering_setup>:
    3aa8:	00042880 	sll	a1,a0,0x2
    3aac:	00041940 	sll	v1,a0,0x5
    3ab0:	3c020005 	lui	v0,0x5
    3ab4:	00651823 	subu	v1,v1,a1
    3ab8:	244297c4 	addiu	v0,v0,-26684
    3abc:	00621821 	addu	v1,v1,v0
    3ac0:	8c620008 	lw	v0,8(v1)
    3ac4:	8c650010 	lw	a1,16(v1)
    3ac8:	8c67000c 	lw	a3,12(v1)
    3acc:	8c660014 	lw	a2,20(v1)
    3ad0:	00a22823 	subu	a1,a1,v0
    3ad4:	00c73023 	subu	a2,a2,a3
    3ad8:	3c020005 	lui	v0,0x5
    3adc:	24a50001 	addiu	a1,a1,1
    3ae0:	3c030005 	lui	v1,0x5
    3ae4:	24c60001 	addiu	a2,a2,1
    3ae8:	ac4598c0 	sw	a1,-26432(v0)
    3aec:	3c020005 	lui	v0,0x5
    3af0:	ac6698bc 	sw	a2,-26436(v1)
    3af4:	ac4498c4 	sw	a0,-26428(v0)
    3af8:	3c030005 	lui	v1,0x5
    3afc:	3c020005 	lui	v0,0x5
    3b00:	ac602d0c 	sw	zero,11532(v1)
    3b04:	03e00008 	jr	ra
    3b08:	ac40994c 	sw	zero,-26292(v0)

00003b0c <is_reclustering_NOT_active>:
    3b0c:	3c030005 	lui	v1,0x5
    3b10:	8c622d0c 	lw	v0,11532(v1)
    3b14:	03e00008 	jr	ra
    3b18:	2c420001 	sltiu	v0,v0,1

00003b1c <fires_reclustering_protocol>:
    3b1c:	3c030005 	lui	v1,0x5
    3b20:	8c6298c4 	lw	v0,-26428(v1)
    3b24:	3c050005 	lui	a1,0x5
    3b28:	00021940 	sll	v1,v0,0x5
    3b2c:	00021080 	sll	v0,v0,0x2
    3b30:	24a797c4 	addiu	a3,a1,-26684
    3b34:	00621823 	subu	v1,v1,v0
    3b38:	00671821 	addu	v1,v1,a3
    3b3c:	8ca697c4 	lw	a2,-26684(a1)
    3b40:	8c640000 	lw	a0,0(v1)
    3b44:	3c020005 	lui	v0,0x5
    3b48:	24482d08 	addiu	t0,v0,11528
    3b4c:	3c0200ff 	lui	v0,0xff
    3b50:	3442ffff 	ori	v0,v0,0xffff
    3b54:	00c43023 	subu	a2,a2,a0
    3b58:	2404ffff 	li	a0,-1
    3b5c:	ad040014 	sw	a0,20(t0)
    3b60:	ad02000c 	sw	v0,12(t0)
    3b64:	ad000008 	sw	zero,8(t0)
    3b68:	ad040010 	sw	a0,16(t0)
    3b6c:	8ce40004 	lw	a0,4(a3)
    3b70:	8c620004 	lw	v0,4(v1)
    3b74:	04c00014 	bltz	a2,3bc8 <fires_reclustering_protocol+0xac>
    3b78:	01002821 	move	a1,t0
    3b7c:	00821823 	subu	v1,a0,v0
    3b80:	28c20007 	slti	v0,a2,7
    3b84:	10400005 	beqz	v0,3b9c <fires_reclustering_protocol+0x80>
    3b88:	00000000 	nop
    3b8c:	04600010 	bltz	v1,3bd0 <fires_reclustering_protocol+0xb4>
    3b90:	28620006 	slti	v0,v1,6
    3b94:	14400006 	bnez	v0,3bb0 <fires_reclustering_protocol+0x94>
    3b98:	24020001 	li	v0,1
    3b9c:	8d020008 	lw	v0,8(t0)
    3ba0:	00000000 	nop
    3ba4:	2442ffff 	addiu	v0,v0,-1
    3ba8:	03e00008 	jr	ra
    3bac:	ad020008 	sw	v0,8(t0)
    3bb0:	aca20008 	sw	v0,8(a1)
    3bb4:	8d020008 	lw	v0,8(t0)
    3bb8:	00000000 	nop
    3bbc:	2442ffff 	addiu	v0,v0,-1
    3bc0:	03e00008 	jr	ra
    3bc4:	ad020008 	sw	v0,8(t0)
    3bc8:	08000edf 	j	3b7c <fires_reclustering_protocol+0x60>
    3bcc:	00063023 	negu	a2,a2
    3bd0:	00031823 	negu	v1,v1
    3bd4:	28620006 	slti	v0,v1,6
    3bd8:	1040fff0 	beqz	v0,3b9c <fires_reclustering_protocol+0x80>
    3bdc:	24020001 	li	v0,1
    3be0:	08000eed 	j	3bb4 <fires_reclustering_protocol+0x98>
    3be4:	aca20008 	sw	v0,8(a1)

00003be8 <handle_reclustering>:
    3be8:	03e00008 	jr	ra
    3bec:	00000000 	nop

00003bf0 <reclustering_next_task>:
    3bf0:	27bdffe8 	addiu	sp,sp,-24
    3bf4:	afbf0010 	sw	ra,16(sp)
    3bf8:	8c870008 	lw	a3,8(a0)
    3bfc:	00000000 	nop
    3c00:	18e0000e 	blez	a3,3c3c <reclustering_next_task+0x4c>
    3c04:	2402ffff 	li	v0,-1
    3c08:	8c830028 	lw	v1,40(a0)
    3c0c:	00000000 	nop
    3c10:	10620020 	beq	v1,v0,3c94 <reclustering_next_task+0xa4>
    3c14:	00802821 	move	a1,a0
    3c18:	08000f0c 	j	3c30 <reclustering_next_task+0x40>
    3c1c:	00003021 	move	a2,zero
    3c20:	8ca300a0 	lw	v1,160(a1)
    3c24:	00000000 	nop
    3c28:	10620008 	beq	v1,v0,3c4c <reclustering_next_task+0x5c>
    3c2c:	24a50078 	addiu	a1,a1,120
    3c30:	24c60001 	addiu	a2,a2,1
    3c34:	14c7fffa 	bne	a2,a3,3c20 <reclustering_next_task+0x30>
    3c38:	2402ffff 	li	v0,-1
    3c3c:	8fbf0010 	lw	ra,16(sp)
    3c40:	24020001 	li	v0,1
    3c44:	03e00008 	jr	ra
    3c48:	27bd0018 	addiu	sp,sp,24
    3c4c:	00c01821 	move	v1,a2
    3c50:	000311c0 	sll	v0,v1,0x7
    3c54:	000318c0 	sll	v1,v1,0x3
    3c58:	00431023 	subu	v0,v0,v1
    3c5c:	00441021 	addu	v0,v0,a0
    3c60:	24450014 	addiu	a1,v0,20
    3c64:	10a0fff5 	beqz	a1,3c3c <reclustering_next_task+0x4c>
    3c68:	3c020005 	lui	v0,0x5
    3c6c:	24442d08 	addiu	a0,v0,11528
    3c70:	24030001 	li	v1,1
    3c74:	ac830018 	sw	v1,24(a0)
    3c78:	ac830004 	sw	v1,4(a0)
    3c7c:	0c000ec7 	jal	3b1c <fires_reclustering_protocol>
    3c80:	ac452d08 	sw	a1,11528(v0)
    3c84:	8fbf0010 	lw	ra,16(sp)
    3c88:	00001021 	move	v0,zero
    3c8c:	03e00008 	jr	ra
    3c90:	27bd0018 	addiu	sp,sp,24
    3c94:	08000f14 	j	3c50 <reclustering_next_task+0x60>
    3c98:	00001821 	move	v1,zero

00003c9c <handle_reclustering_release_from_seek>:
    3c9c:	27bdffe0 	addiu	sp,sp,-32
    3ca0:	afb20018 	sw	s2,24(sp)
    3ca4:	afb10014 	sw	s1,20(sp)
    3ca8:	afbf001c 	sw	ra,28(sp)
    3cac:	afb00010 	sw	s0,16(sp)
    3cb0:	3c120005 	lui	s2,0x5
    3cb4:	8e4398c4 	lw	v1,-26428(s2)
    3cb8:	3c020005 	lui	v0,0x5
    3cbc:	00033940 	sll	a3,v1,0x5
    3cc0:	00031880 	sll	v1,v1,0x2
    3cc4:	244297c4 	addiu	v0,v0,-26684
    3cc8:	00e33823 	subu	a3,a3,v1
    3ccc:	00e23821 	addu	a3,a3,v0
    3cd0:	8ce20000 	lw	v0,0(a3)
    3cd4:	308800ff 	andi	t0,a0,0xff
    3cd8:	00042203 	sra	a0,a0,0x8
    3cdc:	00821023 	subu	v0,a0,v0
    3ce0:	8ce40004 	lw	a0,4(a3)
    3ce4:	04400022 	bltz	v0,3d70 <handle_reclustering_release_from_seek+0xd4>
    3ce8:	00a08821 	move	s1,a1
    3cec:	28420007 	slti	v0,v0,7
    3cf0:	10400019 	beqz	v0,3d58 <handle_reclustering_release_from_seek+0xbc>
    3cf4:	01042823 	subu	a1,t0,a0
    3cf8:	30c20030 	andi	v0,a2,0x30
    3cfc:	00021100 	sll	v0,v0,0x4
    3d00:	30c3000f 	andi	v1,a2,0xf
    3d04:	00438025 	or	s0,v0,v1
    3d08:	04a0001b 	bltz	a1,3d78 <handle_reclustering_release_from_seek+0xdc>
    3d0c:	02002021 	move	a0,s0
    3d10:	28a20006 	slti	v0,a1,6
    3d14:	10400010 	beqz	v0,3d58 <handle_reclustering_release_from_seek+0xbc>
    3d18:	00000000 	nop
    3d1c:	0c001249 	jal	4924 <get_task_location>
    3d20:	00000000 	nop
    3d24:	00401821 	move	v1,v0
    3d28:	2402ffff 	li	v0,-1
    3d2c:	1062000a 	beq	v1,v0,3d58 <handle_reclustering_release_from_seek+0xbc>
    3d30:	00602821 	move	a1,v1
    3d34:	10710008 	beq	v1,s1,3d58 <handle_reclustering_release_from_seek+0xbc>
    3d38:	02003021 	move	a2,s0
    3d3c:	8e4498c4 	lw	a0,-26428(s2)
    3d40:	8fbf001c 	lw	ra,28(sp)
    3d44:	8fb20018 	lw	s2,24(sp)
    3d48:	8fb10014 	lw	s1,20(sp)
    3d4c:	8fb00010 	lw	s0,16(sp)
    3d50:	0800154f 	j	553c <page_released>
    3d54:	27bd0020 	addiu	sp,sp,32
    3d58:	8fbf001c 	lw	ra,28(sp)
    3d5c:	8fb20018 	lw	s2,24(sp)
    3d60:	8fb10014 	lw	s1,20(sp)
    3d64:	8fb00010 	lw	s0,16(sp)
    3d68:	03e00008 	jr	ra
    3d6c:	27bd0020 	addiu	sp,sp,32
    3d70:	08000f3b 	j	3cec <handle_reclustering_release_from_seek+0x50>
    3d74:	00021023 	negu	v0,v0
    3d78:	00052823 	negu	a1,a1
    3d7c:	28a20006 	slti	v0,a1,6
    3d80:	1040fff5 	beqz	v0,3d58 <handle_reclustering_release_from_seek+0xbc>
    3d84:	00000000 	nop
    3d88:	08000f47 	j	3d1c <handle_reclustering_release_from_seek+0x80>
    3d8c:	00000000 	nop

00003d90 <send_loan_proc_release>:
    3d90:	27bdffe0 	addiu	sp,sp,-32
    3d94:	afbf001c 	sw	ra,28(sp)
    3d98:	afb20018 	sw	s2,24(sp)
    3d9c:	afb10014 	sw	s1,20(sp)
    3da0:	00a09021 	move	s2,a1
    3da4:	00808821 	move	s1,a0
    3da8:	afb00010 	sw	s0,16(sp)
    3dac:	0c000a75 	jal	29d4 <get_service_header_slot>
    3db0:	00c08021 	move	s0,a2
    3db4:	ac51007c 	sw	s1,124(v0)
    3db8:	ac500088 	sw	s0,136(v0)
    3dbc:	ac52009c 	sw	s2,156(v0)
    3dc0:	8fbf001c 	lw	ra,28(sp)
    3dc4:	8fb20018 	lw	s2,24(sp)
    3dc8:	8fb10014 	lw	s1,20(sp)
    3dcc:	8fb00010 	lw	s0,16(sp)
    3dd0:	00402021 	move	a0,v0
    3dd4:	00002821 	move	a1,zero
    3dd8:	00003021 	move	a2,zero
    3ddc:	08000c4d 	j	3134 <send_packet>
    3de0:	27bd0020 	addiu	sp,sp,32

00003de4 <send_loan_proc_delivery>:
    3de4:	27bdffd8 	addiu	sp,sp,-40
    3de8:	afbf0020 	sw	ra,32(sp)
    3dec:	afb3001c 	sw	s3,28(sp)
    3df0:	afb20018 	sw	s2,24(sp)
    3df4:	00c09821 	move	s3,a2
    3df8:	00a09021 	move	s2,a1
    3dfc:	afb10014 	sw	s1,20(sp)
    3e00:	afb00010 	sw	s0,16(sp)
    3e04:	00808821 	move	s1,a0
    3e08:	0c000a75 	jal	29d4 <get_service_header_slot>
    3e0c:	00e08021 	move	s0,a3
    3e10:	ac51007c 	sw	s1,124(v0)
    3e14:	ac520088 	sw	s2,136(v0)
    3e18:	ac50008c 	sw	s0,140(v0)
    3e1c:	ac53009c 	sw	s3,156(v0)
    3e20:	8fbf0020 	lw	ra,32(sp)
    3e24:	8fb3001c 	lw	s3,28(sp)
    3e28:	8fb20018 	lw	s2,24(sp)
    3e2c:	8fb10014 	lw	s1,20(sp)
    3e30:	8fb00010 	lw	s0,16(sp)
    3e34:	00402021 	move	a0,v0
    3e38:	00002821 	move	a1,zero
    3e3c:	00003021 	move	a2,zero
    3e40:	08000c4d 	j	3134 <send_packet>
    3e44:	27bd0028 	addiu	sp,sp,40

00003e48 <handle_reclustering_request_from_seek>:
    3e48:	27bdffd8 	addiu	sp,sp,-40
    3e4c:	afb40020 	sw	s4,32(sp)
    3e50:	afb3001c 	sw	s3,28(sp)
    3e54:	afb10014 	sw	s1,20(sp)
    3e58:	afbf0024 	sw	ra,36(sp)
    3e5c:	afb20018 	sw	s2,24(sp)
    3e60:	afb00010 	sw	s0,16(sp)
    3e64:	3c140005 	lui	s4,0x5
    3e68:	8e8398c4 	lw	v1,-26428(s4)
    3e6c:	3c020005 	lui	v0,0x5
    3e70:	00033940 	sll	a3,v1,0x5
    3e74:	00031880 	sll	v1,v1,0x2
    3e78:	00e33823 	subu	a3,a3,v1
    3e7c:	244297c4 	addiu	v0,v0,-26684
    3e80:	00e23821 	addu	a3,a3,v0
    3e84:	8ce30000 	lw	v1,0(a3)
    3e88:	00041203 	sra	v0,a0,0x8
    3e8c:	00431023 	subu	v0,v0,v1
    3e90:	00a09821 	move	s3,a1
    3e94:	00808821 	move	s1,a0
    3e98:	8ce50004 	lw	a1,4(a3)
    3e9c:	04400032 	bltz	v0,3f68 <handle_reclustering_request_from_seek+0x120>
    3ea0:	308800ff 	andi	t0,a0,0xff
    3ea4:	28420007 	slti	v0,v0,7
    3ea8:	10400009 	beqz	v0,3ed0 <handle_reclustering_request_from_seek+0x88>
    3eac:	01054023 	subu	t0,t0,a1
    3eb0:	30c20030 	andi	v0,a2,0x30
    3eb4:	00021100 	sll	v0,v0,0x4
    3eb8:	30c3000f 	andi	v1,a2,0xf
    3ebc:	0500002c 	bltz	t0,3f70 <handle_reclustering_request_from_seek+0x128>
    3ec0:	00439025 	or	s2,v0,v1
    3ec4:	29020006 	slti	v0,t0,6
    3ec8:	14400009 	bnez	v0,3ef0 <handle_reclustering_request_from_seek+0xa8>
    3ecc:	00000000 	nop
    3ed0:	8fbf0024 	lw	ra,36(sp)
    3ed4:	8fb40020 	lw	s4,32(sp)
    3ed8:	8fb3001c 	lw	s3,28(sp)
    3edc:	8fb20018 	lw	s2,24(sp)
    3ee0:	8fb10014 	lw	s1,20(sp)
    3ee4:	8fb00010 	lw	s0,16(sp)
    3ee8:	03e00008 	jr	ra
    3eec:	27bd0028 	addiu	sp,sp,40
    3ef0:	8ce20018 	lw	v0,24(a3)
    3ef4:	02402821 	move	a1,s2
    3ef8:	00003021 	move	a2,zero
    3efc:	18400022 	blez	v0,3f88 <handle_reclustering_request_from_seek+0x140>
    3f00:	2407ffff 	li	a3,-1
    3f04:	0c00141c 	jal	5070 <map_task>
    3f08:	00002021 	move	a0,zero
    3f0c:	00408021 	move	s0,v0
    3f10:	00101a03 	sra	v1,s0,0x8
    3f14:	320400ff 	andi	a0,s0,0xff
    3f18:	326200ff 	andi	v0,s3,0xff
    3f1c:	00133a03 	sra	a3,s3,0x8
    3f20:	00441021 	addu	v0,v0,a0
    3f24:	00e33821 	addu	a3,a3,v1
    3f28:	02202021 	move	a0,s1
    3f2c:	02402821 	move	a1,s2
    3f30:	02003021 	move	a2,s0
    3f34:	0c000f79 	jal	3de4 <send_loan_proc_delivery>
    3f38:	00e23821 	addu	a3,a3,v0
    3f3c:	8e8498c4 	lw	a0,-26428(s4)
    3f40:	02002821 	move	a1,s0
    3f44:	02403021 	move	a2,s2
    3f48:	8fbf0024 	lw	ra,36(sp)
    3f4c:	8fb40020 	lw	s4,32(sp)
    3f50:	8fb3001c 	lw	s3,28(sp)
    3f54:	8fb20018 	lw	s2,24(sp)
    3f58:	8fb10014 	lw	s1,20(sp)
    3f5c:	8fb00010 	lw	s0,16(sp)
    3f60:	080014f3 	j	53cc <page_used>
    3f64:	27bd0028 	addiu	sp,sp,40
    3f68:	08000fa9 	j	3ea4 <handle_reclustering_request_from_seek+0x5c>
    3f6c:	00021023 	negu	v0,v0
    3f70:	00084023 	negu	t0,t0
    3f74:	29020006 	slti	v0,t0,6
    3f78:	1040ffd5 	beqz	v0,3ed0 <handle_reclustering_request_from_seek+0x88>
    3f7c:	00000000 	nop
    3f80:	08000fbc 	j	3ef0 <handle_reclustering_request_from_seek+0xa8>
    3f84:	00000000 	nop
    3f88:	8fbf0024 	lw	ra,36(sp)
    3f8c:	8fb40020 	lw	s4,32(sp)
    3f90:	8fb3001c 	lw	s3,28(sp)
    3f94:	8fb20018 	lw	s2,24(sp)
    3f98:	8fb10014 	lw	s1,20(sp)
    3f9c:	8fb00010 	lw	s0,16(sp)
    3fa0:	2406ffff 	li	a2,-1
    3fa4:	08000f79 	j	3de4 <send_loan_proc_delivery>
    3fa8:	27bd0028 	addiu	sp,sp,40

00003fac <send_loan_proc_request>:
    3fac:	27bdffe0 	addiu	sp,sp,-32
    3fb0:	afbf0018 	sw	ra,24(sp)
    3fb4:	afb10014 	sw	s1,20(sp)
    3fb8:	afb00010 	sw	s0,16(sp)
    3fbc:	00a08821 	move	s1,a1
    3fc0:	0c000a75 	jal	29d4 <get_service_header_slot>
    3fc4:	00808021 	move	s0,a0
    3fc8:	3c040005 	lui	a0,0x5
    3fcc:	8c8398c4 	lw	v1,-26428(a0)
    3fd0:	ac50007c 	sw	s0,124(v0)
    3fd4:	00032940 	sll	a1,v1,0x5
    3fd8:	00031880 	sll	v1,v1,0x2
    3fdc:	00a32823 	subu	a1,a1,v1
    3fe0:	3c030005 	lui	v1,0x5
    3fe4:	246397c4 	addiu	v1,v1,-26684
    3fe8:	ac510088 	sw	s1,136(v0)
    3fec:	00a32821 	addu	a1,a1,v1
    3ff0:	8ca30000 	lw	v1,0(a1)
    3ff4:	8ca40004 	lw	a0,4(a1)
    3ff8:	00031a00 	sll	v1,v1,0x8
    3ffc:	00641825 	or	v1,v1,a0
    4000:	ac43009c 	sw	v1,156(v0)
    4004:	8fbf0018 	lw	ra,24(sp)
    4008:	8fb10014 	lw	s1,20(sp)
    400c:	8fb00010 	lw	s0,16(sp)
    4010:	00402021 	move	a0,v0
    4014:	00002821 	move	a1,zero
    4018:	00003021 	move	a2,zero
    401c:	08000c4d 	j	3134 <send_packet>
    4020:	27bd0020 	addiu	sp,sp,32

00004024 <init_new_task_list>:
    4024:	3c020005 	lui	v0,0x5
    4028:	3c030005 	lui	v1,0x5
    402c:	24422d24 	addiu	v0,v0,11556
    4030:	24632e28 	addiu	v1,v1,11816
    4034:	2404ffff 	li	a0,-1
    4038:	ac440000 	sw	a0,0(v0)
    403c:	24420014 	addiu	v0,v0,20
    4040:	1443fffd 	bne	v0,v1,4038 <init_new_task_list+0x14>
    4044:	00000000 	nop
    4048:	03e00008 	jr	ra
    404c:	00000000 	nop

00004050 <add_new_task>:
    4050:	3c0a0005 	lui	t2,0x5
    4054:	8d439958 	lw	v1,-26280(t2)
    4058:	3c060005 	lui	a2,0x5
    405c:	2402000d 	li	v0,13
    4060:	8cc59954 	lw	a1,-26284(a2)
    4064:	10620019 	beq	v1,v0,40cc <add_new_task+0x7c>
    4068:	00804821 	move	t1,a0
    406c:	2402000c 	li	v0,12
    4070:	10a2001c 	beq	a1,v0,40e4 <add_new_task+0x94>
    4074:	24a20001 	addiu	v0,a1,1
    4078:	acc29954 	sw	v0,-26284(a2)
    407c:	00051100 	sll	v0,a1,0x4
    4080:	00051880 	sll	v1,a1,0x2
    4084:	8d449958 	lw	a0,-26280(t2)
    4088:	00621821 	addu	v1,v1,v0
    408c:	3c020005 	lui	v0,0x5
    4090:	8d250010 	lw	a1,16(t1)
    4094:	8d260000 	lw	a2,0(t1)
    4098:	8d270004 	lw	a3,4(t1)
    409c:	8d280008 	lw	t0,8(t1)
    40a0:	24422d24 	addiu	v0,v0,11556
    40a4:	8d29000c 	lw	t1,12(t1)
    40a8:	00621821 	addu	v1,v1,v0
    40ac:	24840001 	addiu	a0,a0,1
    40b0:	ac650010 	sw	a1,16(v1)
    40b4:	ad449958 	sw	a0,-26280(t2)
    40b8:	ac660000 	sw	a2,0(v1)
    40bc:	ac670004 	sw	a3,4(v1)
    40c0:	ac680008 	sw	t0,8(v1)
    40c4:	03e00008 	jr	ra
    40c8:	ac69000c 	sw	t1,12(v1)
    40cc:	3c020001 	lui	v0,0x1
    40d0:	24429260 	addiu	v0,v0,-28064
    40d4:	3c032000 	lui	v1,0x2000
    40d8:	ac620000 	sw	v0,0(v1)
    40dc:	08001037 	j	40dc <add_new_task+0x8c>
    40e0:	00000000 	nop
    40e4:	0800101f 	j	407c <add_new_task+0x2c>
    40e8:	acc09954 	sw	zero,-26284(a2)

000040ec <get_next_new_task>:
    40ec:	3c070005 	lui	a3,0x5
    40f0:	8ce69958 	lw	a2,-26280(a3)
    40f4:	3c050005 	lui	a1,0x5
    40f8:	10c0000e 	beqz	a2,4134 <get_next_new_task+0x48>
    40fc:	00001021 	move	v0,zero
    4100:	8ca39950 	lw	v1,-26288(a1)
    4104:	2402000c 	li	v0,12
    4108:	1062000c 	beq	v1,v0,413c <get_next_new_task+0x50>
    410c:	24640001 	addiu	a0,v1,1
    4110:	aca49950 	sw	a0,-26288(a1)
    4114:	24c2ffff 	addiu	v0,a2,-1
    4118:	00032100 	sll	a0,v1,0x4
    411c:	ace29958 	sw	v0,-26280(a3)
    4120:	00031880 	sll	v1,v1,0x2
    4124:	3c020005 	lui	v0,0x5
    4128:	00641821 	addu	v1,v1,a0
    412c:	24422d24 	addiu	v0,v0,11556
    4130:	00621021 	addu	v0,v1,v0
    4134:	03e00008 	jr	ra
    4138:	00000000 	nop
    413c:	08001045 	j	4114 <get_next_new_task+0x28>
    4140:	aca09950 	sw	zero,-26288(a1)

00004144 <search_free_processor>:
    4144:	3c040005 	lui	a0,0x5
    4148:	00002821 	move	a1,zero
    414c:	2483a618 	addiu	v1,a0,-23016
    4150:	2406ffff 	li	a2,-1
    4154:	0800105a 	j	4168 <search_free_processor+0x24>
    4158:	24070014 	li	a3,20
    415c:	24a50001 	addiu	a1,a1,1
    4160:	10a7000b 	beq	a1,a3,4190 <search_free_processor+0x4c>
    4164:	3c020001 	lui	v0,0x1
    4168:	8c620000 	lw	v0,0(v1)
    416c:	00000000 	nop
    4170:	1446fffa 	bne	v0,a2,415c <search_free_processor+0x18>
    4174:	24630014 	addiu	v1,v1,20
    4178:	00051900 	sll	v1,a1,0x4
    417c:	00051080 	sll	v0,a1,0x2
    4180:	00431021 	addu	v0,v0,v1
    4184:	2484a618 	addiu	a0,a0,-23016
    4188:	03e00008 	jr	ra
    418c:	00441021 	addu	v0,v0,a0
    4190:	2442927c 	addiu	v0,v0,-28036
    4194:	3c032000 	lui	v1,0x2000
    4198:	ac620000 	sw	v0,0(v1)
    419c:	08001067 	j	419c <search_free_processor+0x58>
    41a0:	00000000 	nop

000041a4 <get_proc_address>:
    41a4:	00041900 	sll	v1,a0,0x4
    41a8:	3c020005 	lui	v0,0x5
    41ac:	00042080 	sll	a0,a0,0x2
    41b0:	00832021 	addu	a0,a0,v1
    41b4:	2442a618 	addiu	v0,v0,-23016
    41b8:	00822021 	addu	a0,a0,v0
    41bc:	8c820000 	lw	v0,0(a0)
    41c0:	03e00008 	jr	ra
    41c4:	00000000 	nop

000041c8 <add_processor>:
    41c8:	27bdffe8 	addiu	sp,sp,-24
    41cc:	afb00010 	sw	s0,16(sp)
    41d0:	afbf0014 	sw	ra,20(sp)
    41d4:	0c001051 	jal	4144 <search_free_processor>
    41d8:	00808021 	move	s0,a0
    41dc:	00402021 	move	a0,v0
    41e0:	3c020005 	lui	v0,0x5
    41e4:	8c4398b8 	lw	v1,-26440(v0)
    41e8:	00000000 	nop
    41ec:	10700002 	beq	v1,s0,41f8 <add_processor+0x30>
    41f0:	24020001 	li	v0,1
    41f4:	ac820004 	sw	v0,4(a0)
    41f8:	2402ffff 	li	v0,-1
    41fc:	ac820010 	sw	v0,16(a0)
    4200:	ac900000 	sw	s0,0(a0)
    4204:	ac800008 	sw	zero,8(a0)
    4208:	ac80000c 	sw	zero,12(a0)
    420c:	8fbf0014 	lw	ra,20(sp)
    4210:	8fb00010 	lw	s0,16(sp)
    4214:	03e00008 	jr	ra
    4218:	27bd0018 	addiu	sp,sp,24

0000421c <clear_free_page_processor>:
    421c:	3c020005 	lui	v0,0x5
    4220:	3c030005 	lui	v1,0x5
    4224:	2445a618 	addiu	a1,v0,-23016
    4228:	0800108f 	j	423c <clear_free_page_processor+0x20>
    422c:	2463a7a8 	addiu	v1,v1,-22616
    4230:	24a50014 	addiu	a1,a1,20
    4234:	10a30009 	beq	a1,v1,425c <clear_free_page_processor+0x40>
    4238:	00000000 	nop
    423c:	8ca20000 	lw	v0,0(a1)
    4240:	00000000 	nop
    4244:	1444fffa 	bne	v0,a0,4230 <clear_free_page_processor+0x14>
    4248:	00000000 	nop
    424c:	aca00004 	sw	zero,4(a1)
    4250:	24a50014 	addiu	a1,a1,20
    4254:	14a3fff9 	bne	a1,v1,423c <clear_free_page_processor+0x20>
    4258:	00000000 	nop
    425c:	03e00008 	jr	ra
    4260:	00000000 	nop

00004264 <init_processors>:
    4264:	3c020005 	lui	v0,0x5
    4268:	3c030005 	lui	v1,0x5
    426c:	2442a618 	addiu	v0,v0,-23016
    4270:	2463a7a8 	addiu	v1,v1,-22616
    4274:	2404ffff 	li	a0,-1
    4278:	ac440000 	sw	a0,0(v0)
    427c:	ac400004 	sw	zero,4(v0)
    4280:	ac440010 	sw	a0,16(v0)
    4284:	24420014 	addiu	v0,v0,20
    4288:	1443fffb 	bne	v0,v1,4278 <init_processors+0x14>
    428c:	00000000 	nop
    4290:	03e00008 	jr	ra
    4294:	00000000 	nop

00004298 <initialize_migration_list>:
    4298:	3c020005 	lui	v0,0x5
    429c:	3c030005 	lui	v1,0x5
    42a0:	24422b00 	addiu	v0,v0,11008
    42a4:	24632ba0 	addiu	v1,v1,11168
    42a8:	ac400000 	sw	zero,0(v0)
    42ac:	24420010 	addiu	v0,v0,16
    42b0:	1443fffd 	bne	v0,v1,42a8 <initialize_migration_list+0x10>
    42b4:	00000000 	nop
    42b8:	03e00008 	jr	ra
    42bc:	00000000 	nop

000042c0 <get_task_id_FREEZING_in_migration_list>:
    42c0:	3c020005 	lui	v0,0x5
    42c4:	24432b00 	addiu	v1,v0,11008
    42c8:	00002821 	move	a1,zero
    42cc:	24080002 	li	t0,2
    42d0:	2407000a 	li	a3,10
    42d4:	24660008 	addiu	a2,v1,8
    42d8:	8c620000 	lw	v0,0(v1)
    42dc:	00000000 	nop
    42e0:	14480005 	bne	v0,t0,42f8 <get_task_id_FREEZING_in_migration_list+0x38>
    42e4:	24a50001 	addiu	a1,a1,1
    42e8:	8c620004 	lw	v0,4(v1)
    42ec:	00000000 	nop
    42f0:	10440006 	beq	v0,a0,430c <get_task_id_FREEZING_in_migration_list+0x4c>
    42f4:	00000000 	nop
    42f8:	24c60010 	addiu	a2,a2,16
    42fc:	14a7fff6 	bne	a1,a3,42d8 <get_task_id_FREEZING_in_migration_list+0x18>
    4300:	24630010 	addiu	v1,v1,16
    4304:	03e00008 	jr	ra
    4308:	2402ffff 	li	v0,-1
    430c:	8cc20000 	lw	v0,0(a2)
    4310:	03e00008 	jr	ra
    4314:	00000000 	nop

00004318 <set_migration_list_status>:
    4318:	3c020005 	lui	v0,0x5
    431c:	24462b00 	addiu	a2,v0,11008
    4320:	00001821 	move	v1,zero
    4324:	24090002 	li	t1,2
    4328:	2408000a 	li	t0,10
    432c:	080010d0 	j	4340 <set_migration_list_status+0x28>
    4330:	00c03821 	move	a3,a2
    4334:	24e70010 	addiu	a3,a3,16
    4338:	1068000d 	beq	v1,t0,4370 <set_migration_list_status+0x58>
    433c:	24c60010 	addiu	a2,a2,16
    4340:	8cc20000 	lw	v0,0(a2)
    4344:	00000000 	nop
    4348:	1449fffa 	bne	v0,t1,4334 <set_migration_list_status+0x1c>
    434c:	24630001 	addiu	v1,v1,1
    4350:	8cc20004 	lw	v0,4(a2)
    4354:	00000000 	nop
    4358:	1444fff7 	bne	v0,a0,4338 <set_migration_list_status+0x20>
    435c:	24e70010 	addiu	a3,a3,16
    4360:	24e7fff0 	addiu	a3,a3,-16
    4364:	24020001 	li	v0,1
    4368:	03e00008 	jr	ra
    436c:	ace50000 	sw	a1,0(a3)
    4370:	03e00008 	jr	ra
    4374:	00001021 	move	v0,zero

00004378 <proc_is_migrating>:
    4378:	3c020005 	lui	v0,0x5
    437c:	3c030005 	lui	v1,0x5
    4380:	24452b04 	addiu	a1,v0,11012
    4384:	080010e6 	j	4398 <proc_is_migrating+0x20>
    4388:	24632ba4 	addiu	v1,v1,11172
    438c:	24a50010 	addiu	a1,a1,16
    4390:	10a3000b 	beq	a1,v1,43c0 <proc_is_migrating+0x48>
    4394:	00000000 	nop
    4398:	8ca20000 	lw	v0,0(a1)
    439c:	00000000 	nop
    43a0:	1444fffa 	bne	v0,a0,438c <proc_is_migrating+0x14>
    43a4:	00000000 	nop
    43a8:	8ca2fffc 	lw	v0,-4(a1)
    43ac:	00000000 	nop
    43b0:	1040fff7 	beqz	v0,4390 <proc_is_migrating+0x18>
    43b4:	24a50010 	addiu	a1,a1,16
    43b8:	03e00008 	jr	ra
    43bc:	24020001 	li	v0,1
    43c0:	03e00008 	jr	ra
    43c4:	00001021 	move	v0,zero

000043c8 <print_migrating_list>:
    43c8:	27bdffd0 	addiu	sp,sp,-48
    43cc:	3c020005 	lui	v0,0x5
    43d0:	3c030001 	lui	v1,0x1
    43d4:	afb60028 	sw	s6,40(sp)
    43d8:	afb00010 	sw	s0,16(sp)
    43dc:	247692a0 	addiu	s6,v1,-28000
    43e0:	24502b00 	addiu	s0,v0,11008
    43e4:	3c030001 	lui	v1,0x1
    43e8:	3c020001 	lui	v0,0x1
    43ec:	afb50024 	sw	s5,36(sp)
    43f0:	afb20018 	sw	s2,24(sp)
    43f4:	247592b4 	addiu	s5,v1,-27980
    43f8:	24529324 	addiu	s2,v0,-27868
    43fc:	3c030005 	lui	v1,0x5
    4400:	3c020001 	lui	v0,0x1
    4404:	afb40020 	sw	s4,32(sp)
    4408:	afb3001c 	sw	s3,28(sp)
    440c:	afb10014 	sw	s1,20(sp)
    4410:	245492c8 	addiu	s4,v0,-27960
    4414:	24732ba0 	addiu	s3,v1,11168
    4418:	3c112000 	lui	s1,0x2000
    441c:	0800110c 	j	4430 <print_migrating_list+0x68>
    4420:	afbf002c 	sw	ra,44(sp)
    4424:	26100010 	addiu	s0,s0,16
    4428:	12130019 	beq	s0,s3,4490 <print_migrating_list+0xc8>
    442c:	00000000 	nop
    4430:	8e020000 	lw	v0,0(s0)
    4434:	00000000 	nop
    4438:	1040fffa 	beqz	v0,4424 <print_migrating_list+0x5c>
    443c:	00000000 	nop
    4440:	ae360000 	sw	s6,0(s1)
    4444:	8e040004 	lw	a0,4(s0)
    4448:	0c000985 	jal	2614 <itoh>
    444c:	00000000 	nop
    4450:	ae220000 	sw	v0,0(s1)
    4454:	ae320000 	sw	s2,0(s1)
    4458:	ae350000 	sw	s5,0(s1)
    445c:	8e040008 	lw	a0,8(s0)
    4460:	0c000985 	jal	2614 <itoh>
    4464:	00000000 	nop
    4468:	ae220000 	sw	v0,0(s1)
    446c:	ae320000 	sw	s2,0(s1)
    4470:	ae340000 	sw	s4,0(s1)
    4474:	8e040000 	lw	a0,0(s0)
    4478:	0c000985 	jal	2614 <itoh>
    447c:	26100010 	addiu	s0,s0,16
    4480:	ae220000 	sw	v0,0(s1)
    4484:	ae320000 	sw	s2,0(s1)
    4488:	1613ffe9 	bne	s0,s3,4430 <print_migrating_list+0x68>
    448c:	00000000 	nop
    4490:	8fbf002c 	lw	ra,44(sp)
    4494:	8fb60028 	lw	s6,40(sp)
    4498:	8fb50024 	lw	s5,36(sp)
    449c:	8fb40020 	lw	s4,32(sp)
    44a0:	8fb3001c 	lw	s3,28(sp)
    44a4:	8fb20018 	lw	s2,24(sp)
    44a8:	8fb10014 	lw	s1,20(sp)
    44ac:	8fb00010 	lw	s0,16(sp)
    44b0:	03e00008 	jr	ra
    44b4:	27bd0030 	addiu	sp,sp,48

000044b8 <remove_from_migration_list>:
    44b8:	27bdffd8 	addiu	sp,sp,-40
    44bc:	afbf0020 	sw	ra,32(sp)
    44c0:	afb3001c 	sw	s3,28(sp)
    44c4:	afb20018 	sw	s2,24(sp)
    44c8:	00a09821 	move	s3,a1
    44cc:	afb10014 	sw	s1,20(sp)
    44d0:	afb00010 	sw	s0,16(sp)
    44d4:	0c0010f2 	jal	43c8 <print_migrating_list>
    44d8:	00809021 	move	s2,a0
    44dc:	3c020001 	lui	v0,0x1
    44e0:	3c112000 	lui	s1,0x2000
    44e4:	244292dc 	addiu	v0,v0,-27940
    44e8:	02402021 	move	a0,s2
    44ec:	ae220000 	sw	v0,0(s1)
    44f0:	0c000985 	jal	2614 <itoh>
    44f4:	00000000 	nop
    44f8:	ae220000 	sw	v0,0(s1)
    44fc:	3c100001 	lui	s0,0x1
    4500:	3c020001 	lui	v0,0x1
    4504:	26109324 	addiu	s0,s0,-27868
    4508:	244292f4 	addiu	v0,v0,-27916
    450c:	02602021 	move	a0,s3
    4510:	ae300000 	sw	s0,0(s1)
    4514:	ae220000 	sw	v0,0(s1)
    4518:	0c000985 	jal	2614 <itoh>
    451c:	00000000 	nop
    4520:	3c030005 	lui	v1,0x5
    4524:	24632b00 	addiu	v1,v1,11008
    4528:	00002021 	move	a0,zero
    452c:	24070005 	li	a3,5
    4530:	2406000a 	li	a2,10
    4534:	00602821 	move	a1,v1
    4538:	ae220000 	sw	v0,0(s1)
    453c:	ae300000 	sw	s0,0(s1)
    4540:	08001155 	j	4554 <remove_from_migration_list+0x9c>
    4544:	00000000 	nop
    4548:	24a50010 	addiu	a1,a1,16
    454c:	10860015 	beq	a0,a2,45a4 <remove_from_migration_list+0xec>
    4550:	24630010 	addiu	v1,v1,16
    4554:	8c620000 	lw	v0,0(v1)
    4558:	00000000 	nop
    455c:	1447fffa 	bne	v0,a3,4548 <remove_from_migration_list+0x90>
    4560:	24840001 	addiu	a0,a0,1
    4564:	8c620004 	lw	v0,4(v1)
    4568:	00000000 	nop
    456c:	1642fff6 	bne	s2,v0,4548 <remove_from_migration_list+0x90>
    4570:	00000000 	nop
    4574:	8c620008 	lw	v0,8(v1)
    4578:	00000000 	nop
    457c:	1662fff3 	bne	s3,v0,454c <remove_from_migration_list+0x94>
    4580:	24a50010 	addiu	a1,a1,16
    4584:	24a5fff0 	addiu	a1,a1,-16
    4588:	3c020001 	lui	v0,0x1
    458c:	24429310 	addiu	v0,v0,-27888
    4590:	3c032000 	lui	v1,0x2000
    4594:	24040001 	li	a0,1
    4598:	ac620000 	sw	v0,0(v1)
    459c:	0800116e 	j	45b8 <remove_from_migration_list+0x100>
    45a0:	aca00000 	sw	zero,0(a1)
    45a4:	3c020001 	lui	v0,0x1
    45a8:	2442930c 	addiu	v0,v0,-27892
    45ac:	3c032000 	lui	v1,0x2000
    45b0:	ac620000 	sw	v0,0(v1)
    45b4:	00002021 	move	a0,zero
    45b8:	8fbf0020 	lw	ra,32(sp)
    45bc:	8fb3001c 	lw	s3,28(sp)
    45c0:	8fb20018 	lw	s2,24(sp)
    45c4:	8fb10014 	lw	s1,20(sp)
    45c8:	8fb00010 	lw	s0,16(sp)
    45cc:	00801021 	move	v0,a0
    45d0:	03e00008 	jr	ra
    45d4:	27bd0028 	addiu	sp,sp,40

000045d8 <search_processor>:
    45d8:	3c070005 	lui	a3,0x5
    45dc:	27bdffe8 	addiu	sp,sp,-24
    45e0:	00002821 	move	a1,zero
    45e4:	24e3a618 	addiu	v1,a3,-23016
    45e8:	24060014 	li	a2,20
    45ec:	afbf0014 	sw	ra,20(sp)
    45f0:	08001181 	j	4604 <search_processor+0x2c>
    45f4:	afb00010 	sw	s0,16(sp)
    45f8:	24a50001 	addiu	a1,a1,1
    45fc:	10a6000e 	beq	a1,a2,4638 <search_processor+0x60>
    4600:	3c020001 	lui	v0,0x1
    4604:	8c620000 	lw	v0,0(v1)
    4608:	00000000 	nop
    460c:	1482fffa 	bne	a0,v0,45f8 <search_processor+0x20>
    4610:	24630014 	addiu	v1,v1,20
    4614:	00051900 	sll	v1,a1,0x4
    4618:	00051080 	sll	v0,a1,0x2
    461c:	00431021 	addu	v0,v0,v1
    4620:	24e4a618 	addiu	a0,a3,-23016
    4624:	8fbf0014 	lw	ra,20(sp)
    4628:	8fb00010 	lw	s0,16(sp)
    462c:	00441021 	addu	v0,v0,a0
    4630:	03e00008 	jr	ra
    4634:	27bd0018 	addiu	sp,sp,24
    4638:	3c102000 	lui	s0,0x2000
    463c:	24429328 	addiu	v0,v0,-27864
    4640:	ae020000 	sw	v0,0(s0)
    4644:	0c000985 	jal	2614 <itoh>
    4648:	00000000 	nop
    464c:	ae020000 	sw	v0,0(s0)
    4650:	3c020001 	lui	v0,0x1
    4654:	24429324 	addiu	v0,v0,-27868
    4658:	ae020000 	sw	v0,0(s0)
    465c:	08001197 	j	465c <search_processor+0x84>
    4660:	00000000 	nop

00004664 <get_task_id_processor>:
    4664:	27bdffe8 	addiu	sp,sp,-24
    4668:	afbf0010 	sw	ra,16(sp)
    466c:	0c001176 	jal	45d8 <search_processor>
    4670:	00000000 	nop
    4674:	8c430010 	lw	v1,16(v0)
    4678:	8fbf0010 	lw	ra,16(sp)
    467c:	3c02ffff 	lui	v0,0xffff
    4680:	00621025 	or	v0,v1,v0
    4684:	03e00008 	jr	ra
    4688:	27bd0018 	addiu	sp,sp,24

0000468c <get_proc_free_pages>:
    468c:	27bdffe8 	addiu	sp,sp,-24
    4690:	afbf0010 	sw	ra,16(sp)
    4694:	0c001176 	jal	45d8 <search_processor>
    4698:	00000000 	nop
    469c:	8c420004 	lw	v0,4(v0)
    46a0:	8fbf0010 	lw	ra,16(sp)
    46a4:	00000000 	nop
    46a8:	03e00008 	jr	ra
    46ac:	27bd0018 	addiu	sp,sp,24

000046b0 <change_task>:
    46b0:	27bdffd8 	addiu	sp,sp,-40
    46b4:	afb00010 	sw	s0,16(sp)
    46b8:	00808021 	move	s0,a0
    46bc:	afbf0020 	sw	ra,32(sp)
    46c0:	afb3001c 	sw	s3,28(sp)
    46c4:	afb20018 	sw	s2,24(sp)
    46c8:	00a09821 	move	s3,a1
    46cc:	0c001176 	jal	45d8 <search_processor>
    46d0:	afb10014 	sw	s1,20(sp)
    46d4:	02002021 	move	a0,s0
    46d8:	0c0010b0 	jal	42c0 <get_task_id_FREEZING_in_migration_list>
    46dc:	00409021 	move	s2,v0
    46e0:	02002021 	move	a0,s0
    46e4:	24050003 	li	a1,3
    46e8:	0c0010c6 	jal	4318 <set_migration_list_status>
    46ec:	00408821 	move	s1,v0
    46f0:	8e430010 	lw	v1,16(s2)
    46f4:	00000000 	nop
    46f8:	16230005 	bne	s1,v1,4710 <change_task+0x60>
    46fc:	3c020001 	lui	v0,0x1
    4700:	24429344 	addiu	v0,v0,-27836
    4704:	3c032000 	lui	v1,0x2000
    4708:	ac620000 	sw	v0,0(v1)
    470c:	ae530010 	sw	s3,16(s2)
    4710:	8fbf0020 	lw	ra,32(sp)
    4714:	8fb3001c 	lw	s3,28(sp)
    4718:	8fb20018 	lw	s2,24(sp)
    471c:	8fb10014 	lw	s1,20(sp)
    4720:	8fb00010 	lw	s0,16(sp)
    4724:	03e00008 	jr	ra
    4728:	27bd0028 	addiu	sp,sp,40

0000472c <get_proc_slack_time>:
    472c:	27bdffe8 	addiu	sp,sp,-24
    4730:	afbf0010 	sw	ra,16(sp)
    4734:	0c001176 	jal	45d8 <search_processor>
    4738:	00000000 	nop
    473c:	8c43000c 	lw	v1,12(v0)
    4740:	00000000 	nop
    4744:	10600007 	beqz	v1,4764 <get_proc_slack_time+0x38>
    4748:	00002021 	move	a0,zero
    474c:	8c420008 	lw	v0,8(v0)
    4750:	00000000 	nop
    4754:	14600002 	bnez	v1,4760 <get_proc_slack_time+0x34>
    4758:	0043001b 	divu	zero,v0,v1
    475c:	0007000d 	break	0x7
    4760:	00002012 	mflo	a0
    4764:	8fbf0010 	lw	ra,16(sp)
    4768:	00801021 	move	v0,a0
    476c:	03e00008 	jr	ra
    4770:	27bd0018 	addiu	sp,sp,24

00004774 <update_proc_slack_time>:
    4774:	27bdffe8 	addiu	sp,sp,-24
    4778:	afbf0014 	sw	ra,20(sp)
    477c:	afb00010 	sw	s0,16(sp)
    4780:	0c001176 	jal	45d8 <search_processor>
    4784:	00a08021 	move	s0,a1
    4788:	8c440008 	lw	a0,8(v0)
    478c:	8c43000c 	lw	v1,12(v0)
    4790:	00902021 	addu	a0,a0,s0
    4794:	24630001 	addiu	v1,v1,1
    4798:	ac43000c 	sw	v1,12(v0)
    479c:	ac440008 	sw	a0,8(v0)
    47a0:	8fbf0014 	lw	ra,20(sp)
    47a4:	8fb00010 	lw	s0,16(sp)
    47a8:	03e00008 	jr	ra
    47ac:	27bd0018 	addiu	sp,sp,24

000047b0 <freeze_application>:
    47b0:	27bdffd0 	addiu	sp,sp,-48
    47b4:	3c020005 	lui	v0,0x5
    47b8:	3c030005 	lui	v1,0x5
    47bc:	afb50024 	sw	s5,36(sp)
    47c0:	afb40020 	sw	s4,32(sp)
    47c4:	afb3001c 	sw	s3,28(sp)
    47c8:	afb10014 	sw	s1,20(sp)
    47cc:	24742ba0 	addiu	s4,v1,11168
    47d0:	24512b00 	addiu	s1,v0,11008
    47d4:	24130001 	li	s3,1
    47d8:	24150002 	li	s5,2
    47dc:	afbf0028 	sw	ra,40(sp)
    47e0:	afb20018 	sw	s2,24(sp)
    47e4:	080011fe 	j	47f8 <freeze_application+0x48>
    47e8:	afb00010 	sw	s0,16(sp)
    47ec:	26310010 	addiu	s1,s1,16
    47f0:	12340017 	beq	s1,s4,4850 <freeze_application+0xa0>
    47f4:	00000000 	nop
    47f8:	8e300000 	lw	s0,0(s1)
    47fc:	00000000 	nop
    4800:	1613fffa 	bne	s0,s3,47ec <freeze_application+0x3c>
    4804:	00000000 	nop
    4808:	8e220008 	lw	v0,8(s1)
    480c:	ae350000 	sw	s5,0(s1)
    4810:	00029203 	sra	s2,v0,0x8
    4814:	0c000d3b 	jal	34ec <add_migrations>
    4818:	02402021 	move	a0,s2
    481c:	1450fff3 	bne	v0,s0,47ec <freeze_application+0x3c>
    4820:	00000000 	nop
    4824:	0c00093a 	jal	24e8 <get_net_address>
    4828:	26310010 	addiu	s1,s1,16
    482c:	3042ffff 	andi	v0,v0,0xffff
    4830:	00122c00 	sll	a1,s2,0x10
    4834:	00a22825 	or	a1,a1,v0
    4838:	02403021 	move	a2,s2
    483c:	2404000d 	li	a0,13
    4840:	0c001615 	jal	5854 <Seek>
    4844:	00003821 	move	a3,zero
    4848:	1634ffeb 	bne	s1,s4,47f8 <freeze_application+0x48>
    484c:	00000000 	nop
    4850:	8fbf0028 	lw	ra,40(sp)
    4854:	8fb50024 	lw	s5,36(sp)
    4858:	8fb40020 	lw	s4,32(sp)
    485c:	8fb3001c 	lw	s3,28(sp)
    4860:	8fb20018 	lw	s2,24(sp)
    4864:	8fb10014 	lw	s1,20(sp)
    4868:	8fb00010 	lw	s0,16(sp)
    486c:	03e00008 	jr	ra
    4870:	27bd0030 	addiu	sp,sp,48

00004874 <print_processors>:
    4874:	27bdffd0 	addiu	sp,sp,-48
    4878:	3c020001 	lui	v0,0x1
    487c:	3c030001 	lui	v1,0x1
    4880:	afb60028 	sw	s6,40(sp)
    4884:	afb50024 	sw	s5,36(sp)
    4888:	24568e94 	addiu	s6,v0,-29036
    488c:	24759360 	addiu	s5,v1,-27808
    4890:	3c020001 	lui	v0,0x1
    4894:	3c030005 	lui	v1,0x5
    4898:	afb40020 	sw	s4,32(sp)
    489c:	afb3001c 	sw	s3,28(sp)
    48a0:	afb20018 	sw	s2,24(sp)
    48a4:	afb10014 	sw	s1,20(sp)
    48a8:	afb00010 	sw	s0,16(sp)
    48ac:	afbf002c 	sw	ra,44(sp)
    48b0:	24549324 	addiu	s4,v0,-27868
    48b4:	2472a618 	addiu	s2,v1,-23016
    48b8:	00008821 	move	s1,zero
    48bc:	3c102000 	lui	s0,0x2000
    48c0:	24130014 	li	s3,20
    48c4:	02202021 	move	a0,s1
    48c8:	ae160000 	sw	s6,0(s0)
    48cc:	0c00093e 	jal	24f8 <itoa>
    48d0:	00000000 	nop
    48d4:	ae020000 	sw	v0,0(s0)
    48d8:	ae150000 	sw	s5,0(s0)
    48dc:	8e440000 	lw	a0,0(s2)
    48e0:	0c000985 	jal	2614 <itoh>
    48e4:	26310001 	addiu	s1,s1,1
    48e8:	ae020000 	sw	v0,0(s0)
    48ec:	26520014 	addiu	s2,s2,20
    48f0:	ae140000 	sw	s4,0(s0)
    48f4:	1633fff4 	bne	s1,s3,48c8 <print_processors+0x54>
    48f8:	02202021 	move	a0,s1
    48fc:	8fbf002c 	lw	ra,44(sp)
    4900:	8fb60028 	lw	s6,40(sp)
    4904:	8fb50024 	lw	s5,36(sp)
    4908:	8fb40020 	lw	s4,32(sp)
    490c:	8fb3001c 	lw	s3,28(sp)
    4910:	8fb20018 	lw	s2,24(sp)
    4914:	8fb10014 	lw	s1,20(sp)
    4918:	8fb00010 	lw	s0,16(sp)
    491c:	03e00008 	jr	ra
    4920:	27bd0030 	addiu	sp,sp,48

00004924 <get_task_location>:
    4924:	27bdffe8 	addiu	sp,sp,-24
    4928:	3c020005 	lui	v0,0x5
    492c:	3c030005 	lui	v1,0x5
    4930:	afbf0014 	sw	ra,20(sp)
    4934:	afb00010 	sw	s0,16(sp)
    4938:	2446a61c 	addiu	a2,v0,-23012
    493c:	2463a7ac 	addiu	v1,v1,-22612
    4940:	24070001 	li	a3,1
    4944:	2408ffff 	li	t0,-1
    4948:	8cc20000 	lw	v0,0(a2)
    494c:	00000000 	nop
    4950:	10470009 	beq	v0,a3,4978 <get_task_location+0x54>
    4954:	00000000 	nop
    4958:	8cc5fffc 	lw	a1,-4(a2)
    495c:	00000000 	nop
    4960:	10a80005 	beq	a1,t0,4978 <get_task_location+0x54>
    4964:	00000000 	nop
    4968:	8cc2000c 	lw	v0,12(a2)
    496c:	00000000 	nop
    4970:	1082000e 	beq	a0,v0,49ac <get_task_location+0x88>
    4974:	00000000 	nop
    4978:	24c60014 	addiu	a2,a2,20
    497c:	14c3fff2 	bne	a2,v1,4948 <get_task_location+0x24>
    4980:	3c020001 	lui	v0,0x1
    4984:	3c102000 	lui	s0,0x2000
    4988:	24429370 	addiu	v0,v0,-27792
    498c:	ae020000 	sw	v0,0(s0)
    4990:	0c00093e 	jal	24f8 <itoa>
    4994:	00000000 	nop
    4998:	ae020000 	sw	v0,0(s0)
    499c:	3c020001 	lui	v0,0x1
    49a0:	24429324 	addiu	v0,v0,-27868
    49a4:	ae020000 	sw	v0,0(s0)
    49a8:	2405ffff 	li	a1,-1
    49ac:	8fbf0014 	lw	ra,20(sp)
    49b0:	8fb00010 	lw	s0,16(sp)
    49b4:	00a01021 	move	v0,a1
    49b8:	03e00008 	jr	ra
    49bc:	27bd0018 	addiu	sp,sp,24

000049c0 <remove_task>:
    49c0:	27bdffe0 	addiu	sp,sp,-32
    49c4:	afb20018 	sw	s2,24(sp)
    49c8:	afb10014 	sw	s1,20(sp)
    49cc:	afb00010 	sw	s0,16(sp)
    49d0:	00a09021 	move	s2,a1
    49d4:	afbf001c 	sw	ra,28(sp)
    49d8:	0c001176 	jal	45d8 <search_processor>
    49dc:	00808021 	move	s0,a0
    49e0:	8c450004 	lw	a1,4(v0)
    49e4:	00401821 	move	v1,v0
    49e8:	24020001 	li	v0,1
    49ec:	3c112000 	lui	s1,0x2000
    49f0:	10a2001e 	beq	a1,v0,4a6c <remove_task+0xac>
    49f4:	02002021 	move	a0,s0
    49f8:	8c620010 	lw	v0,16(v1)
    49fc:	02402021 	move	a0,s2
    4a00:	3c102000 	lui	s0,0x2000
    4a04:	12420010 	beq	s2,v0,4a48 <remove_task+0x88>
    4a08:	24a50001 	addiu	a1,a1,1
    4a0c:	3c020001 	lui	v0,0x1
    4a10:	244293bc 	addiu	v0,v0,-27716
    4a14:	ae020000 	sw	v0,0(s0)
    4a18:	0c00093e 	jal	24f8 <itoa>
    4a1c:	00000000 	nop
    4a20:	ae020000 	sw	v0,0(s0)
    4a24:	3c020001 	lui	v0,0x1
    4a28:	24429324 	addiu	v0,v0,-27868
    4a2c:	ae020000 	sw	v0,0(s0)
    4a30:	8fbf001c 	lw	ra,28(sp)
    4a34:	8fb20018 	lw	s2,24(sp)
    4a38:	8fb10014 	lw	s1,20(sp)
    4a3c:	8fb00010 	lw	s0,16(sp)
    4a40:	03e00008 	jr	ra
    4a44:	27bd0020 	addiu	sp,sp,32
    4a48:	2402ffff 	li	v0,-1
    4a4c:	ac650004 	sw	a1,4(v1)
    4a50:	ac620010 	sw	v0,16(v1)
    4a54:	8fbf001c 	lw	ra,28(sp)
    4a58:	8fb20018 	lw	s2,24(sp)
    4a5c:	8fb10014 	lw	s1,20(sp)
    4a60:	8fb00010 	lw	s0,16(sp)
    4a64:	03e00008 	jr	ra
    4a68:	27bd0020 	addiu	sp,sp,32
    4a6c:	3c020001 	lui	v0,0x1
    4a70:	2442939c 	addiu	v0,v0,-27748
    4a74:	ae220000 	sw	v0,0(s1)
    4a78:	0c00093e 	jal	24f8 <itoa>
    4a7c:	00000000 	nop
    4a80:	ae220000 	sw	v0,0(s1)
    4a84:	3c020001 	lui	v0,0x1
    4a88:	24429324 	addiu	v0,v0,-27868
    4a8c:	ae220000 	sw	v0,0(s1)
    4a90:	8fbf001c 	lw	ra,28(sp)
    4a94:	8fb20018 	lw	s2,24(sp)
    4a98:	8fb10014 	lw	s1,20(sp)
    4a9c:	8fb00010 	lw	s0,16(sp)
    4aa0:	03e00008 	jr	ra
    4aa4:	27bd0020 	addiu	sp,sp,32

00004aa8 <add_task>:
    4aa8:	27bdffe0 	addiu	sp,sp,-32
    4aac:	afb10014 	sw	s1,20(sp)
    4ab0:	afb00010 	sw	s0,16(sp)
    4ab4:	afbf0018 	sw	ra,24(sp)
    4ab8:	00a08021 	move	s0,a1
    4abc:	0c001176 	jal	45d8 <search_processor>
    4ac0:	00808821 	move	s1,a0
    4ac4:	8c430004 	lw	v1,4(v0)
    4ac8:	00000000 	nop
    4acc:	10600022 	beqz	v1,4b58 <add_task+0xb0>
    4ad0:	00402821 	move	a1,v0
    4ad4:	8c460010 	lw	a2,16(v0)
    4ad8:	2402ffff 	li	v0,-1
    4adc:	10c2000f 	beq	a2,v0,4b1c <add_task+0x74>
    4ae0:	00000000 	nop
    4ae4:	1206000f 	beq	s0,a2,4b24 <add_task+0x7c>
    4ae8:	2404ffff 	li	a0,-1
    4aec:	28820000 	slti	v0,a0,0
    4af0:	14400026 	bnez	v0,4b8c <add_task+0xe4>
    4af4:	00041080 	sll	v0,a0,0x2
    4af8:	00451021 	addu	v0,v0,a1
    4afc:	2463ffff 	addiu	v1,v1,-1
    4b00:	ac500010 	sw	s0,16(v0)
    4b04:	aca30004 	sw	v1,4(a1)
    4b08:	8fbf0018 	lw	ra,24(sp)
    4b0c:	8fb10014 	lw	s1,20(sp)
    4b10:	8fb00010 	lw	s0,16(sp)
    4b14:	03e00008 	jr	ra
    4b18:	27bd0020 	addiu	sp,sp,32
    4b1c:	1606fff3 	bne	s0,a2,4aec <add_task+0x44>
    4b20:	00002021 	move	a0,zero
    4b24:	3c020001 	lui	v0,0x1
    4b28:	02002021 	move	a0,s0
    4b2c:	24429418 	addiu	v0,v0,-27624
    4b30:	3c102000 	lui	s0,0x2000
    4b34:	ae020000 	sw	v0,0(s0)
    4b38:	0c00093e 	jal	24f8 <itoa>
    4b3c:	00000000 	nop
    4b40:	ae020000 	sw	v0,0(s0)
    4b44:	3c020001 	lui	v0,0x1
    4b48:	24429324 	addiu	v0,v0,-27868
    4b4c:	ae020000 	sw	v0,0(s0)
    4b50:	080012d4 	j	4b50 <add_task+0xa8>
    4b54:	00000000 	nop
    4b58:	3c020001 	lui	v0,0x1
    4b5c:	3c102000 	lui	s0,0x2000
    4b60:	244293e0 	addiu	v0,v0,-27680
    4b64:	02202021 	move	a0,s1
    4b68:	ae020000 	sw	v0,0(s0)
    4b6c:	0c000985 	jal	2614 <itoh>
    4b70:	00000000 	nop
    4b74:	ae020000 	sw	v0,0(s0)
    4b78:	3c020001 	lui	v0,0x1
    4b7c:	24429324 	addiu	v0,v0,-27868
    4b80:	ae020000 	sw	v0,0(s0)
    4b84:	080012e1 	j	4b84 <add_task+0xdc>
    4b88:	00000000 	nop
    4b8c:	3c020001 	lui	v0,0x1
    4b90:	3c102000 	lui	s0,0x2000
    4b94:	24429434 	addiu	v0,v0,-27596
    4b98:	02202021 	move	a0,s1
    4b9c:	ae020000 	sw	v0,0(s0)
    4ba0:	0c00093e 	jal	24f8 <itoa>
    4ba4:	00000000 	nop
    4ba8:	ae020000 	sw	v0,0(s0)
    4bac:	3c020001 	lui	v0,0x1
    4bb0:	24429324 	addiu	v0,v0,-27868
    4bb4:	ae020000 	sw	v0,0(s0)
    4bb8:	080012ee 	j	4bb8 <add_task+0x110>
    4bbc:	00000000 	nop

00004bc0 <get_free_processor>:
    4bc0:	27bdffd0 	addiu	sp,sp,-48
    4bc4:	afb50024 	sw	s5,36(sp)
    4bc8:	afb40020 	sw	s4,32(sp)
    4bcc:	afb20018 	sw	s2,24(sp)
    4bd0:	afb00010 	sw	s0,16(sp)
    4bd4:	3c020005 	lui	v0,0x5
    4bd8:	afbf0028 	sw	ra,40(sp)
    4bdc:	afb3001c 	sw	s3,28(sp)
    4be0:	afb10014 	sw	s1,20(sp)
    4be4:	8c53a630 	lw	s3,-22992(v0)
    4be8:	3c030005 	lui	v1,0x5
    4bec:	3c020005 	lui	v0,0x5
    4bf0:	2470a798 	addiu	s0,v1,-22632
    4bf4:	2454a61c 	addiu	s4,v0,-23012
    4bf8:	2415ffff 	li	s5,-1
    4bfc:	08001304 	j	4c10 <get_free_processor+0x50>
    4c00:	24120001 	li	s2,1
    4c04:	2610ffec 	addiu	s0,s0,-20
    4c08:	12140013 	beq	s0,s4,4c58 <get_free_processor+0x98>
    4c0c:	02a08821 	move	s1,s5
    4c10:	8e020000 	lw	v0,0(s0)
    4c14:	00000000 	nop
    4c18:	10520019 	beq	v0,s2,4c80 <get_free_processor+0xc0>
    4c1c:	0262182a 	slt	v1,s3,v0
    4c20:	1060fff8 	beqz	v1,4c04 <get_free_processor+0x44>
    4c24:	00000000 	nop
    4c28:	8e04fffc 	lw	a0,-4(s0)
    4c2c:	00000000 	nop
    4c30:	308500ff 	andi	a1,a0,0xff
    4c34:	0c001fdb 	jal	7f6c <PE_belong_SZ>
    4c38:	00042203 	sra	a0,a0,0x8
    4c3c:	1052fff1 	beq	v0,s2,4c04 <get_free_processor+0x44>
    4c40:	00000000 	nop
    4c44:	8e15fffc 	lw	s5,-4(s0)
    4c48:	8e130000 	lw	s3,0(s0)
    4c4c:	2610ffec 	addiu	s0,s0,-20
    4c50:	1614ffef 	bne	s0,s4,4c10 <get_free_processor+0x50>
    4c54:	02a08821 	move	s1,s5
    4c58:	02201021 	move	v0,s1
    4c5c:	8fbf0028 	lw	ra,40(sp)
    4c60:	8fb50024 	lw	s5,36(sp)
    4c64:	8fb40020 	lw	s4,32(sp)
    4c68:	8fb3001c 	lw	s3,28(sp)
    4c6c:	8fb20018 	lw	s2,24(sp)
    4c70:	8fb10014 	lw	s1,20(sp)
    4c74:	8fb00010 	lw	s0,16(sp)
    4c78:	03e00008 	jr	ra
    4c7c:	27bd0030 	addiu	sp,sp,48
    4c80:	8e11fffc 	lw	s1,-4(s0)
    4c84:	00000000 	nop
    4c88:	00112203 	sra	a0,s1,0x8
    4c8c:	0c001fdb 	jal	7f6c <PE_belong_SZ>
    4c90:	322500ff 	andi	a1,s1,0xff
    4c94:	1052ffdc 	beq	v0,s2,4c08 <get_free_processor+0x48>
    4c98:	2610ffec 	addiu	s0,s0,-20
    4c9c:	08001317 	j	4c5c <get_free_processor+0x9c>
    4ca0:	02201021 	move	v0,s1

00004ca4 <manage_SZ_migration>:
    4ca4:	3c020005 	lui	v0,0x5
    4ca8:	27bdffe0 	addiu	sp,sp,-32
    4cac:	24442b00 	addiu	a0,v0,11008
    4cb0:	afb20018 	sw	s2,24(sp)
    4cb4:	afb10014 	sw	s1,20(sp)
    4cb8:	afbf001c 	sw	ra,28(sp)
    4cbc:	afb00010 	sw	s0,16(sp)
    4cc0:	00001821 	move	v1,zero
    4cc4:	24060003 	li	a2,3
    4cc8:	3c122000 	lui	s2,0x2000
    4ccc:	00808821 	move	s1,a0
    4cd0:	2405000a 	li	a1,10
    4cd4:	8c820000 	lw	v0,0(a0)
    4cd8:	24630001 	addiu	v1,v1,1
    4cdc:	10460009 	beq	v0,a2,4d04 <manage_SZ_migration+0x60>
    4ce0:	24840010 	addiu	a0,a0,16
    4ce4:	1465fffb 	bne	v1,a1,4cd4 <manage_SZ_migration+0x30>
    4ce8:	26310010 	addiu	s1,s1,16
    4cec:	8fbf001c 	lw	ra,28(sp)
    4cf0:	8fb20018 	lw	s2,24(sp)
    4cf4:	8fb10014 	lw	s1,20(sp)
    4cf8:	8fb00010 	lw	s0,16(sp)
    4cfc:	03e00008 	jr	ra
    4d00:	27bd0020 	addiu	sp,sp,32
    4d04:	0c0012f0 	jal	4bc0 <get_free_processor>
    4d08:	00000000 	nop
    4d0c:	00408021 	move	s0,v0
    4d10:	00402021 	move	a0,v0
    4d14:	3c020001 	lui	v0,0x1
    4d18:	2442945c 	addiu	v0,v0,-27556
    4d1c:	ae420000 	sw	v0,0(s2)
    4d20:	0c000985 	jal	2614 <itoh>
    4d24:	00000000 	nop
    4d28:	ae420000 	sw	v0,0(s2)
    4d2c:	3c020001 	lui	v0,0x1
    4d30:	24429324 	addiu	v0,v0,-27868
    4d34:	ae420000 	sw	v0,0(s2)
    4d38:	3c030005 	lui	v1,0x5
    4d3c:	8c6498c4 	lw	a0,-26428(v1)
    4d40:	8e260008 	lw	a2,8(s1)
    4d44:	24020005 	li	v0,5
    4d48:	02002821 	move	a1,s0
    4d4c:	ae30000c 	sw	s0,12(s1)
    4d50:	0c0014f3 	jal	53cc <page_used>
    4d54:	ae220000 	sw	v0,0(s1)
    4d58:	8e250004 	lw	a1,4(s1)
    4d5c:	8e240008 	lw	a0,8(s1)
    4d60:	02003021 	move	a2,s0
    4d64:	8fbf001c 	lw	ra,28(sp)
    4d68:	8fb20018 	lw	s2,24(sp)
    4d6c:	8fb10014 	lw	s1,20(sp)
    4d70:	8fb00010 	lw	s0,16(sp)
    4d74:	08000526 	j	1498 <send_full_task_migration>
    4d78:	27bd0020 	addiu	sp,sp,32

00004d7c <allocate_cluster_resource>:
    4d7c:	00043140 	sll	a2,a0,0x5
    4d80:	3c020005 	lui	v0,0x5
    4d84:	00042080 	sll	a0,a0,0x2
    4d88:	244297c4 	addiu	v0,v0,-26684
    4d8c:	00c43023 	subu	a2,a2,a0
    4d90:	00c23021 	addu	a2,a2,v0
    4d94:	8cc30018 	lw	v1,24(a2)
    4d98:	00000000 	nop
    4d9c:	00651023 	subu	v0,v1,a1
    4da0:	0065182a 	slt	v1,v1,a1
    4da4:	14600003 	bnez	v1,4db4 <allocate_cluster_resource+0x38>
    4da8:	00000000 	nop
    4dac:	03e00008 	jr	ra
    4db0:	acc20018 	sw	v0,24(a2)
    4db4:	03e00008 	jr	ra
    4db8:	acc00018 	sw	zero,24(a2)

00004dbc <release_cluster_resources>:
    4dbc:	00043140 	sll	a2,a0,0x5
    4dc0:	3c020005 	lui	v0,0x5
    4dc4:	00042080 	sll	a0,a0,0x2
    4dc8:	00c43023 	subu	a2,a2,a0
    4dcc:	244297c4 	addiu	v0,v0,-26684
    4dd0:	00c23021 	addu	a2,a2,v0
    4dd4:	8cc30018 	lw	v1,24(a2)
    4dd8:	00000000 	nop
    4ddc:	00651821 	addu	v1,v1,a1
    4de0:	03e00008 	jr	ra
    4de4:	acc30018 	sw	v1,24(a2)

00004de8 <get_cluster_ID>:
    4de8:	3c020005 	lui	v0,0x5
    4dec:	8c4397c4 	lw	v1,-26684(v0)
    4df0:	00000000 	nop
    4df4:	14640005 	bne	v1,a0,4e0c <get_cluster_ID+0x24>
    4df8:	244697c4 	addiu	a2,v0,-26684
    4dfc:	8cc20004 	lw	v0,4(a2)
    4e00:	00000000 	nop
    4e04:	10450006 	beq	v0,a1,4e20 <get_cluster_ID+0x38>
    4e08:	00001821 	move	v1,zero
    4e0c:	3c020001 	lui	v0,0x1
    4e10:	3c032000 	lui	v1,0x2000
    4e14:	2442946c 	addiu	v0,v0,-27540
    4e18:	ac620000 	sw	v0,0(v1)
    4e1c:	2403ffff 	li	v1,-1
    4e20:	03e00008 	jr	ra
    4e24:	00601021 	move	v0,v1

00004e28 <get_master_address>:
    4e28:	3c060005 	lui	a2,0x5
    4e2c:	24c597c4 	addiu	a1,a2,-26684
    4e30:	8ca20008 	lw	v0,8(a1)
    4e34:	00041a03 	sra	v1,a0,0x8
    4e38:	0062102a 	slt	v0,v1,v0
    4e3c:	14400016 	bnez	v0,4e98 <get_master_address+0x70>
    4e40:	3c020001 	lui	v0,0x1
    4e44:	8ca20010 	lw	v0,16(a1)
    4e48:	00000000 	nop
    4e4c:	0043102a 	slt	v0,v0,v1
    4e50:	14400011 	bnez	v0,4e98 <get_master_address+0x70>
    4e54:	3c020001 	lui	v0,0x1
    4e58:	8ca2000c 	lw	v0,12(a1)
    4e5c:	308400ff 	andi	a0,a0,0xff
    4e60:	0082102a 	slt	v0,a0,v0
    4e64:	1440000c 	bnez	v0,4e98 <get_master_address+0x70>
    4e68:	3c020001 	lui	v0,0x1
    4e6c:	8ca20014 	lw	v0,20(a1)
    4e70:	00000000 	nop
    4e74:	0044102a 	slt	v0,v0,a0
    4e78:	14400006 	bnez	v0,4e94 <get_master_address+0x6c>
    4e7c:	00000000 	nop
    4e80:	8cc297c4 	lw	v0,-26684(a2)
    4e84:	8ca30004 	lw	v1,4(a1)
    4e88:	00021200 	sll	v0,v0,0x8
    4e8c:	03e00008 	jr	ra
    4e90:	00431025 	or	v0,v0,v1
    4e94:	3c020001 	lui	v0,0x1
    4e98:	2442948c 	addiu	v0,v0,-27508
    4e9c:	3c032000 	lui	v1,0x2000
    4ea0:	ac620000 	sw	v0,0(v1)
    4ea4:	080013a9 	j	4ea4 <get_master_address+0x7c>
    4ea8:	00000000 	nop

00004eac <get_cluster_index>:
    4eac:	3c020005 	lui	v0,0x5
    4eb0:	244697c4 	addiu	a2,v0,-26684
    4eb4:	8cc30010 	lw	v1,16(a2)
    4eb8:	00000000 	nop
    4ebc:	0064182a 	slt	v1,v1,a0
    4ec0:	14600006 	bnez	v1,4edc <get_cluster_index+0x30>
    4ec4:	00000000 	nop
    4ec8:	8cc20008 	lw	v0,8(a2)
    4ecc:	00000000 	nop
    4ed0:	0082102a 	slt	v0,a0,v0
    4ed4:	10400004 	beqz	v0,4ee8 <get_cluster_index+0x3c>
    4ed8:	00000000 	nop
    4edc:	2403ffff 	li	v1,-1
    4ee0:	03e00008 	jr	ra
    4ee4:	00601021 	move	v0,v1
    4ee8:	8cc20014 	lw	v0,20(a2)
    4eec:	00000000 	nop
    4ef0:	0045102a 	slt	v0,v0,a1
    4ef4:	1440fff9 	bnez	v0,4edc <get_cluster_index+0x30>
    4ef8:	00000000 	nop
    4efc:	8cc2000c 	lw	v0,12(a2)
    4f00:	00000000 	nop
    4f04:	00a2102a 	slt	v0,a1,v0
    4f08:	1440fff4 	bnez	v0,4edc <get_cluster_index+0x30>
    4f0c:	00000000 	nop
    4f10:	080013b8 	j	4ee0 <get_cluster_index+0x34>
    4f14:	00000000 	nop

00004f18 <SearchCluster>:
    4f18:	3c020005 	lui	v0,0x5
    4f1c:	27bdffe8 	addiu	sp,sp,-24
    4f20:	24439820 	addiu	v1,v0,-26592
    4f24:	00803821 	move	a3,a0
    4f28:	afbf0010 	sw	ra,16(sp)
    4f2c:	00003021 	move	a2,zero
    4f30:	2408000c 	li	t0,12
    4f34:	24640004 	addiu	a0,v1,4
    4f38:	8c620000 	lw	v0,0(v1)
    4f3c:	00000000 	nop
    4f40:	00021202 	srl	v0,v0,0x8
    4f44:	10450020 	beq	v0,a1,4fc8 <SearchCluster+0xb0>
    4f48:	24c60001 	addiu	a2,a2,1
    4f4c:	24840008 	addiu	a0,a0,8
    4f50:	14c8fff9 	bne	a2,t0,4f38 <SearchCluster+0x20>
    4f54:	24630008 	addiu	v1,v1,8
    4f58:	10e00018 	beqz	a3,4fbc <SearchCluster+0xa4>
    4f5c:	3c040005 	lui	a0,0x5
    4f60:	248297c4 	addiu	v0,a0,-26684
    4f64:	8c450018 	lw	a1,24(v0)
    4f68:	00000000 	nop
    4f6c:	04a00014 	bltz	a1,4fc0 <SearchCluster+0xa8>
    4f70:	2406ffff 	li	a2,-1
    4f74:	00003021 	move	a2,zero
    4f78:	00071080 	sll	v0,a3,0x2
    4f7c:	00071940 	sll	v1,a3,0x5
    4f80:	00621823 	subu	v1,v1,v0
    4f84:	248497c4 	addiu	a0,a0,-26684
    4f88:	00641821 	addu	v1,v1,a0
    4f8c:	8c620018 	lw	v0,24(v1)
    4f90:	00000000 	nop
    4f94:	00a2102a 	slt	v0,a1,v0
    4f98:	10400002 	beqz	v0,4fa4 <SearchCluster+0x8c>
    4f9c:	2402ffff 	li	v0,-1
    4fa0:	00e03021 	move	a2,a3
    4fa4:	10c20010 	beq	a2,v0,4fe8 <SearchCluster+0xd0>
    4fa8:	00c01021 	move	v0,a2
    4fac:	8fbf0010 	lw	ra,16(sp)
    4fb0:	00000000 	nop
    4fb4:	03e00008 	jr	ra
    4fb8:	27bd0018 	addiu	sp,sp,24
    4fbc:	2406ffff 	li	a2,-1
    4fc0:	080013de 	j	4f78 <SearchCluster+0x60>
    4fc4:	00002821 	move	a1,zero
    4fc8:	8c840000 	lw	a0,0(a0)
    4fcc:	0c00138a 	jal	4e28 <get_master_address>
    4fd0:	00000000 	nop
    4fd4:	304500ff 	andi	a1,v0,0xff
    4fd8:	8fbf0010 	lw	ra,16(sp)
    4fdc:	00022203 	sra	a0,v0,0x8
    4fe0:	0800137a 	j	4de8 <get_cluster_ID>
    4fe4:	27bd0018 	addiu	sp,sp,24
    4fe8:	3c020001 	lui	v0,0x1
    4fec:	244294ac 	addiu	v0,v0,-27476
    4ff0:	3c032000 	lui	v1,0x2000
    4ff4:	ac620000 	sw	v0,0(v1)
    4ff8:	080013fe 	j	4ff8 <SearchCluster+0xe0>
    4ffc:	00000000 	nop

00005000 <new_master_candidate>:
    5000:	27bdffe0 	addiu	sp,sp,-32
    5004:	afbf0018 	sw	ra,24(sp)
    5008:	afb10014 	sw	s1,20(sp)
    500c:	0c0018f1 	jal	63c4 <get_master_other_cluster>
    5010:	afb00010 	sw	s0,16(sp)
    5014:	0c0012f0 	jal	4bc0 <get_free_processor>
    5018:	00408821 	move	s1,v0
    501c:	00408021 	move	s0,v0
    5020:	0c0011a3 	jal	468c <get_proc_free_pages>
    5024:	00402021 	move	a0,v0
    5028:	0c001199 	jal	4664 <get_task_id_processor>
    502c:	02002021 	move	a0,s0
    5030:	00022a03 	sra	a1,v0,0x8
    5034:	00101903 	sra	v1,s0,0x4
    5038:	304200ff 	andi	v0,v0,0xff
    503c:	3207000f 	andi	a3,s0,0xf
    5040:	30a5ff00 	andi	a1,a1,0xff00
    5044:	02203021 	move	a2,s1
    5048:	2404000f 	li	a0,15
    504c:	00a22825 	or	a1,a1,v0
    5050:	0c001615 	jal	5854 <Seek>
    5054:	00673825 	or	a3,v1,a3
    5058:	02002021 	move	a0,s0
    505c:	8fbf0018 	lw	ra,24(sp)
    5060:	8fb10014 	lw	s1,20(sp)
    5064:	8fb00010 	lw	s0,16(sp)
    5068:	080018ca 	j	6328 <set_slave_candidate_my_cluster>
    506c:	27bd0020 	addiu	sp,sp,32

00005070 <map_task>:
    5070:	3c020005 	lui	v0,0x5
    5074:	27bdffb8 	addiu	sp,sp,-72
    5078:	24479820 	addiu	a3,v0,-26592
    507c:	afb00020 	sw	s0,32(sp)
    5080:	00804821 	move	t1,a0
    5084:	afbf0044 	sw	ra,68(sp)
    5088:	afbe0040 	sw	s8,64(sp)
    508c:	afb7003c 	sw	s7,60(sp)
    5090:	afb60038 	sw	s6,56(sp)
    5094:	afb50034 	sw	s5,52(sp)
    5098:	afb40030 	sw	s4,48(sp)
    509c:	afb3002c 	sw	s3,44(sp)
    50a0:	afb20028 	sw	s2,40(sp)
    50a4:	afb10024 	sw	s1,36(sp)
    50a8:	afa5004c 	sw	a1,76(sp)
    50ac:	00001821 	move	v1,zero
    50b0:	00e08021 	move	s0,a3
    50b4:	2404000c 	li	a0,12
    50b8:	8ce20000 	lw	v0,0(a3)
    50bc:	8fa5004c 	lw	a1,76(sp)
    50c0:	24630001 	addiu	v1,v1,1
    50c4:	10a2003a 	beq	a1,v0,51b0 <map_task+0x140>
    50c8:	24e70008 	addiu	a3,a3,8
    50cc:	1464fffa 	bne	v1,a0,50b8 <map_task+0x48>
    50d0:	26100008 	addiu	s0,s0,8
    50d4:	24020001 	li	v0,1
    50d8:	10c20065 	beq	a2,v0,5270 <map_task+0x200>
    50dc:	00008021 	move	s0,zero
    50e0:	2413ffff 	li	s3,-1
    50e4:	24140001 	li	s4,1
    50e8:	2415ffff 	li	s5,-1
    50ec:	24120014 	li	s2,20
    50f0:	0c001069 	jal	41a4 <get_proc_address>
    50f4:	02002021 	move	a0,s0
    50f8:	00402021 	move	a0,v0
    50fc:	0c0011a3 	jal	468c <get_proc_free_pages>
    5100:	00408821 	move	s1,v0
    5104:	26100001 	addiu	s0,s0,1
    5108:	00112203 	sra	a0,s1,0x8
    510c:	1840000d 	blez	v0,5144 <map_task+0xd4>
    5110:	322500ff 	andi	a1,s1,0xff
    5114:	0c001fdb 	jal	7f6c <PE_belong_SZ>
    5118:	00000000 	nop
    511c:	10540009 	beq	v0,s4,5144 <map_task+0xd4>
    5120:	02202021 	move	a0,s1
    5124:	0c0011cb 	jal	472c <get_proc_slack_time>
    5128:	00000000 	nop
    512c:	00401821 	move	v1,v0
    5130:	0262102a 	slt	v0,s3,v0
    5134:	10400003 	beqz	v0,5144 <map_task+0xd4>
    5138:	00000000 	nop
    513c:	16350038 	bne	s1,s5,5220 <map_task+0x1b0>
    5140:	00609821 	move	s3,v1
    5144:	1612ffea 	bne	s0,s2,50f0 <map_task+0x80>
    5148:	00000000 	nop
    514c:	3c020001 	lui	v0,0x1
    5150:	3c102000 	lui	s0,0x2000
    5154:	8fa4004c 	lw	a0,76(sp)
    5158:	24429554 	addiu	v0,v0,-27308
    515c:	ae020000 	sw	v0,0(s0)
    5160:	0c00093e 	jal	24f8 <itoa>
    5164:	00000000 	nop
    5168:	ae020000 	sw	v0,0(s0)
    516c:	3c020001 	lui	v0,0x1
    5170:	24429324 	addiu	v0,v0,-27868
    5174:	ae020000 	sw	v0,0(s0)
    5178:	2411ffff 	li	s1,-1
    517c:	02201021 	move	v0,s1
    5180:	8fbf0044 	lw	ra,68(sp)
    5184:	8fbe0040 	lw	s8,64(sp)
    5188:	8fb7003c 	lw	s7,60(sp)
    518c:	8fb60038 	lw	s6,56(sp)
    5190:	8fb50034 	lw	s5,52(sp)
    5194:	8fb40030 	lw	s4,48(sp)
    5198:	8fb3002c 	lw	s3,44(sp)
    519c:	8fb20028 	lw	s2,40(sp)
    51a0:	8fb10024 	lw	s1,36(sp)
    51a4:	8fb00020 	lw	s0,32(sp)
    51a8:	03e00008 	jr	ra
    51ac:	27bd0048 	addiu	sp,sp,72
    51b0:	3c020001 	lui	v0,0x1
    51b4:	3c122000 	lui	s2,0x2000
    51b8:	244294d4 	addiu	v0,v0,-27436
    51bc:	00a02021 	move	a0,a1
    51c0:	ae420000 	sw	v0,0(s2)
    51c4:	0c00093e 	jal	24f8 <itoa>
    51c8:	00000000 	nop
    51cc:	ae420000 	sw	v0,0(s2)
    51d0:	3c020001 	lui	v0,0x1
    51d4:	244294e0 	addiu	v0,v0,-27424
    51d8:	ae420000 	sw	v0,0(s2)
    51dc:	8e040004 	lw	a0,4(s0)
    51e0:	0c000985 	jal	2614 <itoh>
    51e4:	00000000 	nop
    51e8:	ae420000 	sw	v0,0(s2)
    51ec:	3c020001 	lui	v0,0x1
    51f0:	24429324 	addiu	v0,v0,-27868
    51f4:	ae420000 	sw	v0,0(s2)
    51f8:	8e110004 	lw	s1,4(s0)
    51fc:	0c0011a3 	jal	468c <get_proc_free_pages>
    5200:	02202021 	move	a0,s1
    5204:	1c40ffde 	bgtz	v0,5180 <map_task+0x110>
    5208:	02201021 	move	v0,s1
    520c:	3c020001 	lui	v0,0x1
    5210:	24429500 	addiu	v0,v0,-27392
    5214:	ae420000 	sw	v0,0(s2)
    5218:	08001486 	j	5218 <map_task+0x1a8>
    521c:	00000000 	nop
    5220:	3c020001 	lui	v0,0x1
    5224:	3c102000 	lui	s0,0x2000
    5228:	8fa4004c 	lw	a0,76(sp)
    522c:	2442952c 	addiu	v0,v0,-27348
    5230:	ae020000 	sw	v0,0(s0)
    5234:	0c00093e 	jal	24f8 <itoa>
    5238:	00000000 	nop
    523c:	ae020000 	sw	v0,0(s0)
    5240:	3c020001 	lui	v0,0x1
    5244:	24429544 	addiu	v0,v0,-27324
    5248:	02202021 	move	a0,s1
    524c:	ae020000 	sw	v0,0(s0)
    5250:	0c000985 	jal	2614 <itoh>
    5254:	00000000 	nop
    5258:	ae020000 	sw	v0,0(s0)
    525c:	3c020001 	lui	v0,0x1
    5260:	24429324 	addiu	v0,v0,-27868
    5264:	ae020000 	sw	v0,0(s0)
    5268:	08001460 	j	5180 <map_task+0x110>
    526c:	02201021 	move	v0,s1
    5270:	3c020005 	lui	v0,0x5
    5274:	8c4398b4 	lw	v1,-26444(v0)
    5278:	3c060005 	lui	a2,0x5
    527c:	00032940 	sll	a1,v1,0x5
    5280:	24c2a478 	addiu	v0,a2,-23432
    5284:	00a21021 	addu	v0,a1,v0
    5288:	905e001e 	lbu	s8,30(v0)
    528c:	8c430004 	lw	v1,4(v0)
    5290:	8c440008 	lw	a0,8(v0)
    5294:	9048001f 	lbu	t0,31(v0)
    5298:	03c31821 	addu	v1,s8,v1
    529c:	01045021 	addu	t2,t0,a0
    52a0:	15200046 	bnez	t1,53bc <map_task+0x34c>
    52a4:	afa30010 	sw	v1,16(sp)
    52a8:	01004821 	move	t1,t0
    52ac:	03c0a021 	move	s4,s8
    52b0:	24c2a478 	addiu	v0,a2,-23432
    52b4:	00a21021 	addu	v0,a1,v0
    52b8:	8c450018 	lw	a1,24(v0)
    52bc:	012a402a 	slt	t0,t1,t2
    52c0:	00051403 	sra	v0,a1,0x10
    52c4:	30a700ff 	andi	a3,a1,0xff
    52c8:	304200ff 	andi	v0,v0,0xff
    52cc:	30a6ffff 	andi	a2,a1,0xffff
    52d0:	00071880 	sll	v1,a3,0x2
    52d4:	00022080 	sll	a0,v0,0x2
    52d8:	00671821 	addu	v1,v1,a3
    52dc:	00822021 	addu	a0,a0,v0
    52e0:	00063203 	sra	a2,a2,0x8
    52e4:	00052e03 	sra	a1,a1,0x18
    52e8:	0066b021 	addu	s6,v1,a2
    52ec:	1100ff97 	beqz	t0,514c <map_task+0xdc>
    52f0:	00859021 	addu	s2,a0,a1
    52f4:	00091080 	sll	v0,t1,0x2
    52f8:	01495023 	subu	t2,t2,t1
    52fc:	0049a821 	addu	s5,v0,t1
    5300:	0256102a 	slt	v0,s2,s6
    5304:	afaa0014 	sw	t2,20(sp)
    5308:	0000b821 	move	s7,zero
    530c:	afa20018 	sw	v0,24(sp)
    5310:	8fa30010 	lw	v1,16(sp)
    5314:	00000000 	nop
    5318:	0283102a 	slt	v0,s4,v1
    531c:	10400015 	beqz	v0,5374 <map_task+0x304>
    5320:	00000000 	nop
    5324:	02958021 	addu	s0,s4,s5
    5328:	00009821 	move	s3,zero
    532c:	8fa50018 	lw	a1,24(sp)
    5330:	00000000 	nop
    5334:	14a00018 	bnez	a1,5398 <map_task+0x328>
    5338:	02c01821 	move	v1,s6
    533c:	00002021 	move	a0,zero
    5340:	10700013 	beq	v1,s0,5390 <map_task+0x320>
    5344:	00000000 	nop
    5348:	24630005 	addiu	v1,v1,5
    534c:	0243102a 	slt	v0,s2,v1
    5350:	1040fffb 	beqz	v0,5340 <map_task+0x2d0>
    5354:	24050001 	li	a1,1
    5358:	1485000f 	bne	a0,a1,5398 <map_task+0x328>
    535c:	00000000 	nop
    5360:	8fa30010 	lw	v1,16(sp)
    5364:	26730001 	addiu	s3,s3,1
    5368:	00741023 	subu	v0,v1,s4
    536c:	1662ffef 	bne	s3,v0,532c <map_task+0x2bc>
    5370:	26100001 	addiu	s0,s0,1
    5374:	8fa20014 	lw	v0,20(sp)
    5378:	26f70001 	addiu	s7,s7,1
    537c:	26b50005 	addiu	s5,s5,5
    5380:	16e2ffe3 	bne	s7,v0,5310 <map_task+0x2a0>
    5384:	03c0a021 	move	s4,s8
    5388:	08001454 	j	5150 <map_task+0xe0>
    538c:	3c020001 	lui	v0,0x1
    5390:	080014d2 	j	5348 <map_task+0x2d8>
    5394:	24040001 	li	a0,1
    5398:	0c001069 	jal	41a4 <get_proc_address>
    539c:	02002021 	move	a0,s0
    53a0:	00402021 	move	a0,v0
    53a4:	0c0011a3 	jal	468c <get_proc_free_pages>
    53a8:	00408821 	move	s1,v0
    53ac:	1840ffec 	blez	v0,5360 <map_task+0x2f0>
    53b0:	02201021 	move	v0,s1
    53b4:	08001460 	j	5180 <map_task+0x110>
    53b8:	00000000 	nop
    53bc:	00091203 	sra	v0,t1,0x8
    53c0:	24540001 	addiu	s4,v0,1
    53c4:	080014ac 	j	52b0 <map_task+0x240>
    53c8:	312900ff 	andi	t1,t1,0xff

000053cc <page_used>:
    53cc:	00a02021 	move	a0,a1
    53d0:	080012aa 	j	4aa8 <add_task>
    53d4:	00c02821 	move	a1,a2

000053d8 <application_mapping>:
    53d8:	27bdffc8 	addiu	sp,sp,-56
    53dc:	afb7002c 	sw	s7,44(sp)
    53e0:	0080b821 	move	s7,a0
    53e4:	00a02021 	move	a0,a1
    53e8:	afb20018 	sw	s2,24(sp)
    53ec:	afbf0030 	sw	ra,48(sp)
    53f0:	afb60028 	sw	s6,40(sp)
    53f4:	afb50024 	sw	s5,36(sp)
    53f8:	afb40020 	sw	s4,32(sp)
    53fc:	afb3001c 	sw	s3,28(sp)
    5400:	afb10014 	sw	s1,20(sp)
    5404:	0c000d9e 	jal	3678 <get_application_ptr>
    5408:	afb00010 	sw	s0,16(sp)
    540c:	00409021 	move	s2,v0
    5410:	8c420008 	lw	v0,8(v0)
    5414:	00000000 	nop
    5418:	1840002e 	blez	v0,54d4 <application_mapping+0xfc>
    541c:	3c020005 	lui	v0,0x5
    5420:	2456a478 	addiu	s6,v0,-23432
    5424:	00008821 	move	s1,zero
    5428:	00009821 	move	s3,zero
    542c:	3c150005 	lui	s5,0x5
    5430:	2414ffff 	li	s4,-1
    5434:	08001517 	j	545c <application_mapping+0x84>
    5438:	26500010 	addiu	s0,s2,16
    543c:	8e050004 	lw	a1,4(s0)
    5440:	0c0011ac 	jal	46b0 <change_task>
    5444:	26730001 	addiu	s3,s3,1
    5448:	8e420008 	lw	v0,8(s2)
    544c:	00000000 	nop
    5450:	0262102a 	slt	v0,s3,v0
    5454:	1040001f 	beqz	v0,54d4 <application_mapping+0xfc>
    5458:	26100078 	addiu	s0,s0,120
    545c:	8ea298b4 	lw	v0,-26444(s5)
    5460:	00000000 	nop
    5464:	00021140 	sll	v0,v0,0x5
    5468:	00561021 	addu	v0,v0,s6
    546c:	8c440010 	lw	a0,16(v0)
    5470:	8c430000 	lw	v1,0(v0)
    5474:	00000000 	nop
    5478:	00641823 	subu	v1,v1,a0
    547c:	12630025 	beq	s3,v1,5514 <application_mapping+0x13c>
    5480:	00000000 	nop
    5484:	8e050004 	lw	a1,4(s0)
    5488:	8e4605b4 	lw	a2,1460(s2)
    548c:	0c00141c 	jal	5070 <map_task>
    5490:	02202021 	move	a0,s1
    5494:	00408821 	move	s1,v0
    5498:	10540026 	beq	v0,s4,5534 <application_mapping+0x15c>
    549c:	00402021 	move	a0,v0
    54a0:	0c0010de 	jal	4378 <proc_is_migrating>
    54a4:	ae020018 	sw	v0,24(s0)
    54a8:	02202021 	move	a0,s1
    54ac:	1440ffe3 	bnez	v0,543c <application_mapping+0x64>
    54b0:	02202821 	move	a1,s1
    54b4:	8e060004 	lw	a2,4(s0)
    54b8:	0c0014f3 	jal	53cc <page_used>
    54bc:	02e02021 	move	a0,s7
    54c0:	8e420008 	lw	v0,8(s2)
    54c4:	26730001 	addiu	s3,s3,1
    54c8:	0262102a 	slt	v0,s3,v0
    54cc:	1440ffe3 	bnez	v0,545c <application_mapping+0x84>
    54d0:	26100078 	addiu	s0,s0,120
    54d4:	3c020001 	lui	v0,0x1
    54d8:	2442958c 	addiu	v0,v0,-27252
    54dc:	3c032000 	lui	v1,0x2000
    54e0:	ac620000 	sw	v0,0(v1)
    54e4:	24020001 	li	v0,1
    54e8:	8fbf0030 	lw	ra,48(sp)
    54ec:	8fb7002c 	lw	s7,44(sp)
    54f0:	8fb60028 	lw	s6,40(sp)
    54f4:	8fb50024 	lw	s5,36(sp)
    54f8:	8fb40020 	lw	s4,32(sp)
    54fc:	8fb3001c 	lw	s3,28(sp)
    5500:	8fb20018 	lw	s2,24(sp)
    5504:	8fb10014 	lw	s1,20(sp)
    5508:	8fb00010 	lw	s0,16(sp)
    550c:	03e00008 	jr	ra
    5510:	27bd0038 	addiu	sp,sp,56
    5514:	00008821 	move	s1,zero
    5518:	8e050004 	lw	a1,4(s0)
    551c:	8e4605b4 	lw	a2,1460(s2)
    5520:	0c00141c 	jal	5070 <map_task>
    5524:	02202021 	move	a0,s1
    5528:	00408821 	move	s1,v0
    552c:	1454ffdc 	bne	v0,s4,54a0 <application_mapping+0xc8>
    5530:	00402021 	move	a0,v0
    5534:	0800153a 	j	54e8 <application_mapping+0x110>
    5538:	00001021 	move	v0,zero

0000553c <page_released>:
    553c:	27bdffe8 	addiu	sp,sp,-24
    5540:	afb00010 	sw	s0,16(sp)
    5544:	00808021 	move	s0,a0
    5548:	00a02021 	move	a0,a1
    554c:	afbf0014 	sw	ra,20(sp)
    5550:	0c001270 	jal	49c0 <remove_task>
    5554:	00c02821 	move	a1,a2
    5558:	00102140 	sll	a0,s0,0x5
    555c:	3c020005 	lui	v0,0x5
    5560:	00108080 	sll	s0,s0,0x2
    5564:	00902023 	subu	a0,a0,s0
    5568:	244297c4 	addiu	v0,v0,-26684
    556c:	00822021 	addu	a0,a0,v0
    5570:	8c830018 	lw	v1,24(a0)
    5574:	00000000 	nop
    5578:	24630001 	addiu	v1,v1,1
    557c:	ac830018 	sw	v1,24(a0)
    5580:	8fbf0014 	lw	ra,20(sp)
    5584:	8fb00010 	lw	s0,16(sp)
    5588:	03e00008 	jr	ra
    558c:	27bd0018 	addiu	sp,sp,24

00005590 <initSRstructs>:
    5590:	3c022000 	lui	v0,0x2000
    5594:	34420140 	ori	v0,v0,0x140
    5598:	8c440000 	lw	a0,0(v0)
    559c:	3c030005 	lui	v1,0x5
    55a0:	ac6498dc 	sw	a0,-26404(v1)
    55a4:	3c020005 	lui	v0,0x5
    55a8:	3c030005 	lui	v1,0x5
    55ac:	244231d8 	addiu	v0,v0,12760
    55b0:	24636ec8 	addiu	v1,v1,28360
    55b4:	ac400000 	sw	zero,0(v0)
    55b8:	2442030c 	addiu	v0,v0,780
    55bc:	1443fffd 	bne	v0,v1,55b4 <initSRstructs+0x24>
    55c0:	00000000 	nop
    55c4:	03e00008 	jr	ra
    55c8:	24020001 	li	v0,1

000055cc <GetFreeSlotSourceRouting>:
    55cc:	3c020005 	lui	v0,0x5
    55d0:	3c030005 	lui	v1,0x5
    55d4:	244531dc 	addiu	a1,v0,12764
    55d8:	24635054 	addiu	v1,v1,20564
    55dc:	24060001 	li	a2,1
    55e0:	8ca20000 	lw	v0,0(a1)
    55e4:	00000000 	nop
    55e8:	10820014 	beq	a0,v0,563c <GetFreeSlotSourceRouting+0x70>
    55ec:	00000000 	nop
    55f0:	24a5030c 	addiu	a1,a1,780
    55f4:	14a3fffa 	bne	a1,v1,55e0 <GetFreeSlotSourceRouting+0x14>
    55f8:	3c020005 	lui	v0,0x5
    55fc:	244331d8 	addiu	v1,v0,12760
    5600:	00002021 	move	a0,zero
    5604:	24050014 	li	a1,20
    5608:	8c620000 	lw	v0,0(v1)
    560c:	00000000 	nop
    5610:	10400008 	beqz	v0,5634 <GetFreeSlotSourceRouting+0x68>
    5614:	2463030c 	addiu	v1,v1,780
    5618:	24840001 	addiu	a0,a0,1
    561c:	1485fffa 	bne	a0,a1,5608 <GetFreeSlotSourceRouting+0x3c>
    5620:	3c020001 	lui	v0,0x1
    5624:	244295ac 	addiu	v0,v0,-27220
    5628:	3c032000 	lui	v1,0x2000
    562c:	ac620000 	sw	v0,0(v1)
    5630:	2404ffff 	li	a0,-1
    5634:	03e00008 	jr	ra
    5638:	00801021 	move	v0,a0
    563c:	8ca2fffc 	lw	v0,-4(a1)
    5640:	00000000 	nop
    5644:	1446ffeb 	bne	v0,a2,55f4 <GetFreeSlotSourceRouting+0x28>
    5648:	24a5030c 	addiu	a1,a1,780
    564c:	24a5fcf4 	addiu	a1,a1,-780
    5650:	0800158d 	j	5634 <GetFreeSlotSourceRouting+0x68>
    5654:	2404ffff 	li	a0,-1

00005658 <SearchSourceRoutingDestination>:
    5658:	3c020005 	lui	v0,0x5
    565c:	244331dc 	addiu	v1,v0,12764
    5660:	00002821 	move	a1,zero
    5664:	24070001 	li	a3,1
    5668:	2406000a 	li	a2,10
    566c:	8c620000 	lw	v0,0(v1)
    5670:	00000000 	nop
    5674:	14820005 	bne	a0,v0,568c <SearchSourceRoutingDestination+0x34>
    5678:	00000000 	nop
    567c:	8c62fffc 	lw	v0,-4(v1)
    5680:	00000000 	nop
    5684:	10470005 	beq	v0,a3,569c <SearchSourceRoutingDestination+0x44>
    5688:	00000000 	nop
    568c:	24a50001 	addiu	a1,a1,1
    5690:	14a6fff6 	bne	a1,a2,566c <SearchSourceRoutingDestination+0x14>
    5694:	2463030c 	addiu	v1,v1,780
    5698:	2405ffff 	li	a1,-1
    569c:	03e00008 	jr	ra
    56a0:	00a01021 	move	v0,a1

000056a4 <ClearSlotSourceRouting>:
    56a4:	3c020005 	lui	v0,0x5
    56a8:	3c030005 	lui	v1,0x5
    56ac:	24423158 	addiu	v0,v0,12632
    56b0:	246331dc 	addiu	v1,v1,12764
    56b4:	24460080 	addiu	a2,v0,128
    56b8:	00002821 	move	a1,zero
    56bc:	24080001 	li	t0,1
    56c0:	2407000a 	li	a3,10
    56c4:	8c620000 	lw	v0,0(v1)
    56c8:	00000000 	nop
    56cc:	14820005 	bne	a0,v0,56e4 <ClearSlotSourceRouting+0x40>
    56d0:	00000000 	nop
    56d4:	8c62fffc 	lw	v0,-4(v1)
    56d8:	00000000 	nop
    56dc:	10480008 	beq	v0,t0,5700 <ClearSlotSourceRouting+0x5c>
    56e0:	00a01021 	move	v0,a1
    56e4:	24a50001 	addiu	a1,a1,1
    56e8:	24c6030c 	addiu	a2,a2,780
    56ec:	14a7fff5 	bne	a1,a3,56c4 <ClearSlotSourceRouting+0x20>
    56f0:	2463030c 	addiu	v1,v1,780
    56f4:	2405ffff 	li	a1,-1
    56f8:	03e00008 	jr	ra
    56fc:	00a01021 	move	v0,a1
    5700:	03e00008 	jr	ra
    5704:	acc00000 	sw	zero,0(a2)

00005708 <ClearAllSourceRouting>:
    5708:	3c020005 	lui	v0,0x5
    570c:	3c030005 	lui	v1,0x5
    5710:	244431d8 	addiu	a0,v0,12760
    5714:	24635050 	addiu	v1,v1,20560
    5718:	080015cb 	j	572c <ClearAllSourceRouting+0x24>
    571c:	24050001 	li	a1,1
    5720:	2484030c 	addiu	a0,a0,780
    5724:	10830009 	beq	a0,v1,574c <ClearAllSourceRouting+0x44>
    5728:	00000000 	nop
    572c:	8c820000 	lw	v0,0(a0)
    5730:	00000000 	nop
    5734:	1445fffa 	bne	v0,a1,5720 <ClearAllSourceRouting+0x18>
    5738:	00000000 	nop
    573c:	ac800000 	sw	zero,0(a0)
    5740:	2484030c 	addiu	a0,a0,780
    5744:	1483fff9 	bne	a0,v1,572c <ClearAllSourceRouting+0x24>
    5748:	00000000 	nop
    574c:	03e00008 	jr	ra
    5750:	00000000 	nop

00005754 <print_port>:
    5754:	2c820008 	sltiu	v0,a0,8
    5758:	10400009 	beqz	v0,5780 <print_port+0x2c>
    575c:	3c020001 	lui	v0,0x1
    5760:	3c030001 	lui	v1,0x1
    5764:	00041080 	sll	v0,a0,0x2
    5768:	24639654 	addiu	v1,v1,-27052
    576c:	00431021 	addu	v0,v0,v1
    5770:	8c440000 	lw	a0,0(v0)
    5774:	00000000 	nop
    5778:	00800008 	jr	a0
    577c:	00000000 	nop
    5780:	24429608 	addiu	v0,v0,-27128
    5784:	3c032000 	lui	v1,0x2000
    5788:	ac620000 	sw	v0,0(v1)
    578c:	03e00008 	jr	ra
    5790:	00000000 	nop
    5794:	3c020001 	lui	v0,0x1
    5798:	244295e8 	addiu	v0,v0,-27160
    579c:	3c032000 	lui	v1,0x2000
    57a0:	ac620000 	sw	v0,0(v1)
    57a4:	03e00008 	jr	ra
    57a8:	00000000 	nop
    57ac:	3c020001 	lui	v0,0x1
    57b0:	24429604 	addiu	v0,v0,-27132
    57b4:	3c032000 	lui	v1,0x2000
    57b8:	ac620000 	sw	v0,0(v1)
    57bc:	03e00008 	jr	ra
    57c0:	00000000 	nop
    57c4:	3c020001 	lui	v0,0x1
    57c8:	244295fc 	addiu	v0,v0,-27140
    57cc:	3c032000 	lui	v1,0x2000
    57d0:	ac620000 	sw	v0,0(v1)
    57d4:	03e00008 	jr	ra
    57d8:	00000000 	nop
    57dc:	3c020001 	lui	v0,0x1
    57e0:	244295f4 	addiu	v0,v0,-27148
    57e4:	3c032000 	lui	v1,0x2000
    57e8:	ac620000 	sw	v0,0(v1)
    57ec:	03e00008 	jr	ra
    57f0:	00000000 	nop
    57f4:	3c020001 	lui	v0,0x1
    57f8:	244295ec 	addiu	v0,v0,-27156
    57fc:	3c032000 	lui	v1,0x2000
    5800:	ac620000 	sw	v0,0(v1)
    5804:	03e00008 	jr	ra
    5808:	00000000 	nop
    580c:	3c020001 	lui	v0,0x1
    5810:	24429600 	addiu	v0,v0,-27136
    5814:	3c032000 	lui	v1,0x2000
    5818:	ac620000 	sw	v0,0(v1)
    581c:	03e00008 	jr	ra
    5820:	00000000 	nop
    5824:	3c020001 	lui	v0,0x1
    5828:	244295f8 	addiu	v0,v0,-27144
    582c:	3c032000 	lui	v1,0x2000
    5830:	ac620000 	sw	v0,0(v1)
    5834:	03e00008 	jr	ra
    5838:	00000000 	nop
    583c:	3c020001 	lui	v0,0x1
    5840:	244295f0 	addiu	v0,v0,-27152
    5844:	3c032000 	lui	v1,0x2000
    5848:	ac620000 	sw	v0,0(v1)
    584c:	03e00008 	jr	ra
    5850:	00000000 	nop

00005854 <Seek>:
    5854:	240d0001 	li	t5,1
    5858:	3c029027 	lui	v0,0x9027
    585c:	3c0a2000 	lui	t2,0x2000
    5860:	34427d4a 	ori	v0,v0,0x7d4a
    5864:	008d5804 	sllv	t3,t5,a0
    5868:	01626024 	and	t4,t3,v0
    586c:	35430370 	ori	v1,t2,0x370
    5870:	35420390 	ori	v0,t2,0x390
    5874:	35480394 	ori	t0,t2,0x394
    5878:	2c890020 	sltiu	t1,a0,32
    587c:	ac640000 	sw	a0,0(v1)
    5880:	ac450000 	sw	a1,0(v0)
    5884:	ad070000 	sw	a3,0(t0)
    5888:	1120000e 	beqz	t1,58c4 <Seek+0x70>
    588c:	00000000 	nop
    5890:	3c026018 	lui	v0,0x6018
    5894:	344202b4 	ori	v0,v0,0x2b4
    5898:	01622024 	and	a0,t3,v0
    589c:	11800007 	beqz	t4,58bc <Seek+0x68>
    58a0:	35420550 	ori	v0,t2,0x550
    58a4:	ac400000 	sw	zero,0(v0)
    58a8:	3c022000 	lui	v0,0x2000
    58ac:	34420380 	ori	v0,v0,0x380
    58b0:	ac460000 	sw	a2,0(v0)
    58b4:	03e00008 	jr	ra
    58b8:	00000000 	nop
    58bc:	14800004 	bnez	a0,58d0 <Seek+0x7c>
    58c0:	00000000 	nop
    58c4:	3c022000 	lui	v0,0x2000
    58c8:	08001629 	j	58a4 <Seek+0x50>
    58cc:	34420550 	ori	v0,v0,0x550
    58d0:	ac4d0000 	sw	t5,0(v0)
    58d4:	3c022000 	lui	v0,0x2000
    58d8:	34420380 	ori	v0,v0,0x380
    58dc:	ac460000 	sw	a2,0(v0)
    58e0:	03e00008 	jr	ra
    58e4:	00000000 	nop

000058e8 <ProcessTurns>:
    58e8:	27bdff90 	addiu	sp,sp,-112
    58ec:	afb20068 	sw	s2,104(sp)
    58f0:	afb00060 	sw	s0,96(sp)
    58f4:	27b20010 	addiu	s2,sp,16
    58f8:	00008021 	move	s0,zero
    58fc:	30820003 	andi	v0,a0,0x3
    5900:	02403821 	move	a3,s2
    5904:	00042082 	srl	a0,a0,0x2
    5908:	240a0010 	li	t2,16
    590c:	26100001 	addiu	s0,s0,1
    5910:	afbf006c 	sw	ra,108(sp)
    5914:	afb10064 	sw	s1,100(sp)
    5918:	240b0020 	li	t3,32
    591c:	24090001 	li	t1,1
    5920:	240c0003 	li	t4,3
    5924:	ace20000 	sw	v0,0(a3)
    5928:	120a0010 	beq	s0,t2,596c <ProcessTurns+0x84>
    592c:	30830003 	andi	v1,a0,0x3
    5930:	120b00a8 	beq	s0,t3,5bd4 <ProcessTurns+0x2ec>
    5934:	00000000 	nop
    5938:	8ce20000 	lw	v0,0(a3)
    593c:	00000000 	nop
    5940:	1440000e 	bnez	v0,597c <ProcessTurns+0x94>
    5944:	00000000 	nop
    5948:	10690015 	beq	v1,t1,59a0 <ProcessTurns+0xb8>
    594c:	00101080 	sll	v0,s0,0x2
    5950:	24e70004 	addiu	a3,a3,4
    5954:	30820003 	andi	v0,a0,0x3
    5958:	26100001 	addiu	s0,s0,1
    595c:	00042082 	srl	a0,a0,0x2
    5960:	ace20000 	sw	v0,0(a3)
    5964:	160afff2 	bne	s0,t2,5930 <ProcessTurns+0x48>
    5968:	30830003 	andi	v1,a0,0x3
    596c:	8ce20000 	lw	v0,0(a3)
    5970:	00000000 	nop
    5974:	1040fff4 	beqz	v0,5948 <ProcessTurns+0x60>
    5978:	00a02021 	move	a0,a1
    597c:	10490097 	beq	v0,t1,5bdc <ProcessTurns+0x2f4>
    5980:	24080002 	li	t0,2
    5984:	10480099 	beq	v0,t0,5bec <ProcessTurns+0x304>
    5988:	00000000 	nop
    598c:	144cfff0 	bne	v0,t4,5950 <ProcessTurns+0x68>
    5990:	00000000 	nop
    5994:	1468ffef 	bne	v1,t0,5954 <ProcessTurns+0x6c>
    5998:	24e70004 	addiu	a3,a3,4
    599c:	00101080 	sll	v0,s0,0x2
    59a0:	00521021 	addu	v0,v0,s2
    59a4:	1a0000c2 	blez	s0,5cb0 <ProcessTurns+0x3c8>
    59a8:	ac430000 	sw	v1,0(v0)
    59ac:	00002021 	move	a0,zero
    59b0:	00002821 	move	a1,zero
    59b4:	00003821 	move	a3,zero
    59b8:	02401821 	move	v1,s2
    59bc:	24060001 	li	a2,1
    59c0:	24080002 	li	t0,2
    59c4:	0800167a 	j	59e8 <ProcessTurns+0x100>
    59c8:	24090003 	li	t1,3
    59cc:	1048008d 	beq	v0,t0,5c04 <ProcessTurns+0x31c>
    59d0:	00000000 	nop
    59d4:	104900aa 	beq	v0,t1,5c80 <ProcessTurns+0x398>
    59d8:	00000000 	nop
    59dc:	24840001 	addiu	a0,a0,1
    59e0:	1090000b 	beq	a0,s0,5a10 <ProcessTurns+0x128>
    59e4:	24630004 	addiu	v1,v1,4
    59e8:	8c620000 	lw	v0,0(v1)
    59ec:	00000000 	nop
    59f0:	10460082 	beq	v0,a2,5bfc <ProcessTurns+0x314>
    59f4:	00000000 	nop
    59f8:	1440fff4 	bnez	v0,59cc <ProcessTurns+0xe4>
    59fc:	00000000 	nop
    5a00:	24840001 	addiu	a0,a0,1
    5a04:	24a50001 	addiu	a1,a1,1
    5a08:	1490fff7 	bne	a0,s0,59e8 <ProcessTurns+0x100>
    5a0c:	24630004 	addiu	v1,v1,4
    5a10:	00e01821 	move	v1,a3
    5a14:	3c110005 	lui	s1,0x5
    5a18:	8e2298b8 	lw	v0,-26440(s1)
    5a1c:	00000000 	nop
    5a20:	00022202 	srl	a0,v0,0x8
    5a24:	00852021 	addu	a0,a0,a1
    5a28:	00431021 	addu	v0,v0,v1
    5a2c:	304200ff 	andi	v0,v0,0xff
    5a30:	00042200 	sll	a0,a0,0x8
    5a34:	0c001596 	jal	5658 <SearchSourceRoutingDestination>
    5a38:	00822025 	or	a0,a0,v0
    5a3c:	00405021 	move	t2,v0
    5a40:	2402ffff 	li	v0,-1
    5a44:	11420092 	beq	t2,v0,5c90 <ProcessTurns+0x3a8>
    5a48:	3c020001 	lui	v0,0x1
    5a4c:	3c022aaa 	lui	v0,0x2aaa
    5a50:	3442aaab 	ori	v0,v0,0xaaab
    5a54:	02020018 	mult	s0,v0
    5a58:	000a4080 	sll	t0,t2,0x2
    5a5c:	000a4900 	sll	t1,t2,0x4
    5a60:	01282023 	subu	a0,t1,t0
    5a64:	3c0c0005 	lui	t4,0x5
    5a68:	00042980 	sll	a1,a0,0x6
    5a6c:	001037c3 	sra	a2,s0,0x1f
    5a70:	00852021 	addu	a0,a0,a1
    5a74:	25833158 	addiu	v1,t4,12632
    5a78:	00832021 	addu	a0,a0,v1
    5a7c:	00001010 	mfhi	v0
    5a80:	00461023 	subu	v0,v0,a2
    5a84:	24420001 	addiu	v0,v0,1
    5a88:	1a00008c 	blez	s0,5cbc <ProcessTurns+0x3d4>
    5a8c:	ac820088 	sw	v0,136(a0)
    5a90:	00003821 	move	a3,zero
    5a94:	24060001 	li	a2,1
    5a98:	240b0001 	li	t3,1
    5a9c:	02402821 	move	a1,s2
    5aa0:	14c0005a 	bnez	a2,5c0c <ProcessTurns+0x324>
    5aa4:	00071880 	sll	v1,a3,0x2
    5aa8:	8ca20000 	lw	v0,0(a1)
    5aac:	00000000 	nop
    5ab0:	2442fffe 	addiu	v0,v0,-2
    5ab4:	2c420002 	sltiu	v0,v0,2
    5ab8:	14400064 	bnez	v0,5c4c <ProcessTurns+0x364>
    5abc:	00000000 	nop
    5ac0:	24e70001 	addiu	a3,a3,1
    5ac4:	24a50004 	addiu	a1,a1,4
    5ac8:	00f0102a 	slt	v0,a3,s0
    5acc:	1440fff4 	bnez	v0,5aa0 <ProcessTurns+0x1b8>
    5ad0:	01281023 	subu	v0,t1,t0
    5ad4:	00021980 	sll	v1,v0,0x6
    5ad8:	00431021 	addu	v0,v0,v1
    5adc:	25843158 	addiu	a0,t4,12632
    5ae0:	3c037000 	lui	v1,0x7000
    5ae4:	00442021 	addu	a0,v0,a0
    5ae8:	34637000 	ori	v1,v1,0x7000
    5aec:	04e00032 	bltz	a3,5bb8 <ProcessTurns+0x2d0>
    5af0:	ac830000 	sw	v1,0(a0)
    5af4:	8fa20010 	lw	v0,16(sp)
    5af8:	240b0014 	li	t3,20
    5afc:	3042000f 	andi	v0,v0,0xf
    5b00:	00021600 	sll	v0,v0,0x18
    5b04:	00431025 	or	v0,v0,v1
    5b08:	24060001 	li	a2,1
    5b0c:	ac820000 	sw	v0,0(a0)
    5b10:	000a1040 	sll	v0,t2,0x1
    5b14:	004a1021 	addu	v0,v0,t2
    5b18:	00021980 	sll	v1,v0,0x6
    5b1c:	00432821 	addu	a1,v0,v1
    5b20:	00062080 	sll	a0,a2,0x2
    5b24:	00e6102a 	slt	v0,a3,a2
    5b28:	00064fc3 	sra	t1,a2,0x1f
    5b2c:	00922021 	addu	a0,a0,s2
    5b30:	14400021 	bnez	v0,5bb8 <ProcessTurns+0x2d0>
    5b34:	25833158 	addiu	v1,t4,12632
    5b38:	3c022aaa 	lui	v0,0x2aaa
    5b3c:	3442aaab 	ori	v0,v0,0xaaab
    5b40:	00c20018 	mult	a2,v0
    5b44:	8c840000 	lw	a0,0(a0)
    5b48:	24c80001 	addiu	t0,a2,1
    5b4c:	3084000f 	andi	a0,a0,0xf
    5b50:	01642004 	sllv	a0,a0,t3
    5b54:	01003021 	move	a2,t0
    5b58:	00001010 	mfhi	v0
    5b5c:	00491023 	subu	v0,v0,t1
    5b60:	00a21021 	addu	v0,a1,v0
    5b64:	00021080 	sll	v0,v0,0x2
    5b68:	00432821 	addu	a1,v0,v1
    5b6c:	8ca30000 	lw	v1,0(a1)
    5b70:	00000000 	nop
    5b74:	00641825 	or	v1,v1,a0
    5b78:	1160002f 	beqz	t3,5c38 <ProcessTurns+0x350>
    5b7c:	aca30000 	sw	v1,0(a1)
    5b80:	24020010 	li	v0,16
    5b84:	11620040 	beq	t3,v0,5c88 <ProcessTurns+0x3a0>
    5b88:	00000000 	nop
    5b8c:	256bfffc 	addiu	t3,t3,-4
    5b90:	000a1040 	sll	v0,t2,0x1
    5b94:	004a1021 	addu	v0,v0,t2
    5b98:	00021980 	sll	v1,v0,0x6
    5b9c:	00432821 	addu	a1,v0,v1
    5ba0:	00062080 	sll	a0,a2,0x2
    5ba4:	00e6102a 	slt	v0,a3,a2
    5ba8:	00064fc3 	sra	t1,a2,0x1f
    5bac:	00922021 	addu	a0,a0,s2
    5bb0:	1040ffe1 	beqz	v0,5b38 <ProcessTurns+0x250>
    5bb4:	25833158 	addiu	v1,t4,12632
    5bb8:	8fbf006c 	lw	ra,108(sp)
    5bbc:	8fb20068 	lw	s2,104(sp)
    5bc0:	8fb10064 	lw	s1,100(sp)
    5bc4:	8fb00060 	lw	s0,96(sp)
    5bc8:	01401021 	move	v0,t2
    5bcc:	03e00008 	jr	ra
    5bd0:	27bd0070 	addiu	sp,sp,112
    5bd4:	0800164e 	j	5938 <ProcessTurns+0x50>
    5bd8:	00c02021 	move	a0,a2
    5bdc:	1060ff6f 	beqz	v1,599c <ProcessTurns+0xb4>
    5be0:	24e70004 	addiu	a3,a3,4
    5be4:	08001656 	j	5958 <ProcessTurns+0x70>
    5be8:	30820003 	andi	v0,a0,0x3
    5bec:	106cff6b 	beq	v1,t4,599c <ProcessTurns+0xb4>
    5bf0:	24e70004 	addiu	a3,a3,4
    5bf4:	08001656 	j	5958 <ProcessTurns+0x70>
    5bf8:	30820003 	andi	v0,a0,0x3
    5bfc:	08001677 	j	59dc <ProcessTurns+0xf4>
    5c00:	24a5ffff 	addiu	a1,a1,-1
    5c04:	08001677 	j	59dc <ProcessTurns+0xf4>
    5c08:	24e70001 	addiu	a3,a3,1
    5c0c:	8ca40000 	lw	a0,0(a1)
    5c10:	00000000 	nop
    5c14:	2482fffe 	addiu	v0,a0,-2
    5c18:	2c420002 	sltiu	v0,v0,2
    5c1c:	00721821 	addu	v1,v1,s2
    5c20:	14400011 	bnez	v0,5c68 <ProcessTurns+0x380>
    5c24:	24840004 	addiu	a0,a0,4
    5c28:	24a50004 	addiu	a1,a1,4
    5c2c:	24e70001 	addiu	a3,a3,1
    5c30:	080016b2 	j	5ac8 <ProcessTurns+0x1e0>
    5c34:	ac640000 	sw	a0,0(v1)
    5c38:	3c027000 	lui	v0,0x7000
    5c3c:	34427000 	ori	v0,v0,0x7000
    5c40:	240b0018 	li	t3,24
    5c44:	080016c4 	j	5b10 <ProcessTurns+0x228>
    5c48:	aca20004 	sw	v0,4(a1)
    5c4c:	24a50004 	addiu	a1,a1,4
    5c50:	8ca20000 	lw	v0,0(a1)
    5c54:	00000000 	nop
    5c58:	144bff9b 	bne	v0,t3,5ac8 <ProcessTurns+0x1e0>
    5c5c:	24e70001 	addiu	a3,a3,1
    5c60:	080016b2 	j	5ac8 <ProcessTurns+0x1e0>
    5c64:	24060001 	li	a2,1
    5c68:	8ca20004 	lw	v0,4(a1)
    5c6c:	00000000 	nop
    5c70:	1440ffed 	bnez	v0,5c28 <ProcessTurns+0x340>
    5c74:	00000000 	nop
    5c78:	0800170a 	j	5c28 <ProcessTurns+0x340>
    5c7c:	00003021 	move	a2,zero
    5c80:	08001677 	j	59dc <ProcessTurns+0xf4>
    5c84:	24e7ffff 	addiu	a3,a3,-1
    5c88:	080016c4 	j	5b10 <ProcessTurns+0x228>
    5c8c:	240b0008 	li	t3,8
    5c90:	8e2498b8 	lw	a0,-26440(s1)
    5c94:	2442960c 	addiu	v0,v0,-27124
    5c98:	3c032000 	lui	v1,0x2000
    5c9c:	ac620000 	sw	v0,0(v1)
    5ca0:	0c001596 	jal	5658 <SearchSourceRoutingDestination>
    5ca4:	00000000 	nop
    5ca8:	08001693 	j	5a4c <ProcessTurns+0x164>
    5cac:	00405021 	move	t2,v0
    5cb0:	00002821 	move	a1,zero
    5cb4:	08001685 	j	5a14 <ProcessTurns+0x12c>
    5cb8:	00001821 	move	v1,zero
    5cbc:	8fa30010 	lw	v1,16(sp)
    5cc0:	3c027000 	lui	v0,0x7000
    5cc4:	3063000f 	andi	v1,v1,0xf
    5cc8:	00031e00 	sll	v1,v1,0x18
    5ccc:	34427000 	ori	v0,v0,0x7000
    5cd0:	240b0018 	li	t3,24
    5cd4:	24080001 	li	t0,1
    5cd8:	00621825 	or	v1,v1,v0
    5cdc:	00003821 	move	a3,zero
    5ce0:	256bfffc 	addiu	t3,t3,-4
    5ce4:	01003021 	move	a2,t0
    5ce8:	080016e4 	j	5b90 <ProcessTurns+0x2a8>
    5cec:	ac830000 	sw	v1,0(a0)

00005cf0 <printGray>:
    5cf0:	03e00008 	jr	ra
    5cf4:	00000000 	nop

00005cf8 <adjust_backtrack_IO>:
    5cf8:	27bdff88 	addiu	sp,sp,-120
    5cfc:	afb3006c 	sw	s3,108(sp)
    5d00:	afb00060 	sw	s0,96(sp)
    5d04:	27b30010 	addiu	s3,sp,16
    5d08:	00008021 	move	s0,zero
    5d0c:	afb20068 	sw	s2,104(sp)
    5d10:	30820003 	andi	v0,a0,0x3
    5d14:	00e09021 	move	s2,a3
    5d18:	00042082 	srl	a0,a0,0x2
    5d1c:	02603821 	move	a3,s3
    5d20:	240a0010 	li	t2,16
    5d24:	26100001 	addiu	s0,s0,1
    5d28:	afbf0070 	sw	ra,112(sp)
    5d2c:	afb10064 	sw	s1,100(sp)
    5d30:	240b0020 	li	t3,32
    5d34:	24090001 	li	t1,1
    5d38:	240c0003 	li	t4,3
    5d3c:	ace20000 	sw	v0,0(a3)
    5d40:	120a0010 	beq	s0,t2,5d84 <adjust_backtrack_IO+0x8c>
    5d44:	30830003 	andi	v1,a0,0x3
    5d48:	120b008a 	beq	s0,t3,5f74 <adjust_backtrack_IO+0x27c>
    5d4c:	00000000 	nop
    5d50:	8ce20000 	lw	v0,0(a3)
    5d54:	00000000 	nop
    5d58:	1440000e 	bnez	v0,5d94 <adjust_backtrack_IO+0x9c>
    5d5c:	00000000 	nop
    5d60:	10690014 	beq	v1,t1,5db4 <adjust_backtrack_IO+0xbc>
    5d64:	00000000 	nop
    5d68:	24e70004 	addiu	a3,a3,4
    5d6c:	30820003 	andi	v0,a0,0x3
    5d70:	26100001 	addiu	s0,s0,1
    5d74:	00042082 	srl	a0,a0,0x2
    5d78:	ace20000 	sw	v0,0(a3)
    5d7c:	160afff2 	bne	s0,t2,5d48 <adjust_backtrack_IO+0x50>
    5d80:	30830003 	andi	v1,a0,0x3
    5d84:	8ce20000 	lw	v0,0(a3)
    5d88:	00000000 	nop
    5d8c:	1040fff4 	beqz	v0,5d60 <adjust_backtrack_IO+0x68>
    5d90:	00a02021 	move	a0,a1
    5d94:	10490079 	beq	v0,t1,5f7c <adjust_backtrack_IO+0x284>
    5d98:	24080002 	li	t0,2
    5d9c:	1048007b 	beq	v0,t0,5f8c <adjust_backtrack_IO+0x294>
    5da0:	00000000 	nop
    5da4:	144cfff0 	bne	v0,t4,5d68 <adjust_backtrack_IO+0x70>
    5da8:	00000000 	nop
    5dac:	1468ffef 	bne	v1,t0,5d6c <adjust_backtrack_IO+0x74>
    5db0:	24e70004 	addiu	a3,a3,4
    5db4:	00122202 	srl	a0,s2,0x8
    5db8:	0c000abd 	jal	2af4 <get_last_hop>
    5dbc:	324500ff 	andi	a1,s2,0xff
    5dc0:	00408821 	move	s1,v0
    5dc4:	2402ffff 	li	v0,-1
    5dc8:	12220096 	beq	s1,v0,6024 <adjust_backtrack_IO+0x32c>
    5dcc:	3c020001 	lui	v0,0x1
    5dd0:	0c001596 	jal	5658 <SearchSourceRoutingDestination>
    5dd4:	02402021 	move	a0,s2
    5dd8:	00105080 	sll	t2,s0,0x2
    5ddc:	00404821 	move	t1,v0
    5de0:	01531021 	addu	v0,t2,s3
    5de4:	ac510000 	sw	s1,0(v0)
    5de8:	16200084 	bnez	s1,5ffc <adjust_backtrack_IO+0x304>
    5dec:	26060001 	addiu	a2,s0,1
    5df0:	00061080 	sll	v0,a2,0x2
    5df4:	00531021 	addu	v0,v0,s3
    5df8:	24030001 	li	v1,1
    5dfc:	ac430000 	sw	v1,0(v0)
    5e00:	3c032aaa 	lui	v1,0x2aaa
    5e04:	3463aaab 	ori	v1,v1,0xaaab
    5e08:	00c30018 	mult	a2,v1
    5e0c:	00092080 	sll	a0,t1,0x2
    5e10:	00091100 	sll	v0,t1,0x4
    5e14:	00441023 	subu	v0,v0,a0
    5e18:	3c0c0005 	lui	t4,0x5
    5e1c:	00022180 	sll	a0,v0,0x6
    5e20:	00062fc3 	sra	a1,a2,0x1f
    5e24:	00441021 	addu	v0,v0,a0
    5e28:	25873158 	addiu	a3,t4,12632
    5e2c:	00471021 	addu	v0,v0,a3
    5e30:	00001810 	mfhi	v1
    5e34:	00651823 	subu	v1,v1,a1
    5e38:	24630001 	addiu	v1,v1,1
    5e3c:	18c000a1 	blez	a2,60c4 <adjust_backtrack_IO+0x3cc>
    5e40:	ac430088 	sw	v1,136(v0)
    5e44:	24080001 	li	t0,1
    5e48:	00003821 	move	a3,zero
    5e4c:	240b0001 	li	t3,1
    5e50:	02602821 	move	a1,s3
    5e54:	15000051 	bnez	t0,5f9c <adjust_backtrack_IO+0x2a4>
    5e58:	00000000 	nop
    5e5c:	8ca20000 	lw	v0,0(a1)
    5e60:	00000000 	nop
    5e64:	2442fffe 	addiu	v0,v0,-2
    5e68:	2c420002 	sltiu	v0,v0,2
    5e6c:	14400056 	bnez	v0,5fc8 <adjust_backtrack_IO+0x2d0>
    5e70:	00000000 	nop
    5e74:	24e70001 	addiu	a3,a3,1
    5e78:	24a50004 	addiu	a1,a1,4
    5e7c:	00e6102a 	slt	v0,a3,a2
    5e80:	1440fff4 	bnez	v0,5e54 <adjust_backtrack_IO+0x15c>
    5e84:	00000000 	nop
    5e88:	01532821 	addu	a1,t2,s3
    5e8c:	8ca60000 	lw	a2,0(a1)
    5e90:	05200073 	bltz	t1,6060 <adjust_backtrack_IO+0x368>
    5e94:	01204021 	move	t0,t1
    5e98:	00082080 	sll	a0,t0,0x2
    5e9c:	00081100 	sll	v0,t0,0x4
    5ea0:	00441023 	subu	v0,v0,a0
    5ea4:	00021980 	sll	v1,v0,0x6
    5ea8:	00431021 	addu	v0,v0,v1
    5eac:	25843158 	addiu	a0,t4,12632
    5eb0:	3c037000 	lui	v1,0x7000
    5eb4:	00442021 	addu	a0,v0,a0
    5eb8:	34637000 	ori	v1,v1,0x7000
    5ebc:	04e00074 	bltz	a3,6090 <adjust_backtrack_IO+0x398>
    5ec0:	ac830000 	sw	v1,0(a0)
    5ec4:	30c20003 	andi	v0,a2,0x3
    5ec8:	aca20000 	sw	v0,0(a1)
    5ecc:	8fa20010 	lw	v0,16(sp)
    5ed0:	24050014 	li	a1,20
    5ed4:	3042000f 	andi	v0,v0,0xf
    5ed8:	00021600 	sll	v0,v0,0x18
    5edc:	00431025 	or	v0,v0,v1
    5ee0:	24060001 	li	a2,1
    5ee4:	ac820000 	sw	v0,0(a0)
    5ee8:	00e6102a 	slt	v0,a3,a2
    5eec:	14400068 	bnez	v0,6090 <adjust_backtrack_IO+0x398>
    5ef0:	3c022aaa 	lui	v0,0x2aaa
    5ef4:	3442aaab 	ori	v0,v0,0xaaab
    5ef8:	00c20018 	mult	a2,v0
    5efc:	00061fc3 	sra	v1,a2,0x1f
    5f00:	00a04821 	move	t1,a1
    5f04:	00c05821 	move	t3,a2
    5f08:	00a05021 	move	t2,a1
    5f0c:	24c60001 	addiu	a2,a2,1
    5f10:	00001010 	mfhi	v0
    5f14:	00432823 	subu	a1,v0,v1
    5f18:	00081040 	sll	v0,t0,0x1
    5f1c:	00481021 	addu	v0,v0,t0
    5f20:	00021980 	sll	v1,v0,0x6
    5f24:	00431021 	addu	v0,v0,v1
    5f28:	000b2080 	sll	a0,t3,0x2
    5f2c:	00451021 	addu	v0,v0,a1
    5f30:	00932021 	addu	a0,a0,s3
    5f34:	8c830000 	lw	v1,0(a0)
    5f38:	00021080 	sll	v0,v0,0x2
    5f3c:	25853158 	addiu	a1,t4,12632
    5f40:	00452021 	addu	a0,v0,a1
    5f44:	8c820000 	lw	v0,0(a0)
    5f48:	3063000f 	andi	v1,v1,0xf
    5f4c:	01231804 	sllv	v1,v1,t1
    5f50:	00431025 	or	v0,v0,v1
    5f54:	ac820000 	sw	v0,0(a0)
    5f58:	1540003b 	bnez	t2,6048 <adjust_backtrack_IO+0x350>
    5f5c:	24050008 	li	a1,8
    5f60:	3c027000 	lui	v0,0x7000
    5f64:	34427000 	ori	v0,v0,0x7000
    5f68:	24050018 	li	a1,24
    5f6c:	080017ba 	j	5ee8 <adjust_backtrack_IO+0x1f0>
    5f70:	ac820004 	sw	v0,4(a0)
    5f74:	08001754 	j	5d50 <adjust_backtrack_IO+0x58>
    5f78:	00c02021 	move	a0,a2
    5f7c:	1060ff8d 	beqz	v1,5db4 <adjust_backtrack_IO+0xbc>
    5f80:	24e70004 	addiu	a3,a3,4
    5f84:	0800175c 	j	5d70 <adjust_backtrack_IO+0x78>
    5f88:	30820003 	andi	v0,a0,0x3
    5f8c:	106cff89 	beq	v1,t4,5db4 <adjust_backtrack_IO+0xbc>
    5f90:	24e70004 	addiu	a3,a3,4
    5f94:	0800175c 	j	5d70 <adjust_backtrack_IO+0x78>
    5f98:	30820003 	andi	v0,a0,0x3
    5f9c:	8ca40000 	lw	a0,0(a1)
    5fa0:	00071880 	sll	v1,a3,0x2
    5fa4:	2482fffe 	addiu	v0,a0,-2
    5fa8:	2c420002 	sltiu	v0,v0,2
    5fac:	00731821 	addu	v1,v1,s3
    5fb0:	1440000c 	bnez	v0,5fe4 <adjust_backtrack_IO+0x2ec>
    5fb4:	24840004 	addiu	a0,a0,4
    5fb8:	24a50004 	addiu	a1,a1,4
    5fbc:	24e70001 	addiu	a3,a3,1
    5fc0:	0800179f 	j	5e7c <adjust_backtrack_IO+0x184>
    5fc4:	ac640000 	sw	a0,0(v1)
    5fc8:	24a50004 	addiu	a1,a1,4
    5fcc:	8ca20000 	lw	v0,0(a1)
    5fd0:	00000000 	nop
    5fd4:	144bffa9 	bne	v0,t3,5e7c <adjust_backtrack_IO+0x184>
    5fd8:	24e70001 	addiu	a3,a3,1
    5fdc:	0800179f 	j	5e7c <adjust_backtrack_IO+0x184>
    5fe0:	24080001 	li	t0,1
    5fe4:	8ca20004 	lw	v0,4(a1)
    5fe8:	00000000 	nop
    5fec:	1440fff2 	bnez	v0,5fb8 <adjust_backtrack_IO+0x2c0>
    5ff0:	00000000 	nop
    5ff4:	080017ee 	j	5fb8 <adjust_backtrack_IO+0x2c0>
    5ff8:	00004021 	move	t0,zero
    5ffc:	24020001 	li	v0,1
    6000:	1222000d 	beq	s1,v0,6038 <adjust_backtrack_IO+0x340>
    6004:	24030002 	li	v1,2
    6008:	12230029 	beq	s1,v1,60b0 <adjust_backtrack_IO+0x3b8>
    600c:	24020003 	li	v0,3
    6010:	1622ff7b 	bne	s1,v0,5e00 <adjust_backtrack_IO+0x108>
    6014:	00061080 	sll	v0,a2,0x2
    6018:	00531021 	addu	v0,v0,s3
    601c:	08001780 	j	5e00 <adjust_backtrack_IO+0x108>
    6020:	ac430000 	sw	v1,0(v0)
    6024:	24429620 	addiu	v0,v0,-27104
    6028:	3c032000 	lui	v1,0x2000
    602c:	ac620000 	sw	v0,0(v1)
    6030:	08001774 	j	5dd0 <adjust_backtrack_IO+0xd8>
    6034:	00000000 	nop
    6038:	00061080 	sll	v0,a2,0x2
    603c:	00531021 	addu	v0,v0,s3
    6040:	08001780 	j	5e00 <adjust_backtrack_IO+0x108>
    6044:	ac400000 	sw	zero,0(v0)
    6048:	24020010 	li	v0,16
    604c:	1142ffa7 	beq	t2,v0,5eec <adjust_backtrack_IO+0x1f4>
    6050:	00e6102a 	slt	v0,a3,a2
    6054:	2545fffc 	addiu	a1,t2,-4
    6058:	080017ba 	j	5ee8 <adjust_backtrack_IO+0x1f0>
    605c:	25660001 	addiu	a2,t3,1
    6060:	00004021 	move	t0,zero
    6064:	00082080 	sll	a0,t0,0x2
    6068:	00081100 	sll	v0,t0,0x4
    606c:	00441023 	subu	v0,v0,a0
    6070:	00021980 	sll	v1,v0,0x6
    6074:	00431021 	addu	v0,v0,v1
    6078:	25843158 	addiu	a0,t4,12632
    607c:	3c037000 	lui	v1,0x7000
    6080:	00442021 	addu	a0,v0,a0
    6084:	34637000 	ori	v1,v1,0x7000
    6088:	04e1ff8e 	bgez	a3,5ec4 <adjust_backtrack_IO+0x1cc>
    608c:	ac830000 	sw	v1,0(a0)
    6090:	8fbf0070 	lw	ra,112(sp)
    6094:	8fb3006c 	lw	s3,108(sp)
    6098:	8fb20068 	lw	s2,104(sp)
    609c:	8fb10064 	lw	s1,100(sp)
    60a0:	8fb00060 	lw	s0,96(sp)
    60a4:	01001021 	move	v0,t0
    60a8:	03e00008 	jr	ra
    60ac:	27bd0078 	addiu	sp,sp,120
    60b0:	00061080 	sll	v0,a2,0x2
    60b4:	00531021 	addu	v0,v0,s3
    60b8:	24030003 	li	v1,3
    60bc:	08001780 	j	5e00 <adjust_backtrack_IO+0x108>
    60c0:	ac430000 	sw	v1,0(v0)
    60c4:	01531821 	addu	v1,t2,s3
    60c8:	8c620000 	lw	v0,0(v1)
    60cc:	01204021 	move	t0,t1
    60d0:	30420003 	andi	v0,v0,0x3
    60d4:	05200011 	bltz	t1,611c <adjust_backtrack_IO+0x424>
    60d8:	ac620000 	sw	v0,0(v1)
    60dc:	00082080 	sll	a0,t0,0x2
    60e0:	00081900 	sll	v1,t0,0x4
    60e4:	00641823 	subu	v1,v1,a0
    60e8:	00031180 	sll	v0,v1,0x6
    60ec:	00621821 	addu	v1,v1,v0
    60f0:	3c027000 	lui	v0,0x7000
    60f4:	00671821 	addu	v1,v1,a3
    60f8:	34427000 	ori	v0,v0,0x7000
    60fc:	240a0018 	li	t2,24
    6100:	00005821 	move	t3,zero
    6104:	00003821 	move	a3,zero
    6108:	00002821 	move	a1,zero
    610c:	24090018 	li	t1,24
    6110:	24060001 	li	a2,1
    6114:	080017c6 	j	5f18 <adjust_backtrack_IO+0x220>
    6118:	ac620000 	sw	v0,0(v1)
    611c:	08001837 	j	60dc <adjust_backtrack_IO+0x3e4>
    6120:	00004021 	move	t0,zero

00006124 <print_SR_Table>:
    6124:	00042900 	sll	a1,a0,0x4
    6128:	00042080 	sll	a0,a0,0x2
    612c:	00a42823 	subu	a1,a1,a0
    6130:	00051180 	sll	v0,a1,0x6
    6134:	00a22821 	addu	a1,a1,v0
    6138:	3c030001 	lui	v1,0x1
    613c:	3c020005 	lui	v0,0x5
    6140:	27bdffd0 	addiu	sp,sp,-48
    6144:	2463963c 	addiu	v1,v1,-27076
    6148:	3c042000 	lui	a0,0x2000
    614c:	24423158 	addiu	v0,v0,12632
    6150:	afbf0028 	sw	ra,40(sp)
    6154:	afb50024 	sw	s5,36(sp)
    6158:	afb40020 	sw	s4,32(sp)
    615c:	afb3001c 	sw	s3,28(sp)
    6160:	afb20018 	sw	s2,24(sp)
    6164:	afb10014 	sw	s1,20(sp)
    6168:	afb00010 	sw	s0,16(sp)
    616c:	ac830000 	sw	v1,0(a0)
    6170:	00a22021 	addu	a0,a1,v0
    6174:	8c830088 	lw	v1,136(a0)
    6178:	00000000 	nop
    617c:	10600013 	beqz	v1,61cc <print_SR_Table+0xa8>
    6180:	3c020001 	lui	v0,0x1
    6184:	3c030001 	lui	v1,0x1
    6188:	00808021 	move	s0,a0
    618c:	24559648 	addiu	s5,v0,-27064
    6190:	24749324 	addiu	s4,v1,-27868
    6194:	00009021 	move	s2,zero
    6198:	3c112000 	lui	s1,0x2000
    619c:	00809821 	move	s3,a0
    61a0:	ae350000 	sw	s5,0(s1)
    61a4:	8e040000 	lw	a0,0(s0)
    61a8:	0c000985 	jal	2614 <itoh>
    61ac:	26520001 	addiu	s2,s2,1
    61b0:	ae220000 	sw	v0,0(s1)
    61b4:	ae340000 	sw	s4,0(s1)
    61b8:	8e620088 	lw	v0,136(s3)
    61bc:	00000000 	nop
    61c0:	0242102b 	sltu	v0,s2,v0
    61c4:	1440fff6 	bnez	v0,61a0 <print_SR_Table+0x7c>
    61c8:	26100004 	addiu	s0,s0,4
    61cc:	8fbf0028 	lw	ra,40(sp)
    61d0:	8fb50024 	lw	s5,36(sp)
    61d4:	8fb40020 	lw	s4,32(sp)
    61d8:	8fb3001c 	lw	s3,28(sp)
    61dc:	8fb20018 	lw	s2,24(sp)
    61e0:	8fb10014 	lw	s1,20(sp)
    61e4:	8fb00010 	lw	s0,16(sp)
    61e8:	03e00008 	jr	ra
    61ec:	27bd0030 	addiu	sp,sp,48

000061f0 <initialize_struct_pairs>:
    61f0:	3c020005 	lui	v0,0x5
    61f4:	3c030005 	lui	v1,0x5
    61f8:	24422e28 	addiu	v0,v0,11816
    61fc:	24633148 	addiu	v1,v1,12616
    6200:	2406ffff 	li	a2,-1
    6204:	ac460000 	sw	a2,0(v0)
    6208:	ac460004 	sw	a2,4(v0)
    620c:	ac460008 	sw	a2,8(v0)
    6210:	ac40000c 	sw	zero,12(v0)
    6214:	ac460010 	sw	a2,16(v0)
    6218:	ac460014 	sw	a2,20(v0)
    621c:	ac460018 	sw	a2,24(v0)
    6220:	ac46001c 	sw	a2,28(v0)
    6224:	ac460020 	sw	a2,32(v0)
    6228:	ac460024 	sw	a2,36(v0)
    622c:	24420028 	addiu	v0,v0,40
    6230:	1443fff4 	bne	v0,v1,6204 <initialize_struct_pairs+0x14>
    6234:	3c050005 	lui	a1,0x5
    6238:	3c020005 	lui	v0,0x5
    623c:	244498cc 	addiu	a0,v0,-26420
    6240:	24a33148 	addiu	v1,a1,12616
    6244:	ac4698cc 	sw	a2,-26420(v0)
    6248:	3c020005 	lui	v0,0x5
    624c:	ac660004 	sw	a2,4(v1)
    6250:	ac4698c8 	sw	a2,-26424(v0)
    6254:	ac860004 	sw	a2,4(a0)
    6258:	03e00008 	jr	ra
    625c:	aca63148 	sw	a2,12616(a1)

00006260 <define_pairs>:
    6260:	27bdffe0 	addiu	sp,sp,-32
    6264:	afb10014 	sw	s1,20(sp)
    6268:	afb00010 	sw	s0,16(sp)
    626c:	afbf0018 	sw	ra,24(sp)
    6270:	00a08821 	move	s1,a1
    6274:	0c00187c 	jal	61f0 <initialize_struct_pairs>
    6278:	00808021 	move	s0,a0
    627c:	3c020005 	lui	v0,0x5
    6280:	24472e28 	addiu	a3,v0,11816
    6284:	3c090005 	lui	t1,0x5
    6288:	252b3148 	addiu	t3,t1,12616
    628c:	240a0100 	li	t2,256
    6290:	ac402e28 	sw	zero,11816(v0)
    6294:	ace00004 	sw	zero,4(a3)
    6298:	12000006 	beqz	s0,62b4 <define_pairs+0x54>
    629c:	ace00008 	sw	zero,8(a3)
    62a0:	8fbf0018 	lw	ra,24(sp)
    62a4:	8fb10014 	lw	s1,20(sp)
    62a8:	8fb00010 	lw	s0,16(sp)
    62ac:	03e00008 	jr	ra
    62b0:	27bd0020 	addiu	sp,sp,32
    62b4:	8ce20014 	lw	v0,20(a3)
    62b8:	8ce30018 	lw	v1,24(a3)
    62bc:	8ce40010 	lw	a0,16(a3)
    62c0:	8ce8001c 	lw	t0,28(a3)
    62c4:	8ce5000c 	lw	a1,12(a3)
    62c8:	8ce60020 	lw	a2,32(a3)
    62cc:	8ce70024 	lw	a3,36(a3)
    62d0:	ae220014 	sw	v0,20(s1)
    62d4:	3c020005 	lui	v0,0x5
    62d8:	ae230018 	sw	v1,24(s1)
    62dc:	ae240010 	sw	a0,16(s1)
    62e0:	ae25000c 	sw	a1,12(s1)
    62e4:	ae260020 	sw	a2,32(s1)
    62e8:	ae270024 	sw	a3,36(s1)
    62ec:	ae28001c 	sw	t0,28(s1)
    62f0:	ac4a98cc 	sw	t2,-26420(v0)
    62f4:	ad2a3148 	sw	t2,12616(t1)
    62f8:	ad600004 	sw	zero,4(t3)
    62fc:	8e230014 	lw	v1,20(s1)
    6300:	8e240018 	lw	a0,24(s1)
    6304:	00031a00 	sll	v1,v1,0x8
    6308:	00641821 	addu	v1,v1,a0
    630c:	3c020005 	lui	v0,0x5
    6310:	080018a8 	j	62a0 <define_pairs+0x40>
    6314:	ac4398d4 	sw	v1,-26412(v0)

00006318 <get_slave_candidate_my_cluster>:
    6318:	3c030005 	lui	v1,0x5
    631c:	8c6298c8 	lw	v0,-26424(v1)
    6320:	03e00008 	jr	ra
    6324:	00000000 	nop

00006328 <set_slave_candidate_my_cluster>:
    6328:	3c020005 	lui	v0,0x5
    632c:	03e00008 	jr	ra
    6330:	ac4498c8 	sw	a0,-26424(v0)

00006334 <get_slave_candidate_other_cluster>:
    6334:	3c030005 	lui	v1,0x5
    6338:	8c623148 	lw	v0,12616(v1)
    633c:	03e00008 	jr	ra
    6340:	00000000 	nop

00006344 <get_task_candidate_other_cluster>:
    6344:	3c030005 	lui	v1,0x5
    6348:	8c62314c 	lw	v0,12620(v1)
    634c:	03e00008 	jr	ra
    6350:	00000000 	nop

00006354 <get_task0_candidate_other_cluster>:
    6354:	3c030005 	lui	v1,0x5
    6358:	8c623150 	lw	v0,12624(v1)
    635c:	03e00008 	jr	ra
    6360:	00000000 	nop

00006364 <get_task1_candidate_other_cluster>:
    6364:	3c030005 	lui	v1,0x5
    6368:	8c623154 	lw	v0,12628(v1)
    636c:	03e00008 	jr	ra
    6370:	00000000 	nop

00006374 <set_slave_candidate_other_cluster>:
    6374:	00051203 	sra	v0,a1,0x8
    6378:	3c030005 	lui	v1,0x5
    637c:	00021600 	sll	v0,v0,0x18
    6380:	24663148 	addiu	a2,v1,12616
    6384:	00021603 	sra	v0,v0,0x18
    6388:	00052e00 	sll	a1,a1,0x18
    638c:	00052e03 	sra	a1,a1,0x18
    6390:	acc2000c 	sw	v0,12(a2)
    6394:	2402ffff 	li	v0,-1
    6398:	ac643148 	sw	a0,12616(v1)
    639c:	acc00004 	sw	zero,4(a2)
    63a0:	10a20003 	beq	a1,v0,63b0 <set_slave_candidate_other_cluster+0x3c>
    63a4:	acc50008 	sw	a1,8(a2)
    63a8:	24020001 	li	v0,1
    63ac:	acc20004 	sw	v0,4(a2)
    63b0:	03e00008 	jr	ra
    63b4:	00000000 	nop

000063b8 <set_master_other_cluster>:
    63b8:	3c020005 	lui	v0,0x5
    63bc:	03e00008 	jr	ra
    63c0:	ac4498d4 	sw	a0,-26412(v0)

000063c4 <get_master_other_cluster>:
    63c4:	3c030005 	lui	v1,0x5
    63c8:	8c6298d4 	lw	v0,-26412(v1)
    63cc:	03e00008 	jr	ra
    63d0:	00000000 	nop

000063d4 <search_Service>:
    63d4:	3c020005 	lui	v0,0x5
    63d8:	8c42995c 	lw	v0,-26276(v0)
    63dc:	00000000 	nop
    63e0:	14400002 	bnez	v0,63ec <search_Service+0x18>
    63e4:	2445ffff 	addiu	a1,v0,-1
    63e8:	2405000f 	li	a1,15
    63ec:	3c020005 	lui	v0,0x5
    63f0:	24486e48 	addiu	t0,v0,28232
    63f4:	00003021 	move	a2,zero
    63f8:	24070010 	li	a3,16
    63fc:	00051100 	sll	v0,a1,0x4
    6400:	00051980 	sll	v1,a1,0x6
    6404:	00621823 	subu	v1,v1,v0
    6408:	00651823 	subu	v1,v1,a1
    640c:	00031880 	sll	v1,v1,0x2
    6410:	00681821 	addu	v1,v1,t0
    6414:	8c620084 	lw	v0,132(v1)
    6418:	00000000 	nop
    641c:	10440007 	beq	v0,a0,643c <search_Service+0x68>
    6420:	24c60001 	addiu	a2,a2,1
    6424:	24a5ffff 	addiu	a1,a1,-1
    6428:	04a00006 	bltz	a1,6444 <search_Service+0x70>
    642c:	00000000 	nop
    6430:	14c7fff2 	bne	a2,a3,63fc <search_Service+0x28>
    6434:	00000000 	nop
    6438:	2405ffff 	li	a1,-1
    643c:	03e00008 	jr	ra
    6440:	00a01021 	move	v0,a1
    6444:	14c7ffed 	bne	a2,a3,63fc <search_Service+0x28>
    6448:	2405000f 	li	a1,15
    644c:	0800190f 	j	643c <search_Service+0x68>
    6450:	2405ffff 	li	a1,-1

00006454 <insert_CM_FIFO>:
    6454:	27bdffe0 	addiu	sp,sp,-32
    6458:	afb20018 	sw	s2,24(sp)
    645c:	afb10014 	sw	s1,20(sp)
    6460:	afb00010 	sw	s0,16(sp)
    6464:	afbf001c 	sw	ra,28(sp)
    6468:	8c830084 	lw	v1,132(a0)
    646c:	24020200 	li	v0,512
    6470:	00808021 	move	s0,a0
    6474:	00a08821 	move	s1,a1
    6478:	10620025 	beq	v1,v0,6510 <insert_CM_FIFO+0xbc>
    647c:	00c09021 	move	s2,a2
    6480:	2c620201 	sltiu	v0,v1,513
    6484:	10400016 	beqz	v0,64e0 <insert_CM_FIFO+0x8c>
    6488:	24020245 	li	v0,581
    648c:	24020070 	li	v0,112
    6490:	1062001f 	beq	v1,v0,6510 <insert_CM_FIFO+0xbc>
    6494:	2c620071 	sltiu	v0,v1,113
    6498:	10400057 	beqz	v0,65f8 <insert_CM_FIFO+0x1a4>
    649c:	24020160 	li	v0,352
    64a0:	24020020 	li	v0,32
    64a4:	1062004e 	beq	v1,v0,65e0 <insert_CM_FIFO+0x18c>
    64a8:	2c620021 	sltiu	v0,v1,33
    64ac:	1040009d 	beqz	v0,6724 <insert_CM_FIFO+0x2d0>
    64b0:	24020040 	li	v0,64
    64b4:	24020010 	li	v0,16
    64b8:	10620049 	beq	v1,v0,65e0 <insert_CM_FIFO+0x18c>
    64bc:	24020015 	li	v0,21
    64c0:	10620066 	beq	v1,v0,665c <insert_CM_FIFO+0x208>
    64c4:	3c180005 	lui	t8,0x5
    64c8:	3c020001 	lui	v0,0x1
    64cc:	24429674 	addiu	v0,v0,-27020
    64d0:	3c032000 	lui	v1,0x2000
    64d4:	ac620000 	sw	v0,0(v1)
    64d8:	08001936 	j	64d8 <insert_CM_FIFO+0x84>
    64dc:	00000000 	nop
    64e0:	1062000b 	beq	v1,v0,6510 <insert_CM_FIFO+0xbc>
    64e4:	2c620246 	sltiu	v0,v1,582
    64e8:	10400050 	beqz	v0,662c <insert_CM_FIFO+0x1d8>
    64ec:	24020280 	li	v0,640
    64f0:	24020230 	li	v0,560
    64f4:	10620006 	beq	v1,v0,6510 <insert_CM_FIFO+0xbc>
    64f8:	2c620231 	sltiu	v0,v1,561
    64fc:	10400081 	beqz	v0,6704 <insert_CM_FIFO+0x2b0>
    6500:	24020235 	li	v0,565
    6504:	24020210 	li	v0,528
    6508:	14620076 	bne	v1,v0,66e4 <insert_CM_FIFO+0x290>
    650c:	2c620210 	sltiu	v0,v1,528
    6510:	3c180005 	lui	t8,0x5
    6514:	3c0a0005 	lui	t2,0x5
    6518:	8f07995c 	lw	a3,-26276(t8)
    651c:	25436e48 	addiu	v1,t2,28232
    6520:	00074900 	sll	t1,a3,0x4
    6524:	00074180 	sll	t0,a3,0x6
    6528:	01091023 	subu	v0,t0,t1
    652c:	00471023 	subu	v0,v0,a3
    6530:	00021080 	sll	v0,v0,0x2
    6534:	00432021 	addu	a0,v0,v1
    6538:	00002821 	move	a1,zero
    653c:	24060020 	li	a2,32
    6540:	02001821 	move	v1,s0
    6544:	8c620000 	lw	v0,0(v1)
    6548:	24a50001 	addiu	a1,a1,1
    654c:	ac820000 	sw	v0,0(a0)
    6550:	24630004 	addiu	v1,v1,4
    6554:	14a6fffb 	bne	a1,a2,6544 <insert_CM_FIFO+0xf0>
    6558:	24840004 	addiu	a0,a0,4
    655c:	01091023 	subu	v0,t0,t1
    6560:	00471023 	subu	v0,v0,a3
    6564:	8e050080 	lw	a1,128(s0)
    6568:	25446e48 	addiu	a0,t2,28232
    656c:	8e060084 	lw	a2,132(s0)
    6570:	24e30001 	addiu	v1,a3,1
    6574:	00021080 	sll	v0,v0,0x2
    6578:	8e070088 	lw	a3,136(s0)
    657c:	8e08008c 	lw	t0,140(s0)
    6580:	8e090090 	lw	t1,144(s0)
    6584:	8e0a0094 	lw	t2,148(s0)
    6588:	8e0b0098 	lw	t3,152(s0)
    658c:	8e0c009c 	lw	t4,156(s0)
    6590:	8e0d00a0 	lw	t5,160(s0)
    6594:	8e0e00a4 	lw	t6,164(s0)
    6598:	8e0f00a8 	lw	t7,168(s0)
    659c:	8e1000ac 	lw	s0,172(s0)
    65a0:	00441021 	addu	v0,v0,a0
    65a4:	3063000f 	andi	v1,v1,0xf
    65a8:	af03995c 	sw	v1,-26276(t8)
    65ac:	ac450080 	sw	a1,128(v0)
    65b0:	ac460084 	sw	a2,132(v0)
    65b4:	ac470088 	sw	a3,136(v0)
    65b8:	ac48008c 	sw	t0,140(v0)
    65bc:	ac490090 	sw	t1,144(v0)
    65c0:	ac4a0094 	sw	t2,148(v0)
    65c4:	ac4b0098 	sw	t3,152(v0)
    65c8:	ac4c009c 	sw	t4,156(v0)
    65cc:	ac4d00a0 	sw	t5,160(v0)
    65d0:	ac4e00a4 	sw	t6,164(v0)
    65d4:	ac4f00a8 	sw	t7,168(v0)
    65d8:	ac5000ac 	sw	s0,172(v0)
    65dc:	ac4000b8 	sw	zero,184(v0)
    65e0:	8fbf001c 	lw	ra,28(sp)
    65e4:	8fb20018 	lw	s2,24(sp)
    65e8:	8fb10014 	lw	s1,20(sp)
    65ec:	8fb00010 	lw	s0,16(sp)
    65f0:	03e00008 	jr	ra
    65f4:	27bd0020 	addiu	sp,sp,32
    65f8:	10620032 	beq	v1,v0,66c4 <insert_CM_FIFO+0x270>
    65fc:	2c620161 	sltiu	v0,v1,353
    6600:	1040002a 	beqz	v0,66ac <insert_CM_FIFO+0x258>
    6604:	24020180 	li	v0,384
    6608:	24020140 	li	v0,320
    660c:	10620012 	beq	v1,v0,6658 <insert_CM_FIFO+0x204>
    6610:	24020150 	li	v0,336
    6614:	10620010 	beq	v1,v0,6658 <insert_CM_FIFO+0x204>
    6618:	24020090 	li	v0,144
    661c:	1462ffab 	bne	v1,v0,64cc <insert_CM_FIFO+0x78>
    6620:	3c020001 	lui	v0,0x1
    6624:	08001945 	j	6514 <insert_CM_FIFO+0xc0>
    6628:	3c180005 	lui	t8,0x5
    662c:	1062ffb8 	beq	v1,v0,6510 <insert_CM_FIFO+0xbc>
    6630:	2c620281 	sltiu	v0,v1,641
    6634:	10400015 	beqz	v0,668c <insert_CM_FIFO+0x238>
    6638:	24020300 	li	v0,768
    663c:	24020255 	li	v0,597
    6640:	1062ffb3 	beq	v1,v0,6510 <insert_CM_FIFO+0xbc>
    6644:	24020260 	li	v0,608
    6648:	1062ffb1 	beq	v1,v0,6510 <insert_CM_FIFO+0xbc>
    664c:	24020250 	li	v0,592
    6650:	1462ff9e 	bne	v1,v0,64cc <insert_CM_FIFO+0x78>
    6654:	3c020001 	lui	v0,0x1
    6658:	3c180005 	lui	t8,0x5
    665c:	8f03995c 	lw	v1,-26276(t8)
    6660:	3c0a0005 	lui	t2,0x5
    6664:	00032100 	sll	a0,v1,0x4
    6668:	00031180 	sll	v0,v1,0x6
    666c:	00441023 	subu	v0,v0,a0
    6670:	00431023 	subu	v0,v0,v1
    6674:	00021080 	sll	v0,v0,0x2
    6678:	25436e48 	addiu	v1,t2,28232
    667c:	00431021 	addu	v0,v0,v1
    6680:	ac5200b4 	sw	s2,180(v0)
    6684:	08001946 	j	6518 <insert_CM_FIFO+0xc4>
    6688:	ac5100b0 	sw	s1,176(v0)
    668c:	1062ffd4 	beq	v1,v0,65e0 <insert_CM_FIFO+0x18c>
    6690:	24020305 	li	v0,773
    6694:	1062000b 	beq	v1,v0,66c4 <insert_CM_FIFO+0x270>
    6698:	24020295 	li	v0,661
    669c:	1462ff8b 	bne	v1,v0,64cc <insert_CM_FIFO+0x78>
    66a0:	3c020001 	lui	v0,0x1
    66a4:	08001978 	j	65e0 <insert_CM_FIFO+0x18c>
    66a8:	00000000 	nop
    66ac:	1062ff98 	beq	v1,v0,6510 <insert_CM_FIFO+0xbc>
    66b0:	24020190 	li	v0,400
    66b4:	10620003 	beq	v1,v0,66c4 <insert_CM_FIFO+0x270>
    66b8:	24020170 	li	v0,368
    66bc:	1462ff83 	bne	v1,v0,64cc <insert_CM_FIFO+0x78>
    66c0:	3c020001 	lui	v0,0x1
    66c4:	8e040084 	lw	a0,132(s0)
    66c8:	0c0018f5 	jal	63d4 <search_Service>
    66cc:	00000000 	nop
    66d0:	2403ffff 	li	v1,-1
    66d4:	1443ffe1 	bne	v0,v1,665c <insert_CM_FIFO+0x208>
    66d8:	3c180005 	lui	t8,0x5
    66dc:	08001978 	j	65e0 <insert_CM_FIFO+0x18c>
    66e0:	00000000 	nop
    66e4:	1440ff79 	bnez	v0,64cc <insert_CM_FIFO+0x78>
    66e8:	3c020001 	lui	v0,0x1
    66ec:	2462fde0 	addiu	v0,v1,-544
    66f0:	2c420008 	sltiu	v0,v0,8
    66f4:	1040ff75 	beqz	v0,64cc <insert_CM_FIFO+0x78>
    66f8:	3c020001 	lui	v0,0x1
    66fc:	08001997 	j	665c <insert_CM_FIFO+0x208>
    6700:	3c180005 	lui	t8,0x5
    6704:	1062ff82 	beq	v1,v0,6510 <insert_CM_FIFO+0xbc>
    6708:	24020240 	li	v0,576
    670c:	1062ffd2 	beq	v1,v0,6658 <insert_CM_FIFO+0x204>
    6710:	24020231 	li	v0,561
    6714:	1462ff6d 	bne	v1,v0,64cc <insert_CM_FIFO+0x78>
    6718:	3c020001 	lui	v0,0x1
    671c:	08001997 	j	665c <insert_CM_FIFO+0x208>
    6720:	3c180005 	lui	t8,0x5
    6724:	1062ffcc 	beq	v1,v0,6658 <insert_CM_FIFO+0x204>
    6728:	24020050 	li	v0,80
    672c:	1062ff78 	beq	v1,v0,6510 <insert_CM_FIFO+0xbc>
    6730:	24020025 	li	v0,37
    6734:	1462ff65 	bne	v1,v0,64cc <insert_CM_FIFO+0x78>
    6738:	3c020001 	lui	v0,0x1
    673c:	08001997 	j	665c <insert_CM_FIFO+0x208>
    6740:	3c180005 	lui	t8,0x5

00006744 <get_CM_peripheral_ID>:
    6744:	00041100 	sll	v0,a0,0x4
    6748:	00041980 	sll	v1,a0,0x6
    674c:	00621823 	subu	v1,v1,v0
    6750:	00641823 	subu	v1,v1,a0
    6754:	3c020005 	lui	v0,0x5
    6758:	24426e48 	addiu	v0,v0,28232
    675c:	00031880 	sll	v1,v1,0x2
    6760:	00621821 	addu	v1,v1,v0
    6764:	8c62008c 	lw	v0,140(v1)
    6768:	03e00008 	jr	ra
    676c:	00000000 	nop

00006770 <get_CM_IO_service>:
    6770:	00041900 	sll	v1,a0,0x4
    6774:	00041180 	sll	v0,a0,0x6
    6778:	00431023 	subu	v0,v0,v1
    677c:	00441023 	subu	v0,v0,a0
    6780:	3c030005 	lui	v1,0x5
    6784:	24636e48 	addiu	v1,v1,28232
    6788:	00021080 	sll	v0,v0,0x2
    678c:	00431021 	addu	v0,v0,v1
    6790:	8c440084 	lw	a0,132(v0)
    6794:	24030015 	li	v1,21
    6798:	1083000b 	beq	a0,v1,67c8 <get_CM_IO_service+0x58>
    679c:	00000000 	nop
    67a0:	24020025 	li	v0,37
    67a4:	10820006 	beq	a0,v0,67c0 <get_CM_IO_service+0x50>
    67a8:	3c032000 	lui	v1,0x2000
    67ac:	3c020001 	lui	v0,0x1
    67b0:	244296ac 	addiu	v0,v0,-26964
    67b4:	ac620000 	sw	v0,0(v1)
    67b8:	080019ee 	j	67b8 <get_CM_IO_service+0x48>
    67bc:	00000000 	nop
    67c0:	03e00008 	jr	ra
    67c4:	24020001 	li	v0,1
    67c8:	03e00008 	jr	ra
    67cc:	00001021 	move	v0,zero

000067d0 <search_Target>:
    67d0:	3c020005 	lui	v0,0x5
    67d4:	8c42995c 	lw	v0,-26276(v0)
    67d8:	00000000 	nop
    67dc:	14400002 	bnez	v0,67e8 <search_Target+0x18>
    67e0:	2447ffff 	addiu	a3,v0,-1
    67e4:	2407000f 	li	a3,15
    67e8:	00004021 	move	t0,zero
    67ec:	3c090005 	lui	t1,0x5
    67f0:	00071100 	sll	v0,a3,0x4
    67f4:	00071980 	sll	v1,a3,0x6
    67f8:	00621823 	subu	v1,v1,v0
    67fc:	00671823 	subu	v1,v1,a3
    6800:	00031880 	sll	v1,v1,0x2
    6804:	25256e48 	addiu	a1,t1,28232
    6808:	00651021 	addu	v0,v1,a1
    680c:	9446007e 	lhu	a2,126(v0)
    6810:	00000000 	nop
    6814:	10c40015 	beq	a2,a0,686c <search_Target+0x9c>
    6818:	00000000 	nop
    681c:	24620078 	addiu	v0,v1,120
    6820:	00451821 	addu	v1,v0,a1
    6824:	2405001e 	li	a1,30
    6828:	10c00008 	beqz	a2,684c <search_Target+0x7c>
    682c:	24a5ffff 	addiu	a1,a1,-1
    6830:	94660002 	lhu	a2,2(v1)
    6834:	00000000 	nop
    6838:	10c4000c 	beq	a2,a0,686c <search_Target+0x9c>
    683c:	2463fffc 	addiu	v1,v1,-4
    6840:	2402ffff 	li	v0,-1
    6844:	14a2fff8 	bne	a1,v0,6828 <search_Target+0x58>
    6848:	00000000 	nop
    684c:	24e7ffff 	addiu	a3,a3,-1
    6850:	04e00008 	bltz	a3,6874 <search_Target+0xa4>
    6854:	00000000 	nop
    6858:	25080001 	addiu	t0,t0,1
    685c:	24020010 	li	v0,16
    6860:	1502ffe3 	bne	t0,v0,67f0 <search_Target+0x20>
    6864:	00000000 	nop
    6868:	2407ffff 	li	a3,-1
    686c:	03e00008 	jr	ra
    6870:	00e01021 	move	v0,a3
    6874:	08001a16 	j	6858 <search_Target+0x88>
    6878:	2407000f 	li	a3,15

0000687c <initialize_CM_FIFO>:
    687c:	3c020005 	lui	v0,0x5
    6880:	3c030005 	lui	v1,0x5
    6884:	24426ecc 	addiu	v0,v0,28364
    6888:	24637a8c 	addiu	v1,v1,31372
    688c:	ac400000 	sw	zero,0(v0)
    6890:	244200bc 	addiu	v0,v0,188
    6894:	1443fffd 	bne	v0,v1,688c <initialize_CM_FIFO+0x10>
    6898:	00000000 	nop
    689c:	03e00008 	jr	ra
    68a0:	00000000 	nop

000068a4 <print_CM_FIFO>:
    68a4:	27bdffc8 	addiu	sp,sp,-56
    68a8:	3c020001 	lui	v0,0x1
    68ac:	afb7002c 	sw	s7,44(sp)
    68b0:	3c032000 	lui	v1,0x2000
    68b4:	24579324 	addiu	s7,v0,-27868
    68b8:	afb60028 	sw	s6,40(sp)
    68bc:	afb50024 	sw	s5,36(sp)
    68c0:	afb40020 	sw	s4,32(sp)
    68c4:	afb3001c 	sw	s3,28(sp)
    68c8:	afb20018 	sw	s2,24(sp)
    68cc:	afb10014 	sw	s1,20(sp)
    68d0:	afb00010 	sw	s0,16(sp)
    68d4:	3c020001 	lui	v0,0x1
    68d8:	afbf0030 	sw	ra,48(sp)
    68dc:	ac770000 	sw	s7,0(v1)
    68e0:	3c030001 	lui	v1,0x1
    68e4:	24568e94 	addiu	s6,v0,-29036
    68e8:	247596cc 	addiu	s5,v1,-26932
    68ec:	3c020001 	lui	v0,0x1
    68f0:	3c030005 	lui	v1,0x5
    68f4:	245496d8 	addiu	s4,v0,-26920
    68f8:	24726ecc 	addiu	s2,v1,28364
    68fc:	00008821 	move	s1,zero
    6900:	3c102000 	lui	s0,0x2000
    6904:	24130010 	li	s3,16
    6908:	02202021 	move	a0,s1
    690c:	ae160000 	sw	s6,0(s0)
    6910:	0c000985 	jal	2614 <itoh>
    6914:	00000000 	nop
    6918:	ae020000 	sw	v0,0(s0)
    691c:	ae150000 	sw	s5,0(s0)
    6920:	8e440000 	lw	a0,0(s2)
    6924:	0c000985 	jal	2614 <itoh>
    6928:	26310001 	addiu	s1,s1,1
    692c:	ae020000 	sw	v0,0(s0)
    6930:	ae140000 	sw	s4,0(s0)
    6934:	8e44fff8 	lw	a0,-8(s2)
    6938:	0c000985 	jal	2614 <itoh>
    693c:	265200bc 	addiu	s2,s2,188
    6940:	ae020000 	sw	v0,0(s0)
    6944:	ae170000 	sw	s7,0(s0)
    6948:	1633fff0 	bne	s1,s3,690c <print_CM_FIFO+0x68>
    694c:	02202021 	move	a0,s1
    6950:	8fbf0030 	lw	ra,48(sp)
    6954:	8fb7002c 	lw	s7,44(sp)
    6958:	8fb60028 	lw	s6,40(sp)
    695c:	8fb50024 	lw	s5,36(sp)
    6960:	8fb40020 	lw	s4,32(sp)
    6964:	8fb3001c 	lw	s3,28(sp)
    6968:	8fb20018 	lw	s2,24(sp)
    696c:	8fb10014 	lw	s1,20(sp)
    6970:	8fb00010 	lw	s0,16(sp)
    6974:	03e00008 	jr	ra
    6978:	27bd0038 	addiu	sp,sp,56

0000697c <resend_control_message>:
    697c:	27bdffc8 	addiu	sp,sp,-56
    6980:	afa40038 	sw	a0,56(sp)
    6984:	00e02021 	move	a0,a3
    6988:	afbf0034 	sw	ra,52(sp)
    698c:	afbe0030 	sw	s8,48(sp)
    6990:	afb7002c 	sw	s7,44(sp)
    6994:	afb60028 	sw	s6,40(sp)
    6998:	afb50024 	sw	s5,36(sp)
    699c:	afb40020 	sw	s4,32(sp)
    69a0:	afb3001c 	sw	s3,28(sp)
    69a4:	afb20018 	sw	s2,24(sp)
    69a8:	afb10014 	sw	s1,20(sp)
    69ac:	afb00010 	sw	s0,16(sp)
    69b0:	00e0a821 	move	s5,a3
    69b4:	00a0f021 	move	s8,a1
    69b8:	0c0019f4 	jal	67d0 <search_Target>
    69bc:	00c0b021 	move	s6,a2
    69c0:	00402021 	move	a0,v0
    69c4:	00408821 	move	s1,v0
    69c8:	0002a100 	sll	s4,v0,0x4
    69cc:	00029980 	sll	s3,v0,0x6
    69d0:	3c020001 	lui	v0,0x1
    69d4:	3c102000 	lui	s0,0x2000
    69d8:	244296e4 	addiu	v0,v0,-26908
    69dc:	ae020000 	sw	v0,0(s0)
    69e0:	0c000985 	jal	2614 <itoh>
    69e4:	3c170005 	lui	s7,0x5
    69e8:	02741823 	subu	v1,s3,s4
    69ec:	00711823 	subu	v1,v1,s1
    69f0:	00031880 	sll	v1,v1,0x2
    69f4:	ae020000 	sw	v0,0(s0)
    69f8:	26e46e48 	addiu	a0,s7,28232
    69fc:	3c020001 	lui	v0,0x1
    6a00:	00649021 	addu	s2,v1,a0
    6a04:	24429324 	addiu	v0,v0,-27868
    6a08:	2403ffff 	li	v1,-1
    6a0c:	ae020000 	sw	v0,0(s0)
    6a10:	12230034 	beq	s1,v1,6ae4 <resend_control_message+0x168>
    6a14:	24020025 	li	v0,37
    6a18:	8e430084 	lw	v1,132(s2)
    6a1c:	02c03021 	move	a2,s6
    6a20:	02a03821 	move	a3,s5
    6a24:	8fa40038 	lw	a0,56(sp)
    6a28:	10620018 	beq	v1,v0,6a8c <resend_control_message+0x110>
    6a2c:	03c02821 	move	a1,s8
    6a30:	24020015 	li	v0,21
    6a34:	10620016 	beq	v1,v0,6a90 <resend_control_message+0x114>
    6a38:	3c020001 	lui	v0,0x1
    6a3c:	8e4500b0 	lw	a1,176(s2)
    6a40:	8e4600b4 	lw	a2,180(s2)
    6a44:	0c000c4d 	jal	3134 <send_packet>
    6a48:	02402021 	move	a0,s2
    6a4c:	24020001 	li	v0,1
    6a50:	24030001 	li	v1,1
    6a54:	ae4200b8 	sw	v0,184(s2)
    6a58:	8fbf0034 	lw	ra,52(sp)
    6a5c:	8fbe0030 	lw	s8,48(sp)
    6a60:	8fb7002c 	lw	s7,44(sp)
    6a64:	8fb60028 	lw	s6,40(sp)
    6a68:	8fb50024 	lw	s5,36(sp)
    6a6c:	8fb40020 	lw	s4,32(sp)
    6a70:	8fb3001c 	lw	s3,28(sp)
    6a74:	8fb20018 	lw	s2,24(sp)
    6a78:	8fb10014 	lw	s1,20(sp)
    6a7c:	8fb00010 	lw	s0,16(sp)
    6a80:	00601021 	move	v0,v1
    6a84:	03e00008 	jr	ra
    6a88:	27bd0038 	addiu	sp,sp,56
    6a8c:	3c020001 	lui	v0,0x1
    6a90:	3c032000 	lui	v1,0x2000
    6a94:	244296f4 	addiu	v0,v0,-26892
    6a98:	02748023 	subu	s0,s3,s4
    6a9c:	ac620000 	sw	v0,0(v1)
    6aa0:	0c00173e 	jal	5cf8 <adjust_backtrack_IO>
    6aa4:	02118023 	subu	s0,s0,s1
    6aa8:	00108080 	sll	s0,s0,0x2
    6aac:	26e26e48 	addiu	v0,s7,28232
    6ab0:	02028021 	addu	s0,s0,v0
    6ab4:	8e050088 	lw	a1,136(s0)
    6ab8:	8e04008c 	lw	a0,140(s0)
    6abc:	0c00210c 	jal	8430 <open_wrapper_IO_SZ>
    6ac0:	00000000 	nop
    6ac4:	8e0500b0 	lw	a1,176(s0)
    6ac8:	8e0600b4 	lw	a2,180(s0)
    6acc:	0c000c4d 	jal	3134 <send_packet>
    6ad0:	02002021 	move	a0,s0
    6ad4:	24020001 	li	v0,1
    6ad8:	24030001 	li	v1,1
    6adc:	08001a96 	j	6a58 <resend_control_message+0xdc>
    6ae0:	ae0200b8 	sw	v0,184(s0)
    6ae4:	3c020001 	lui	v0,0x1
    6ae8:	24429704 	addiu	v0,v0,-26876
    6aec:	00001821 	move	v1,zero
    6af0:	ae020000 	sw	v0,0(s0)
    6af4:	08001a96 	j	6a58 <resend_control_message+0xdc>
    6af8:	00000000 	nop

00006afc <le64toh>:
    6afc:	00043c02 	srl	a3,a0,0x10
    6b00:	30e700ff 	andi	a3,a3,0xff
    6b04:	00041e02 	srl	v1,a0,0x18
    6b08:	00074602 	srl	t0,a3,0x18
    6b0c:	00047200 	sll	t6,a0,0x8
    6b10:	00073a00 	sll	a3,a3,0x8
    6b14:	00054e02 	srl	t1,a1,0x18
    6b18:	00003021 	move	a2,zero
    6b1c:	306300ff 	andi	v1,v1,0xff
    6b20:	00671825 	or	v1,v1,a3
    6b24:	01c94825 	or	t1,t6,t1
    6b28:	00053a02 	srl	a3,a1,0x8
    6b2c:	00047600 	sll	t6,a0,0x18
    6b30:	00063200 	sll	a2,a2,0x8
    6b34:	01063025 	or	a2,t0,a2
    6b38:	00045a02 	srl	t3,a0,0x8
    6b3c:	312900ff 	andi	t1,t1,0xff
    6b40:	01c73825 	or	a3,t6,a3
    6b44:	00001021 	move	v0,zero
    6b48:	01204021 	move	t0,t1
    6b4c:	316b00ff 	andi	t3,t3,0xff
    6b50:	00461025 	or	v0,v0,a2
    6b54:	00004821 	move	t1,zero
    6b58:	30e700ff 	andi	a3,a3,0xff
    6b5c:	00005021 	move	t2,zero
    6b60:	00073400 	sll	a2,a3,0x10
    6b64:	00481025 	or	v0,v0,t0
    6b68:	00691825 	or	v1,v1,t1
    6b6c:	000b4402 	srl	t0,t3,0x10
    6b70:	00003821 	move	a3,zero
    6b74:	000a5400 	sll	t2,t2,0x10
    6b78:	308d00ff 	andi	t5,a0,0xff
    6b7c:	00671825 	or	v1,v1,a3
    6b80:	010a5025 	or	t2,t0,t2
    6b84:	00053c02 	srl	a3,a1,0x10
    6b88:	00044400 	sll	t0,a0,0x10
    6b8c:	00006021 	move	t4,zero
    6b90:	00461025 	or	v0,v0,a2
    6b94:	01073825 	or	a3,t0,a3
    6b98:	000d3202 	srl	a2,t5,0x8
    6b9c:	000c6600 	sll	t4,t4,0x18
    6ba0:	00cc6025 	or	t4,a2,t4
    6ba4:	000d6e00 	sll	t5,t5,0x18
    6ba8:	30e700ff 	andi	a3,a3,0xff
    6bac:	000b5c00 	sll	t3,t3,0x10
    6bb0:	00073200 	sll	a2,a3,0x8
    6bb4:	014c5025 	or	t2,t2,t4
    6bb8:	016d5825 	or	t3,t3,t5
    6bbc:	30a500ff 	andi	a1,a1,0xff
    6bc0:	00003821 	move	a3,zero
    6bc4:	00052600 	sll	a0,a1,0x18
    6bc8:	01465025 	or	t2,t2,a2
    6bcc:	00002821 	move	a1,zero
    6bd0:	01675825 	or	t3,t3,a3
    6bd4:	01445025 	or	t2,t2,a0
    6bd8:	01655825 	or	t3,t3,a1
    6bdc:	004a1025 	or	v0,v0,t2
    6be0:	03e00008 	jr	ra
    6be4:	006b1825 	or	v1,v1,t3

00006be8 <siphash24>:
    6be8:	27bdfe40 	addiu	sp,sp,-448
    6bec:	afbf01bc 	sw	ra,444(sp)
    6bf0:	afbe01b8 	sw	s8,440(sp)
    6bf4:	afb701b4 	sw	s7,436(sp)
    6bf8:	afb601b0 	sw	s6,432(sp)
    6bfc:	afb501ac 	sw	s5,428(sp)
    6c00:	afb401a8 	sw	s4,424(sp)
    6c04:	afb301a4 	sw	s3,420(sp)
    6c08:	afb201a0 	sw	s2,416(sp)
    6c0c:	afb1019c 	sw	s1,412(sp)
    6c10:	afb00198 	sw	s0,408(sp)
    6c14:	00801021 	move	v0,a0
    6c18:	afa501c4 	sw	a1,452(sp)
    6c1c:	8cc40000 	lw	a0,0(a2)
    6c20:	8cc50004 	lw	a1,4(a2)
    6c24:	00c09021 	move	s2,a2
    6c28:	0c001abf 	jal	6afc <le64toh>
    6c2c:	0040f021 	move	s8,v0
    6c30:	8e45000c 	lw	a1,12(s2)
    6c34:	8e440008 	lw	a0,8(s2)
    6c38:	00408021 	move	s0,v0
    6c3c:	00608821 	move	s1,v1
    6c40:	00001021 	move	v0,zero
    6c44:	00001821 	move	v1,zero
    6c48:	afa30024 	sw	v1,36(sp)
    6c4c:	0c001abf 	jal	6afc <le64toh>
    6c50:	afa20020 	sw	v0,32(sp)
    6c54:	8fa401c4 	lw	a0,452(sp)
    6c58:	3c057073 	lui	a1,0x7073
    6c5c:	2c860008 	sltiu	a2,a0,8
    6c60:	3c04736f 	lui	a0,0x736f
    6c64:	34846d65 	ori	a0,a0,0x6d65
    6c68:	0204b026 	xor	s6,s0,a0
    6c6c:	34a56575 	ori	a1,a1,0x6575
    6c70:	3c04646f 	lui	a0,0x646f
    6c74:	34847261 	ori	a0,a0,0x7261
    6c78:	0225b826 	xor	s7,s1,a1
    6c7c:	3c056e64 	lui	a1,0x6e64
    6c80:	34a56f6d 	ori	a1,a1,0x6f6d
    6c84:	00449026 	xor	s2,v0,a0
    6c88:	3c046c79 	lui	a0,0x6c79
    6c8c:	00659826 	xor	s3,v1,a1
    6c90:	34846765 	ori	a0,a0,0x6765
    6c94:	3c056e65 	lui	a1,0x6e65
    6c98:	02042026 	xor	a0,s0,a0
    6c9c:	34a57261 	ori	a1,a1,0x7261
    6ca0:	afa40018 	sw	a0,24(sp)
    6ca4:	02258026 	xor	s0,s1,a1
    6ca8:	3c047465 	lui	a0,0x7465
    6cac:	3c057974 	lui	a1,0x7974
    6cb0:	00006821 	move	t5,zero
    6cb4:	00006021 	move	t4,zero
    6cb8:	34846462 	ori	a0,a0,0x6462
    6cbc:	34a56573 	ori	a1,a1,0x6573
    6cc0:	afb0001c 	sw	s0,28(sp)
    6cc4:	afad002c 	sw	t5,44(sp)
    6cc8:	afac0028 	sw	t4,40(sp)
    6ccc:	afad0034 	sw	t5,52(sp)
    6cd0:	afac0030 	sw	t4,48(sp)
    6cd4:	afad003c 	sw	t5,60(sp)
    6cd8:	afac0038 	sw	t4,56(sp)
    6cdc:	afad0044 	sw	t5,68(sp)
    6ce0:	afac0040 	sw	t4,64(sp)
    6ce4:	afad004c 	sw	t5,76(sp)
    6ce8:	afac0048 	sw	t4,72(sp)
    6cec:	afad0054 	sw	t5,84(sp)
    6cf0:	afac0050 	sw	t4,80(sp)
    6cf4:	afad005c 	sw	t5,92(sp)
    6cf8:	afac0058 	sw	t4,88(sp)
    6cfc:	afad0064 	sw	t5,100(sp)
    6d00:	afac0060 	sw	t4,96(sp)
    6d04:	afad006c 	sw	t5,108(sp)
    6d08:	afac0068 	sw	t4,104(sp)
    6d0c:	afad0074 	sw	t5,116(sp)
    6d10:	afac0070 	sw	t4,112(sp)
    6d14:	afad007c 	sw	t5,124(sp)
    6d18:	afac0078 	sw	t4,120(sp)
    6d1c:	afad0084 	sw	t5,132(sp)
    6d20:	afac0080 	sw	t4,128(sp)
    6d24:	afad008c 	sw	t5,140(sp)
    6d28:	afac0088 	sw	t4,136(sp)
    6d2c:	afad0094 	sw	t5,148(sp)
    6d30:	afac0090 	sw	t4,144(sp)
    6d34:	afad009c 	sw	t5,156(sp)
    6d38:	afac0098 	sw	t4,152(sp)
    6d3c:	0044a026 	xor	s4,v0,a0
    6d40:	afad00a4 	sw	t5,164(sp)
    6d44:	0065a826 	xor	s5,v1,a1
    6d48:	afac00a0 	sw	t4,160(sp)
    6d4c:	afad00ac 	sw	t5,172(sp)
    6d50:	afac00a8 	sw	t4,168(sp)
    6d54:	afad00b4 	sw	t5,180(sp)
    6d58:	afac00b0 	sw	t4,176(sp)
    6d5c:	afad00bc 	sw	t5,188(sp)
    6d60:	afac00b8 	sw	t4,184(sp)
    6d64:	afad00c4 	sw	t5,196(sp)
    6d68:	afac00c0 	sw	t4,192(sp)
    6d6c:	afad00cc 	sw	t5,204(sp)
    6d70:	afac00c8 	sw	t4,200(sp)
    6d74:	afad00d4 	sw	t5,212(sp)
    6d78:	afac00d0 	sw	t4,208(sp)
    6d7c:	afad00dc 	sw	t5,220(sp)
    6d80:	afac00d8 	sw	t4,216(sp)
    6d84:	afad00e4 	sw	t5,228(sp)
    6d88:	afac00e0 	sw	t4,224(sp)
    6d8c:	afad00ec 	sw	t5,236(sp)
    6d90:	afac00e8 	sw	t4,232(sp)
    6d94:	afad00f4 	sw	t5,244(sp)
    6d98:	afac00f0 	sw	t4,240(sp)
    6d9c:	afad00fc 	sw	t5,252(sp)
    6da0:	afac00f8 	sw	t4,248(sp)
    6da4:	afad0104 	sw	t5,260(sp)
    6da8:	afac0100 	sw	t4,256(sp)
    6dac:	afad010c 	sw	t5,268(sp)
    6db0:	afac0108 	sw	t4,264(sp)
    6db4:	afad0114 	sw	t5,276(sp)
    6db8:	afac0110 	sw	t4,272(sp)
    6dbc:	afad011c 	sw	t5,284(sp)
    6dc0:	afac0118 	sw	t4,280(sp)
    6dc4:	afad0124 	sw	t5,292(sp)
    6dc8:	afac0120 	sw	t4,288(sp)
    6dcc:	afad012c 	sw	t5,300(sp)
    6dd0:	afac0128 	sw	t4,296(sp)
    6dd4:	afad0134 	sw	t5,308(sp)
    6dd8:	afac0130 	sw	t4,304(sp)
    6ddc:	afad013c 	sw	t5,316(sp)
    6de0:	afac0138 	sw	t4,312(sp)
    6de4:	afad0144 	sw	t5,324(sp)
    6de8:	afac0140 	sw	t4,320(sp)
    6dec:	afad014c 	sw	t5,332(sp)
    6df0:	afac0148 	sw	t4,328(sp)
    6df4:	afad0154 	sw	t5,340(sp)
    6df8:	afac0150 	sw	t4,336(sp)
    6dfc:	afad015c 	sw	t5,348(sp)
    6e00:	afac0158 	sw	t4,344(sp)
    6e04:	afad0164 	sw	t5,356(sp)
    6e08:	afac0160 	sw	t4,352(sp)
    6e0c:	afad016c 	sw	t5,364(sp)
    6e10:	afac0168 	sw	t4,360(sp)
    6e14:	afad0174 	sw	t5,372(sp)
    6e18:	afac0170 	sw	t4,368(sp)
    6e1c:	afad017c 	sw	t5,380(sp)
    6e20:	afac0178 	sw	t4,376(sp)
    6e24:	afad0184 	sw	t5,388(sp)
    6e28:	afac0180 	sw	t4,384(sp)
    6e2c:	afad018c 	sw	t5,396(sp)
    6e30:	afac0188 	sw	t4,392(sp)
    6e34:	afad0194 	sw	t5,404(sp)
    6e38:	14c00289 	bnez	a2,7860 <siphash24+0xc78>
    6e3c:	afac0190 	sw	t4,400(sp)
    6e40:	8fb101c4 	lw	s1,452(sp)
    6e44:	8fc50004 	lw	a1,4(s8)
    6e48:	8fc40000 	lw	a0,0(s8)
    6e4c:	0c001abf 	jal	6afc <le64toh>
    6e50:	2631fff8 	addiu	s1,s1,-8
    6e54:	00123340 	sll	a2,s2,0xd
    6e58:	8fad001c 	lw	t5,28(sp)
    6e5c:	00133cc2 	srl	a3,s3,0x13
    6e60:	00752826 	xor	a1,v1,s5
    6e64:	00e63825 	or	a3,a3,a2
    6e68:	8fa60018 	lw	a2,24(sp)
    6e6c:	00ad4821 	addu	t1,a1,t5
    6e70:	02f35821 	addu	t3,s7,s3
    6e74:	00542026 	xor	a0,v0,s4
    6e78:	00137340 	sll	t6,s3,0xd
    6e7c:	00126cc2 	srl	t5,s2,0x13
    6e80:	02d25021 	addu	t2,s6,s2
    6e84:	0177602b 	sltu	t4,t3,s7
    6e88:	afa70090 	sw	a3,144(sp)
    6e8c:	00864021 	addu	t0,a0,a2
    6e90:	01ae6825 	or	t5,t5,t6
    6e94:	00043400 	sll	a2,a0,0x10
    6e98:	00053c02 	srl	a3,a1,0x10
    6e9c:	018a6021 	addu	t4,t4,t2
    6ea0:	afad0094 	sw	t5,148(sp)
    6ea4:	00e63825 	or	a3,a3,a2
    6ea8:	00056c00 	sll	t5,a1,0x10
    6eac:	00042402 	srl	a0,a0,0x10
    6eb0:	afa70098 	sw	a3,152(sp)
    6eb4:	afac005c 	sw	t4,92(sp)
    6eb8:	01803821 	move	a3,t4
    6ebc:	008d2025 	or	a0,a0,t5
    6ec0:	8fac0090 	lw	t4,144(sp)
    6ec4:	afa4009c 	sw	a0,156(sp)
    6ec8:	00ec3026 	xor	a2,a3,t4
    6ecc:	0125782b 	sltu	t7,t1,a1
    6ed0:	8faa0098 	lw	t2,152(sp)
    6ed4:	8fa50094 	lw	a1,148(sp)
    6ed8:	8fac009c 	lw	t4,156(sp)
    6edc:	01e84021 	addu	t0,t7,t0
    6ee0:	01653826 	xor	a3,t3,a1
    6ee4:	010a2026 	xor	a0,t0,t2
    6ee8:	012c2826 	xor	a1,t1,t4
    6eec:	01066021 	addu	t4,t0,a2
    6ef0:	8fa8005c 	lw	t0,92(sp)
    6ef4:	01276821 	addu	t5,t1,a3
    6ef8:	afab0058 	sw	t3,88(sp)
    6efc:	01a9702b 	sltu	t6,t5,t1
    6f00:	00a85821 	addu	t3,a1,t0
    6f04:	00074bc2 	srl	t1,a3,0xf
    6f08:	00064440 	sll	t0,a2,0x11
    6f0c:	01284825 	or	t1,t1,t0
    6f10:	00077c40 	sll	t7,a3,0x11
    6f14:	8fa70058 	lw	a3,88(sp)
    6f18:	afa900a0 	sw	t1,160(sp)
    6f1c:	00044540 	sll	t0,a0,0x15
    6f20:	00054ac2 	srl	t1,a1,0xb
    6f24:	01284825 	or	t1,t1,t0
    6f28:	00875021 	addu	t2,a0,a3
    6f2c:	00054540 	sll	t0,a1,0x15
    6f30:	000633c2 	srl	a2,a2,0xf
    6f34:	000422c2 	srl	a0,a0,0xb
    6f38:	0165802b 	sltu	s0,t3,a1
    6f3c:	00cf3025 	or	a2,a2,t7
    6f40:	8fa500a0 	lw	a1,160(sp)
    6f44:	00882025 	or	a0,a0,t0
    6f48:	01cc7021 	addu	t6,t6,t4
    6f4c:	afa600a4 	sw	a2,164(sp)
    6f50:	afa400ac 	sw	a0,172(sp)
    6f54:	01c53026 	xor	a2,t6,a1
    6f58:	8fac00ac 	lw	t4,172(sp)
    6f5c:	8fa500a4 	lw	a1,164(sp)
    6f60:	020a5021 	addu	t2,s0,t2
    6f64:	afae0024 	sw	t6,36(sp)
    6f68:	01a53826 	xor	a3,t5,a1
    6f6c:	01492026 	xor	a0,t2,t1
    6f70:	016c2826 	xor	a1,t3,t4
    6f74:	01466021 	addu	t4,t2,a2
    6f78:	8faa0024 	lw	t2,36(sp)
    6f7c:	afad0020 	sw	t5,32(sp)
    6f80:	01676821 	addu	t5,t3,a3
    6f84:	01ab702b 	sltu	t6,t5,t3
    6f88:	afa900a8 	sw	t1,168(sp)
    6f8c:	00075cc2 	srl	t3,a3,0x13
    6f90:	00aa4821 	addu	t1,a1,t2
    6f94:	00065340 	sll	t2,a2,0xd
    6f98:	016a5825 	or	t3,t3,t2
    6f9c:	afab00b0 	sw	t3,176(sp)
    6fa0:	00075340 	sll	t2,a3,0xd
    6fa4:	000634c2 	srl	a2,a2,0x13
    6fa8:	00ca3025 	or	a2,a2,t2
    6fac:	8faa00b0 	lw	t2,176(sp)
    6fb0:	01cc7021 	addu	t6,t6,t4
    6fb4:	afa600b4 	sw	a2,180(sp)
    6fb8:	8fa70020 	lw	a3,32(sp)
    6fbc:	01ca3026 	xor	a2,t6,t2
    6fc0:	8faa00b4 	lw	t2,180(sp)
    6fc4:	0125582b 	sltu	t3,t1,a1
    6fc8:	00874021 	addu	t0,a0,a3
    6fcc:	00057c00 	sll	t7,a1,0x10
    6fd0:	01aa3826 	xor	a3,t5,t2
    6fd4:	00045400 	sll	t2,a0,0x10
    6fd8:	00042402 	srl	a0,a0,0x10
    6fdc:	01684021 	addu	t0,t3,t0
    6fe0:	008f2025 	or	a0,a0,t7
    6fe4:	00055c02 	srl	t3,a1,0x10
    6fe8:	016a5825 	or	t3,t3,t2
    6fec:	afa400bc 	sw	a0,188(sp)
    6ff0:	afab00b8 	sw	t3,184(sp)
    6ff4:	afad0050 	sw	t5,80(sp)
    6ff8:	8fad00bc 	lw	t5,188(sp)
    6ffc:	8fac00b8 	lw	t4,184(sp)
    7000:	012d2826 	xor	a1,t1,t5
    7004:	000783c2 	srl	s0,a3,0xf
    7008:	00066c40 	sll	t5,a2,0x11
    700c:	01275821 	addu	t3,t1,a3
    7010:	010c2026 	xor	a0,t0,t4
    7014:	020d8025 	or	s0,s0,t5
    7018:	00046540 	sll	t4,a0,0x15
    701c:	afae0054 	sw	t6,84(sp)
    7020:	0169782b 	sltu	t7,t3,t1
    7024:	afb000c0 	sw	s0,192(sp)
    7028:	00ae4821 	addu	t1,a1,t6
    702c:	00076c40 	sll	t5,a3,0x11
    7030:	000572c2 	srl	t6,a1,0xb
    7034:	8fa70050 	lw	a3,80(sp)
    7038:	01cc7025 	or	t6,t6,t4
    703c:	01065021 	addu	t2,t0,a2
    7040:	afae00c8 	sw	t6,200(sp)
    7044:	00874021 	addu	t0,a0,a3
    7048:	00057540 	sll	t6,a1,0x15
    704c:	000422c2 	srl	a0,a0,0xb
    7050:	000633c2 	srl	a2,a2,0xf
    7054:	008e2025 	or	a0,a0,t6
    7058:	00cd3025 	or	a2,a2,t5
    705c:	afa400cc 	sw	a0,204(sp)
    7060:	0125602b 	sltu	t4,t1,a1
    7064:	afa600c4 	sw	a2,196(sp)
    7068:	01669826 	xor	s3,t3,a2
    706c:	8fa700cc 	lw	a3,204(sp)
    7070:	8fa600c8 	lw	a2,200(sp)
    7074:	01ea7821 	addu	t7,t7,t2
    7078:	01884021 	addu	t0,t4,t0
    707c:	2e250008 	sltiu	a1,s1,8
    7080:	afaf001c 	sw	t7,28(sp)
    7084:	27de0008 	addiu	s8,s8,8
    7088:	afab0018 	sw	t3,24(sp)
    708c:	01f09026 	xor	s2,t7,s0
    7090:	0106a026 	xor	s4,t0,a2
    7094:	0127a826 	xor	s5,t1,a3
    7098:	0048b026 	xor	s6,v0,t0
    709c:	10a0ff69 	beqz	a1,6e44 <siphash24+0x25c>
    70a0:	0069b826 	xor	s7,v1,t1
    70a4:	00006821 	move	t5,zero
    70a8:	00006021 	move	t4,zero
    70ac:	afad0014 	sw	t5,20(sp)
    70b0:	afac0010 	sw	t4,16(sp)
    70b4:	10a00012 	beqz	a1,7100 <siphash24+0x518>
    70b8:	27a60010 	addiu	a2,sp,16
    70bc:	3c030001 	lui	v1,0x1
    70c0:	00111080 	sll	v0,s1,0x2
    70c4:	2463972c 	addiu	v1,v1,-26836
    70c8:	00431021 	addu	v0,v0,v1
    70cc:	8c440000 	lw	a0,0(v0)
    70d0:	00000000 	nop
    70d4:	00800008 	jr	a0
    70d8:	00000000 	nop
    70dc:	93c20002 	lbu	v0,2(s8)
    70e0:	00000000 	nop
    70e4:	a0c20002 	sb	v0,2(a2)
    70e8:	93c20001 	lbu	v0,1(s8)
    70ec:	00000000 	nop
    70f0:	a0c20001 	sb	v0,1(a2)
    70f4:	93c20000 	lbu	v0,0(s8)
    70f8:	00000000 	nop
    70fc:	a0c20000 	sb	v0,0(a2)
    7100:	8fb101c4 	lw	s1,452(sp)
    7104:	8fa50014 	lw	a1,20(sp)
    7108:	8fa40010 	lw	a0,16(sp)
    710c:	0c001abf 	jal	6afc <le64toh>
    7110:	00118600 	sll	s0,s1,0x18
    7114:	02028025 	or	s0,s0,v0
    7118:	8fa40018 	lw	a0,24(sp)
    711c:	02141026 	xor	v0,s0,s4
    7120:	00008821 	move	s1,zero
    7124:	8fad001c 	lw	t5,28(sp)
    7128:	00445021 	addu	t2,v0,a0
    712c:	02238825 	or	s1,s1,v1
    7130:	00122340 	sll	a0,s2,0xd
    7134:	00132cc2 	srl	a1,s3,0x13
    7138:	02351826 	xor	v1,s1,s5
    713c:	00a42825 	or	a1,a1,a0
    7140:	02f33821 	addu	a3,s7,s3
    7144:	006d5821 	addu	t3,v1,t5
    7148:	afa500d0 	sw	a1,208(sp)
    714c:	00136b40 	sll	t5,s3,0xd
    7150:	00022400 	sll	a0,v0,0x10
    7154:	00122cc2 	srl	a1,s2,0x13
    7158:	00034402 	srl	t0,v1,0x10
    715c:	02d23021 	addu	a2,s6,s2
    7160:	00f7602b 	sltu	t4,a3,s7
    7164:	00ad2825 	or	a1,a1,t5
    7168:	01044025 	or	t0,t0,a0
    716c:	01866021 	addu	t4,t4,a2
    7170:	afa500d4 	sw	a1,212(sp)
    7174:	afa800d8 	sw	t0,216(sp)
    7178:	00021402 	srl	v0,v0,0x10
    717c:	00034400 	sll	t0,v1,0x10
    7180:	afac008c 	sw	t4,140(sp)
    7184:	8fad00d4 	lw	t5,212(sp)
    7188:	01802821 	move	a1,t4
    718c:	00481025 	or	v0,v0,t0
    7190:	8fac00d0 	lw	t4,208(sp)
    7194:	afa200dc 	sw	v0,220(sp)
    7198:	00ac2026 	xor	a0,a1,t4
    719c:	afa70088 	sw	a3,136(sp)
    71a0:	00ed2826 	xor	a1,a3,t5
    71a4:	8fa600d8 	lw	a2,216(sp)
    71a8:	8fa700dc 	lw	a3,220(sp)
    71ac:	0163482b 	sltu	t1,t3,v1
    71b0:	012a4821 	addu	t1,t1,t2
    71b4:	8fac0088 	lw	t4,136(sp)
    71b8:	8faa008c 	lw	t2,140(sp)
    71bc:	01671826 	xor	v1,t3,a3
    71c0:	01261026 	xor	v0,t1,a2
    71c4:	01653821 	addu	a3,t3,a1
    71c8:	01243021 	addu	a2,t1,a0
    71cc:	004c4021 	addu	t0,v0,t4
    71d0:	006a4821 	addu	t1,v1,t2
    71d4:	000362c2 	srl	t4,v1,0xb
    71d8:	00025540 	sll	t2,v0,0x15
    71dc:	00eb682b 	sltu	t5,a3,t3
    71e0:	018a6025 	or	t4,t4,t2
    71e4:	00045c40 	sll	t3,a0,0x11
    71e8:	00055440 	sll	t2,a1,0x11
    71ec:	000423c2 	srl	a0,a0,0xf
    71f0:	008a2025 	or	a0,a0,t2
    71f4:	000573c2 	srl	t6,a1,0xf
    71f8:	01cb7025 	or	t6,t6,t3
    71fc:	afa400e4 	sw	a0,228(sp)
    7200:	00035d40 	sll	t3,v1,0x15
    7204:	000212c2 	srl	v0,v0,0xb
    7208:	0123782b 	sltu	t7,t1,v1
    720c:	004b1025 	or	v0,v0,t3
    7210:	8fa300e4 	lw	v1,228(sp)
    7214:	afac00e8 	sw	t4,232(sp)
    7218:	afa200ec 	sw	v0,236(sp)
    721c:	00e32826 	xor	a1,a3,v1
    7220:	01a66821 	addu	t5,t5,a2
    7224:	afa70048 	sw	a3,72(sp)
    7228:	8fa600e8 	lw	a2,232(sp)
    722c:	8fa700ec 	lw	a3,236(sp)
    7230:	01e87821 	addu	t7,t7,t0
    7234:	01a06021 	move	t4,t5
    7238:	8fa80048 	lw	t0,72(sp)
    723c:	01271826 	xor	v1,t1,a3
    7240:	018e2026 	xor	a0,t4,t6
    7244:	01e61026 	xor	v0,t7,a2
    7248:	01253821 	addu	a3,t1,a1
    724c:	00485021 	addu	t2,v0,t0
    7250:	afad004c 	sw	t5,76(sp)
    7254:	00044340 	sll	t0,a0,0xd
    7258:	00e9682b 	sltu	t5,a3,t1
    725c:	00054cc2 	srl	t1,a1,0x13
    7260:	006c5821 	addu	t3,v1,t4
    7264:	01e43021 	addu	a2,t7,a0
    7268:	afae00e0 	sw	t6,224(sp)
    726c:	01284825 	or	t1,t1,t0
    7270:	00057340 	sll	t6,a1,0xd
    7274:	000424c2 	srl	a0,a0,0x13
    7278:	afa900f0 	sw	t1,240(sp)
    727c:	0163602b 	sltu	t4,t3,v1
    7280:	00024400 	sll	t0,v0,0x10
    7284:	008e2025 	or	a0,a0,t6
    7288:	00034c02 	srl	t1,v1,0x10
    728c:	01a66821 	addu	t5,t5,a2
    7290:	afa400f4 	sw	a0,244(sp)
    7294:	01284825 	or	t1,t1,t0
    7298:	018a6021 	addu	t4,t4,t2
    729c:	00034400 	sll	t0,v1,0x10
    72a0:	00021402 	srl	v0,v0,0x10
    72a4:	01805021 	move	t2,t4
    72a8:	afad0084 	sw	t5,132(sp)
    72ac:	8fa300f4 	lw	v1,244(sp)
    72b0:	01a06021 	move	t4,t5
    72b4:	00481025 	or	v0,v0,t0
    72b8:	8fad00f0 	lw	t5,240(sp)
    72bc:	afa200fc 	sw	v0,252(sp)
    72c0:	00e32826 	xor	a1,a3,v1
    72c4:	018d2026 	xor	a0,t4,t5
    72c8:	afa70080 	sw	a3,128(sp)
    72cc:	8fa700fc 	lw	a3,252(sp)
    72d0:	01491026 	xor	v0,t2,t1
    72d4:	01446021 	addu	t4,t2,a0
    72d8:	8fa60080 	lw	a2,128(sp)
    72dc:	8faa0084 	lw	t2,132(sp)
    72e0:	01671826 	xor	v1,t3,a3
    72e4:	01656821 	addu	t5,t3,a1
    72e8:	00464021 	addu	t0,v0,a2
    72ec:	afa900f8 	sw	t1,248(sp)
    72f0:	01ab702b 	sltu	t6,t5,t3
    72f4:	006a4821 	addu	t1,v1,t2
    72f8:	00043c40 	sll	a3,a0,0x11
    72fc:	00023540 	sll	a2,v0,0x15
    7300:	00055bc2 	srl	t3,a1,0xf
    7304:	000352c2 	srl	t2,v1,0xb
    7308:	01675825 	or	t3,t3,a3
    730c:	01465025 	or	t2,t2,a2
    7310:	00033d40 	sll	a3,v1,0x15
    7314:	00053440 	sll	a2,a1,0x11
    7318:	000423c2 	srl	a0,a0,0xf
    731c:	000212c2 	srl	v0,v0,0xb
    7320:	00862025 	or	a0,a0,a2
    7324:	00471025 	or	v0,v0,a3
    7328:	afab0100 	sw	t3,256(sp)
    732c:	afa40104 	sw	a0,260(sp)
    7330:	afaa0108 	sw	t2,264(sp)
    7334:	afa2010c 	sw	v0,268(sp)
    7338:	8faa0108 	lw	t2,264(sp)
    733c:	8fa2010c 	lw	v0,268(sp)
    7340:	0123782b 	sltu	t7,t1,v1
    7344:	8fa30104 	lw	v1,260(sp)
    7348:	01cc7021 	addu	t6,t6,t4
    734c:	01e87821 	addu	t7,t7,t0
    7350:	01a32826 	xor	a1,t5,v1
    7354:	01223826 	xor	a3,t1,v0
    7358:	01cb2026 	xor	a0,t6,t3
    735c:	01ea3026 	xor	a2,t7,t2
    7360:	01a01021 	move	v0,t5
    7364:	00c25021 	addu	t2,a2,v0
    7368:	39c300ff 	xori	v1,t6,0xff
    736c:	00041340 	sll	v0,a0,0xd
    7370:	000564c2 	srl	t4,a1,0x13
    7374:	00e35821 	addu	t3,a3,v1
    7378:	020f8026 	xor	s0,s0,t7
    737c:	01826025 	or	t4,t4,v0
    7380:	00071c02 	srl	v1,a3,0x10
    7384:	00061400 	sll	v0,a2,0x10
    7388:	00904021 	addu	t0,a0,s0
    738c:	afac0110 	sw	t4,272(sp)
    7390:	00621825 	or	v1,v1,v0
    7394:	00056340 	sll	t4,a1,0xd
    7398:	00071400 	sll	v0,a3,0x10
    739c:	000424c2 	srl	a0,a0,0x13
    73a0:	00063402 	srl	a2,a2,0x10
    73a4:	afad0040 	sw	t5,64(sp)
    73a8:	008c2025 	or	a0,a0,t4
    73ac:	0167682b 	sltu	t5,t3,a3
    73b0:	00c23025 	or	a2,a2,v0
    73b4:	02298826 	xor	s1,s1,t1
    73b8:	00b14821 	addu	t1,a1,s1
    73bc:	afa40114 	sw	a0,276(sp)
    73c0:	afa30118 	sw	v1,280(sp)
    73c4:	afa6011c 	sw	a2,284(sp)
    73c8:	01aa6821 	addu	t5,t5,t2
    73cc:	01a05021 	move	t2,t5
    73d0:	8fa30114 	lw	v1,276(sp)
    73d4:	8fad0110 	lw	t5,272(sp)
    73d8:	8fa60118 	lw	a2,280(sp)
    73dc:	8fa7011c 	lw	a3,284(sp)
    73e0:	afae0044 	sw	t6,68(sp)
    73e4:	0125702b 	sltu	t6,t1,a1
    73e8:	01c87021 	addu	t6,t6,t0
    73ec:	01232826 	xor	a1,t1,v1
    73f0:	01cd2026 	xor	a0,t6,t5
    73f4:	01671826 	xor	v1,t3,a3
    73f8:	01461026 	xor	v0,t2,a2
    73fc:	01653821 	addu	a3,t3,a1
    7400:	01443021 	addu	a2,t2,a0
    7404:	000362c2 	srl	t4,v1,0xb
    7408:	00025540 	sll	t2,v0,0x15
    740c:	00eb682b 	sltu	t5,a3,t3
    7410:	018a6025 	or	t4,t4,t2
    7414:	00045c40 	sll	t3,a0,0x11
    7418:	00055440 	sll	t2,a1,0x11
    741c:	000423c2 	srl	a0,a0,0xf
    7420:	afae007c 	sw	t6,124(sp)
    7424:	afa90078 	sw	t1,120(sp)
    7428:	008a2025 	or	a0,a0,t2
    742c:	01204021 	move	t0,t1
    7430:	006e4821 	addu	t1,v1,t6
    7434:	000573c2 	srl	t6,a1,0xf
    7438:	01cb7025 	or	t6,t6,t3
    743c:	afa40124 	sw	a0,292(sp)
    7440:	00484021 	addu	t0,v0,t0
    7444:	00035d40 	sll	t3,v1,0x15
    7448:	000212c2 	srl	v0,v0,0xb
    744c:	0123782b 	sltu	t7,t1,v1
    7450:	004b1025 	or	v0,v0,t3
    7454:	8fa30124 	lw	v1,292(sp)
    7458:	afac0128 	sw	t4,296(sp)
    745c:	afa2012c 	sw	v0,300(sp)
    7460:	00e32826 	xor	a1,a3,v1
    7464:	01a66821 	addu	t5,t5,a2
    7468:	afa70038 	sw	a3,56(sp)
    746c:	8fa60128 	lw	a2,296(sp)
    7470:	8fa7012c 	lw	a3,300(sp)
    7474:	01e87821 	addu	t7,t7,t0
    7478:	01a06021 	move	t4,t5
    747c:	8fa80038 	lw	t0,56(sp)
    7480:	01271826 	xor	v1,t1,a3
    7484:	018e2026 	xor	a0,t4,t6
    7488:	01e61026 	xor	v0,t7,a2
    748c:	01253821 	addu	a3,t1,a1
    7490:	01e43021 	addu	a2,t7,a0
    7494:	00485021 	addu	t2,v0,t0
    7498:	afae0120 	sw	t6,288(sp)
    749c:	afad003c 	sw	t5,60(sp)
    74a0:	00044340 	sll	t0,a0,0xd
    74a4:	00e9682b 	sltu	t5,a3,t1
    74a8:	00057340 	sll	t6,a1,0xd
    74ac:	00054cc2 	srl	t1,a1,0x13
    74b0:	000424c2 	srl	a0,a0,0x13
    74b4:	01284825 	or	t1,t1,t0
    74b8:	008e2025 	or	a0,a0,t6
    74bc:	006c5821 	addu	t3,v1,t4
    74c0:	afa90130 	sw	t1,304(sp)
    74c4:	afa40134 	sw	a0,308(sp)
    74c8:	00024400 	sll	t0,v0,0x10
    74cc:	00034c02 	srl	t1,v1,0x10
    74d0:	01284825 	or	t1,t1,t0
    74d4:	0163602b 	sltu	t4,t3,v1
    74d8:	00034400 	sll	t0,v1,0x10
    74dc:	00021402 	srl	v0,v0,0x10
    74e0:	8fa30134 	lw	v1,308(sp)
    74e4:	01a66821 	addu	t5,t5,a2
    74e8:	00481025 	or	v0,v0,t0
    74ec:	018a6021 	addu	t4,t4,t2
    74f0:	00e32826 	xor	a1,a3,v1
    74f4:	01805021 	move	t2,t4
    74f8:	afa90138 	sw	t1,312(sp)
    74fc:	01a06021 	move	t4,t5
    7500:	afad0074 	sw	t5,116(sp)
    7504:	8fad0130 	lw	t5,304(sp)
    7508:	afa2013c 	sw	v0,316(sp)
    750c:	afa70070 	sw	a3,112(sp)
    7510:	8fa7013c 	lw	a3,316(sp)
    7514:	018d2026 	xor	a0,t4,t5
    7518:	01671826 	xor	v1,t3,a3
    751c:	01491026 	xor	v0,t2,t1
    7520:	006c4821 	addu	t1,v1,t4
    7524:	8fac0070 	lw	t4,112(sp)
    7528:	01653821 	addu	a3,t3,a1
    752c:	01443021 	addu	a2,t2,a0
    7530:	004c4021 	addu	t0,v0,t4
    7534:	00025540 	sll	t2,v0,0x15
    7538:	000362c2 	srl	t4,v1,0xb
    753c:	00eb682b 	sltu	t5,a3,t3
    7540:	018a6025 	or	t4,t4,t2
    7544:	00045c40 	sll	t3,a0,0x11
    7548:	00055440 	sll	t2,a1,0x11
    754c:	000423c2 	srl	a0,a0,0xf
    7550:	008a2025 	or	a0,a0,t2
    7554:	000573c2 	srl	t6,a1,0xf
    7558:	01cb7025 	or	t6,t6,t3
    755c:	afa40144 	sw	a0,324(sp)
    7560:	00035d40 	sll	t3,v1,0x15
    7564:	000212c2 	srl	v0,v0,0xb
    7568:	0123782b 	sltu	t7,t1,v1
    756c:	004b1025 	or	v0,v0,t3
    7570:	8fa30144 	lw	v1,324(sp)
    7574:	afac0148 	sw	t4,328(sp)
    7578:	afa2014c 	sw	v0,332(sp)
    757c:	00e32826 	xor	a1,a3,v1
    7580:	01a66821 	addu	t5,t5,a2
    7584:	afa70030 	sw	a3,48(sp)
    7588:	8fa60148 	lw	a2,328(sp)
    758c:	8fa7014c 	lw	a3,332(sp)
    7590:	01e87821 	addu	t7,t7,t0
    7594:	01a06021 	move	t4,t5
    7598:	8fa80030 	lw	t0,48(sp)
    759c:	01271826 	xor	v1,t1,a3
    75a0:	018e2026 	xor	a0,t4,t6
    75a4:	01e61026 	xor	v0,t7,a2
    75a8:	01253821 	addu	a3,t1,a1
    75ac:	00485021 	addu	t2,v0,t0
    75b0:	afad0034 	sw	t5,52(sp)
    75b4:	00044340 	sll	t0,a0,0xd
    75b8:	00e9682b 	sltu	t5,a3,t1
    75bc:	00054cc2 	srl	t1,a1,0x13
    75c0:	01e43021 	addu	a2,t7,a0
    75c4:	afae0140 	sw	t6,320(sp)
    75c8:	01284825 	or	t1,t1,t0
    75cc:	00057340 	sll	t6,a1,0xd
    75d0:	000424c2 	srl	a0,a0,0x13
    75d4:	afa90150 	sw	t1,336(sp)
    75d8:	00024400 	sll	t0,v0,0x10
    75dc:	008e2025 	or	a0,a0,t6
    75e0:	00034c02 	srl	t1,v1,0x10
    75e4:	006c5821 	addu	t3,v1,t4
    75e8:	afa40154 	sw	a0,340(sp)
    75ec:	01284825 	or	t1,t1,t0
    75f0:	00021402 	srl	v0,v0,0x10
    75f4:	00034400 	sll	t0,v1,0x10
    75f8:	0163602b 	sltu	t4,t3,v1
    75fc:	00481025 	or	v0,v0,t0
    7600:	8fa30154 	lw	v1,340(sp)
    7604:	afa2015c 	sw	v0,348(sp)
    7608:	00e32826 	xor	a1,a3,v1
    760c:	01a66821 	addu	t5,t5,a2
    7610:	afa70068 	sw	a3,104(sp)
    7614:	018a6021 	addu	t4,t4,t2
    7618:	8fa7015c 	lw	a3,348(sp)
    761c:	01805021 	move	t2,t4
    7620:	afad006c 	sw	t5,108(sp)
    7624:	01a06021 	move	t4,t5
    7628:	8fad0150 	lw	t5,336(sp)
    762c:	01671826 	xor	v1,t3,a3
    7630:	018d2026 	xor	a0,t4,t5
    7634:	01491026 	xor	v0,t2,t1
    7638:	afa90158 	sw	t1,344(sp)
    763c:	006c4821 	addu	t1,v1,t4
    7640:	8fac0068 	lw	t4,104(sp)
    7644:	01653821 	addu	a3,t3,a1
    7648:	01443021 	addu	a2,t2,a0
    764c:	004c4021 	addu	t0,v0,t4
    7650:	00025540 	sll	t2,v0,0x15
    7654:	000362c2 	srl	t4,v1,0xb
    7658:	00eb682b 	sltu	t5,a3,t3
    765c:	018a6025 	or	t4,t4,t2
    7660:	00045c40 	sll	t3,a0,0x11
    7664:	00055440 	sll	t2,a1,0x11
    7668:	000423c2 	srl	a0,a0,0xf
    766c:	008a2025 	or	a0,a0,t2
    7670:	000573c2 	srl	t6,a1,0xf
    7674:	01cb7025 	or	t6,t6,t3
    7678:	afa40164 	sw	a0,356(sp)
    767c:	00035d40 	sll	t3,v1,0x15
    7680:	000212c2 	srl	v0,v0,0xb
    7684:	0123782b 	sltu	t7,t1,v1
    7688:	004b1025 	or	v0,v0,t3
    768c:	8fa30164 	lw	v1,356(sp)
    7690:	afac0168 	sw	t4,360(sp)
    7694:	afa2016c 	sw	v0,364(sp)
    7698:	00e32826 	xor	a1,a3,v1
    769c:	01a66821 	addu	t5,t5,a2
    76a0:	afa70028 	sw	a3,40(sp)
    76a4:	8fa60168 	lw	a2,360(sp)
    76a8:	8fa7016c 	lw	a3,364(sp)
    76ac:	01e87821 	addu	t7,t7,t0
    76b0:	01a06021 	move	t4,t5
    76b4:	8fa80028 	lw	t0,40(sp)
    76b8:	01271826 	xor	v1,t1,a3
    76bc:	018e2026 	xor	a0,t4,t6
    76c0:	01e61026 	xor	v0,t7,a2
    76c4:	01253821 	addu	a3,t1,a1
    76c8:	00485021 	addu	t2,v0,t0
    76cc:	afad002c 	sw	t5,44(sp)
    76d0:	00044340 	sll	t0,a0,0xd
    76d4:	00e9682b 	sltu	t5,a3,t1
    76d8:	00054cc2 	srl	t1,a1,0x13
    76dc:	01e43021 	addu	a2,t7,a0
    76e0:	afae0160 	sw	t6,352(sp)
    76e4:	01284825 	or	t1,t1,t0
    76e8:	00057340 	sll	t6,a1,0xd
    76ec:	000424c2 	srl	a0,a0,0x13
    76f0:	afa90170 	sw	t1,368(sp)
    76f4:	00024400 	sll	t0,v0,0x10
    76f8:	008e2025 	or	a0,a0,t6
    76fc:	00034c02 	srl	t1,v1,0x10
    7700:	006c5821 	addu	t3,v1,t4
    7704:	01284825 	or	t1,t1,t0
    7708:	afa40174 	sw	a0,372(sp)
    770c:	00034400 	sll	t0,v1,0x10
    7710:	00021402 	srl	v0,v0,0x10
    7714:	0163602b 	sltu	t4,t3,v1
    7718:	00481025 	or	v0,v0,t0
    771c:	8fa30174 	lw	v1,372(sp)
    7720:	afa2017c 	sw	v0,380(sp)
    7724:	00e32826 	xor	a1,a3,v1
    7728:	01a66821 	addu	t5,t5,a2
    772c:	afa70060 	sw	a3,96(sp)
    7730:	018a6021 	addu	t4,t4,t2
    7734:	8fa7017c 	lw	a3,380(sp)
    7738:	01805021 	move	t2,t4
    773c:	afad0064 	sw	t5,100(sp)
    7740:	01a06021 	move	t4,t5
    7744:	8fad0170 	lw	t5,368(sp)
    7748:	01671826 	xor	v1,t3,a3
    774c:	018d2026 	xor	a0,t4,t5
    7750:	01491026 	xor	v0,t2,t1
    7754:	afa90178 	sw	t1,376(sp)
    7758:	006c4821 	addu	t1,v1,t4
    775c:	8fac0060 	lw	t4,96(sp)
    7760:	01653821 	addu	a3,t3,a1
    7764:	01443021 	addu	a2,t2,a0
    7768:	004c4021 	addu	t0,v0,t4
    776c:	00025540 	sll	t2,v0,0x15
    7770:	000362c2 	srl	t4,v1,0xb
    7774:	00eb682b 	sltu	t5,a3,t3
    7778:	018a6025 	or	t4,t4,t2
    777c:	00045c40 	sll	t3,a0,0x11
    7780:	00055440 	sll	t2,a1,0x11
    7784:	000423c2 	srl	a0,a0,0xf
    7788:	000573c2 	srl	t6,a1,0xf
    778c:	008a2025 	or	a0,a0,t2
    7790:	01cb7025 	or	t6,t6,t3
    7794:	afa40184 	sw	a0,388(sp)
    7798:	00035d40 	sll	t3,v1,0x15
    779c:	000212c2 	srl	v0,v0,0xb
    77a0:	8fa50184 	lw	a1,388(sp)
    77a4:	004b1025 	or	v0,v0,t3
    77a8:	01a66821 	addu	t5,t5,a2
    77ac:	afac0188 	sw	t4,392(sp)
    77b0:	afa2018c 	sw	v0,396(sp)
    77b4:	01a06021 	move	t4,t5
    77b8:	0123782b 	sltu	t7,t1,v1
    77bc:	afad0194 	sw	t5,404(sp)
    77c0:	00e51826 	xor	v1,a3,a1
    77c4:	00e06821 	move	t5,a3
    77c8:	afa70190 	sw	a3,400(sp)
    77cc:	8fa60188 	lw	a2,392(sp)
    77d0:	8fa7018c 	lw	a3,396(sp)
    77d4:	01e87821 	addu	t7,t7,t0
    77d8:	018e1026 	xor	v0,t4,t6
    77dc:	01e62026 	xor	a0,t7,a2
    77e0:	01272826 	xor	a1,t1,a3
    77e4:	01e21026 	xor	v0,t7,v0
    77e8:	01231826 	xor	v1,t1,v1
    77ec:	008d2026 	xor	a0,a0,t5
    77f0:	00ac2826 	xor	a1,a1,t4
    77f4:	8fbf01bc 	lw	ra,444(sp)
    77f8:	8fbe01b8 	lw	s8,440(sp)
    77fc:	8fb701b4 	lw	s7,436(sp)
    7800:	8fb601b0 	lw	s6,432(sp)
    7804:	8fb501ac 	lw	s5,428(sp)
    7808:	8fb401a8 	lw	s4,424(sp)
    780c:	8fb301a4 	lw	s3,420(sp)
    7810:	8fb201a0 	lw	s2,416(sp)
    7814:	8fb1019c 	lw	s1,412(sp)
    7818:	8fb00198 	lw	s0,408(sp)
    781c:	afae0180 	sw	t6,384(sp)
    7820:	00441026 	xor	v0,v0,a0
    7824:	00651826 	xor	v1,v1,a1
    7828:	03e00008 	jr	ra
    782c:	27bd01c0 	addiu	sp,sp,448
    7830:	93c20006 	lbu	v0,6(s8)
    7834:	00000000 	nop
    7838:	a0c20006 	sb	v0,6(a2)
    783c:	93c20005 	lbu	v0,5(s8)
    7840:	00000000 	nop
    7844:	a0c20005 	sb	v0,5(a2)
    7848:	93c20004 	lbu	v0,4(s8)
    784c:	00000000 	nop
    7850:	a0c20004 	sb	v0,4(a2)
    7854:	8fc20000 	lw	v0,0(s8)
    7858:	08001c40 	j	7100 <siphash24+0x518>
    785c:	acc20000 	sw	v0,0(a2)
    7860:	8fb101c4 	lw	s1,452(sp)
    7864:	08001c29 	j	70a4 <siphash24+0x4bc>
    7868:	24050001 	li	a1,1

0000786c <GLFSR_init>:
    786c:	00806821 	move	t5,a0
    7870:	34e40001 	ori	a0,a3,0x1
    7874:	ada4000c 	sw	a0,12(t5)
    7878:	8fa30014 	lw	v1,20(sp)
    787c:	8fa20010 	lw	v0,16(sp)
    7880:	00004821 	move	t1,zero
    7884:	3c088000 	lui	t0,0x8000
    7888:	240b003e 	li	t3,62
    788c:	240cffff 	li	t4,-1
    7890:	ada30004 	sw	v1,4(t5)
    7894:	ada20000 	sw	v0,0(t5)
    7898:	08001e2e 	j	78b8 <GLFSR_init+0x4c>
    789c:	ada60008 	sw	a2,8(t5)
    78a0:	116c000e 	beq	t3,t4,78dc <GLFSR_init+0x70>
    78a4:	00092842 	srl	a1,t1,0x1
    78a8:	01452825 	or	a1,t2,a1
    78ac:	00082042 	srl	a0,t0,0x1
    78b0:	00a04821 	move	t1,a1
    78b4:	00804021 	move	t0,a0
    78b8:	00c81024 	and	v0,a2,t0
    78bc:	00e91824 	and	v1,a3,t1
    78c0:	00431025 	or	v0,v0,v1
    78c4:	000857c0 	sll	t2,t0,0x1f
    78c8:	1040fff5 	beqz	v0,78a0 <GLFSR_init+0x34>
    78cc:	256bffff 	addiu	t3,t3,-1
    78d0:	ada90014 	sw	t1,20(t5)
    78d4:	03e00008 	jr	ra
    78d8:	ada80010 	sw	t0,16(t5)
    78dc:	03e00008 	jr	ra
    78e0:	00000000 	nop

000078e4 <GLFSR_next>:
    78e4:	8c830004 	lw	v1,4(a0)
    78e8:	8c820000 	lw	v0,0(a0)
    78ec:	00803821 	move	a3,a0
    78f0:	8c860010 	lw	a2,16(a0)
    78f4:	00024040 	sll	t0,v0,0x1
    78f8:	000327c2 	srl	a0,v1,0x1f
    78fc:	8ce50014 	lw	a1,20(a3)
    7900:	00884025 	or	t0,a0,t0
    7904:	00034840 	sll	t1,v1,0x1
    7908:	00a91824 	and	v1,a1,t1
    790c:	00c81024 	and	v0,a2,t0
    7910:	00431025 	or	v0,v0,v1
    7914:	ace90004 	sw	t1,4(a3)
    7918:	00001821 	move	v1,zero
    791c:	10400008 	beqz	v0,7940 <GLFSR_next+0x5c>
    7920:	ace80000 	sw	t0,0(a3)
    7924:	8ce30008 	lw	v1,8(a3)
    7928:	8ce2000c 	lw	v0,12(a3)
    792c:	00681826 	xor	v1,v1,t0
    7930:	00491026 	xor	v0,v0,t1
    7934:	ace30000 	sw	v1,0(a3)
    7938:	ace20004 	sw	v0,4(a3)
    793c:	24030001 	li	v1,1
    7940:	03e00008 	jr	ra
    7944:	00601021 	move	v0,v1

00007948 <init_Secure_Zone>:
    7948:	3c020005 	lui	v0,0x5
    794c:	3c030005 	lui	v1,0x5
    7950:	2442296c 	addiu	v0,v0,10604
    7954:	24632b0c 	addiu	v1,v1,11020
    7958:	ac400000 	sw	zero,0(v0)
    795c:	24420020 	addiu	v0,v0,32
    7960:	1443fffd 	bne	v0,v1,7958 <init_Secure_Zone+0x10>
    7964:	00000000 	nop
    7968:	03e00008 	jr	ra
    796c:	00000000 	nop

00007970 <get_static_SZ>:
    7970:	3c020005 	lui	v0,0x5
    7974:	3c030005 	lui	v1,0x5
    7978:	24489820 	addiu	t0,v0,-26592
    797c:	246d9880 	addiu	t5,v1,-26496
    7980:	240c00ff 	li	t4,255
    7984:	240e00ff 	li	t6,255
    7988:	00003021 	move	a2,zero
    798c:	08001e68 	j	79a0 <get_static_SZ+0x30>
    7990:	00003821 	move	a3,zero
    7994:	25080008 	addiu	t0,t0,8
    7998:	110d001c 	beq	t0,t5,7a0c <get_static_SZ+0x9c>
    799c:	240200ff 	li	v0,255
    79a0:	8d020000 	lw	v0,0(t0)
    79a4:	00000000 	nop
    79a8:	00021202 	srl	v0,v0,0x8
    79ac:	1482fff9 	bne	a0,v0,7994 <get_static_SZ+0x24>
    79b0:	00000000 	nop
    79b4:	8d020004 	lw	v0,4(t0)
    79b8:	00000000 	nop
    79bc:	304500ff 	andi	a1,v0,0xff
    79c0:	00021202 	srl	v0,v0,0x8
    79c4:	004c182b 	sltu	v1,v0,t4
    79c8:	00ae482b 	sltu	t1,a1,t6
    79cc:	00c2502b 	sltu	t2,a2,v0
    79d0:	10600002 	beqz	v1,79dc <get_static_SZ+0x6c>
    79d4:	00e5582b 	sltu	t3,a3,a1
    79d8:	00406021 	move	t4,v0
    79dc:	11200002 	beqz	t1,79e8 <get_static_SZ+0x78>
    79e0:	00000000 	nop
    79e4:	00a07021 	move	t6,a1
    79e8:	11400002 	beqz	t2,79f4 <get_static_SZ+0x84>
    79ec:	00000000 	nop
    79f0:	00403021 	move	a2,v0
    79f4:	1160ffe7 	beqz	t3,7994 <get_static_SZ+0x24>
    79f8:	00000000 	nop
    79fc:	25080008 	addiu	t0,t0,8
    7a00:	150dffe7 	bne	t0,t5,79a0 <get_static_SZ+0x30>
    7a04:	00a03821 	move	a3,a1
    7a08:	240200ff 	li	v0,255
    7a0c:	1182001b 	beq	t4,v0,7a7c <get_static_SZ+0x10c>
    7a10:	00cc3023 	subu	a2,a2,t4
    7a14:	00ee3823 	subu	a3,a3,t6
    7a18:	24c60001 	addiu	a2,a2,1
    7a1c:	24e70001 	addiu	a3,a3,1
    7a20:	00c70018 	mult	a2,a3
    7a24:	000c1a00 	sll	v1,t4,0x8
    7a28:	00062e00 	sll	a1,a2,0x18
    7a2c:	00071400 	sll	v0,a3,0x10
    7a30:	01c21025 	or	v0,t6,v0
    7a34:	00a32825 	or	a1,a1,v1
    7a38:	3c030005 	lui	v1,0x5
    7a3c:	2464a478 	addiu	a0,v1,-23432
    7a40:	00a22825 	or	a1,a1,v0
    7a44:	2402ffff 	li	v0,-1
    7a48:	ac820018 	sw	v0,24(a0)
    7a4c:	3c020005 	lui	v0,0x5
    7a50:	00004012 	mflo	t0
    7a54:	ac4098b4 	sw	zero,-26444(v0)
    7a58:	ac68a478 	sw	t0,-23432(v1)
    7a5c:	00a01021 	move	v0,a1
    7a60:	24030001 	li	v1,1
    7a64:	ac830014 	sw	v1,20(a0)
    7a68:	ac800010 	sw	zero,16(a0)
    7a6c:	ac860004 	sw	a2,4(a0)
    7a70:	ac870008 	sw	a3,8(a0)
    7a74:	03e00008 	jr	ra
    7a78:	ac85001c 	sw	a1,28(a0)
    7a7c:	03e00008 	jr	ra
    7a80:	00001021 	move	v0,zero

00007a84 <create_valid_shapes>:
    7a84:	27bdfff8 	addiu	sp,sp,-8
    7a88:	afb00000 	sw	s0,0(sp)
    7a8c:	afb10004 	sw	s1,4(sp)
    7a90:	00807021 	move	t6,a0
    7a94:	1880002a 	blez	a0,7b40 <create_valid_shapes+0xbc>
    7a98:	00a08021 	move	s0,a1
    7a9c:	24050001 	li	a1,1
    7aa0:	3c110005 	lui	s1,0x5
    7aa4:	00b01021 	addu	v0,a1,s0
    7aa8:	2623a478 	addiu	v1,s1,-23432
    7aac:	00021140 	sll	v0,v0,0x5
    7ab0:	00431021 	addu	v0,v0,v1
    7ab4:	2446ffe4 	addiu	a2,v0,-28
    7ab8:	acc50000 	sw	a1,0(a2)
    7abc:	24a50001 	addiu	a1,a1,1
    7ac0:	24020001 	li	v0,1
    7ac4:	01c5182a 	slt	v1,t6,a1
    7ac8:	acc40004 	sw	a0,4(a2)
    7acc:	1460001c 	bnez	v1,7b40 <create_valid_shapes+0xbc>
    7ad0:	acc20008 	sw	v0,8(a2)
    7ad4:	14a00002 	bnez	a1,7ae0 <create_valid_shapes+0x5c>
    7ad8:	01c5001a 	div	zero,t6,a1
    7adc:	0007000d 	break	0x7
    7ae0:	00001812 	mflo	v1
	...
    7aec:	00650018 	mult	v1,a1
    7af0:	00001012 	mflo	v0
    7af4:	004e102a 	slt	v0,v0,t6
    7af8:	1040ffea 	beqz	v0,7aa4 <create_valid_shapes+0x20>
    7afc:	00602021 	move	a0,v1
    7b00:	24620001 	addiu	v0,v1,1
    7b04:	00a20018 	mult	a1,v0
    7b08:	00001812 	mflo	v1
    7b0c:	00651821 	addu	v1,v1,a1
    7b10:	00651023 	subu	v0,v1,a1
    7b14:	004e102a 	slt	v0,v0,t6
    7b18:	1440fffc 	bnez	v0,7b0c <create_valid_shapes+0x88>
    7b1c:	24840001 	addiu	a0,a0,1
    7b20:	24c60020 	addiu	a2,a2,32
    7b24:	acc50000 	sw	a1,0(a2)
    7b28:	24a50001 	addiu	a1,a1,1
    7b2c:	24020001 	li	v0,1
    7b30:	01c5182a 	slt	v1,t6,a1
    7b34:	acc40004 	sw	a0,4(a2)
    7b38:	1060ffe6 	beqz	v1,7ad4 <create_valid_shapes+0x50>
    7b3c:	acc20008 	sw	v0,8(a2)
    7b40:	25d8ffff 	addiu	t8,t6,-1
    7b44:	1b00003f 	blez	t8,7c44 <create_valid_shapes+0x1c0>
    7b48:	3c110005 	lui	s1,0x5
    7b4c:	00101940 	sll	v1,s0,0x5
    7b50:	2622a478 	addiu	v0,s1,-23432
    7b54:	0062c821 	addu	t9,v1,v0
    7b58:	03006821 	move	t5,t8
    7b5c:	00007821 	move	t7,zero
    7b60:	27250004 	addiu	a1,t9,4
    7b64:	00006021 	move	t4,zero
    7b68:	8ca90000 	lw	t1,0(a1)
    7b6c:	8caa0004 	lw	t2,4(a1)
    7b70:	00000000 	nop
    7b74:	0149102a 	slt	v0,t2,t1
    7b78:	14400002 	bnez	v0,7b84 <create_valid_shapes+0x100>
    7b7c:	012a5823 	subu	t3,t1,t2
    7b80:	01495823 	subu	t3,t2,t1
    7b84:	8ca60020 	lw	a2,32(a1)
    7b88:	8ca70024 	lw	a3,36(a1)
    7b8c:	00000000 	nop
    7b90:	00e6102a 	slt	v0,a3,a2
    7b94:	14400002 	bnez	v0,7ba0 <create_valid_shapes+0x11c>
    7b98:	00c74023 	subu	t0,a2,a3
    7b9c:	00e64023 	subu	t0,a3,a2
    7ba0:	258c0001 	addiu	t4,t4,1
    7ba4:	010b102a 	slt	v0,t0,t3
    7ba8:	10400005 	beqz	v0,7bc0 <create_valid_shapes+0x13c>
    7bac:	018d402a 	slt	t0,t4,t5
    7bb0:	aca60000 	sw	a2,0(a1)
    7bb4:	aca90020 	sw	t1,32(a1)
    7bb8:	aca70004 	sw	a3,4(a1)
    7bbc:	acaa0024 	sw	t2,36(a1)
    7bc0:	1500ffe9 	bnez	t0,7b68 <create_valid_shapes+0xe4>
    7bc4:	24a50020 	addiu	a1,a1,32
    7bc8:	01cf1023 	subu	v0,t6,t7
    7bcc:	2445fffe 	addiu	a1,v0,-2
    7bd0:	25ef0001 	addiu	t7,t7,1
    7bd4:	00a06821 	move	t5,a1
    7bd8:	01f8102a 	slt	v0,t7,t8
    7bdc:	24a5ffff 	addiu	a1,a1,-1
    7be0:	10400009 	beqz	v0,7c08 <create_valid_shapes+0x184>
    7be4:	24a60001 	addiu	a2,a1,1
    7be8:	1cc0ffdd 	bgtz	a2,7b60 <create_valid_shapes+0xdc>
    7bec:	00000000 	nop
    7bf0:	25ef0001 	addiu	t7,t7,1
    7bf4:	00a06821 	move	t5,a1
    7bf8:	01f8102a 	slt	v0,t7,t8
    7bfc:	24a5ffff 	addiu	a1,a1,-1
    7c00:	1440fff9 	bnez	v0,7be8 <create_valid_shapes+0x164>
    7c04:	24a60001 	addiu	a2,a1,1
    7c08:	24630008 	addiu	v1,v1,8
    7c0c:	2622a478 	addiu	v0,s1,-23432
    7c10:	00622021 	addu	a0,v1,v0
    7c14:	08001f09 	j	7c24 <create_valid_shapes+0x1a0>
    7c18:	24050001 	li	a1,1
    7c1c:	10ae0009 	beq	a1,t6,7c44 <create_valid_shapes+0x1c0>
    7c20:	24840020 	addiu	a0,a0,32
    7c24:	8c830000 	lw	v1,0(a0)
    7c28:	8c820020 	lw	v0,32(a0)
    7c2c:	00000000 	nop
    7c30:	1462fffa 	bne	v1,v0,7c1c <create_valid_shapes+0x198>
    7c34:	24a50001 	addiu	a1,a1,1
    7c38:	ac800024 	sw	zero,36(a0)
    7c3c:	14aefff9 	bne	a1,t6,7c24 <create_valid_shapes+0x1a0>
    7c40:	24840020 	addiu	a0,a0,32
    7c44:	19c0003a 	blez	t6,7d30 <create_valid_shapes+0x2ac>
    7c48:	3c110005 	lui	s1,0x5
    7c4c:	00101940 	sll	v1,s0,0x5
    7c50:	2622a478 	addiu	v0,s1,-23432
    7c54:	00621021 	addu	v0,v1,v0
    7c58:	24450004 	addiu	a1,v0,4
    7c5c:	00003021 	move	a2,zero
    7c60:	8ca20000 	lw	v0,0(a1)
    7c64:	00000000 	nop
    7c68:	28420006 	slti	v0,v0,6
    7c6c:	1040002b 	beqz	v0,7d1c <create_valid_shapes+0x298>
    7c70:	24c60001 	addiu	a2,a2,1
    7c74:	8ca20004 	lw	v0,4(a1)
    7c78:	00000000 	nop
    7c7c:	28420005 	slti	v0,v0,5
    7c80:	10400026 	beqz	v0,7d1c <create_valid_shapes+0x298>
    7c84:	00000000 	nop
    7c88:	15c6fff5 	bne	t6,a2,7c60 <create_valid_shapes+0x1dc>
    7c8c:	24a50020 	addiu	a1,a1,32
    7c90:	2622a478 	addiu	v0,s1,-23432
    7c94:	00622021 	addu	a0,v1,v0
    7c98:	00101940 	sll	v1,s0,0x5
    7c9c:	00623821 	addu	a3,v1,v0
    7ca0:	2486000c 	addiu	a2,a0,12
    7ca4:	00004021 	move	t0,zero
    7ca8:	00004821 	move	t1,zero
    7cac:	8cc20000 	lw	v0,0(a2)
    7cb0:	00000000 	nop
    7cb4:	10400012 	beqz	v0,7d00 <create_valid_shapes+0x27c>
    7cb8:	25080001 	addiu	t0,t0,1
    7cbc:	8cc3fff8 	lw	v1,-8(a2)
    7cc0:	8cc5fffc 	lw	a1,-4(a2)
    7cc4:	ace30004 	sw	v1,4(a3)
    7cc8:	00650018 	mult	v1,a1
    7ccc:	ace50008 	sw	a1,8(a3)
    7cd0:	ace2000c 	sw	v0,12(a3)
    7cd4:	8cc4fffc 	lw	a0,-4(a2)
    7cd8:	8cc2fff8 	lw	v0,-8(a2)
    7cdc:	25290001 	addiu	t1,t1,1
    7ce0:	00001812 	mflo	v1
    7ce4:	ace30000 	sw	v1,0(a3)
    7ce8:	00000000 	nop
    7cec:	00440018 	mult	v0,a0
    7cf0:	00001012 	mflo	v0
    7cf4:	004e1023 	subu	v0,v0,t6
    7cf8:	ace20010 	sw	v0,16(a3)
    7cfc:	24e70020 	addiu	a3,a3,32
    7d00:	15c8ffea 	bne	t6,t0,7cac <create_valid_shapes+0x228>
    7d04:	24c60020 	addiu	a2,a2,32
    7d08:	01301021 	addu	v0,t1,s0
    7d0c:	8fb10004 	lw	s1,4(sp)
    7d10:	8fb00000 	lw	s0,0(sp)
    7d14:	03e00008 	jr	ra
    7d18:	27bd0008 	addiu	sp,sp,8
    7d1c:	aca00008 	sw	zero,8(a1)
    7d20:	15c6ffcf 	bne	t6,a2,7c60 <create_valid_shapes+0x1dc>
    7d24:	24a50020 	addiu	a1,a1,32
    7d28:	08001f25 	j	7c94 <create_valid_shapes+0x210>
    7d2c:	2622a478 	addiu	v0,s1,-23432
    7d30:	00004821 	move	t1,zero
    7d34:	01301021 	addu	v0,t1,s0
    7d38:	8fb10004 	lw	s1,4(sp)
    7d3c:	8fb00000 	lw	s0,0(sp)
    7d40:	03e00008 	jr	ra
    7d44:	27bd0008 	addiu	sp,sp,8

00007d48 <create_shapes>:
    7d48:	27bdffe0 	addiu	sp,sp,-32
    7d4c:	afb20018 	sw	s2,24(sp)
    7d50:	afb10014 	sw	s1,20(sp)
    7d54:	afbf001c 	sw	ra,28(sp)
    7d58:	afb00010 	sw	s0,16(sp)
    7d5c:	00809021 	move	s2,a0
    7d60:	1880001f 	blez	a0,7de0 <create_shapes+0x98>
    7d64:	00a08821 	move	s1,a1
    7d68:	00a02021 	move	a0,a1
    7d6c:	24100001 	li	s0,1
    7d70:	00002821 	move	a1,zero
    7d74:	0c001ea1 	jal	7a84 <create_valid_shapes>
    7d78:	26100001 	addiu	s0,s0,1
    7d7c:	00402821 	move	a1,v0
    7d80:	0250102a 	slt	v0,s2,s0
    7d84:	1440000f 	bnez	v0,7dc4 <create_shapes+0x7c>
    7d88:	00000000 	nop
    7d8c:	16000002 	bnez	s0,7d98 <create_shapes+0x50>
    7d90:	0230001a 	div	zero,s1,s0
    7d94:	0007000d 	break	0x7
    7d98:	00002012 	mflo	a0
    7d9c:	0091102a 	slt	v0,a0,s1
    7da0:	1040fff4 	beqz	v0,7d74 <create_shapes+0x2c>
    7da4:	00000000 	nop
    7da8:	0c001ea1 	jal	7a84 <create_valid_shapes>
    7dac:	24840001 	addiu	a0,a0,1
    7db0:	26100001 	addiu	s0,s0,1
    7db4:	00402821 	move	a1,v0
    7db8:	0250102a 	slt	v0,s2,s0
    7dbc:	1040fff3 	beqz	v0,7d8c <create_shapes+0x44>
    7dc0:	00000000 	nop
    7dc4:	8fbf001c 	lw	ra,28(sp)
    7dc8:	8fb20018 	lw	s2,24(sp)
    7dcc:	8fb10014 	lw	s1,20(sp)
    7dd0:	8fb00010 	lw	s0,16(sp)
    7dd4:	00a01021 	move	v0,a1
    7dd8:	03e00008 	jr	ra
    7ddc:	27bd0020 	addiu	sp,sp,32
    7de0:	00002821 	move	a1,zero
    7de4:	8fbf001c 	lw	ra,28(sp)
    7de8:	8fb20018 	lw	s2,24(sp)
    7dec:	8fb10014 	lw	s1,20(sp)
    7df0:	8fb00010 	lw	s0,16(sp)
    7df4:	00a01021 	move	v0,a1
    7df8:	03e00008 	jr	ra
    7dfc:	27bd0020 	addiu	sp,sp,32

00007e00 <shapes_invert_order>:
    7e00:	000517c2 	srl	v0,a1,0x1f
    7e04:	00451021 	addu	v0,v0,a1
    7e08:	00026843 	sra	t5,v0,0x1
    7e0c:	19a00018 	blez	t5,7e70 <shapes_invert_order+0x70>
    7e10:	00051140 	sll	v0,a1,0x5
    7e14:	00825821 	addu	t3,a0,v0
    7e18:	00805021 	move	t2,a0
    7e1c:	00006021 	move	t4,zero
    7e20:	8d490000 	lw	t1,0(t2)
    7e24:	8d65ffe0 	lw	a1,-32(t3)
    7e28:	8d480004 	lw	t0,4(t2)
    7e2c:	8d64ffe4 	lw	a0,-28(t3)
    7e30:	8d470008 	lw	a3,8(t2)
    7e34:	8d63ffe8 	lw	v1,-24(t3)
    7e38:	8d460010 	lw	a2,16(t2)
    7e3c:	8d62fff0 	lw	v0,-16(t3)
    7e40:	258c0001 	addiu	t4,t4,1
    7e44:	ad450000 	sw	a1,0(t2)
    7e48:	ad440004 	sw	a0,4(t2)
    7e4c:	ad430008 	sw	v1,8(t2)
    7e50:	ad420010 	sw	v0,16(t2)
    7e54:	ad69ffe0 	sw	t1,-32(t3)
    7e58:	ad68ffe4 	sw	t0,-28(t3)
    7e5c:	ad67ffe8 	sw	a3,-24(t3)
    7e60:	ad66fff0 	sw	a2,-16(t3)
    7e64:	254a0020 	addiu	t2,t2,32
    7e68:	15acffed 	bne	t5,t4,7e20 <shapes_invert_order+0x20>
    7e6c:	256bffe0 	addiu	t3,t3,-32
    7e70:	03e00008 	jr	ra
    7e74:	00000000 	nop

00007e78 <set_RH_Address>:
    7e78:	3c020005 	lui	v0,0x5
    7e7c:	3c030005 	lui	v1,0x5
    7e80:	2446a7a8 	addiu	a2,v0,-22616
    7e84:	08001fa6 	j	7e98 <set_RH_Address+0x20>
    7e88:	2463149c 	addiu	v1,v1,5276
    7e8c:	24c605bc 	addiu	a2,a2,1468
    7e90:	10c30009 	beq	a2,v1,7eb8 <set_RH_Address+0x40>
    7e94:	00000000 	nop
    7e98:	8cc20000 	lw	v0,0(a2)
    7e9c:	00000000 	nop
    7ea0:	1444fffa 	bne	v0,a0,7e8c <set_RH_Address+0x14>
    7ea4:	00000000 	nop
    7ea8:	acc505b8 	sw	a1,1464(a2)
    7eac:	24c605bc 	addiu	a2,a2,1468
    7eb0:	14c3fff9 	bne	a2,v1,7e98 <set_RH_Address+0x20>
    7eb4:	00000000 	nop
    7eb8:	03e00008 	jr	ra
    7ebc:	00000000 	nop

00007ec0 <get_AppID_with_RH_Address>:
    7ec0:	3c020005 	lui	v0,0x5
    7ec4:	3c030005 	lui	v1,0x5
    7ec8:	2446ad60 	addiu	a2,v0,-21152
    7ecc:	2463a7a8 	addiu	v1,v1,-22616
    7ed0:	00002821 	move	a1,zero
    7ed4:	08001fb9 	j	7ee4 <get_AppID_with_RH_Address+0x24>
    7ed8:	24070013 	li	a3,19
    7edc:	10a70008 	beq	a1,a3,7f00 <get_AppID_with_RH_Address+0x40>
    7ee0:	246305bc 	addiu	v1,v1,1468
    7ee4:	8cc20000 	lw	v0,0(a2)
    7ee8:	24a50001 	addiu	a1,a1,1
    7eec:	1444fffb 	bne	v0,a0,7edc <get_AppID_with_RH_Address+0x1c>
    7ef0:	24c605bc 	addiu	a2,a2,1468
    7ef4:	8c620000 	lw	v0,0(v1)
    7ef8:	03e00008 	jr	ra
    7efc:	00000000 	nop
    7f00:	03e00008 	jr	ra
    7f04:	2402ffff 	li	v0,-1

00007f08 <get_Secure_Zone_index>:
    7f08:	308200f0 	andi	v0,a0,0xf0
    7f0c:	00021100 	sll	v0,v0,0x4
    7f10:	3084000f 	andi	a0,a0,0xf
    7f14:	3c030005 	lui	v1,0x5
    7f18:	00443821 	addu	a3,v0,a0
    7f1c:	2465297c 	addiu	a1,v1,10620
    7f20:	00003021 	move	a2,zero
    7f24:	24090001 	li	t1,1
    7f28:	2408000d 	li	t0,13
    7f2c:	8ca30000 	lw	v1,0(a1)
    7f30:	8ca2fff0 	lw	v0,-16(a1)
    7f34:	00032402 	srl	a0,v1,0x10
    7f38:	3063ffff 	andi	v1,v1,0xffff
    7f3c:	00641821 	addu	v1,v1,a0
    7f40:	24a50020 	addiu	a1,a1,32
    7f44:	14490003 	bne	v0,t1,7f54 <get_Secure_Zone_index+0x4c>
    7f48:	2463feff 	addiu	v1,v1,-257
    7f4c:	10e30005 	beq	a3,v1,7f64 <get_Secure_Zone_index+0x5c>
    7f50:	00000000 	nop
    7f54:	24c60001 	addiu	a2,a2,1
    7f58:	14c8fff4 	bne	a2,t0,7f2c <get_Secure_Zone_index+0x24>
    7f5c:	00000000 	nop
    7f60:	2406ffff 	li	a2,-1
    7f64:	03e00008 	jr	ra
    7f68:	00c01021 	move	v0,a2

00007f6c <PE_belong_SZ>:
    7f6c:	3c020005 	lui	v0,0x5
    7f70:	3c030005 	lui	v1,0x5
    7f74:	2446296c 	addiu	a2,v0,10604
    7f78:	246a2b0c 	addiu	t2,v1,11020
    7f7c:	24090001 	li	t1,1
    7f80:	08001fe5 	j	7f94 <PE_belong_SZ+0x28>
    7f84:	240cffff 	li	t4,-1
    7f88:	24c60020 	addiu	a2,a2,32
    7f8c:	10ca0027 	beq	a2,t2,802c <PE_belong_SZ+0xc0>
    7f90:	00000000 	nop
    7f94:	8cc20000 	lw	v0,0(a2)
    7f98:	00000000 	nop
    7f9c:	1449fffa 	bne	v0,t1,7f88 <PE_belong_SZ+0x1c>
    7fa0:	00000000 	nop
    7fa4:	8cc3000c 	lw	v1,12(a2)
    7fa8:	8cc70010 	lw	a3,16(a2)
    7fac:	8cc8fff8 	lw	t0,-8(a2)
    7fb0:	8ccbfffc 	lw	t3,-4(a2)
    7fb4:	106c000d 	beq	v1,t4,7fec <PE_belong_SZ+0x80>
    7fb8:	00031203 	sra	v0,v1,0x8
    7fbc:	304200ff 	andi	v0,v0,0xff
    7fc0:	0082102a 	slt	v0,a0,v0
    7fc4:	1440000a 	bnez	v0,7ff0 <PE_belong_SZ+0x84>
    7fc8:	00071202 	srl	v0,a3,0x8
    7fcc:	00031602 	srl	v0,v1,0x18
    7fd0:	0044102a 	slt	v0,v0,a0
    7fd4:	14400006 	bnez	v0,7ff0 <PE_belong_SZ+0x84>
    7fd8:	00071202 	srl	v0,a3,0x8
    7fdc:	306200ff 	andi	v0,v1,0xff
    7fe0:	00a2102a 	slt	v0,a1,v0
    7fe4:	10400013 	beqz	v0,8034 <PE_belong_SZ+0xc8>
    7fe8:	00031403 	sra	v0,v1,0x10
    7fec:	00071202 	srl	v0,a3,0x8
    7ff0:	304200ff 	andi	v0,v0,0xff
    7ff4:	0082182a 	slt	v1,a0,v0
    7ff8:	1460ffe3 	bnez	v1,7f88 <PE_belong_SZ+0x1c>
    7ffc:	00481021 	addu	v0,v0,t0
    8000:	0082102a 	slt	v0,a0,v0
    8004:	1040ffe0 	beqz	v0,7f88 <PE_belong_SZ+0x1c>
    8008:	30e300ff 	andi	v1,a3,0xff
    800c:	00a3102a 	slt	v0,a1,v1
    8010:	1440ffdd 	bnez	v0,7f88 <PE_belong_SZ+0x1c>
    8014:	006b1021 	addu	v0,v1,t3
    8018:	00a2102a 	slt	v0,a1,v0
    801c:	1040ffdb 	beqz	v0,7f8c <PE_belong_SZ+0x20>
    8020:	24c60020 	addiu	a2,a2,32
    8024:	03e00008 	jr	ra
    8028:	24020001 	li	v0,1
    802c:	03e00008 	jr	ra
    8030:	00001021 	move	v0,zero
    8034:	304200ff 	andi	v0,v0,0xff
    8038:	0045102a 	slt	v0,v0,a1
    803c:	1040ffd2 	beqz	v0,7f88 <PE_belong_SZ+0x1c>
    8040:	00071202 	srl	v0,a3,0x8
    8044:	08001ffd 	j	7ff4 <PE_belong_SZ+0x88>
    8048:	304200ff 	andi	v0,v0,0xff

0000804c <shape_recog>:
    804c:	27bdffb8 	addiu	sp,sp,-72
    8050:	afbf0044 	sw	ra,68(sp)
    8054:	afb7003c 	sw	s7,60(sp)
    8058:	afb20028 	sw	s2,40(sp)
    805c:	afb10024 	sw	s1,36(sp)
    8060:	afb00020 	sw	s0,32(sp)
    8064:	00e08821 	move	s1,a3
    8068:	00a08021 	move	s0,a1
    806c:	00809021 	move	s2,a0
    8070:	afa60050 	sw	a2,80(sp)
    8074:	afbe0040 	sw	s8,64(sp)
    8078:	afb60038 	sw	s6,56(sp)
    807c:	afb50034 	sw	s5,52(sp)
    8080:	afb40030 	sw	s4,48(sp)
    8084:	0c00093a 	jal	24e8 <get_net_address>
    8088:	afb3002c 	sw	s3,44(sp)
    808c:	00021202 	srl	v0,v0,0x8
    8090:	0c00093a 	jal	24e8 <get_net_address>
    8094:	305700ff 	andi	s7,v0,0xff
    8098:	02302821 	addu	a1,s1,s0
    809c:	304200ff 	andi	v0,v0,0xff
    80a0:	0225182a 	slt	v1,s1,a1
    80a4:	1060003f 	beqz	v1,81a4 <shape_recog+0x158>
    80a8:	afa20010 	sw	v0,16(sp)
    80ac:	8fa20050 	lw	v0,80(sp)
    80b0:	00111880 	sll	v1,s1,0x2
    80b4:	00711821 	addu	v1,v1,s1
    80b8:	00431821 	addu	v1,v0,v1
    80bc:	00031100 	sll	v0,v1,0x4
    80c0:	00031880 	sll	v1,v1,0x2
    80c4:	00621821 	addu	v1,v1,v0
    80c8:	8fa20050 	lw	v0,80(sp)
    80cc:	02209821 	move	s3,s1
    80d0:	00522021 	addu	a0,v0,s2
    80d4:	3c020005 	lui	v0,0x5
    80d8:	2442a618 	addiu	v0,v0,-23016
    80dc:	0062f021 	addu	s8,v1,v0
    80e0:	8fa20050 	lw	v0,80(sp)
    80e4:	0080a021 	move	s4,a0
    80e8:	0044202a 	slt	a0,v0,a0
    80ec:	afa50014 	sw	a1,20(sp)
    80f0:	0000b021 	move	s6,zero
    80f4:	afa40018 	sw	a0,24(sp)
    80f8:	8fa20018 	lw	v0,24(sp)
    80fc:	00000000 	nop
    8100:	10400022 	beqz	v0,818c <shape_recog+0x140>
    8104:	27d10004 	addiu	s1,s8,4
    8108:	8fb00050 	lw	s0,80(sp)
    810c:	08002047 	j	811c <shape_recog+0xd0>
    8110:	24150001 	li	s5,1
    8114:	1290001d 	beq	s4,s0,818c <shape_recog+0x140>
    8118:	00000000 	nop
    811c:	8e320000 	lw	s2,0(s1)
    8120:	02002021 	move	a0,s0
    8124:	02602821 	move	a1,s3
    8128:	16f00005 	bne	s7,s0,8140 <shape_recog+0xf4>
    812c:	26310014 	addiu	s1,s1,20
    8130:	8fa20010 	lw	v0,16(sp)
    8134:	00000000 	nop
    8138:	10530006 	beq	v0,s3,8154 <shape_recog+0x108>
    813c:	00000000 	nop
    8140:	0c001fdb 	jal	7f6c <PE_belong_SZ>
    8144:	26100001 	addiu	s0,s0,1
    8148:	02d21823 	subu	v1,s6,s2
    814c:	1455fff1 	bne	v0,s5,8114 <shape_recog+0xc8>
    8150:	24760001 	addiu	s6,v1,1
    8154:	24160064 	li	s6,100
    8158:	02c01021 	move	v0,s6
    815c:	8fbf0044 	lw	ra,68(sp)
    8160:	8fbe0040 	lw	s8,64(sp)
    8164:	8fb7003c 	lw	s7,60(sp)
    8168:	8fb60038 	lw	s6,56(sp)
    816c:	8fb50034 	lw	s5,52(sp)
    8170:	8fb40030 	lw	s4,48(sp)
    8174:	8fb3002c 	lw	s3,44(sp)
    8178:	8fb20028 	lw	s2,40(sp)
    817c:	8fb10024 	lw	s1,36(sp)
    8180:	8fb00020 	lw	s0,32(sp)
    8184:	03e00008 	jr	ra
    8188:	27bd0048 	addiu	sp,sp,72
    818c:	8fa20014 	lw	v0,20(sp)
    8190:	26730001 	addiu	s3,s3,1
    8194:	1662ffd8 	bne	s3,v0,80f8 <shape_recog+0xac>
    8198:	27de0064 	addiu	s8,s8,100
    819c:	08002057 	j	815c <shape_recog+0x110>
    81a0:	02c01021 	move	v0,s6
    81a4:	08002056 	j	8158 <shape_recog+0x10c>
    81a8:	0000b021 	move	s6,zero

000081ac <search_shape_in_cluster>:
    81ac:	27bdffc8 	addiu	sp,sp,-56
    81b0:	24020004 	li	v0,4
    81b4:	afb20018 	sw	s2,24(sp)
    81b8:	00459023 	subu	s2,v0,a1
    81bc:	afb7002c 	sw	s7,44(sp)
    81c0:	afb50024 	sw	s5,36(sp)
    81c4:	afb40020 	sw	s4,32(sp)
    81c8:	afb3001c 	sw	s3,28(sp)
    81cc:	afbf0030 	sw	ra,48(sp)
    81d0:	afb60028 	sw	s6,40(sp)
    81d4:	afb10014 	sw	s1,20(sp)
    81d8:	afb00010 	sw	s0,16(sp)
    81dc:	00a0a021 	move	s4,a1
    81e0:	00809821 	move	s3,a0
    81e4:	8fb50048 	lw	s5,72(sp)
    81e8:	0640004b 	bltz	s2,8318 <search_shape_in_cluster+0x16c>
    81ec:	00e0b821 	move	s7,a3
    81f0:	00071140 	sll	v0,a3,0x5
    81f4:	24030005 	li	v1,5
    81f8:	00468821 	addu	s1,v0,a2
    81fc:	0064b023 	subu	s6,v1,a0
    8200:	06c00041 	bltz	s6,8308 <search_shape_in_cluster+0x15c>
    8204:	02c08021 	move	s0,s6
    8208:	0800208c 	j	8230 <search_shape_in_cluster+0x84>
    820c:	02602021 	move	a0,s3
    8210:	ae22001c 	sw	v0,28(s1)
    8214:	2402ffff 	li	v0,-1
    8218:	ae250014 	sw	a1,20(s1)
    821c:	ae220018 	sw	v0,24(s1)
    8220:	2610ffff 	addiu	s0,s0,-1
    8224:	2402ffff 	li	v0,-1
    8228:	12020037 	beq	s0,v0,8308 <search_shape_in_cluster+0x15c>
    822c:	02602021 	move	a0,s3
    8230:	02802821 	move	a1,s4
    8234:	02003021 	move	a2,s0
    8238:	0c002013 	jal	804c <shape_recog>
    823c:	02403821 	move	a3,s2
    8240:	00402821 	move	a1,v0
    8244:	00131e00 	sll	v1,s3,0x18
    8248:	00101200 	sll	v0,s0,0x8
    824c:	00142400 	sll	a0,s4,0x10
    8250:	00641825 	or	v1,v1,a0
    8254:	00521021 	addu	v0,v0,s2
    8258:	14b5ffed 	bne	a1,s5,8210 <search_shape_in_cluster+0x64>
    825c:	00431025 	or	v0,v0,v1
    8260:	8e230004 	lw	v1,4(s1)
    8264:	24020005 	li	v0,5
    8268:	14620007 	bne	v1,v0,8288 <search_shape_in_cluster+0xdc>
    826c:	24020004 	li	v0,4
    8270:	8e230008 	lw	v1,8(s1)
    8274:	00000000 	nop
    8278:	00431023 	subu	v0,v0,v1
    827c:	1642ffe9 	bne	s2,v0,8224 <search_shape_in_cluster+0x78>
    8280:	2610ffff 	addiu	s0,s0,-1
    8284:	26100001 	addiu	s0,s0,1
    8288:	00141c00 	sll	v1,s4,0x10
    828c:	00131600 	sll	v0,s3,0x18
    8290:	00102a00 	sll	a1,s0,0x8
    8294:	00431025 	or	v0,v0,v1
    8298:	00b22021 	addu	a0,a1,s2
    829c:	00441025 	or	v0,v0,a0
    82a0:	8e230010 	lw	v1,16(s1)
    82a4:	ae22001c 	sw	v0,28(s1)
    82a8:	2402ffff 	li	v0,-1
    82ac:	ae350014 	sw	s5,20(s1)
    82b0:	18600009 	blez	v1,82d8 <search_shape_in_cluster+0x12c>
    82b4:	ae220018 	sw	v0,24(s1)
    82b8:	00721021 	addu	v0,v1,s2
    82bc:	2442ffff 	addiu	v0,v0,-1
    82c0:	00101e00 	sll	v1,s0,0x18
    82c4:	00021400 	sll	v0,v0,0x10
    82c8:	00a31825 	or	v1,a1,v1
    82cc:	00521025 	or	v0,v0,s2
    82d0:	00621825 	or	v1,v1,v0
    82d4:	ae230018 	sw	v1,24(s1)
    82d8:	02e01021 	move	v0,s7
    82dc:	8fbf0030 	lw	ra,48(sp)
    82e0:	8fb7002c 	lw	s7,44(sp)
    82e4:	8fb60028 	lw	s6,40(sp)
    82e8:	8fb50024 	lw	s5,36(sp)
    82ec:	8fb40020 	lw	s4,32(sp)
    82f0:	8fb3001c 	lw	s3,28(sp)
    82f4:	8fb20018 	lw	s2,24(sp)
    82f8:	8fb10014 	lw	s1,20(sp)
    82fc:	8fb00010 	lw	s0,16(sp)
    8300:	03e00008 	jr	ra
    8304:	27bd0038 	addiu	sp,sp,56
    8308:	2652ffff 	addiu	s2,s2,-1
    830c:	2402ffff 	li	v0,-1
    8310:	1642ffbb 	bne	s2,v0,8200 <search_shape_in_cluster+0x54>
    8314:	00000000 	nop
    8318:	080020b6 	j	82d8 <search_shape_in_cluster+0x12c>
    831c:	2417ffff 	li	s7,-1

00008320 <search_shape>:
    8320:	27bdffc0 	addiu	sp,sp,-64
    8324:	afbe0038 	sw	s8,56(sp)
    8328:	afb70034 	sw	s7,52(sp)
    832c:	afb5002c 	sw	s5,44(sp)
    8330:	afb30024 	sw	s3,36(sp)
    8334:	afbf003c 	sw	ra,60(sp)
    8338:	afb60030 	sw	s6,48(sp)
    833c:	afb40028 	sw	s4,40(sp)
    8340:	afb20020 	sw	s2,32(sp)
    8344:	afb1001c 	sw	s1,28(sp)
    8348:	afb00018 	sw	s0,24(sp)
    834c:	0080a821 	move	s5,a0
    8350:	00009821 	move	s3,zero
    8354:	241e0001 	li	s8,1
    8358:	3c170005 	lui	s7,0x5
    835c:	127e002a 	beq	s3,s8,8408 <search_shape+0xe8>
    8360:	3c030001 	lui	v1,0x1
    8364:	1aa00022 	blez	s5,83f0 <search_shape+0xd0>
    8368:	3c160005 	lui	s6,0x5
    836c:	26c2a478 	addiu	v0,s6,-23432
    8370:	00008821 	move	s1,zero
    8374:	26f0a47c 	addiu	s0,s7,-23428
    8378:	2414ffff 	li	s4,-1
    837c:	080020e4 	j	8390 <search_shape+0x70>
    8380:	2452001c 	addiu	s2,v0,28
    8384:	26310001 	addiu	s1,s1,1
    8388:	12b10019 	beq	s5,s1,83f0 <search_shape+0xd0>
    838c:	26520020 	addiu	s2,s2,32
    8390:	8e040000 	lw	a0,0(s0)
    8394:	8e050004 	lw	a1,4(s0)
    8398:	02203821 	move	a3,s1
    839c:	26c6a478 	addiu	a2,s6,-23432
    83a0:	0c00206b 	jal	81ac <search_shape_in_cluster>
    83a4:	afb30010 	sw	s3,16(sp)
    83a8:	1054fff6 	beq	v0,s4,8384 <search_shape+0x64>
    83ac:	26100020 	addiu	s0,s0,32
    83b0:	3c020005 	lui	v0,0x5
    83b4:	8e430000 	lw	v1,0(s2)
    83b8:	ac5198b4 	sw	s1,-26444(v0)
    83bc:	8fbf003c 	lw	ra,60(sp)
    83c0:	8fbe0038 	lw	s8,56(sp)
    83c4:	8fb70034 	lw	s7,52(sp)
    83c8:	8fb60030 	lw	s6,48(sp)
    83cc:	8fb5002c 	lw	s5,44(sp)
    83d0:	8fb40028 	lw	s4,40(sp)
    83d4:	8fb30024 	lw	s3,36(sp)
    83d8:	8fb20020 	lw	s2,32(sp)
    83dc:	8fb1001c 	lw	s1,28(sp)
    83e0:	8fb00018 	lw	s0,24(sp)
    83e4:	00601021 	move	v0,v1
    83e8:	03e00008 	jr	ra
    83ec:	27bd0040 	addiu	sp,sp,64
    83f0:	26730001 	addiu	s3,s3,1
    83f4:	2403000b 	li	v1,11
    83f8:	1663ffd8 	bne	s3,v1,835c <search_shape+0x3c>
    83fc:	2403ffff 	li	v1,-1
    8400:	080020ef 	j	83bc <search_shape+0x9c>
    8404:	00000000 	nop
    8408:	3c160005 	lui	s6,0x5
    840c:	2463974c 	addiu	v1,v1,-26804
    8410:	3c022000 	lui	v0,0x2000
    8414:	26c4a478 	addiu	a0,s6,-23432
    8418:	02a02821 	move	a1,s5
    841c:	ac430000 	sw	v1,0(v0)
    8420:	0c001f80 	jal	7e00 <shapes_invert_order>
    8424:	00000000 	nop
    8428:	080020d9 	j	8364 <search_shape+0x44>
    842c:	00000000 	nop

00008430 <open_wrapper_IO_SZ>:
    8430:	27bdffe0 	addiu	sp,sp,-32
    8434:	afbf0018 	sw	ra,24(sp)
    8438:	afb10014 	sw	s1,20(sp)
    843c:	afb00010 	sw	s0,16(sp)
    8440:	0c000a75 	jal	29d4 <get_service_header_slot>
    8444:	00a08821 	move	s1,a1
    8448:	00408021 	move	s0,v0
    844c:	3c020005 	lui	v0,0x5
    8450:	8c4498ec 	lw	a0,-26388(v0)
    8454:	3c021000 	lui	v0,0x1000
    8458:	3083003f 	andi	v1,a0,0x3f
    845c:	30853f00 	andi	a1,a0,0x3f00
    8460:	00052b80 	sll	a1,a1,0xe
    8464:	00031c00 	sll	v1,v1,0x10
    8468:	00621825 	or	v1,v1,v0
    846c:	00852025 	or	a0,a0,a1
    8470:	00832025 	or	a0,a0,v1
    8474:	2402000b 	li	v0,11
    8478:	24030295 	li	v1,661
    847c:	ae04007c 	sw	a0,124(s0)
    8480:	ae030084 	sw	v1,132(s0)
    8484:	ae040078 	sw	a0,120(s0)
    8488:	0c00093a 	jal	24e8 <get_net_address>
    848c:	ae020080 	sw	v0,128(s0)
    8490:	3c030005 	lui	v1,0x5
    8494:	8c6498e0 	lw	a0,-26400(v1)
    8498:	ae020090 	sw	v0,144(s0)
    849c:	24020001 	li	v0,1
    84a0:	ae04008c 	sw	a0,140(s0)
    84a4:	16200022 	bnez	s1,8530 <open_wrapper_IO_SZ+0x100>
    84a8:	ae02009c 	sw	v0,156(s0)
    84ac:	24020015 	li	v0,21
    84b0:	ae020088 	sw	v0,136(s0)
    84b4:	02002021 	move	a0,s0
    84b8:	00002821 	move	a1,zero
    84bc:	0c000c4d 	jal	3134 <send_packet>
    84c0:	00003021 	move	a2,zero
    84c4:	3c030005 	lui	v1,0x5
    84c8:	8c6298e4 	lw	v0,-26396(v1)
    84cc:	3c040005 	lui	a0,0x5
    84d0:	3045003f 	andi	a1,v0,0x3f
    84d4:	30463f00 	andi	a2,v0,0x3f00
    84d8:	3c031000 	lui	v1,0x1000
    84dc:	00063380 	sll	a2,a2,0xe
    84e0:	00052c00 	sll	a1,a1,0x10
    84e4:	00a32825 	or	a1,a1,v1
    84e8:	00461025 	or	v0,v0,a2
    84ec:	8c8398e8 	lw	v1,-26392(a0)
    84f0:	00451025 	or	v0,v0,a1
    84f4:	ae02007c 	sw	v0,124(s0)
    84f8:	ae03008c 	sw	v1,140(s0)
    84fc:	ae020078 	sw	v0,120(s0)
    8500:	1620000e 	bnez	s1,853c <open_wrapper_IO_SZ+0x10c>
    8504:	ae00009c 	sw	zero,156(s0)
    8508:	24020025 	li	v0,37
    850c:	ae020088 	sw	v0,136(s0)
    8510:	02002021 	move	a0,s0
    8514:	8fbf0018 	lw	ra,24(sp)
    8518:	8fb10014 	lw	s1,20(sp)
    851c:	8fb00010 	lw	s0,16(sp)
    8520:	00002821 	move	a1,zero
    8524:	00003021 	move	a2,zero
    8528:	08000c4d 	j	3134 <send_packet>
    852c:	27bd0020 	addiu	sp,sp,32
    8530:	24020025 	li	v0,37
    8534:	0800212d 	j	84b4 <open_wrapper_IO_SZ+0x84>
    8538:	ae020088 	sw	v0,136(s0)
    853c:	24020026 	li	v0,38
    8540:	ae020088 	sw	v0,136(s0)
    8544:	02002021 	move	a0,s0
    8548:	8fbf0018 	lw	ra,24(sp)
    854c:	8fb10014 	lw	s1,20(sp)
    8550:	8fb00010 	lw	s0,16(sp)
    8554:	00002821 	move	a1,zero
    8558:	00003021 	move	a2,zero
    855c:	08000c4d 	j	3134 <send_packet>
    8560:	27bd0020 	addiu	sp,sp,32

00008564 <free_Secure_Zone>:
    8564:	00041100 	sll	v0,a0,0x4
    8568:	30420f00 	andi	v0,v0,0xf00
    856c:	3084000f 	andi	a0,a0,0xf
    8570:	27bdffc0 	addiu	sp,sp,-64
    8574:	00441025 	or	v0,v0,a0
    8578:	afa20010 	sw	v0,16(sp)
    857c:	00402021 	move	a0,v0
    8580:	3c020001 	lui	v0,0x1
    8584:	afb00018 	sw	s0,24(sp)
    8588:	2442975c 	addiu	v0,v0,-26788
    858c:	3c102000 	lui	s0,0x2000
    8590:	afbe0038 	sw	s8,56(sp)
    8594:	afb70034 	sw	s7,52(sp)
    8598:	afb60030 	sw	s6,48(sp)
    859c:	afb5002c 	sw	s5,44(sp)
    85a0:	afb40028 	sw	s4,40(sp)
    85a4:	afb30024 	sw	s3,36(sp)
    85a8:	afb20020 	sw	s2,32(sp)
    85ac:	afb1001c 	sw	s1,28(sp)
    85b0:	afbf003c 	sw	ra,60(sp)
    85b4:	ae020000 	sw	v0,0(s0)
    85b8:	0c000985 	jal	2614 <itoh>
    85bc:	00000000 	nop
    85c0:	ae020000 	sw	v0,0(s0)
    85c4:	3c020001 	lui	v0,0x1
    85c8:	3c030001 	lui	v1,0x1
    85cc:	24579774 	addiu	s7,v0,-26764
    85d0:	3c020005 	lui	v0,0x5
    85d4:	247e9324 	addiu	s8,v1,-27868
    85d8:	24422960 	addiu	v0,v0,10592
    85dc:	3c030005 	lui	v1,0x5
    85e0:	2471297c 	addiu	s1,v1,10620
    85e4:	2454000c 	addiu	s4,v0,12
    85e8:	00009821 	move	s3,zero
    85ec:	3c122000 	lui	s2,0x2000
    85f0:	24160001 	li	s6,1
    85f4:	2415000d 	li	s5,13
    85f8:	ae1e0000 	sw	s8,0(s0)
    85fc:	08002183 	j	860c <free_Secure_Zone+0xa8>
    8600:	00000000 	nop
    8604:	12750014 	beq	s3,s5,8658 <free_Secure_Zone+0xf4>
    8608:	26940020 	addiu	s4,s4,32
    860c:	8e220000 	lw	v0,0(s1)
    8610:	ae570000 	sw	s7,0(s2)
    8614:	00021c02 	srl	v1,v0,0x10
    8618:	3042ffff 	andi	v0,v0,0xffff
    861c:	00431021 	addu	v0,v0,v1
    8620:	2450feff 	addiu	s0,v0,-257
    8624:	0c000985 	jal	2614 <itoh>
    8628:	02002021 	move	a0,s0
    862c:	ae420000 	sw	v0,0(s2)
    8630:	ae5e0000 	sw	s8,0(s2)
    8634:	8e22fff0 	lw	v0,-16(s1)
    8638:	26730001 	addiu	s3,s3,1
    863c:	1456fff1 	bne	v0,s6,8604 <free_Secure_Zone+0xa0>
    8640:	26310020 	addiu	s1,s1,32
    8644:	8fa20010 	lw	v0,16(sp)
    8648:	00000000 	nop
    864c:	1450ffed 	bne	v0,s0,8604 <free_Secure_Zone+0xa0>
    8650:	00000000 	nop
    8654:	ae800000 	sw	zero,0(s4)
    8658:	8fbf003c 	lw	ra,60(sp)
    865c:	8fbe0038 	lw	s8,56(sp)
    8660:	8fb70034 	lw	s7,52(sp)
    8664:	8fb60030 	lw	s6,48(sp)
    8668:	8fb5002c 	lw	s5,44(sp)
    866c:	8fb40028 	lw	s4,40(sp)
    8670:	8fb30024 	lw	s3,36(sp)
    8674:	8fb20020 	lw	s2,32(sp)
    8678:	8fb1001c 	lw	s1,28(sp)
    867c:	8fb00018 	lw	s0,24(sp)
    8680:	03e00008 	jr	ra
    8684:	27bd0040 	addiu	sp,sp,64

00008688 <set_SZ_migrations>:
    8688:	3c020005 	lui	v0,0x5
    868c:	27bdffb8 	addiu	sp,sp,-72
    8690:	24422960 	addiu	v0,v0,10592
    8694:	00042140 	sll	a0,a0,0x5
    8698:	afbf0044 	sw	ra,68(sp)
    869c:	afbe0040 	sw	s8,64(sp)
    86a0:	afb7003c 	sw	s7,60(sp)
    86a4:	afb60038 	sw	s6,56(sp)
    86a8:	afb50034 	sw	s5,52(sp)
    86ac:	afb40030 	sw	s4,48(sp)
    86b0:	afb3002c 	sw	s3,44(sp)
    86b4:	afb20028 	sw	s2,40(sp)
    86b8:	afb10024 	sw	s1,36(sp)
    86bc:	afb00020 	sw	s0,32(sp)
    86c0:	00824821 	addu	t1,a0,v0
    86c4:	8d220004 	lw	v0,4(t1)
    86c8:	912a001e 	lbu	t2,30(t1)
    86cc:	9128001f 	lbu	t0,31(t1)
    86d0:	8d230008 	lw	v1,8(t1)
    86d4:	8d270018 	lw	a3,24(t1)
    86d8:	01426021 	addu	t4,t2,v0
    86dc:	2402ffff 	li	v0,-1
    86e0:	10e2000d 	beq	a3,v0,8718 <set_SZ_migrations+0x90>
    86e4:	01035821 	addu	t3,t0,v1
    86e8:	00071403 	sra	v0,a3,0x10
    86ec:	304200ff 	andi	v0,v0,0xff
    86f0:	30e600ff 	andi	a2,a3,0xff
    86f4:	00022080 	sll	a0,v0,0x2
    86f8:	30e5ffff 	andi	a1,a3,0xffff
    86fc:	00061880 	sll	v1,a2,0x2
    8700:	00822021 	addu	a0,a0,v0
    8704:	00661821 	addu	v1,v1,a2
    8708:	00052a03 	sra	a1,a1,0x8
    870c:	00071603 	sra	v0,a3,0x18
    8710:	0065a821 	addu	s5,v1,a1
    8714:	00829021 	addu	s2,a0,v0
    8718:	010b102a 	slt	v0,t0,t3
    871c:	10400058 	beqz	v0,8880 <set_SZ_migrations+0x1f8>
    8720:	00081080 	sll	v0,t0,0x2
    8724:	00481021 	addu	v0,v0,t0
    8728:	01421021 	addu	v0,t2,v0
    872c:	01685823 	subu	t3,t3,t0
    8730:	018af023 	subu	s8,t4,t2
    8734:	014c502a 	slt	t2,t2,t4
    8738:	afab001c 	sw	t3,28(sp)
    873c:	afa20010 	sw	v0,16(sp)
    8740:	0120b821 	move	s7,t1
    8744:	afa00014 	sw	zero,20(sp)
    8748:	afaa0018 	sw	t2,24(sp)
    874c:	8fa20018 	lw	v0,24(sp)
    8750:	00000000 	nop
    8754:	10400042 	beqz	v0,8860 <set_SZ_migrations+0x1d8>
    8758:	3c030001 	lui	v1,0x1
    875c:	246397b4 	addiu	v1,v1,-26700
    8760:	8fb00010 	lw	s0,16(sp)
    8764:	8c760000 	lw	s6,0(v1)
    8768:	00009821 	move	s3,zero
    876c:	24140001 	li	s4,1
    8770:	8ee30018 	lw	v1,24(s7)
    8774:	2402ffff 	li	v0,-1
    8778:	1062000c 	beq	v1,v0,87ac <set_SZ_migrations+0x124>
    877c:	0255102a 	slt	v0,s2,s5
    8780:	1440000a 	bnez	v0,87ac <set_SZ_migrations+0x124>
    8784:	02a01821 	move	v1,s5
    8788:	00002021 	move	a0,zero
    878c:	10700049 	beq	v1,s0,88b4 <set_SZ_migrations+0x22c>
    8790:	00000000 	nop
    8794:	24630005 	addiu	v1,v1,5
    8798:	0243102a 	slt	v0,s2,v1
    879c:	1040fffb 	beqz	v0,878c <set_SZ_migrations+0x104>
    87a0:	00000000 	nop
    87a4:	1094002b 	beq	a0,s4,8854 <set_SZ_migrations+0x1cc>
    87a8:	00000000 	nop
    87ac:	0c001069 	jal	41a4 <get_proc_address>
    87b0:	02002021 	move	a0,s0
    87b4:	00402021 	move	a0,v0
    87b8:	0c0011a3 	jal	468c <get_proc_free_pages>
    87bc:	00408821 	move	s1,v0
    87c0:	10540024 	beq	v0,s4,8854 <set_SZ_migrations+0x1cc>
    87c4:	00000000 	nop
    87c8:	0c001199 	jal	4664 <get_task_id_processor>
    87cc:	02202021 	move	a0,s1
    87d0:	00401821 	move	v1,v0
    87d4:	3c020005 	lui	v0,0x5
    87d8:	24442b00 	addiu	a0,v0,11008
    87dc:	00033c02 	srl	a3,v1,0x10
    87e0:	00002821 	move	a1,zero
    87e4:	2406000a 	li	a2,10
    87e8:	8c820000 	lw	v0,0(a0)
    87ec:	00000000 	nop
    87f0:	1040003c 	beqz	v0,88e4 <set_SZ_migrations+0x25c>
    87f4:	24840010 	addiu	a0,a0,16
    87f8:	24a50001 	addiu	a1,a1,1
    87fc:	14a6fffa 	bne	a1,a2,87e8 <set_SZ_migrations+0x160>
    8800:	00000000 	nop
    8804:	3402ffff 	li	v0,0xffff
    8808:	10e20012 	beq	a3,v0,8854 <set_SZ_migrations+0x1cc>
    880c:	28a2000a 	slti	v0,a1,10
    8810:	10400010 	beqz	v0,8854 <set_SZ_migrations+0x1cc>
    8814:	00052100 	sll	a0,a1,0x4
    8818:	00961021 	addu	v0,a0,s6
    881c:	8c430000 	lw	v1,0(v0)
    8820:	00000000 	nop
    8824:	10600026 	beqz	v1,88c0 <set_SZ_migrations+0x238>
    8828:	24820010 	addiu	v0,a0,16
    882c:	08002211 	j	8844 <set_SZ_migrations+0x1bc>
    8830:	00561821 	addu	v1,v0,s6
    8834:	8c620000 	lw	v0,0(v1)
    8838:	00000000 	nop
    883c:	1040001f 	beqz	v0,88bc <set_SZ_migrations+0x234>
    8840:	24630010 	addiu	v1,v1,16
    8844:	24a50001 	addiu	a1,a1,1
    8848:	2402000a 	li	v0,10
    884c:	14a2fff9 	bne	a1,v0,8834 <set_SZ_migrations+0x1ac>
    8850:	00000000 	nop
    8854:	26730001 	addiu	s3,s3,1
    8858:	167effc5 	bne	s3,s8,8770 <set_SZ_migrations+0xe8>
    885c:	26100001 	addiu	s0,s0,1
    8860:	8fa30010 	lw	v1,16(sp)
    8864:	8fa20014 	lw	v0,20(sp)
    8868:	24630005 	addiu	v1,v1,5
    886c:	afa30010 	sw	v1,16(sp)
    8870:	8fa3001c 	lw	v1,28(sp)
    8874:	24420001 	addiu	v0,v0,1
    8878:	1443ffb4 	bne	v0,v1,874c <set_SZ_migrations+0xc4>
    887c:	afa20014 	sw	v0,20(sp)
    8880:	8fbf0044 	lw	ra,68(sp)
    8884:	8fbe0040 	lw	s8,64(sp)
    8888:	8fb7003c 	lw	s7,60(sp)
    888c:	8fb60038 	lw	s6,56(sp)
    8890:	8fb50034 	lw	s5,52(sp)
    8894:	8fb40030 	lw	s4,48(sp)
    8898:	8fb3002c 	lw	s3,44(sp)
    889c:	8fb20028 	lw	s2,40(sp)
    88a0:	8fb10024 	lw	s1,36(sp)
    88a4:	8fb00020 	lw	s0,32(sp)
    88a8:	00001021 	move	v0,zero
    88ac:	03e00008 	jr	ra
    88b0:	27bd0048 	addiu	sp,sp,72
    88b4:	080021e5 	j	8794 <set_SZ_migrations+0x10c>
    88b8:	24040001 	li	a0,1
    88bc:	00052100 	sll	a0,a1,0x4
    88c0:	00961021 	addu	v0,a0,s6
    88c4:	26730001 	addiu	s3,s3,1
    88c8:	ac470008 	sw	a3,8(v0)
    88cc:	ac510004 	sw	s1,4(v0)
    88d0:	ac540000 	sw	s4,0(v0)
    88d4:	167effa6 	bne	s3,s8,8770 <set_SZ_migrations+0xe8>
    88d8:	26100001 	addiu	s0,s0,1
    88dc:	08002218 	j	8860 <set_SZ_migrations+0x1d8>
    88e0:	00000000 	nop
    88e4:	00051100 	sll	v0,a1,0x4
    88e8:	00561021 	addu	v0,v0,s6
    88ec:	3063ffff 	andi	v1,v1,0xffff
    88f0:	ac430008 	sw	v1,8(v0)
    88f4:	ac540000 	sw	s4,0(v0)
    88f8:	08002201 	j	8804 <set_SZ_migrations+0x17c>
    88fc:	ac510004 	sw	s1,4(v0)

00008900 <alloc_Secure_Zone>:
    8900:	3c020005 	lui	v0,0x5
    8904:	00042140 	sll	a0,a0,0x5
    8908:	2442a478 	addiu	v0,v0,-23432
    890c:	00824821 	addu	t1,a0,v0
    8910:	27bdffe8 	addiu	sp,sp,-24
    8914:	3c030005 	lui	v1,0x5
    8918:	3c020005 	lui	v0,0x5
    891c:	afbf0010 	sw	ra,16(sp)
    8920:	2463296c 	addiu	v1,v1,10604
    8924:	244b2960 	addiu	t3,v0,10592
    8928:	00002021 	move	a0,zero
    892c:	2405000d 	li	a1,13
    8930:	8c620000 	lw	v0,0(v1)
    8934:	00000000 	nop
    8938:	10400008 	beqz	v0,895c <alloc_Secure_Zone+0x5c>
    893c:	24630020 	addiu	v1,v1,32
    8940:	24840001 	addiu	a0,a0,1
    8944:	1485fffa 	bne	a0,a1,8930 <alloc_Secure_Zone+0x30>
    8948:	256b0020 	addiu	t3,t3,32
    894c:	8fbf0010 	lw	ra,16(sp)
    8950:	00000000 	nop
    8954:	03e00008 	jr	ra
    8958:	27bd0018 	addiu	sp,sp,24
    895c:	8d2a001c 	lw	t2,28(t1)
    8960:	8d230000 	lw	v1,0(t1)
    8964:	8d250004 	lw	a1,4(t1)
    8968:	8d260008 	lw	a2,8(t1)
    896c:	8d270010 	lw	a3,16(t1)
    8970:	8d280014 	lw	t0,20(t1)
    8974:	8d290018 	lw	t1,24(t1)
    8978:	24020001 	li	v0,1
    897c:	ad62000c 	sw	v0,12(t3)
    8980:	ad630000 	sw	v1,0(t3)
    8984:	ad650004 	sw	a1,4(t3)
    8988:	ad660008 	sw	a2,8(t3)
    898c:	ad670010 	sw	a3,16(t3)
    8990:	ad680014 	sw	t0,20(t3)
    8994:	ad690018 	sw	t1,24(t3)
    8998:	0c0021a2 	jal	8688 <set_SZ_migrations>
    899c:	ad6a001c 	sw	t2,28(t3)
    89a0:	8fbf0010 	lw	ra,16(sp)
    89a4:	080011ec 	j	47b0 <freeze_application>
    89a8:	27bd0018 	addiu	sp,sp,24

000089ac <print_shapes_found>:
    89ac:	27bdffc8 	addiu	sp,sp,-56
    89b0:	3c020001 	lui	v0,0x1
    89b4:	afb00010 	sw	s0,16(sp)
    89b8:	2442977c 	addiu	v0,v0,-26756
    89bc:	3c102000 	lui	s0,0x2000
    89c0:	afbe0030 	sw	s8,48(sp)
    89c4:	afb7002c 	sw	s7,44(sp)
    89c8:	afbf0034 	sw	ra,52(sp)
    89cc:	afb60028 	sw	s6,40(sp)
    89d0:	afb50024 	sw	s5,36(sp)
    89d4:	afb40020 	sw	s4,32(sp)
    89d8:	afb3001c 	sw	s3,28(sp)
    89dc:	afb20018 	sw	s2,24(sp)
    89e0:	afb10014 	sw	s1,20(sp)
    89e4:	ae020000 	sw	v0,0(s0)
    89e8:	0c00093e 	jal	24f8 <itoa>
    89ec:	0080f021 	move	s8,a0
    89f0:	3c030001 	lui	v1,0x1
    89f4:	24779324 	addiu	s7,v1,-27868
    89f8:	ae020000 	sw	v0,0(s0)
    89fc:	ae170000 	sw	s7,0(s0)
    8a00:	1bc00022 	blez	s8,8a8c <print_shapes_found+0xe0>
    8a04:	3c020001 	lui	v0,0x1
    8a08:	3c030001 	lui	v1,0x1
    8a0c:	24569790 	addiu	s6,v0,-26736
    8a10:	3c020001 	lui	v0,0x1
    8a14:	24758e80 	addiu	s5,v1,-29056
    8a18:	24549798 	addiu	s4,v0,-26728
    8a1c:	3c030001 	lui	v1,0x1
    8a20:	3c020005 	lui	v0,0x5
    8a24:	247397a4 	addiu	s3,v1,-26716
    8a28:	2451a47c 	addiu	s1,v0,-23428
    8a2c:	00009021 	move	s2,zero
    8a30:	ae160000 	sw	s6,0(s0)
    8a34:	8e240000 	lw	a0,0(s1)
    8a38:	0c00093e 	jal	24f8 <itoa>
    8a3c:	26520001 	addiu	s2,s2,1
    8a40:	ae020000 	sw	v0,0(s0)
    8a44:	ae150000 	sw	s5,0(s0)
    8a48:	8e240004 	lw	a0,4(s1)
    8a4c:	0c00093e 	jal	24f8 <itoa>
    8a50:	00000000 	nop
    8a54:	ae020000 	sw	v0,0(s0)
    8a58:	ae140000 	sw	s4,0(s0)
    8a5c:	8e24000c 	lw	a0,12(s1)
    8a60:	0c00093e 	jal	24f8 <itoa>
    8a64:	00000000 	nop
    8a68:	ae020000 	sw	v0,0(s0)
    8a6c:	ae130000 	sw	s3,0(s0)
    8a70:	8e24fffc 	lw	a0,-4(s1)
    8a74:	0c00093e 	jal	24f8 <itoa>
    8a78:	26310020 	addiu	s1,s1,32
    8a7c:	ae020000 	sw	v0,0(s0)
    8a80:	ae170000 	sw	s7,0(s0)
    8a84:	17d2ffea 	bne	s8,s2,8a30 <print_shapes_found+0x84>
    8a88:	00000000 	nop
    8a8c:	8fbf0034 	lw	ra,52(sp)
    8a90:	8fbe0030 	lw	s8,48(sp)
    8a94:	8fb7002c 	lw	s7,44(sp)
    8a98:	8fb60028 	lw	s6,40(sp)
    8a9c:	8fb50024 	lw	s5,36(sp)
    8aa0:	8fb40020 	lw	s4,32(sp)
    8aa4:	8fb3001c 	lw	s3,28(sp)
    8aa8:	8fb20018 	lw	s2,24(sp)
    8aac:	8fb10014 	lw	s1,20(sp)
    8ab0:	8fb00010 	lw	s0,16(sp)
    8ab4:	03e00008 	jr	ra
    8ab8:	27bd0038 	addiu	sp,sp,56
