
kernel_slave_debug.bin:     file format elf32-bigmips

Disassembly of section .text:

00000000 <entry>:
       0:	341dffff 	li	sp,0xffff
       4:	0c0000fa 	jal	3e8 <main>
       8:	00000000 	nop
       c:	08000003 	j	c <entry+0xc>
      10:	00000000 	nop
	...

0000003c <interrupt_service_routine_entry>:
      3c:	08000013 	j	4c <interrupt_service_routine>
      40:	00000000 	nop

00000044 <system_service_routine_entry>:
      44:	0800003d 	j	f4 <system_service_routine>
      48:	00000000 	nop

0000004c <interrupt_service_routine>:
      4c:	3c1b0005 	lui	k1,0x5
      50:	277ba774 	addiu	k1,k1,-22668
      54:	8f7b0000 	lw	k1,0(k1)
      58:	af620000 	sw	v0,0(k1)
      5c:	af630004 	sw	v1,4(k1)
      60:	af640008 	sw	a0,8(k1)
      64:	af65000c 	sw	a1,12(k1)
      68:	af660010 	sw	a2,16(k1)
      6c:	af670014 	sw	a3,20(k1)
      70:	af680018 	sw	t0,24(k1)
      74:	af69001c 	sw	t1,28(k1)
      78:	af6a0020 	sw	t2,32(k1)
      7c:	af6b0024 	sw	t3,36(k1)
      80:	af6c0028 	sw	t4,40(k1)
      84:	af6d002c 	sw	t5,44(k1)
      88:	af6e0030 	sw	t6,48(k1)
      8c:	af6f0034 	sw	t7,52(k1)
      90:	af700038 	sw	s0,56(k1)
      94:	af71003c 	sw	s1,60(k1)
      98:	af720040 	sw	s2,64(k1)
      9c:	af730044 	sw	s3,68(k1)
      a0:	af740048 	sw	s4,72(k1)
      a4:	af75004c 	sw	s5,76(k1)
      a8:	af760050 	sw	s6,80(k1)
      ac:	af770054 	sw	s7,84(k1)
      b0:	af780058 	sw	t8,88(k1)
      b4:	af79005c 	sw	t9,92(k1)
      b8:	af7d0064 	sw	sp,100(k1)
      bc:	af7e0068 	sw	s8,104(k1)
      c0:	af7f006c 	sw	ra,108(k1)
      c4:	0000d010 	mfhi	k0
      c8:	af7a0070 	sw	k0,112(k1)
      cc:	0000d012 	mflo	k0
      d0:	af7a0074 	sw	k0,116(k1)
      d4:	401a7000 	mfc0	k0,$14
      d8:	af7a0078 	sw	k0,120(k1)
      dc:	341dffff 	li	sp,0xffff
      e0:	3c052000 	lui	a1,0x2000
      e4:	8ca40020 	lw	a0,32(a1)
      e8:	8ca60010 	lw	a2,16(a1)
      ec:	0c000680 	jal	1a00 <OS_InterruptServiceRoutine>
      f0:	00862024 	and	a0,a0,a2

000000f4 <system_service_routine>:
      f4:	3c1b0005 	lui	k1,0x5
      f8:	277ba774 	addiu	k1,k1,-22668
      fc:	8f7b0000 	lw	k1,0(k1)
     100:	af640008 	sw	a0,8(k1)
     104:	af65000c 	sw	a1,12(k1)
     108:	af660010 	sw	a2,16(k1)
     10c:	af670014 	sw	a3,20(k1)
     110:	af7d0064 	sw	sp,100(k1)
     114:	af7f006c 	sw	ra,108(k1)
     118:	401a7000 	mfc0	k0,$14
     11c:	af7a0078 	sw	k0,120(k1)
     120:	341dffff 	li	sp,0xffff
     124:	0c00071f 	jal	1c7c <Syscall>
     128:	00000000 	nop
     12c:	3c1a0005 	lui	k0,0x5
     130:	275aa788 	addiu	k0,k0,-22648
     134:	8f5a0000 	lw	k0,0(k0)
     138:	1340000d 	beqz	k0,170 <system_service_restore>
     13c:	00000000 	nop
     140:	3c040005 	lui	a0,0x5
     144:	2484a774 	addiu	a0,a0,-22668
     148:	8c840000 	lw	a0,0(a0)
     14c:	0c000067 	jal	19c <ASM_SaveRemainingContext>
     150:	00000000 	nop
     154:	0c00036b 	jal	dac <Scheduler>
     158:	00000000 	nop
     15c:	3c040005 	lui	a0,0x5
     160:	2484a774 	addiu	a0,a0,-22668
     164:	8c840000 	lw	a0,0(a0)
     168:	0c000074 	jal	1d0 <ASM_RunScheduledTask>
     16c:	00000000 	nop

00000170 <system_service_restore>:
     170:	3c1b0005 	lui	k1,0x5
     174:	277ba774 	addiu	k1,k1,-22668
     178:	8f7b0000 	lw	k1,0(k1)
     17c:	8f7d0064 	lw	sp,100(k1)
     180:	8f7f006c 	lw	ra,108(k1)
     184:	8f7a0078 	lw	k0,120(k1)
     188:	8f7b007c 	lw	k1,124(k1)
     18c:	24010001 	li	at,1
     190:	409b5000 	mtc0	k1,$10
     194:	03400008 	jr	k0
     198:	40816000 	mtc0	at,$12

0000019c <ASM_SaveRemainingContext>:
     19c:	ac820000 	sw	v0,0(a0)
     1a0:	ac830004 	sw	v1,4(a0)
     1a4:	ac900038 	sw	s0,56(a0)
     1a8:	ac91003c 	sw	s1,60(a0)
     1ac:	ac920040 	sw	s2,64(a0)
     1b0:	ac930044 	sw	s3,68(a0)
     1b4:	ac940048 	sw	s4,72(a0)
     1b8:	ac95004c 	sw	s5,76(a0)
     1bc:	ac960050 	sw	s6,80(a0)
     1c0:	ac970054 	sw	s7,84(a0)
     1c4:	ac9e0068 	sw	s8,104(a0)
     1c8:	03e00008 	jr	ra
     1cc:	00000000 	nop

000001d0 <ASM_RunScheduledTask>:
     1d0:	0080d821 	move	k1,a0
     1d4:	8f620000 	lw	v0,0(k1)
     1d8:	8f630004 	lw	v1,4(k1)
     1dc:	8f640008 	lw	a0,8(k1)
     1e0:	8f65000c 	lw	a1,12(k1)
     1e4:	8f660010 	lw	a2,16(k1)
     1e8:	8f670014 	lw	a3,20(k1)
     1ec:	8f680018 	lw	t0,24(k1)
     1f0:	8f69001c 	lw	t1,28(k1)
     1f4:	8f6a0020 	lw	t2,32(k1)
     1f8:	8f6b0024 	lw	t3,36(k1)
     1fc:	8f6c0028 	lw	t4,40(k1)
     200:	8f6d002c 	lw	t5,44(k1)
     204:	8f6e0030 	lw	t6,48(k1)
     208:	8f6f0034 	lw	t7,52(k1)
     20c:	8f700038 	lw	s0,56(k1)
     210:	8f71003c 	lw	s1,60(k1)
     214:	8f720040 	lw	s2,64(k1)
     218:	8f730044 	lw	s3,68(k1)
     21c:	8f740048 	lw	s4,72(k1)
     220:	8f75004c 	lw	s5,76(k1)
     224:	8f760050 	lw	s6,80(k1)
     228:	8f770054 	lw	s7,84(k1)
     22c:	8f780058 	lw	t8,88(k1)
     230:	8f79005c 	lw	t9,92(k1)
     234:	8f7d0064 	lw	sp,100(k1)
     238:	8f7e0068 	lw	s8,104(k1)
     23c:	8f7f006c 	lw	ra,108(k1)
     240:	8f7a0070 	lw	k0,112(k1)
     244:	03400011 	mthi	k0
     248:	8f7a0074 	lw	k0,116(k1)
     24c:	03400013 	mtlo	k0
     250:	8f7a0078 	lw	k0,120(k1)
     254:	8f7b007c 	lw	k1,124(k1)
     258:	24010001 	li	at,1
     25c:	409b5000 	mtc0	k1,$10
     260:	03400008 	jr	k0
     264:	40816000 	mtc0	at,$12

00000268 <ASM_SetInterruptEnable>:
     268:	40026000 	mfc0	v0,$12
     26c:	03e00008 	jr	ra
     270:	40846000 	mtc0	a0,$12

00000274 <read_inst>:
     274:	3c1b0005 	lui	k1,0x5
     278:	277ba808 	addiu	k1,k1,-22520
     27c:	401a8000 	mfc0	k0,$16
     280:	af7a0000 	sw	k0,0(k1)
     284:	03e00008 	jr	ra
     288:	00000000 	nop

0000028c <write_local_msg_to_task>:
     28c:	8c83007c 	lw	v1,124(a0)
     290:	8c82000c 	lw	v0,12(a0)
     294:	00000000 	nop
     298:	00621825 	or	v1,v1,v0
     29c:	18a0000a 	blez	a1,2c8 <write_local_msg_to_task+0x3c>
     2a0:	ac650000 	sw	a1,0(v1)
     2a4:	24670004 	addiu	a3,v1,4
     2a8:	00004021 	move	t0,zero
     2ac:	8cc20000 	lw	v0,0(a2)
     2b0:	25080001 	addiu	t0,t0,1
     2b4:	0105182a 	slt	v1,t0,a1
     2b8:	ace20000 	sw	v0,0(a3)
     2bc:	24c60004 	addiu	a2,a2,4
     2c0:	1460fffa 	bnez	v1,2ac <write_local_msg_to_task+0x20>
     2c4:	24e70004 	addiu	a3,a3,4
     2c8:	8c8300a0 	lw	v1,160(a0)
     2cc:	24020001 	li	v0,1
     2d0:	ac820000 	sw	v0,0(a0)
     2d4:	03e00008 	jr	ra
     2d8:	ac600000 	sw	zero,0(v1)

000002dc <OS_InterruptMaskClear>:
     2dc:	3c032000 	lui	v1,0x2000
     2e0:	34630010 	ori	v1,v1,0x10
     2e4:	8c620000 	lw	v0,0(v1)
     2e8:	00042027 	nor	a0,zero,a0
     2ec:	00441024 	and	v0,v0,a0
     2f0:	ac620000 	sw	v0,0(v1)
     2f4:	03e00008 	jr	ra
     2f8:	00000000 	nop

000002fc <OS_InterruptMaskSet>:
     2fc:	3c032000 	lui	v1,0x2000
     300:	34630010 	ori	v1,v1,0x10
     304:	8c620000 	lw	v0,0(v1)
     308:	00000000 	nop
     30c:	00441025 	or	v0,v0,a0
     310:	ac620000 	sw	v0,0(v1)
     314:	03e00008 	jr	ra
     318:	00000000 	nop

0000031c <OS_Idle>:
     31c:	3c022000 	lui	v0,0x2000
     320:	34420090 	ori	v0,v0,0x90
     324:	24030001 	li	v1,1
     328:	ac430000 	sw	v1,0(v0)
     32c:	ac430000 	sw	v1,0(v0)
     330:	080000ca 	j	328 <OS_Idle+0xc>
     334:	00000000 	nop

00000338 <get_cluster_ID>:
     338:	27bdffe0 	addiu	sp,sp,-32
     33c:	3c020001 	lui	v0,0x1
     340:	afb00010 	sw	s0,16(sp)
     344:	24429a54 	addiu	v0,v0,-26028
     348:	3c102000 	lui	s0,0x2000
     34c:	afbf001c 	sw	ra,28(sp)
     350:	afb20018 	sw	s2,24(sp)
     354:	afb10014 	sw	s1,20(sp)
     358:	ae020000 	sw	v0,0(s0)
     35c:	00a09021 	move	s2,a1
     360:	0c000939 	jal	24e4 <itoh>
     364:	00808821 	move	s1,a0
     368:	ae020000 	sw	v0,0(s0)
     36c:	3c020001 	lui	v0,0x1
     370:	24429a64 	addiu	v0,v0,-26012
     374:	02402021 	move	a0,s2
     378:	ae020000 	sw	v0,0(s0)
     37c:	0c000939 	jal	24e4 <itoh>
     380:	00000000 	nop
     384:	3c030005 	lui	v1,0x5
     388:	8c64a698 	lw	a0,-22888(v1)
     38c:	ae020000 	sw	v0,0(s0)
     390:	3c020001 	lui	v0,0x1
     394:	2442a160 	addiu	v0,v0,-24224
     398:	2465a698 	addiu	a1,v1,-22888
     39c:	ae020000 	sw	v0,0(s0)
     3a0:	16240006 	bne	s1,a0,3bc <get_cluster_ID+0x84>
     3a4:	3c020001 	lui	v0,0x1
     3a8:	8ca20004 	lw	v0,4(a1)
     3ac:	00000000 	nop
     3b0:	12420006 	beq	s2,v0,3cc <get_cluster_ID+0x94>
     3b4:	00001821 	move	v1,zero
     3b8:	3c020001 	lui	v0,0x1
     3bc:	3c032000 	lui	v1,0x2000
     3c0:	24429a6c 	addiu	v0,v0,-26004
     3c4:	ac620000 	sw	v0,0(v1)
     3c8:	2403ffff 	li	v1,-1
     3cc:	8fbf001c 	lw	ra,28(sp)
     3d0:	8fb20018 	lw	s2,24(sp)
     3d4:	8fb10014 	lw	s1,20(sp)
     3d8:	8fb00010 	lw	s0,16(sp)
     3dc:	00601021 	move	v0,v1
     3e0:	03e00008 	jr	ra
     3e4:	27bd0020 	addiu	sp,sp,32

000003e8 <main>:
     3e8:	27bdffe0 	addiu	sp,sp,-32
     3ec:	afb00010 	sw	s0,16(sp)
     3f0:	3c102000 	lui	s0,0x2000
     3f4:	36030410 	ori	v1,s0,0x410
     3f8:	24020001 	li	v0,1
     3fc:	afbf001c 	sw	ra,28(sp)
     400:	afb20018 	sw	s2,24(sp)
     404:	afb10014 	sw	s1,20(sp)
     408:	00002021 	move	a0,zero
     40c:	ac620000 	sw	v0,0(v1)
     410:	0c00009a 	jal	268 <ASM_SetInterruptEnable>
     414:	00000000 	nop
     418:	2404ffff 	li	a0,-1
     41c:	36020544 	ori	v0,s0,0x544
     420:	36030548 	ori	v1,s0,0x548
     424:	ac440000 	sw	a0,0(v0)
     428:	ac640000 	sw	a0,0(v1)
     42c:	36020300 	ori	v0,s0,0x300
     430:	36030140 	ori	v1,s0,0x140
     434:	8c460000 	lw	a2,0(v0)
     438:	3c050005 	lui	a1,0x5
     43c:	8c670000 	lw	a3,0(v1)
     440:	3c020000 	lui	v0,0x0
     444:	24a5b3a8 	addiu	a1,a1,-19544
     448:	2442031c 	addiu	v0,v0,796
     44c:	3c030005 	lui	v1,0x5
     450:	00e02021 	move	a0,a3
     454:	ac66a784 	sw	a2,-22652(v1)
     458:	aca20078 	sw	v0,120(a1)
     45c:	3c030005 	lui	v1,0x5
     460:	aca00080 	sw	zero,128(a1)
     464:	aca0007c 	sw	zero,124(a1)
     468:	3c120005 	lui	s2,0x5
     46c:	3c110005 	lui	s1,0x5
     470:	ae45a774 	sw	a1,-22668(s2)
     474:	ae27a770 	sw	a3,-22672(s1)
     478:	0c0008eb 	jal	23ac <set_net_address>
     47c:	ac60a768 	sw	zero,-22680(v1)
     480:	3c020001 	lui	v0,0x1
     484:	8e24a770 	lw	a0,-22672(s1)
     488:	24429a8c 	addiu	v0,v0,-25972
     48c:	ae020000 	sw	v0,0(s0)
     490:	0c000939 	jal	24e4 <itoh>
     494:	00000000 	nop
     498:	ae020000 	sw	v0,0(s0)
     49c:	3c020001 	lui	v0,0x1
     4a0:	2442a160 	addiu	v0,v0,-24224
     4a4:	ae020000 	sw	v0,0(s0)
     4a8:	0c000cfa 	jal	33e8 <init_communication>
     4ac:	00000000 	nop
     4b0:	0c000d0e 	jal	3438 <initFTStructs>
     4b4:	00000000 	nop
     4b8:	0c002178 	jal	85e0 <initSessions>
     4bc:	00000000 	nop
     4c0:	0c000a3c 	jal	28f0 <init_service_header_slots>
     4c4:	00000000 	nop
     4c8:	0c0012ac 	jal	4ab0 <init_task_location>
     4cc:	00000000 	nop
     4d0:	0c001296 	jal	4a58 <init_TCBs>
     4d4:	00000000 	nop
     4d8:	0c001cfc 	jal	73f0 <initialize_CM_FIFO>
     4dc:	00000000 	nop
     4e0:	0c0000b7 	jal	2dc <OS_InterruptMaskClear>
     4e4:	2404ffff 	li	a0,-1
     4e8:	0c0000bf 	jal	2fc <OS_InterruptMaskSet>
     4ec:	240400a9 	li	a0,169
     4f0:	8e44a774 	lw	a0,-22668(s2)
     4f4:	0c000074 	jal	1d0 <ASM_RunScheduledTask>
     4f8:	00000000 	nop
     4fc:	8fbf001c 	lw	ra,28(sp)
     500:	8fb20018 	lw	s2,24(sp)
     504:	8fb10014 	lw	s1,20(sp)
     508:	8fb00010 	lw	s0,16(sp)
     50c:	00001021 	move	v0,zero
     510:	03e00008 	jr	ra
     514:	27bd0020 	addiu	sp,sp,32

00000518 <send_task_allocated>:
     518:	27bdffe0 	addiu	sp,sp,-32
     51c:	afb20018 	sw	s2,24(sp)
     520:	afb10014 	sw	s1,20(sp)
     524:	afb00010 	sw	s0,16(sp)
     528:	afbf001c 	sw	ra,28(sp)
     52c:	8c830080 	lw	v1,128(a0)
     530:	8c850098 	lw	a1,152(a0)
     534:	00031103 	sra	v0,v1,0x4
     538:	304200f0 	andi	v0,v0,0xf0
     53c:	3063000f 	andi	v1,v1,0xf
     540:	00438825 	or	s1,v0,v1
     544:	24020001 	li	v0,1
     548:	00809021 	move	s2,a0
     54c:	3c102000 	lui	s0,0x2000
     550:	10a2000f 	beq	a1,v0,590 <send_task_allocated+0x78>
     554:	02202021 	move	a0,s1
     558:	0c0008ee 	jal	23b8 <get_net_address>
     55c:	00000000 	nop
     560:	3042ffff 	andi	v0,v0,0xffff
     564:	00112c00 	sll	a1,s1,0x10
     568:	8e460094 	lw	a2,148(s2)
     56c:	02203821 	move	a3,s1
     570:	8fbf001c 	lw	ra,28(sp)
     574:	8fb20018 	lw	s2,24(sp)
     578:	8fb10014 	lw	s1,20(sp)
     57c:	8fb00010 	lw	s0,16(sp)
     580:	00a22825 	or	a1,a1,v0
     584:	24040010 	li	a0,16
     588:	0800196b 	j	65ac <Seek>
     58c:	27bd0020 	addiu	sp,sp,32
     590:	3c020001 	lui	v0,0x1
     594:	24429aa0 	addiu	v0,v0,-25952
     598:	ae020000 	sw	v0,0(s0)
     59c:	0c000939 	jal	24e4 <itoh>
     5a0:	00000000 	nop
     5a4:	ae020000 	sw	v0,0(s0)
     5a8:	3c020001 	lui	v0,0x1
     5ac:	2442a160 	addiu	v0,v0,-24224
     5b0:	ae020000 	sw	v0,0(s0)
     5b4:	8e50009c 	lw	s0,156(s2)
     5b8:	00111400 	sll	v0,s1,0x10
     5bc:	00108600 	sll	s0,s0,0x18
     5c0:	0c0008ee 	jal	23b8 <get_net_address>
     5c4:	02028025 	or	s0,s0,v0
     5c8:	3042ffff 	andi	v0,v0,0xffff
     5cc:	8e460094 	lw	a2,148(s2)
     5d0:	02022825 	or	a1,s0,v0
     5d4:	02203821 	move	a3,s1
     5d8:	8fbf001c 	lw	ra,28(sp)
     5dc:	8fb20018 	lw	s2,24(sp)
     5e0:	8fb10014 	lw	s1,20(sp)
     5e4:	8fb00010 	lw	s0,16(sp)
     5e8:	24040010 	li	a0,16
     5ec:	0800196b 	j	65ac <Seek>
     5f0:	27bd0020 	addiu	sp,sp,32

000005f4 <SeekInterruptHandler>:
     5f4:	3c032000 	lui	v1,0x2000
     5f8:	27bdffc8 	addiu	sp,sp,-56
     5fc:	34640554 	ori	a0,v1,0x554
     600:	afbf0034 	sw	ra,52(sp)
     604:	afbe0030 	sw	s8,48(sp)
     608:	afb7002c 	sw	s7,44(sp)
     60c:	afb60028 	sw	s6,40(sp)
     610:	afb50024 	sw	s5,36(sp)
     614:	afb40020 	sw	s4,32(sp)
     618:	afb3001c 	sw	s3,28(sp)
     61c:	afb20018 	sw	s2,24(sp)
     620:	afb10014 	sw	s1,20(sp)
     624:	afb00010 	sw	s0,16(sp)
     628:	34650500 	ori	a1,v1,0x500
     62c:	ac800000 	sw	zero,0(a0)
     630:	24020001 	li	v0,1
     634:	8cb60000 	lw	s6,0(a1)
     638:	ac820000 	sw	v0,0(a0)
     63c:	24020002 	li	v0,2
     640:	8cb50000 	lw	s5,0(a1)
     644:	34670370 	ori	a3,v1,0x370
     648:	ac820000 	sw	v0,0(a0)
     64c:	34660394 	ori	a2,v1,0x394
     650:	34620380 	ori	v0,v1,0x380
     654:	34630390 	ori	v1,v1,0x390
     658:	8cb40000 	lw	s4,0(a1)
     65c:	8cd10000 	lw	s1,0(a2)
     660:	8c530000 	lw	s3,0(v0)
     664:	8c720000 	lw	s2,0(v1)
     668:	8ce70000 	lw	a3,0(a3)
     66c:	00000000 	nop
     670:	2ce2001f 	sltiu	v0,a3,31
     674:	10400016 	beqz	v0,6d0 <SeekInterruptHandler+0xdc>
     678:	3c030001 	lui	v1,0x1
     67c:	00071080 	sll	v0,a3,0x2
     680:	24639e3c 	addiu	v1,v1,-25028
     684:	00431021 	addu	v0,v0,v1
     688:	8c440000 	lw	a0,0(v0)
     68c:	00000000 	nop
     690:	00800008 	jr	a0
     694:	00000000 	nop
     698:	0c0011a3 	jal	468c <unblock_tasks_of_App>
     69c:	02202021 	move	a0,s1
     6a0:	0c0008ee 	jal	23b8 <get_net_address>
     6a4:	00000000 	nop
     6a8:	00408021 	move	s0,v0
     6ac:	0c0008ee 	jal	23b8 <get_net_address>
     6b0:	32100f00 	andi	s0,s0,0xf00
     6b4:	3c030005 	lui	v1,0x5
     6b8:	00108102 	srl	s0,s0,0x4
     6bc:	3042000f 	andi	v0,v0,0xf
     6c0:	8c64a68c 	lw	a0,-22900(v1)
     6c4:	02028021 	addu	s0,s0,v0
     6c8:	12040185 	beq	s0,a0,ce0 <SeekInterruptHandler+0x6ec>
     6cc:	02402821 	move	a1,s2
     6d0:	24160001 	li	s6,1
     6d4:	02c01021 	move	v0,s6
     6d8:	8fbf0034 	lw	ra,52(sp)
     6dc:	8fbe0030 	lw	s8,48(sp)
     6e0:	8fb7002c 	lw	s7,44(sp)
     6e4:	8fb60028 	lw	s6,40(sp)
     6e8:	8fb50024 	lw	s5,36(sp)
     6ec:	8fb40020 	lw	s4,32(sp)
     6f0:	8fb3001c 	lw	s3,28(sp)
     6f4:	8fb20018 	lw	s2,24(sp)
     6f8:	8fb10014 	lw	s1,20(sp)
     6fc:	8fb00010 	lw	s0,16(sp)
     700:	03e00008 	jr	ra
     704:	27bd0038 	addiu	sp,sp,56
     708:	3c030005 	lui	v1,0x5
     70c:	8c65a68c 	lw	a1,-22900(v1)
     710:	3c020001 	lui	v0,0x1
     714:	24429b4c 	addiu	v0,v0,-25780
     718:	3c032000 	lui	v1,0x2000
     71c:	2404ffff 	li	a0,-1
     720:	ac620000 	sw	v0,0(v1)
     724:	10a4ffea 	beq	a1,a0,6d0 <SeekInterruptHandler+0xdc>
     728:	02602021 	move	a0,s3
     72c:	02202821 	move	a1,s1
     730:	0c00258f 	jal	963c <Unset_Secure_Zone>
     734:	02403021 	move	a2,s2
     738:	080001b5 	j	6d4 <SeekInterruptHandler+0xe0>
     73c:	24160001 	li	s6,1
     740:	0c0008ee 	jal	23b8 <get_net_address>
     744:	3236000f 	andi	s6,s1,0xf
     748:	30420f00 	andi	v0,v0,0xf00
     74c:	0c0008ee 	jal	23b8 <get_net_address>
     750:	0002a202 	srl	s4,v0,0x8
     754:	322300f0 	andi	v1,s1,0xf0
     758:	00031902 	srl	v1,v1,0x4
     75c:	12830148 	beq	s4,v1,c80 <SeekInterruptHandler+0x68c>
     760:	3055000f 	andi	s5,v0,0xf
     764:	0074102b 	sltu	v0,v1,s4
     768:	1440ffd9 	bnez	v0,6d0 <SeekInterruptHandler+0xdc>
     76c:	00000000 	nop
     770:	326200f0 	andi	v0,s3,0xf0
     774:	00021102 	srl	v0,v0,0x4
     778:	0282102b 	sltu	v0,s4,v0
     77c:	1440ffd4 	bnez	v0,6d0 <SeekInterruptHandler+0xdc>
     780:	02d5102b 	sltu	v0,s6,s5
     784:	1440ffd2 	bnez	v0,6d0 <SeekInterruptHandler+0xdc>
     788:	3262000f 	andi	v0,s3,0xf
     78c:	02a2102b 	sltu	v0,s5,v0
     790:	1440ffd0 	bnez	v0,6d4 <SeekInterruptHandler+0xe0>
     794:	24160001 	li	s6,1
     798:	3c020001 	lui	v0,0x1
     79c:	3245ffff 	andi	a1,s2,0xffff
     7a0:	3c102000 	lui	s0,0x2000
     7a4:	3c030005 	lui	v1,0x5
     7a8:	24429b74 	addiu	v0,v0,-25740
     7ac:	ac65a75c 	sw	a1,-22692(v1)
     7b0:	00a02021 	move	a0,a1
     7b4:	ae020000 	sw	v0,0(s0)
     7b8:	0c000939 	jal	24e4 <itoh>
     7bc:	00000000 	nop
     7c0:	ae020000 	sw	v0,0(s0)
     7c4:	3c020001 	lui	v0,0x1
     7c8:	2442a160 	addiu	v0,v0,-24224
     7cc:	24160001 	li	s6,1
     7d0:	ae020000 	sw	v0,0(s0)
     7d4:	080001b6 	j	6d8 <SeekInterruptHandler+0xe4>
     7d8:	02c01021 	move	v0,s6
     7dc:	3c110001 	lui	s1,0x1
     7e0:	3c020001 	lui	v0,0x1
     7e4:	3c102000 	lui	s0,0x2000
     7e8:	2631a160 	addiu	s1,s1,-24224
     7ec:	24429bdc 	addiu	v0,v0,-25636
     7f0:	02602021 	move	a0,s3
     7f4:	ae020000 	sw	v0,0(s0)
     7f8:	ae110000 	sw	s1,0(s0)
     7fc:	0c00122d 	jal	48b4 <unfreeze_tasks_of_App>
     800:	00000000 	nop
     804:	00402021 	move	a0,v0
     808:	0040b021 	move	s6,v0
     80c:	3c020001 	lui	v0,0x1
     810:	24429bfc 	addiu	v0,v0,-25604
     814:	ae020000 	sw	v0,0(s0)
     818:	0c000939 	jal	24e4 <itoh>
     81c:	00000000 	nop
     820:	ae020000 	sw	v0,0(s0)
     824:	ae110000 	sw	s1,0(s0)
     828:	080001b6 	j	6d8 <SeekInterruptHandler+0xe4>
     82c:	02c01021 	move	v0,s6
     830:	3c142000 	lui	s4,0x2000
     834:	36820300 	ori	v0,s4,0x300
     838:	8c440000 	lw	a0,0(v0)
     83c:	0c0008f2 	jal	23c8 <itoa>
     840:	00000000 	nop
     844:	ae820000 	sw	v0,0(s4)
     848:	3c030001 	lui	v1,0x1
     84c:	3c020001 	lui	v0,0x1
     850:	2475a160 	addiu	s5,v1,-24224
     854:	24429b90 	addiu	v0,v0,-25712
     858:	ae950000 	sw	s5,0(s4)
     85c:	02602021 	move	a0,s3
     860:	ae820000 	sw	v0,0(s4)
     864:	ae950000 	sw	s5,0(s4)
     868:	0c00123a 	jal	48e8 <freeze_tasks_of_App>
     86c:	00000000 	nop
     870:	02603021 	move	a2,s3
     874:	24040003 	li	a0,3
     878:	02402821 	move	a1,s2
     87c:	02203821 	move	a3,s1
     880:	0c00196b 	jal	65ac <Seek>
     884:	0040b021 	move	s6,v0
     888:	00111100 	sll	v0,s1,0x4
     88c:	30420f00 	andi	v0,v0,0xf00
     890:	3223000f 	andi	v1,s1,0xf
     894:	0c0008ee 	jal	23b8 <get_net_address>
     898:	00438025 	or	s0,v0,v1
     89c:	12020125 	beq	s0,v0,d34 <SeekInterruptHandler+0x740>
     8a0:	02002021 	move	a0,s0
     8a4:	3c020001 	lui	v0,0x1
     8a8:	24429bcc 	addiu	v0,v0,-25652
     8ac:	02c02021 	move	a0,s6
     8b0:	ae820000 	sw	v0,0(s4)
     8b4:	0c000939 	jal	24e4 <itoh>
     8b8:	00000000 	nop
     8bc:	ae820000 	sw	v0,0(s4)
     8c0:	ae950000 	sw	s5,0(s4)
     8c4:	080001b6 	j	6d8 <SeekInterruptHandler+0xe4>
     8c8:	02c01021 	move	v0,s6
     8cc:	0c0008ee 	jal	23b8 <get_net_address>
     8d0:	3c140005 	lui	s4,0x5
     8d4:	00408021 	move	s0,v0
     8d8:	0c0008ee 	jal	23b8 <get_net_address>
     8dc:	32100f00 	andi	s0,s0,0xf00
     8e0:	00108102 	srl	s0,s0,0x4
     8e4:	3042000f 	andi	v0,v0,0xf
     8e8:	8e83a68c 	lw	v1,-22900(s4)
     8ec:	02028021 	addu	s0,s0,v0
     8f0:	12030101 	beq	s0,v1,cf8 <SeekInterruptHandler+0x704>
     8f4:	24040003 	li	a0,3
     8f8:	3c030005 	lui	v1,0x5
     8fc:	8c62f1b4 	lw	v0,-3660(v1)
     900:	00000000 	nop
     904:	00021203 	sra	v0,v0,0x8
     908:	12620101 	beq	s3,v0,d10 <SeekInterruptHandler+0x71c>
     90c:	3c022000 	lui	v0,0x2000
     910:	0c0011b6 	jal	46d8 <clear_all_memory_areas>
     914:	02602021 	move	a0,s3
     918:	8e82a68c 	lw	v0,-22900(s4)
     91c:	00000000 	nop
     920:	122200eb 	beq	s1,v0,cd0 <SeekInterruptHandler+0x6dc>
     924:	3c022000 	lui	v0,0x2000
     928:	0c0008ee 	jal	23b8 <get_net_address>
     92c:	00000000 	nop
     930:	00111900 	sll	v1,s1,0x4
     934:	30630f00 	andi	v1,v1,0xf00
     938:	3224000f 	andi	a0,s1,0xf
     93c:	00641825 	or	v1,v1,a0
     940:	1462ff64 	bne	v1,v0,6d4 <SeekInterruptHandler+0xe0>
     944:	24160001 	li	s6,1
     948:	0c0008ee 	jal	23b8 <get_net_address>
     94c:	00000000 	nop
     950:	00402821 	move	a1,v0
     954:	02403021 	move	a2,s2
     958:	02603821 	move	a3,s3
     95c:	0c00196b 	jal	65ac <Seek>
     960:	2404000c 	li	a0,12
     964:	080001b6 	j	6d8 <SeekInterruptHandler+0xe4>
     968:	02c01021 	move	v0,s6
     96c:	3c020001 	lui	v0,0x1
     970:	3c032000 	lui	v1,0x2000
     974:	24429b20 	addiu	v0,v0,-25824
     978:	02803021 	move	a2,s4
     97c:	02c02021 	move	a0,s6
     980:	02a02821 	move	a1,s5
     984:	ac620000 	sw	v0,0(v1)
     988:	0c001990 	jal	6640 <ProcessTurns>
     98c:	3c1e0005 	lui	s8,0x5
     990:	00022080 	sll	a0,v0,0x2
     994:	00021900 	sll	v1,v0,0x4
     998:	00641823 	subu	v1,v1,a0
     99c:	00032980 	sll	a1,v1,0x6
     9a0:	00651821 	addu	v1,v1,a1
     9a4:	27d1f2c4 	addiu	s1,s8,-3388
     9a8:	00711821 	addu	v1,v1,s1
     9ac:	8c700084 	lw	s0,132(v1)
     9b0:	3c170005 	lui	s7,0x5
     9b4:	0c0008ee 	jal	23b8 <get_net_address>
     9b8:	aee2a778 	sw	v0,-22664(s7)
     9bc:	3042ffff 	andi	v0,v0,0xffff
     9c0:	00108400 	sll	s0,s0,0x10
     9c4:	02022825 	or	a1,s0,v0
     9c8:	00003021 	move	a2,zero
     9cc:	00003821 	move	a3,zero
     9d0:	0c00196b 	jal	65ac <Seek>
     9d4:	24040003 	li	a0,3
     9d8:	8ee3a778 	lw	v1,-22664(s7)
     9dc:	00000000 	nop
     9e0:	00031100 	sll	v0,v1,0x4
     9e4:	00031880 	sll	v1,v1,0x2
     9e8:	00431023 	subu	v0,v0,v1
     9ec:	00022180 	sll	a0,v0,0x6
     9f0:	00441021 	addu	v0,v0,a0
     9f4:	00511021 	addu	v0,v0,s1
     9f8:	8c440084 	lw	a0,132(v0)
     9fc:	0c0010a0 	jal	4280 <resend_messages>
     a00:	00000000 	nop
     a04:	8ee3a778 	lw	v1,-22664(s7)
     a08:	00408021 	move	s0,v0
     a0c:	00031100 	sll	v0,v1,0x4
     a10:	00031880 	sll	v1,v1,0x2
     a14:	00431023 	subu	v0,v0,v1
     a18:	00022180 	sll	a0,v0,0x6
     a1c:	00441021 	addu	v0,v0,a0
     a20:	00511021 	addu	v0,v0,s1
     a24:	8c440084 	lw	a0,132(v0)
     a28:	0c0010d7 	jal	435c <resend_msg_request>
     a2c:	00000000 	nop
     a30:	00501021 	addu	v0,v0,s0
     a34:	1440ff26 	bnez	v0,6d0 <SeekInterruptHandler+0xdc>
     a38:	00000000 	nop
     a3c:	0c001cd1 	jal	7344 <search_Target>
     a40:	00122402 	srl	a0,s2,0x10
     a44:	24040015 	li	a0,21
     a48:	0c001bd2 	jal	6f48 <search_Service>
     a4c:	00408021 	move	s0,v0
     a50:	120200ce 	beq	s0,v0,d8c <SeekInterruptHandler+0x798>
     a54:	2402ffff 	li	v0,-1
     a58:	0c001bd2 	jal	6f48 <search_Service>
     a5c:	24040025 	li	a0,37
     a60:	120200ca 	beq	s0,v0,d8c <SeekInterruptHandler+0x798>
     a64:	2402ffff 	li	v0,-1
     a68:	8ee3a778 	lw	v1,-22664(s7)
     a6c:	27c5f2c4 	addiu	a1,s8,-3388
     a70:	00031100 	sll	v0,v1,0x4
     a74:	00031880 	sll	v1,v1,0x2
     a78:	00431023 	subu	v0,v0,v1
     a7c:	00022180 	sll	a0,v0,0x6
     a80:	00441021 	addu	v0,v0,a0
     a84:	00451021 	addu	v0,v0,a1
     a88:	8c470084 	lw	a3,132(v0)
     a8c:	02c02021 	move	a0,s6
     a90:	02a02821 	move	a1,s5
     a94:	0c001d3c 	jal	74f0 <resend_control_message>
     a98:	02803021 	move	a2,s4
     a9c:	1440ff0d 	bnez	v0,6d4 <SeekInterruptHandler+0xe0>
     aa0:	24160001 	li	s6,1
     aa4:	0c0008ee 	jal	23b8 <get_net_address>
     aa8:	00000000 	nop
     aac:	0c000aad 	jal	2ab4 <find_io_peripheral>
     ab0:	00402021 	move	a0,v0
     ab4:	1040ff06 	beqz	v0,6d0 <SeekInterruptHandler+0xdc>
     ab8:	00402821 	move	a1,v0
     abc:	3c020005 	lui	v0,0x5
     ac0:	8c44a778 	lw	a0,-22664(v0)
     ac4:	3c020001 	lui	v0,0x1
     ac8:	24429b3c 	addiu	v0,v0,-25796
     acc:	3c032000 	lui	v1,0x2000
     ad0:	02603021 	move	a2,s3
     ad4:	ac620000 	sw	v0,0(v1)
     ad8:	0c000fb8 	jal	3ee0 <send_peripheral_SR_path>
     adc:	24160001 	li	s6,1
     ae0:	080001b6 	j	6d8 <SeekInterruptHandler+0xe4>
     ae4:	02c01021 	move	v0,s6
     ae8:	02602021 	move	a0,s3
     aec:	02202821 	move	a1,s1
     af0:	0c002629 	jal	98a4 <Set_Secure_Zone>
     af4:	02403021 	move	a2,s2
     af8:	080001b5 	j	6d4 <SeekInterruptHandler+0xe0>
     afc:	24160001 	li	s6,1
     b00:	3c020001 	lui	v0,0x1
     b04:	3c030001 	lui	v1,0x1
     b08:	3c102000 	lui	s0,0x2000
     b0c:	24639ae0 	addiu	v1,v1,-25888
     b10:	24429ab8 	addiu	v0,v0,-25928
     b14:	02402021 	move	a0,s2
     b18:	ae020000 	sw	v0,0(s0)
     b1c:	ae030000 	sw	v1,0(s0)
     b20:	0c000939 	jal	24e4 <itoh>
     b24:	00000000 	nop
     b28:	ae020000 	sw	v0,0(s0)
     b2c:	3c030001 	lui	v1,0x1
     b30:	3c020001 	lui	v0,0x1
     b34:	2474a160 	addiu	s4,v1,-24224
     b38:	24429aec 	addiu	v0,v0,-25876
     b3c:	02602021 	move	a0,s3
     b40:	ae140000 	sw	s4,0(s0)
     b44:	ae020000 	sw	v0,0(s0)
     b48:	0c000939 	jal	24e4 <itoh>
     b4c:	00000000 	nop
     b50:	ae020000 	sw	v0,0(s0)
     b54:	3c020001 	lui	v0,0x1
     b58:	24429af8 	addiu	v0,v0,-25864
     b5c:	ae140000 	sw	s4,0(s0)
     b60:	02202021 	move	a0,s1
     b64:	3c150005 	lui	s5,0x5
     b68:	ae020000 	sw	v0,0(s0)
     b6c:	0c000939 	jal	24e4 <itoh>
     b70:	00000000 	nop
     b74:	8ea3a684 	lw	v1,-22908(s5)
     b78:	ae020000 	sw	v0,0(s0)
     b7c:	ae140000 	sw	s4,0(s0)
     b80:	12230039 	beq	s1,v1,c68 <SeekInterruptHandler+0x674>
     b84:	02402021 	move	a0,s2
     b88:	3c020001 	lui	v0,0x1
     b8c:	24429b14 	addiu	v0,v0,-25836
     b90:	ae020000 	sw	v0,0(s0)
     b94:	0c000939 	jal	24e4 <itoh>
     b98:	00129c02 	srl	s3,s2,0x10
     b9c:	02602021 	move	a0,s3
     ba0:	ae020000 	sw	v0,0(s0)
     ba4:	ae140000 	sw	s4,0(s0)
     ba8:	0c0018c9 	jal	6324 <GetFreeSlotSourceRouting>
     bac:	2414ffff 	li	s4,-1
     bb0:	00402021 	move	a0,v0
     bb4:	3c020005 	lui	v0,0x5
     bb8:	1094000c 	beq	a0,s4,bec <SeekInterruptHandler+0x5f8>
     bbc:	ac44a778 	sw	a0,-22664(v0)
     bc0:	00041080 	sll	v0,a0,0x2
     bc4:	00041900 	sll	v1,a0,0x4
     bc8:	00621823 	subu	v1,v1,v0
     bcc:	00032180 	sll	a0,v1,0x6
     bd0:	3c020005 	lui	v0,0x5
     bd4:	00641821 	addu	v1,v1,a0
     bd8:	2442f2c4 	addiu	v0,v0,-3388
     bdc:	00621821 	addu	v1,v1,v0
     be0:	24040001 	li	a0,1
     be4:	ac640080 	sw	a0,128(v1)
     be8:	ac730084 	sw	s3,132(v1)
     bec:	3c120005 	lui	s2,0x5
     bf0:	8e42a7c0 	lw	v0,-22592(s2)
     bf4:	00000000 	nop
     bf8:	1262006a 	beq	s3,v0,da4 <SeekInterruptHandler+0x7b0>
     bfc:	26620001 	addiu	v0,s3,1
     c00:	0c001cd1 	jal	7344 <search_Target>
     c04:	02602021 	move	a0,s3
     c08:	24040015 	li	a0,21
     c0c:	0c001bd2 	jal	6f48 <search_Service>
     c10:	00408021 	move	s0,v0
     c14:	12020057 	beq	s0,v0,d74 <SeekInterruptHandler+0x780>
     c18:	00000000 	nop
     c1c:	0c001bd2 	jal	6f48 <search_Service>
     c20:	24040025 	li	a0,37
     c24:	12020053 	beq	s0,v0,d74 <SeekInterruptHandler+0x780>
     c28:	00000000 	nop
     c2c:	8e50a7c0 	lw	s0,-22592(s2)
     c30:	0c0008ee 	jal	23b8 <get_net_address>
     c34:	00108400 	sll	s0,s0,0x10
     c38:	3042ffff 	andi	v0,v0,0xffff
     c3c:	02022825 	or	a1,s0,v0
     c40:	02603021 	move	a2,s3
     c44:	24040005 	li	a0,5
     c48:	0c00196b 	jal	65ac <Seek>
     c4c:	00003821 	move	a3,zero
     c50:	8e42a7c0 	lw	v0,-22592(s2)
     c54:	24160001 	li	s6,1
     c58:	24420001 	addiu	v0,v0,1
     c5c:	aeb1a684 	sw	s1,-22908(s5)
     c60:	080001b5 	j	6d4 <SeekInterruptHandler+0xe0>
     c64:	ae42a7c0 	sw	v0,-22592(s2)
     c68:	3c020001 	lui	v0,0x1
     c6c:	24429b04 	addiu	v0,v0,-25852
     c70:	24160001 	li	s6,1
     c74:	ae020000 	sw	v0,0(s0)
     c78:	080001b6 	j	6d8 <SeekInterruptHandler+0xe4>
     c7c:	02c01021 	move	v0,s6
     c80:	16b6febb 	bne	s5,s6,770 <SeekInterruptHandler+0x17c>
     c84:	3c020001 	lui	v0,0x1
     c88:	3c102000 	lui	s0,0x2000
     c8c:	24429b6c 	addiu	v0,v0,-25748
     c90:	02202021 	move	a0,s1
     c94:	ae020000 	sw	v0,0(s0)
     c98:	0c000939 	jal	24e4 <itoh>
     c9c:	00000000 	nop
     ca0:	ae020000 	sw	v0,0(s0)
     ca4:	3c020001 	lui	v0,0x1
     ca8:	2442a160 	addiu	v0,v0,-24224
     cac:	24040003 	li	a0,3
     cb0:	02402821 	move	a1,s2
     cb4:	02403021 	move	a2,s2
     cb8:	00003821 	move	a3,zero
     cbc:	ae020000 	sw	v0,0(s0)
     cc0:	0c00196b 	jal	65ac <Seek>
     cc4:	00000000 	nop
     cc8:	080001dd 	j	774 <SeekInterruptHandler+0x180>
     ccc:	326200f0 	andi	v0,s3,0xf0
     cd0:	34420540 	ori	v0,v0,0x540
     cd4:	ac400000 	sw	zero,0(v0)
     cd8:	0800024a 	j	928 <SeekInterruptHandler+0x334>
     cdc:	00000000 	nop
     ce0:	02203821 	move	a3,s1
     ce4:	24040003 	li	a0,3
     ce8:	0c00196b 	jal	65ac <Seek>
     cec:	02403021 	move	a2,s2
     cf0:	080001b5 	j	6d4 <SeekInterruptHandler+0xe0>
     cf4:	24160001 	li	s6,1
     cf8:	02402821 	move	a1,s2
     cfc:	02403021 	move	a2,s2
     d00:	0c00196b 	jal	65ac <Seek>
     d04:	02203821 	move	a3,s1
     d08:	0800023f 	j	8fc <SeekInterruptHandler+0x308>
     d0c:	3c030005 	lui	v1,0x5
     d10:	34420540 	ori	v0,v0,0x540
     d14:	ac400000 	sw	zero,0(v0)
     d18:	0c001918 	jal	6460 <ClearAllSourceRouting>
     d1c:	00000000 	nop
     d20:	3c030005 	lui	v1,0x5
     d24:	2402ffff 	li	v0,-1
     d28:	ac60a824 	sw	zero,-22492(v1)
     d2c:	08000244 	j	910 <SeekInterruptHandler+0x31c>
     d30:	ae82a68c 	sw	v0,-22900(s4)
     d34:	3c020001 	lui	v0,0x1
     d38:	24429bb0 	addiu	v0,v0,-25680
     d3c:	ae820000 	sw	v0,0(s4)
     d40:	0c000939 	jal	24e4 <itoh>
     d44:	00000000 	nop
     d48:	ae820000 	sw	v0,0(s4)
     d4c:	ae950000 	sw	s5,0(s4)
     d50:	0c0008ee 	jal	23b8 <get_net_address>
     d54:	00000000 	nop
     d58:	00402821 	move	a1,v0
     d5c:	02403021 	move	a2,s2
     d60:	02003821 	move	a3,s0
     d64:	0c00196b 	jal	65ac <Seek>
     d68:	2404001f 	li	a0,31
     d6c:	0800022a 	j	8a8 <SeekInterruptHandler+0x2b4>
     d70:	3c020001 	lui	v0,0x1
     d74:	1214ffad 	beq	s0,s4,c2c <SeekInterruptHandler+0x638>
     d78:	00000000 	nop
     d7c:	0c0023aa 	jal	8ea8 <send_wrapper_close_back__open_forward>
     d80:	02002021 	move	a0,s0
     d84:	0800030b 	j	c2c <SeekInterruptHandler+0x638>
     d88:	00000000 	nop
     d8c:	1202ff36 	beq	s0,v0,a68 <SeekInterruptHandler+0x474>
     d90:	00000000 	nop
     d94:	0c002364 	jal	8d90 <send_wrapper_close_forward>
     d98:	02002021 	move	a0,s0
     d9c:	0800029a 	j	a68 <SeekInterruptHandler+0x474>
     da0:	00000000 	nop
     da4:	08000300 	j	c00 <SeekInterruptHandler+0x60c>
     da8:	ae42a7c0 	sw	v0,-22592(s2)

00000dac <Scheduler>:
     dac:	27bdffe0 	addiu	sp,sp,-32
     db0:	afb10014 	sw	s1,20(sp)
     db4:	afbf0018 	sw	ra,24(sp)
     db8:	afb00010 	sw	s0,16(sp)
     dbc:	3c062000 	lui	a2,0x2000
     dc0:	3c110005 	lui	s1,0x5
     dc4:	34c30300 	ori	v1,a2,0x300
     dc8:	3c020004 	lui	v0,0x4
     dcc:	8e25a774 	lw	a1,-22668(s1)
     dd0:	34c40270 	ori	a0,a2,0x270
     dd4:	8c700000 	lw	s0,0(v1)
     dd8:	ac820000 	sw	v0,0(a0)
     ddc:	8ca30090 	lw	v1,144(a1)
     de0:	2402ffff 	li	v0,-1
     de4:	10620007 	beq	v1,v0,e04 <Scheduler+0x58>
     de8:	00000000 	nop
     dec:	8ca200a0 	lw	v0,160(a1)
     df0:	00000000 	nop
     df4:	8c430000 	lw	v1,0(v0)
     df8:	24020002 	li	v0,2
     dfc:	1062002b 	beq	v1,v0,eac <Scheduler+0x100>
     e00:	00a02021 	move	a0,a1
     e04:	0c0017e9 	jal	5fa4 <LST>
     e08:	02002021 	move	a0,s0
     e0c:	00401821 	move	v1,v0
     e10:	3c022000 	lui	v0,0x2000
     e14:	34440300 	ori	a0,v0,0x300
     e18:	10600011 	beqz	v1,e60 <Scheduler+0xb4>
     e1c:	34450270 	ori	a1,v0,0x270
     e20:	8c620024 	lw	v0,36(v1)
     e24:	00000000 	nop
     e28:	8c440080 	lw	a0,128(v0)
     e2c:	ae22a774 	sw	v0,-22668(s1)
     e30:	aca40000 	sw	a0,0(a1)
     e34:	0c0016eb 	jal	5bac <get_time_slice>
     e38:	00000000 	nop
     e3c:	3c032000 	lui	v1,0x2000
     e40:	34630060 	ori	v1,v1,0x60
     e44:	ac620000 	sw	v0,0(v1)
     e48:	8fbf0018 	lw	ra,24(sp)
     e4c:	8fb10014 	lw	s1,20(sp)
     e50:	8fb00010 	lw	s0,16(sp)
     e54:	24040008 	li	a0,8
     e58:	080000bf 	j	2fc <OS_InterruptMaskSet>
     e5c:	27bd0020 	addiu	sp,sp,32
     e60:	3c020005 	lui	v0,0x5
     e64:	8c840000 	lw	a0,0(a0)
     e68:	2442b3a8 	addiu	v0,v0,-19544
     e6c:	ae22a774 	sw	v0,-22668(s1)
     e70:	3c030005 	lui	v1,0x5
     e74:	3c020008 	lui	v0,0x8
     e78:	ac64a784 	sw	a0,-22652(v1)
     e7c:	aca20000 	sw	v0,0(a1)
     e80:	0c0016eb 	jal	5bac <get_time_slice>
     e84:	00000000 	nop
     e88:	3c032000 	lui	v1,0x2000
     e8c:	34630060 	ori	v1,v1,0x60
     e90:	ac620000 	sw	v0,0(v1)
     e94:	8fbf0018 	lw	ra,24(sp)
     e98:	8fb10014 	lw	s1,20(sp)
     e9c:	8fb00010 	lw	s0,16(sp)
     ea0:	24040008 	li	a0,8
     ea4:	080000bf 	j	2fc <OS_InterruptMaskSet>
     ea8:	27bd0020 	addiu	sp,sp,32
     eac:	3c020001 	lui	v0,0x1
     eb0:	24429c10 	addiu	v0,v0,-25584
     eb4:	acc20000 	sw	v0,0(a2)
     eb8:	0c001546 	jal	5518 <migrate_dynamic_memory>
     ebc:	00000000 	nop
     ec0:	08000381 	j	e04 <Scheduler+0x58>
     ec4:	00000000 	nop

00000ec8 <handle_packet>:
     ec8:	3c030001 	lui	v1,0x1
     ecc:	27bdff50 	addiu	sp,sp,-176
     ed0:	24629edc 	addiu	v0,v1,-24868
     ed4:	afb40098 	sw	s4,152(sp)
     ed8:	afbf00ac 	sw	ra,172(sp)
     edc:	0080a021 	move	s4,a0
     ee0:	afbe00a8 	sw	s8,168(sp)
     ee4:	88649edc 	lwl	a0,-24868(v1)
     ee8:	afb700a4 	sw	s7,164(sp)
     eec:	afb600a0 	sw	s6,160(sp)
     ef0:	afb5009c 	sw	s5,156(sp)
     ef4:	afb30094 	sw	s3,148(sp)
     ef8:	afb20090 	sw	s2,144(sp)
     efc:	afb1008c 	sw	s1,140(sp)
     f00:	afb00088 	sw	s0,136(sp)
     f04:	88450004 	lwl	a1,4(v0)
     f08:	88460008 	lwl	a2,8(v0)
     f0c:	8847000c 	lwl	a3,12(v0)
     f10:	8e880084 	lw	t0,132(s4)
     f14:	98440003 	lwr	a0,3(v0)
     f18:	9847000f 	lwr	a3,15(v0)
     f1c:	98450007 	lwr	a1,7(v0)
     f20:	9846000b 	lwr	a2,11(v0)
     f24:	2d030228 	sltiu	v1,t0,552
     f28:	afa40018 	sw	a0,24(sp)
     f2c:	afa5001c 	sw	a1,28(sp)
     f30:	afa60020 	sw	a2,32(sp)
     f34:	10600016 	beqz	v1,f90 <handle_packet+0xc8>
     f38:	afa70024 	sw	a3,36(sp)
     f3c:	2d020220 	sltiu	v0,t0,544
     f40:	1440006f 	bnez	v0,1100 <handle_packet+0x238>
     f44:	24020026 	li	v0,38
     f48:	3c020005 	lui	v0,0x5
     f4c:	8c45a75c 	lw	a1,-22692(v0)
     f50:	0c001681 	jal	5a04 <handle_migration>
     f54:	02802021 	move	a0,s4
     f58:	00409821 	move	s3,v0
     f5c:	02601021 	move	v0,s3
     f60:	8fbf00ac 	lw	ra,172(sp)
     f64:	8fbe00a8 	lw	s8,168(sp)
     f68:	8fb700a4 	lw	s7,164(sp)
     f6c:	8fb600a0 	lw	s6,160(sp)
     f70:	8fb5009c 	lw	s5,156(sp)
     f74:	8fb40098 	lw	s4,152(sp)
     f78:	8fb30094 	lw	s3,148(sp)
     f7c:	8fb20090 	lw	s2,144(sp)
     f80:	8fb1008c 	lw	s1,140(sp)
     f84:	8fb00088 	lw	s0,136(sp)
     f88:	03e00008 	jr	ra
     f8c:	27bd00b0 	addiu	sp,sp,176
     f90:	24020245 	li	v0,581
     f94:	110200c9 	beq	t0,v0,12bc <handle_packet+0x3f4>
     f98:	3c110001 	lui	s1,0x1
     f9c:	2d020246 	sltiu	v0,t0,582
     fa0:	1440007e 	bnez	v0,119c <handle_packet+0x2d4>
     fa4:	24020230 	li	v0,560
     fa8:	24020255 	li	v0,597
     fac:	11020144 	beq	t0,v0,14c0 <handle_packet+0x5f8>
     fb0:	3c020001 	lui	v0,0x1
     fb4:	24020295 	li	v0,661
     fb8:	1102019c 	beq	t0,v0,162c <handle_packet+0x764>
     fbc:	3c020001 	lui	v0,0x1
     fc0:	24020250 	li	v0,592
     fc4:	15020079 	bne	t0,v0,11ac <handle_packet+0x2e4>
     fc8:	3c020001 	lui	v0,0x1
     fcc:	8e840088 	lw	a0,136(s4)
     fd0:	0c001181 	jal	4604 <searchTCB>
     fd4:	00000000 	nop
     fd8:	10400208 	beqz	v0,17fc <handle_packet+0x934>
     fdc:	00409021 	move	s2,v0
     fe0:	0000b021 	move	s6,zero
     fe4:	3c020001 	lui	v0,0x1
     fe8:	3c102000 	lui	s0,0x2000
     fec:	24429c80 	addiu	v0,v0,-25472
     ff0:	ae020000 	sw	v0,0(s0)
     ff4:	8e440080 	lw	a0,128(s2)
     ff8:	0c0008f2 	jal	23c8 <itoa>
     ffc:	00000000 	nop
    1000:	ae020000 	sw	v0,0(s0)
    1004:	3c020001 	lui	v0,0x1
    1008:	24429cb8 	addiu	v0,v0,-25416
    100c:	36030300 	ori	v1,s0,0x300
    1010:	ae020000 	sw	v0,0(s0)
    1014:	8c640000 	lw	a0,0(v1)
    1018:	0c0008f2 	jal	23c8 <itoa>
    101c:	00000000 	nop
    1020:	3c030001 	lui	v1,0x1
    1024:	2475a160 	addiu	s5,v1,-24224
    1028:	ae020000 	sw	v0,0(s0)
    102c:	ae150000 	sw	s5,0(s0)
    1030:	8e910088 	lw	s1,136(s4)
    1034:	8e8200a0 	lw	v0,160(s4)
    1038:	00000000 	nop
    103c:	ae420088 	sw	v0,136(s2)
    1040:	8e8300a8 	lw	v1,168(s4)
    1044:	00000000 	nop
    1048:	ae43008c 	sw	v1,140(s2)
    104c:	8e8200a4 	lw	v0,164(s4)
    1050:	00000000 	nop
    1054:	104001c1 	beqz	v0,175c <handle_packet+0x894>
    1058:	24020001 	li	v0,1
    105c:	ae420098 	sw	v0,152(s2)
    1060:	8e85009c 	lw	a1,156(s4)
    1064:	27b00058 	addiu	s0,sp,88
    1068:	0c000a42 	jal	2908 <DMNI_read_data>
    106c:	02002021 	move	a0,s0
    1070:	8e440080 	lw	a0,128(s2)
    1074:	0c0012b8 	jal	4ae0 <get_task_location>
    1078:	00000000 	nop
    107c:	2403ffff 	li	v1,-1
    1080:	104301bc 	beq	v0,v1,1774 <handle_packet+0x8ac>
    1084:	00000000 	nop
    1088:	3c020005 	lui	v0,0x5
    108c:	8c44a774 	lw	a0,-22668(v0)
    1090:	3c030005 	lui	v1,0x5
    1094:	2463b3a8 	addiu	v1,v1,-19544
    1098:	00832023 	subu	a0,a0,v1
    109c:	16c0ffaf 	bnez	s6,f5c <handle_packet+0x94>
    10a0:	2c930001 	sltiu	s3,a0,1
    10a4:	8e420084 	lw	v0,132(s2)
    10a8:	8e430088 	lw	v1,136(s2)
    10ac:	8e440098 	lw	a0,152(s2)
    10b0:	00431023 	subu	v0,v0,v1
    10b4:	24030001 	li	v1,1
    10b8:	108301bf 	beq	a0,v1,17b8 <handle_packet+0x8f0>
    10bc:	ae420084 	sw	v0,132(s2)
    10c0:	8e4200a0 	lw	v0,160(s2)
    10c4:	00000000 	nop
    10c8:	ac400000 	sw	zero,0(v0)
    10cc:	0c000146 	jal	518 <send_task_allocated>
    10d0:	02402021 	move	a0,s2
    10d4:	3c020001 	lui	v0,0x1
    10d8:	3c102000 	lui	s0,0x2000
    10dc:	24429cc8 	addiu	v0,v0,-25400
    10e0:	ae020000 	sw	v0,0(s0)
    10e4:	8e440080 	lw	a0,128(s2)
    10e8:	0c0008f2 	jal	23c8 <itoa>
    10ec:	00000000 	nop
    10f0:	ae020000 	sw	v0,0(s0)
    10f4:	ae150000 	sw	s5,0(s0)
    10f8:	080003d8 	j	f60 <handle_packet+0x98>
    10fc:	02601021 	move	v0,s3
    1100:	11020087 	beq	t0,v0,1320 <handle_packet+0x458>
    1104:	2d020027 	sltiu	v0,t0,39
    1108:	1040009b 	beqz	v0,1378 <handle_packet+0x4b0>
    110c:	24020170 	li	v0,368
    1110:	24020020 	li	v0,32
    1114:	11020115 	beq	t0,v0,156c <handle_packet+0x6a4>
    1118:	24020025 	li	v0,37
    111c:	1102010f 	beq	t0,v0,155c <handle_packet+0x694>
    1120:	24020010 	li	v0,16
    1124:	15020021 	bne	t0,v0,11ac <handle_packet+0x2e4>
    1128:	3c020001 	lui	v0,0x1
    112c:	3c022000 	lui	v0,0x2000
    1130:	34420300 	ori	v0,v0,0x300
    1134:	8c430000 	lw	v1,0(v0)
    1138:	8e840088 	lw	a0,136(s4)
    113c:	8e85008c 	lw	a1,140(s4)
    1140:	3c020005 	lui	v0,0x5
    1144:	0c000dfa 	jal	37e8 <remove_PIPE>
    1148:	ac43a754 	sw	v1,-22700(v0)
    114c:	104001bf 	beqz	v0,184c <handle_packet+0x984>
    1150:	00408021 	move	s0,v0
    1154:	3c020005 	lui	v0,0x5
    1158:	8c44a770 	lw	a0,-22672(v0)
    115c:	8e83009c 	lw	v1,156(s4)
    1160:	00000000 	nop
    1164:	10640198 	beq	v1,a0,17c8 <handle_packet+0x900>
    1168:	00000000 	nop
    116c:	8e840088 	lw	a0,136(s4)
    1170:	8e85008c 	lw	a1,140(s4)
    1174:	8e86009c 	lw	a2,156(s4)
    1178:	0c001080 	jal	4200 <send_message_delivery>
    117c:	26070008 	addiu	a3,s0,8
    1180:	3c022000 	lui	v0,0x2000
    1184:	34420300 	ori	v0,v0,0x300
    1188:	8c430000 	lw	v1,0(v0)
    118c:	00009821 	move	s3,zero
    1190:	3c020005 	lui	v0,0x5
    1194:	080003d7 	j	f5c <handle_packet+0x94>
    1198:	ac43a780 	sw	v1,-22656(v0)
    119c:	110200c1 	beq	t0,v0,14a4 <handle_packet+0x5dc>
    11a0:	24020231 	li	v0,561
    11a4:	11020127 	beq	t0,v0,1644 <handle_packet+0x77c>
    11a8:	3c020001 	lui	v0,0x1
    11ac:	3c102000 	lui	s0,0x2000
    11b0:	24429d74 	addiu	v0,v0,-25228
    11b4:	ae020000 	sw	v0,0(s0)
    11b8:	8e840084 	lw	a0,132(s4)
    11bc:	0c000939 	jal	24e4 <itoh>
    11c0:	3c110001 	lui	s1,0x1
    11c4:	ae020000 	sw	v0,0(s0)
    11c8:	3c020001 	lui	v0,0x1
    11cc:	2631a160 	addiu	s1,s1,-24224
    11d0:	24429d8c 	addiu	v0,v0,-25204
    11d4:	36030300 	ori	v1,s0,0x300
    11d8:	ae110000 	sw	s1,0(s0)
    11dc:	ae020000 	sw	v0,0(s0)
    11e0:	8c640000 	lw	a0,0(v1)
    11e4:	0c0008f2 	jal	23c8 <itoa>
    11e8:	00009821 	move	s3,zero
    11ec:	ae020000 	sw	v0,0(s0)
    11f0:	3c020001 	lui	v0,0x1
    11f4:	24429d94 	addiu	v0,v0,-25196
    11f8:	ae110000 	sw	s1,0(s0)
    11fc:	ae020000 	sw	v0,0(s0)
    1200:	8e84007c 	lw	a0,124(s4)
    1204:	0c000939 	jal	24e4 <itoh>
    1208:	00000000 	nop
    120c:	ae020000 	sw	v0,0(s0)
    1210:	3c020001 	lui	v0,0x1
    1214:	24429d9c 	addiu	v0,v0,-25188
    1218:	ae110000 	sw	s1,0(s0)
    121c:	ae020000 	sw	v0,0(s0)
    1220:	8e840080 	lw	a0,128(s4)
    1224:	0c000939 	jal	24e4 <itoh>
    1228:	00000000 	nop
    122c:	ae020000 	sw	v0,0(s0)
    1230:	3c020001 	lui	v0,0x1
    1234:	24429da4 	addiu	v0,v0,-25180
    1238:	ae110000 	sw	s1,0(s0)
    123c:	ae020000 	sw	v0,0(s0)
    1240:	8e840084 	lw	a0,132(s4)
    1244:	0c000939 	jal	24e4 <itoh>
    1248:	00000000 	nop
    124c:	ae020000 	sw	v0,0(s0)
    1250:	3c020001 	lui	v0,0x1
    1254:	24429db0 	addiu	v0,v0,-25168
    1258:	ae110000 	sw	s1,0(s0)
    125c:	ae020000 	sw	v0,0(s0)
    1260:	8e840088 	lw	a0,136(s4)
    1264:	0c000939 	jal	24e4 <itoh>
    1268:	00000000 	nop
    126c:	ae020000 	sw	v0,0(s0)
    1270:	3c020001 	lui	v0,0x1
    1274:	24429dbc 	addiu	v0,v0,-25156
    1278:	ae110000 	sw	s1,0(s0)
    127c:	ae020000 	sw	v0,0(s0)
    1280:	8e84008c 	lw	a0,140(s4)
    1284:	0c000939 	jal	24e4 <itoh>
    1288:	00000000 	nop
    128c:	ae020000 	sw	v0,0(s0)
    1290:	3c020001 	lui	v0,0x1
    1294:	24429dc8 	addiu	v0,v0,-25144
    1298:	ae110000 	sw	s1,0(s0)
    129c:	ae020000 	sw	v0,0(s0)
    12a0:	8e840090 	lw	a0,144(s4)
    12a4:	0c000939 	jal	24e4 <itoh>
    12a8:	00000000 	nop
    12ac:	ae020000 	sw	v0,0(s0)
    12b0:	ae110000 	sw	s1,0(s0)
    12b4:	080003d8 	j	f60 <handle_packet+0x98>
    12b8:	02601021 	move	v0,s3
    12bc:	3c020001 	lui	v0,0x1
    12c0:	3c102000 	lui	s0,0x2000
    12c4:	27b20028 	addiu	s2,sp,40
    12c8:	2631a160 	addiu	s1,s1,-24224
    12cc:	24429d18 	addiu	v0,v0,-25320
    12d0:	24050006 	li	a1,6
    12d4:	02402021 	move	a0,s2
    12d8:	ae020000 	sw	v0,0(s0)
    12dc:	ae110000 	sw	s1,0(s0)
    12e0:	0c000a42 	jal	2908 <DMNI_read_data>
    12e4:	00000000 	nop
    12e8:	02402021 	move	a0,s2
    12ec:	24050018 	li	a1,24
    12f0:	0c001dd7 	jal	775c <siphash24>
    12f4:	27a60018 	addiu	a2,sp,24
    12f8:	3c020001 	lui	v0,0x1
    12fc:	24429d34 	addiu	v0,v0,-25292
    1300:	00602021 	move	a0,v1
    1304:	ae020000 	sw	v0,0(s0)
    1308:	0c000939 	jal	24e4 <itoh>
    130c:	00009821 	move	s3,zero
    1310:	ae020000 	sw	v0,0(s0)
    1314:	ae110000 	sw	s1,0(s0)
    1318:	080003d8 	j	f60 <handle_packet+0x98>
    131c:	02601021 	move	v0,s3
    1320:	3c020001 	lui	v0,0x1
    1324:	3c032000 	lui	v1,0x2000
    1328:	24429c44 	addiu	v0,v0,-25532
    132c:	ac620000 	sw	v0,0(v1)
    1330:	8e840088 	lw	a0,136(s4)
    1334:	0c001181 	jal	4604 <searchTCB>
    1338:	00000000 	nop
    133c:	8c4500a0 	lw	a1,160(v0)
    1340:	00402021 	move	a0,v0
    1344:	8ca30000 	lw	v1,0(a1)
    1348:	24020004 	li	v0,4
    134c:	10620002 	beq	v1,v0,1358 <handle_packet+0x490>
    1350:	00000000 	nop
    1354:	aca00000 	sw	zero,0(a1)
    1358:	8c830090 	lw	v1,144(a0)
    135c:	2402ffff 	li	v0,-1
    1360:	1062006b 	beq	v1,v0,1510 <handle_packet+0x648>
    1364:	3c030005 	lui	v1,0x5
    1368:	0c001546 	jal	5518 <migrate_dynamic_memory>
    136c:	24130001 	li	s3,1
    1370:	080003d8 	j	f60 <handle_packet+0x98>
    1374:	02601021 	move	v0,s3
    1378:	110200e1 	beq	t0,v0,1700 <handle_packet+0x838>
    137c:	00000000 	nop
    1380:	24020210 	li	v0,528
    1384:	1102fef0 	beq	t0,v0,f48 <handle_packet+0x80>
    1388:	24020040 	li	v0,64
    138c:	1502ff87 	bne	t0,v0,11ac <handle_packet+0x2e4>
    1390:	3c020001 	lui	v0,0x1
    1394:	8e840088 	lw	a0,136(s4)
    1398:	0c001181 	jal	4604 <searchTCB>
    139c:	00000000 	nop
    13a0:	10400120 	beqz	v0,1824 <handle_packet+0x95c>
    13a4:	00408821 	move	s1,v0
    13a8:	0000a821 	move	s5,zero
    13ac:	3c020001 	lui	v0,0x1
    13b0:	3c102000 	lui	s0,0x2000
    13b4:	24429c80 	addiu	v0,v0,-25472
    13b8:	ae200078 	sw	zero,120(s1)
    13bc:	ae020000 	sw	v0,0(s0)
    13c0:	8e240080 	lw	a0,128(s1)
    13c4:	0c0008f2 	jal	23c8 <itoa>
    13c8:	00000000 	nop
    13cc:	ae020000 	sw	v0,0(s0)
    13d0:	3c020001 	lui	v0,0x1
    13d4:	24429c8c 	addiu	v0,v0,-25460
    13d8:	36030300 	ori	v1,s0,0x300
    13dc:	ae020000 	sw	v0,0(s0)
    13e0:	8c640000 	lw	a0,0(v1)
    13e4:	0c0008f2 	jal	23c8 <itoa>
    13e8:	00000000 	nop
    13ec:	3c030001 	lui	v1,0x1
    13f0:	2472a160 	addiu	s2,v1,-24224
    13f4:	ae020000 	sw	v0,0(s0)
    13f8:	ae120000 	sw	s2,0(s0)
    13fc:	8e9000a4 	lw	s0,164(s4)
    1400:	8e2400a0 	lw	a0,160(s1)
    1404:	ae300084 	sw	s0,132(s1)
    1408:	8e82008c 	lw	v0,140(s4)
    140c:	2403ffff 	li	v1,-1
    1410:	ae220094 	sw	v0,148(s1)
    1414:	24023fbe 	li	v0,16318
    1418:	ae230090 	sw	v1,144(s1)
    141c:	ac820014 	sw	v0,20(a0)
    1420:	8e24007c 	lw	a0,124(s1)
    1424:	0c000a42 	jal	2908 <DMNI_read_data>
    1428:	02002821 	move	a1,s0
    142c:	3c030005 	lui	v1,0x5
    1430:	8c64a774 	lw	a0,-22668(v1)
    1434:	3c020005 	lui	v0,0x5
    1438:	2442b3a8 	addiu	v0,v0,-19544
    143c:	00822023 	subu	a0,a0,v0
    1440:	24050001 	li	a1,1
    1444:	ae25009c 	sw	a1,156(s1)
    1448:	16a0fec4 	bnez	s5,f5c <handle_packet+0x94>
    144c:	2c930001 	sltiu	s3,a0,1
    1450:	8e220088 	lw	v0,136(s1)
    1454:	8e230098 	lw	v1,152(s1)
    1458:	02021023 	subu	v0,s0,v0
    145c:	106500e3 	beq	v1,a1,17ec <handle_packet+0x924>
    1460:	ae220084 	sw	v0,132(s1)
    1464:	8e2200a0 	lw	v0,160(s1)
    1468:	00000000 	nop
    146c:	ac400000 	sw	zero,0(v0)
    1470:	0c000146 	jal	518 <send_task_allocated>
    1474:	02202021 	move	a0,s1
    1478:	3c020001 	lui	v0,0x1
    147c:	3c102000 	lui	s0,0x2000
    1480:	24429c9c 	addiu	v0,v0,-25444
    1484:	ae020000 	sw	v0,0(s0)
    1488:	8e240080 	lw	a0,128(s1)
    148c:	0c0008f2 	jal	23c8 <itoa>
    1490:	00000000 	nop
    1494:	ae020000 	sw	v0,0(s0)
    1498:	ae120000 	sw	s2,0(s0)
    149c:	080003d8 	j	f60 <handle_packet+0x98>
    14a0:	02601021 	move	v0,s3
    14a4:	8e840088 	lw	a0,136(s4)
    14a8:	0c001194 	jal	4650 <is_another_task_running>
    14ac:	00042202 	srl	a0,a0,0x8
    14b0:	1440001d 	bnez	v0,1528 <handle_packet+0x660>
    14b4:	00000000 	nop
    14b8:	080003d7 	j	f5c <handle_packet+0x94>
    14bc:	00009821 	move	s3,zero
    14c0:	3c102000 	lui	s0,0x2000
    14c4:	2631a160 	addiu	s1,s1,-24224
    14c8:	24429d3c 	addiu	v0,v0,-25284
    14cc:	27a40040 	addiu	a0,sp,64
    14d0:	24050006 	li	a1,6
    14d4:	ae020000 	sw	v0,0(s0)
    14d8:	ae110000 	sw	s1,0(s0)
    14dc:	0c000a42 	jal	2908 <DMNI_read_data>
    14e0:	00000000 	nop
    14e4:	3c030001 	lui	v1,0x1
    14e8:	24639d60 	addiu	v1,v1,-25248
    14ec:	ae030000 	sw	v1,0(s0)
    14f0:	36020300 	ori	v0,s0,0x300
    14f4:	8c440000 	lw	a0,0(v0)
    14f8:	0c0008f2 	jal	23c8 <itoa>
    14fc:	00009821 	move	s3,zero
    1500:	ae020000 	sw	v0,0(s0)
    1504:	ae110000 	sw	s1,0(s0)
    1508:	080003d8 	j	f60 <handle_packet+0x98>
    150c:	02601021 	move	v0,s3
    1510:	3c020005 	lui	v0,0x5
    1514:	8c44a774 	lw	a0,-22668(v0)
    1518:	2463b3a8 	addiu	v1,v1,-19544
    151c:	00832023 	subu	a0,a0,v1
    1520:	080003d7 	j	f5c <handle_packet+0x94>
    1524:	2c930001 	sltiu	s3,a0,1
    1528:	8e840088 	lw	a0,136(s4)
    152c:	8e85009c 	lw	a1,156(s4)
    1530:	0c000f40 	jal	3d00 <update_msg_request_table>
    1534:	308400ff 	andi	a0,a0,0xff
    1538:	8e840088 	lw	a0,136(s4)
    153c:	0c0012ef 	jal	4bbc <remove_task_location>
    1540:	00009821 	move	s3,zero
    1544:	8e840088 	lw	a0,136(s4)
    1548:	8e85009c 	lw	a1,156(s4)
    154c:	0c0012c9 	jal	4b24 <add_task_location>
    1550:	00000000 	nop
    1554:	080003d8 	j	f60 <handle_packet+0x98>
    1558:	02601021 	move	v0,s3
    155c:	3c020001 	lui	v0,0x1
    1560:	24429c60 	addiu	v0,v0,-25504
    1564:	3c032000 	lui	v1,0x2000
    1568:	ac620000 	sw	v0,0(v1)
    156c:	3c122000 	lui	s2,0x2000
    1570:	36420300 	ori	v0,s2,0x300
    1574:	8c430000 	lw	v1,0(v0)
    1578:	8e84008c 	lw	a0,140(s4)
    157c:	3c020005 	lui	v0,0x5
    1580:	0c001181 	jal	4604 <searchTCB>
    1584:	ac43a754 	sw	v1,-22700(v0)
    1588:	8c44007c 	lw	a0,124(v0)
    158c:	00408021 	move	s0,v0
    1590:	8c42000c 	lw	v0,12(v0)
    1594:	8e85009c 	lw	a1,156(s4)
    1598:	00822025 	or	a0,a0,v0
    159c:	ac850000 	sw	a1,0(a0)
    15a0:	0c000a42 	jal	2908 <DMNI_read_data>
    15a4:	24840004 	addiu	a0,a0,4
    15a8:	2411ffff 	li	s1,-1
    15ac:	1051006d 	beq	v0,s1,1764 <handle_packet+0x89c>
    15b0:	36420530 	ori	v0,s2,0x530
    15b4:	24020001 	li	v0,1
    15b8:	8e0400a0 	lw	a0,160(s0)
    15bc:	ae020000 	sw	v0,0(s0)
    15c0:	8c830000 	lw	v1,0(a0)
    15c4:	24020004 	li	v0,4
    15c8:	10620002 	beq	v1,v0,15d4 <handle_packet+0x70c>
    15cc:	00000000 	nop
    15d0:	ac800000 	sw	zero,0(a0)
    15d4:	8e830084 	lw	v1,132(s4)
    15d8:	24020025 	li	v0,37
    15dc:	10620006 	beq	v1,v0,15f8 <handle_packet+0x730>
    15e0:	00000000 	nop
    15e4:	8e840090 	lw	a0,144(s4)
    15e8:	8e85008c 	lw	a1,140(s4)
    15ec:	8e860088 	lw	a2,136(s4)
    15f0:	0c001110 	jal	4440 <remove_msg_request>
    15f4:	00000000 	nop
    15f8:	8e020090 	lw	v0,144(s0)
    15fc:	00000000 	nop
    1600:	10510050 	beq	v0,s1,1744 <handle_packet+0x87c>
    1604:	3c020005 	lui	v0,0x5
    1608:	0c001546 	jal	5518 <migrate_dynamic_memory>
    160c:	02002021 	move	a0,s0
    1610:	24130001 	li	s3,1
    1614:	3c022000 	lui	v0,0x2000
    1618:	34420300 	ori	v0,v0,0x300
    161c:	8c440000 	lw	a0,0(v0)
    1620:	3c030005 	lui	v1,0x5
    1624:	080003d7 	j	f5c <handle_packet+0x94>
    1628:	ac64a780 	sw	a0,-22656(v1)
    162c:	24429c24 	addiu	v0,v0,-25564
    1630:	3c032000 	lui	v1,0x2000
    1634:	00009821 	move	s3,zero
    1638:	ac620000 	sw	v0,0(v1)
    163c:	080003d8 	j	f60 <handle_packet+0x98>
    1640:	02601021 	move	v0,s3
    1644:	8e840088 	lw	a0,136(s4)
    1648:	0c001181 	jal	4604 <searchTCB>
    164c:	27b10058 	addiu	s1,sp,88
    1650:	8e900088 	lw	s0,136(s4)
    1654:	8e85009c 	lw	a1,156(s4)
    1658:	0c000a42 	jal	2908 <DMNI_read_data>
    165c:	02202021 	move	a0,s1
    1660:	8e83009c 	lw	v1,156(s4)
    1664:	00000000 	nop
    1668:	1060ff93 	beqz	v1,14b8 <handle_packet+0x5f0>
    166c:	3c020001 	lui	v0,0x1
    1670:	00102202 	srl	a0,s0,0x8
    1674:	245e9ce4 	addiu	s8,v0,-25372
    1678:	3c030001 	lui	v1,0x1
    167c:	3c020001 	lui	v0,0x1
    1680:	02209021 	move	s2,s1
    1684:	24779cb4 	addiu	s7,v1,-25420
    1688:	2456a160 	addiu	s6,v0,-24224
    168c:	0004aa00 	sll	s5,a0,0x8
    1690:	00009821 	move	s3,zero
    1694:	00008021 	move	s0,zero
    1698:	3c112000 	lui	s1,0x2000
    169c:	02002021 	move	a0,s0
    16a0:	ae3e0000 	sw	s8,0(s1)
    16a4:	0c0008f2 	jal	23c8 <itoa>
    16a8:	00000000 	nop
    16ac:	ae220000 	sw	v0,0(s1)
    16b0:	ae370000 	sw	s7,0(s1)
    16b4:	8e440000 	lw	a0,0(s2)
    16b8:	0c000939 	jal	24e4 <itoh>
    16bc:	00000000 	nop
    16c0:	ae220000 	sw	v0,0(s1)
    16c4:	ae360000 	sw	s6,0(s1)
    16c8:	8e450000 	lw	a1,0(s2)
    16cc:	0c0012df 	jal	4b7c <change_task_location>
    16d0:	02752025 	or	a0,s3,s5
    16d4:	8e450000 	lw	a1,0(s2)
    16d8:	0c000d53 	jal	354c <update_msg_request_migration>
    16dc:	02002021 	move	a0,s0
    16e0:	8e82009c 	lw	v0,156(s4)
    16e4:	26700001 	addiu	s0,s3,1
    16e8:	0202102b 	sltu	v0,s0,v0
    16ec:	26520004 	addiu	s2,s2,4
    16f0:	1440ffea 	bnez	v0,169c <handle_packet+0x7d4>
    16f4:	02009821 	move	s3,s0
    16f8:	080003d7 	j	f5c <handle_packet+0x94>
    16fc:	00009821 	move	s3,zero
    1700:	8e850090 	lw	a1,144(s4)
    1704:	3c020001 	lui	v0,0x1
    1708:	3c102000 	lui	s0,0x2000
    170c:	3c030005 	lui	v1,0x5
    1710:	24429cf0 	addiu	v0,v0,-25360
    1714:	ac65a75c 	sw	a1,-22692(v1)
    1718:	00a02021 	move	a0,a1
    171c:	ae020000 	sw	v0,0(s0)
    1720:	0c0008f2 	jal	23c8 <itoa>
    1724:	00000000 	nop
    1728:	ae020000 	sw	v0,0(s0)
    172c:	3c020001 	lui	v0,0x1
    1730:	2442a160 	addiu	v0,v0,-24224
    1734:	00009821 	move	s3,zero
    1738:	ae020000 	sw	v0,0(s0)
    173c:	080003d8 	j	f60 <handle_packet+0x98>
    1740:	02601021 	move	v0,s3
    1744:	8c44a774 	lw	a0,-22668(v0)
    1748:	3c030005 	lui	v1,0x5
    174c:	2463b3a8 	addiu	v1,v1,-19544
    1750:	00832026 	xor	a0,a0,v1
    1754:	08000585 	j	1614 <handle_packet+0x74c>
    1758:	2c930001 	sltiu	s3,a0,1
    175c:	08000418 	j	1060 <handle_packet+0x198>
    1760:	ae400098 	sw	zero,152(s2)
    1764:	00009821 	move	s3,zero
    1768:	ac400000 	sw	zero,0(v0)
    176c:	08000586 	j	1618 <handle_packet+0x750>
    1770:	3c022000 	lui	v0,0x2000
    1774:	8e82009c 	lw	v0,156(s4)
    1778:	00000000 	nop
    177c:	1040fe42 	beqz	v0,1088 <handle_packet+0x1c0>
    1780:	00111202 	srl	v0,s1,0x8
    1784:	00029a00 	sll	s3,v0,0x8
    1788:	02008821 	move	s1,s0
    178c:	00008021 	move	s0,zero
    1790:	8e250000 	lw	a1,0(s1)
    1794:	0c0012c9 	jal	4b24 <add_task_location>
    1798:	02132025 	or	a0,s0,s3
    179c:	8e82009c 	lw	v0,156(s4)
    17a0:	26100001 	addiu	s0,s0,1
    17a4:	0202102b 	sltu	v0,s0,v0
    17a8:	1440fff9 	bnez	v0,1790 <handle_packet+0x8c8>
    17ac:	26310004 	addiu	s1,s1,4
    17b0:	08000423 	j	108c <handle_packet+0x1c4>
    17b4:	3c020005 	lui	v0,0x5
    17b8:	8e4300a0 	lw	v1,160(s2)
    17bc:	24020004 	li	v0,4
    17c0:	08000433 	j	10cc <handle_packet+0x204>
    17c4:	ac620000 	sw	v0,0(v1)
    17c8:	8e84008c 	lw	a0,140(s4)
    17cc:	0c001181 	jal	4604 <searchTCB>
    17d0:	00000000 	nop
    17d4:	8e050008 	lw	a1,8(s0)
    17d8:	00402021 	move	a0,v0
    17dc:	0c0000a3 	jal	28c <write_local_msg_to_task>
    17e0:	2606000c 	addiu	a2,s0,12
    17e4:	08000461 	j	1184 <handle_packet+0x2bc>
    17e8:	3c022000 	lui	v0,0x2000
    17ec:	8e2300a0 	lw	v1,160(s1)
    17f0:	24020004 	li	v0,4
    17f4:	0800051c 	j	1470 <handle_packet+0x5a8>
    17f8:	ac620000 	sw	v0,0(v1)
    17fc:	0c001172 	jal	45c8 <search_free_TCB>
    1800:	00000000 	nop
    1804:	00409021 	move	s2,v0
    1808:	8e4400a0 	lw	a0,160(s2)
    180c:	8e820088 	lw	v0,136(s4)
    1810:	24030004 	li	v1,4
    1814:	24160001 	li	s6,1
    1818:	ae420080 	sw	v0,128(s2)
    181c:	080003f9 	j	fe4 <handle_packet+0x11c>
    1820:	ac830000 	sw	v1,0(a0)
    1824:	0c001172 	jal	45c8 <search_free_TCB>
    1828:	00000000 	nop
    182c:	00408821 	move	s1,v0
    1830:	8e2400a0 	lw	a0,160(s1)
    1834:	8e820088 	lw	v0,136(s4)
    1838:	24030004 	li	v1,4
    183c:	24150001 	li	s5,1
    1840:	ae220080 	sw	v0,128(s1)
    1844:	080004eb 	j	13ac <handle_packet+0x4e4>
    1848:	ac830000 	sw	v1,0(a0)
    184c:	8e840088 	lw	a0,136(s4)
    1850:	0c0012b8 	jal	4ae0 <get_task_location>
    1854:	00000000 	nop
    1858:	00408021 	move	s0,v0
    185c:	2402ffff 	li	v0,-1
    1860:	1202000b 	beq	s0,v0,1890 <handle_packet+0x9c8>
    1864:	00000000 	nop
    1868:	3c020005 	lui	v0,0x5
    186c:	8c43a770 	lw	v1,-22672(v0)
    1870:	00000000 	nop
    1874:	12030006 	beq	s0,v1,1890 <handle_packet+0x9c8>
    1878:	00000000 	nop
    187c:	8e83009c 	lw	v1,156(s4)
    1880:	8e820090 	lw	v0,144(s4)
    1884:	00000000 	nop
    1888:	10620008 	beq	v1,v0,18ac <handle_packet+0x9e4>
    188c:	00000000 	nop
    1890:	8e840088 	lw	a0,136(s4)
    1894:	8e85008c 	lw	a1,140(s4)
    1898:	8e86009c 	lw	a2,156(s4)
    189c:	0c000eed 	jal	3bb4 <insert_message_request>
    18a0:	00000000 	nop
    18a4:	08000461 	j	1184 <handle_packet+0x2bc>
    18a8:	3c022000 	lui	v0,0x2000
    18ac:	8e840088 	lw	a0,136(s4)
    18b0:	8e85008c 	lw	a1,140(s4)
    18b4:	8e87009c 	lw	a3,156(s4)
    18b8:	24020001 	li	v0,1
    18bc:	02003021 	move	a2,s0
    18c0:	0c001057 	jal	415c <send_message_request_>
    18c4:	afa20010 	sw	v0,16(sp)
    18c8:	8e840088 	lw	a0,136(s4)
    18cc:	0c000dd1 	jal	3744 <search_PIPE_producer>
    18d0:	00000000 	nop
    18d4:	1440fe2a 	bnez	v0,1180 <handle_packet+0x2b8>
    18d8:	00000000 	nop
    18dc:	8e84009c 	lw	a0,156(s4)
    18e0:	8e850088 	lw	a1,136(s4)
    18e4:	0c0014e5 	jal	5394 <send_update_task_location>
    18e8:	02003021 	move	a2,s0
    18ec:	08000461 	j	1184 <handle_packet+0x2bc>
    18f0:	3c022000 	lui	v0,0x2000

000018f4 <Aplly_LSFR>:
    18f4:	27bdffd0 	addiu	sp,sp,-48
    18f8:	afb30024 	sw	s3,36(sp)
    18fc:	3c130005 	lui	s3,0x5
    1900:	afa70014 	sw	a3,20(sp)
    1904:	afa60010 	sw	a2,16(sp)
    1908:	00a03821 	move	a3,a1
    190c:	00803021 	move	a2,a0
    1910:	2664b390 	addiu	a0,s3,-19568
    1914:	afbf0028 	sw	ra,40(sp)
    1918:	afb20020 	sw	s2,32(sp)
    191c:	afb1001c 	sw	s1,28(sp)
    1920:	afb00018 	sw	s0,24(sp)
    1924:	0c0020f8 	jal	83e0 <GLFSR_init>
    1928:	3c120005 	lui	s2,0x5
    192c:	8fa3004c 	lw	v1,76(sp)
    1930:	8fa20048 	lw	v0,72(sp)
    1934:	8fa70044 	lw	a3,68(sp)
    1938:	8fa60040 	lw	a2,64(sp)
    193c:	2644b328 	addiu	a0,s2,-19672
    1940:	afa30014 	sw	v1,20(sp)
    1944:	afa20010 	sw	v0,16(sp)
    1948:	0c0020f8 	jal	83e0 <GLFSR_init>
    194c:	00008021 	move	s0,zero
    1950:	24110080 	li	s1,128
    1954:	0c002116 	jal	8458 <GLFSR_next>
    1958:	2664b390 	addiu	a0,s3,-19568
    195c:	26100001 	addiu	s0,s0,1
    1960:	0c002116 	jal	8458 <GLFSR_next>
    1964:	2644b328 	addiu	a0,s2,-19672
    1968:	1611fffa 	bne	s0,s1,1954 <Aplly_LSFR+0x60>
    196c:	00001021 	move	v0,zero
    1970:	8fbf0028 	lw	ra,40(sp)
    1974:	8fb30024 	lw	s3,36(sp)
    1978:	8fb20020 	lw	s2,32(sp)
    197c:	8fb1001c 	lw	s1,28(sp)
    1980:	8fb00018 	lw	s0,24(sp)
    1984:	03e00008 	jr	ra
    1988:	27bd0030 	addiu	sp,sp,48

0000198c <send_slack_time_report>:
    198c:	27bdffe8 	addiu	sp,sp,-24
    1990:	afbf0010 	sw	ra,16(sp)
    1994:	0c000a29 	jal	28a4 <get_service_header_slot>
    1998:	00000000 	nop
    199c:	3c030005 	lui	v1,0x5
    19a0:	8c67a768 	lw	a3,-22680(v1)
    19a4:	00002821 	move	a1,zero
    19a8:	00072100 	sll	a0,a3,0x4
    19ac:	00073880 	sll	a3,a3,0x2
    19b0:	00e43821 	addu	a3,a3,a0
    19b4:	00071880 	sll	v1,a3,0x2
    19b8:	00e33821 	addu	a3,a3,v1
    19bc:	3c030a7c 	lui	v1,0xa7c
    19c0:	00073902 	srl	a3,a3,0x4
    19c4:	34635ac5 	ori	v1,v1,0x5ac5
    19c8:	00e30019 	multu	a3,v1
    19cc:	3c040005 	lui	a0,0x5
    19d0:	8c83a75c 	lw	v1,-22692(a0)
    19d4:	24040260 	li	a0,608
    19d8:	ac440084 	sw	a0,132(v0)
    19dc:	ac43007c 	sw	v1,124(v0)
    19e0:	00402021 	move	a0,v0
    19e4:	00003021 	move	a2,zero
    19e8:	00003810 	mfhi	a3
    19ec:	000739c2 	srl	a3,a3,0x7
    19f0:	ac4700a8 	sw	a3,168(v0)
    19f4:	8fbf0010 	lw	ra,16(sp)
    19f8:	08000c01 	j	3004 <send_packet>
    19fc:	27bd0018 	addiu	sp,sp,24

00001a00 <OS_InterruptServiceRoutine>:
    1a00:	27bdff28 	addiu	sp,sp,-216
    1a04:	afb300cc 	sw	s3,204(sp)
    1a08:	3c130005 	lui	s3,0x5
    1a0c:	afb400d0 	sw	s4,208(sp)
    1a10:	afb000c0 	sw	s0,192(sp)
    1a14:	3c140005 	lui	s4,0x5
    1a18:	3c102000 	lui	s0,0x2000
    1a1c:	8e66a774 	lw	a2,-22668(s3)
    1a20:	36030270 	ori	v1,s0,0x270
    1a24:	3c020001 	lui	v0,0x1
    1a28:	2685b3a8 	addiu	a1,s4,-19544
    1a2c:	afb100c4 	sw	s1,196(sp)
    1a30:	afbf00d4 	sw	ra,212(sp)
    1a34:	afb200c8 	sw	s2,200(sp)
    1a38:	00808821 	move	s1,a0
    1a3c:	ac620000 	sw	v0,0(v1)
    1a40:	10c5005a 	beq	a2,a1,1bac <OS_InterruptServiceRoutine+0x1ac>
    1a44:	36020300 	ori	v0,s0,0x300
    1a48:	32220020 	andi	v0,s1,0x20
    1a4c:	1440003c 	bnez	v0,1b40 <OS_InterruptServiceRoutine+0x140>
    1a50:	32220001 	andi	v0,s1,0x1
    1a54:	14400027 	bnez	v0,1af4 <OS_InterruptServiceRoutine+0xf4>
    1a58:	00008021 	move	s0,zero
    1a5c:	32220002 	andi	v0,s1,0x2
    1a60:	1440002e 	bnez	v0,1b1c <OS_InterruptServiceRoutine+0x11c>
    1a64:	00000000 	nop
    1a68:	32220008 	andi	v0,s1,0x8
    1a6c:	10400002 	beqz	v0,1a78 <OS_InterruptServiceRoutine+0x78>
    1a70:	32220080 	andi	v0,s1,0x80
    1a74:	24100001 	li	s0,1
    1a78:	14400015 	bnez	v0,1ad0 <OS_InterruptServiceRoutine+0xd0>
    1a7c:	00000000 	nop
    1a80:	16000018 	bnez	s0,1ae4 <OS_InterruptServiceRoutine+0xe4>
    1a84:	00000000 	nop
    1a88:	8e63a774 	lw	v1,-22668(s3)
    1a8c:	2682b3a8 	addiu	v0,s4,-19544
    1a90:	1062004f 	beq	v1,v0,1bd0 <OS_InterruptServiceRoutine+0x1d0>
    1a94:	3c022000 	lui	v0,0x2000
    1a98:	8c630080 	lw	v1,128(v1)
    1a9c:	34420270 	ori	v0,v0,0x270
    1aa0:	ac430000 	sw	v1,0(v0)
    1aa4:	8e64a774 	lw	a0,-22668(s3)
    1aa8:	0c000074 	jal	1d0 <ASM_RunScheduledTask>
    1aac:	00000000 	nop
    1ab0:	8fbf00d4 	lw	ra,212(sp)
    1ab4:	8fb400d0 	lw	s4,208(sp)
    1ab8:	8fb300cc 	lw	s3,204(sp)
    1abc:	8fb200c8 	lw	s2,200(sp)
    1ac0:	8fb100c4 	lw	s1,196(sp)
    1ac4:	8fb000c0 	lw	s0,192(sp)
    1ac8:	03e00008 	jr	ra
    1acc:	27bd00d8 	addiu	sp,sp,216
    1ad0:	0c00017d 	jal	5f4 <SeekInterruptHandler>
    1ad4:	00000000 	nop
    1ad8:	00408021 	move	s0,v0
    1adc:	1200ffea 	beqz	s0,1a88 <OS_InterruptServiceRoutine+0x88>
    1ae0:	00000000 	nop
    1ae4:	0c00036b 	jal	dac <Scheduler>
    1ae8:	00000000 	nop
    1aec:	080006a9 	j	1aa4 <OS_InterruptServiceRoutine+0xa4>
    1af0:	00000000 	nop
    1af4:	0c000cd6 	jal	3358 <get_next_pending_service>
    1af8:	00000000 	nop
    1afc:	1040ffd7 	beqz	v0,1a5c <OS_InterruptServiceRoutine+0x5c>
    1b00:	00000000 	nop
    1b04:	0c0003b2 	jal	ec8 <handle_packet>
    1b08:	00402021 	move	a0,v0
    1b0c:	00408021 	move	s0,v0
    1b10:	32220002 	andi	v0,s1,0x2
    1b14:	1040ffd4 	beqz	v0,1a68 <OS_InterruptServiceRoutine+0x68>
    1b18:	00000000 	nop
    1b1c:	0c000663 	jal	198c <send_slack_time_report>
    1b20:	00000000 	nop
    1b24:	3c022000 	lui	v0,0x2000
    1b28:	3c030005 	lui	v1,0x5
    1b2c:	34420364 	ori	v0,v0,0x364
    1b30:	ac60a768 	sw	zero,-22680(v1)
    1b34:	ac400000 	sw	zero,0(v0)
    1b38:	0800069b 	j	1a6c <OS_InterruptServiceRoutine+0x6c>
    1b3c:	32220008 	andi	v0,s1,0x8
    1b40:	36020300 	ori	v0,s0,0x300
    1b44:	8c430000 	lw	v1,0(v0)
    1b48:	27b20010 	addiu	s2,sp,16
    1b4c:	3c020005 	lui	v0,0x5
    1b50:	02402021 	move	a0,s2
    1b54:	0c000b12 	jal	2c48 <read_packet>
    1b58:	ac43a77c 	sw	v1,-22660(v0)
    1b5c:	2403ffff 	li	v1,-1
    1b60:	10430025 	beq	v0,v1,1bf8 <OS_InterruptServiceRoutine+0x1f8>
    1b64:	36020530 	ori	v0,s0,0x530
    1b68:	36020250 	ori	v0,s0,0x250
    1b6c:	8c430000 	lw	v1,0(v0)
    1b70:	00000000 	nop
    1b74:	10600009 	beqz	v1,1b9c <OS_InterruptServiceRoutine+0x19c>
    1b78:	00000000 	nop
    1b7c:	8fa30094 	lw	v1,148(sp)
    1b80:	24020010 	li	v0,16
    1b84:	10620020 	beq	v1,v0,1c08 <OS_InterruptServiceRoutine+0x208>
    1b88:	00000000 	nop
    1b8c:	8fa30094 	lw	v1,148(sp)
    1b90:	24020210 	li	v0,528
    1b94:	1062001c 	beq	v1,v0,1c08 <OS_InterruptServiceRoutine+0x208>
    1b98:	00000000 	nop
    1b9c:	0c0003b2 	jal	ec8 <handle_packet>
    1ba0:	02402021 	move	a0,s2
    1ba4:	08000697 	j	1a5c <OS_InterruptServiceRoutine+0x5c>
    1ba8:	00408021 	move	s0,v0
    1bac:	3c030005 	lui	v1,0x5
    1bb0:	8c440000 	lw	a0,0(v0)
    1bb4:	3c050005 	lui	a1,0x5
    1bb8:	8c66a784 	lw	a2,-22652(v1)
    1bbc:	8ca2a768 	lw	v0,-22680(a1)
    1bc0:	00862023 	subu	a0,a0,a2
    1bc4:	00822021 	addu	a0,a0,v0
    1bc8:	08000692 	j	1a48 <OS_InterruptServiceRoutine+0x48>
    1bcc:	aca4a768 	sw	a0,-22680(a1)
    1bd0:	3c042000 	lui	a0,0x2000
    1bd4:	34820300 	ori	v0,a0,0x300
    1bd8:	8c450000 	lw	a1,0(v0)
    1bdc:	34840270 	ori	a0,a0,0x270
    1be0:	3c020005 	lui	v0,0x5
    1be4:	3c030008 	lui	v1,0x8
    1be8:	ac45a784 	sw	a1,-22652(v0)
    1bec:	ac830000 	sw	v1,0(a0)
    1bf0:	080006a9 	j	1aa4 <OS_InterruptServiceRoutine+0xa4>
    1bf4:	00000000 	nop
    1bf8:	00008021 	move	s0,zero
    1bfc:	ac400000 	sw	zero,0(v0)
    1c00:	08000698 	j	1a60 <OS_InterruptServiceRoutine+0x60>
    1c04:	32220002 	andi	v0,s1,0x2
    1c08:	0c000c99 	jal	3264 <add_pending_service>
    1c0c:	02402021 	move	a0,s2
    1c10:	08000697 	j	1a5c <OS_InterruptServiceRoutine+0x5c>
    1c14:	00008021 	move	s0,zero

00001c18 <send_dull_packet>:
    1c18:	27bdffe8 	addiu	sp,sp,-24
    1c1c:	afbf0010 	sw	ra,16(sp)
    1c20:	0c000a29 	jal	28a4 <get_service_header_slot>
    1c24:	00000000 	nop
    1c28:	0c000a29 	jal	28a4 <get_service_header_slot>
    1c2c:	00000000 	nop
    1c30:	2405ffff 	li	a1,-1
    1c34:	24030202 	li	v1,514
    1c38:	24040020 	li	a0,32
    1c3c:	ac43007c 	sw	v1,124(v0)
    1c40:	ac440084 	sw	a0,132(v0)
    1c44:	ac450094 	sw	a1,148(v0)
    1c48:	ac45008c 	sw	a1,140(v0)
    1c4c:	ac400088 	sw	zero,136(v0)
    1c50:	ac400090 	sw	zero,144(v0)
    1c54:	00402021 	move	a0,v0
    1c58:	3c020001 	lui	v0,0x1
    1c5c:	24429dd0 	addiu	v0,v0,-25136
    1c60:	3c032000 	lui	v1,0x2000
    1c64:	ac620000 	sw	v0,0(v1)
    1c68:	8fbf0010 	lw	ra,16(sp)
    1c6c:	00002821 	move	a1,zero
    1c70:	00003021 	move	a2,zero
    1c74:	08000c01 	j	3004 <send_packet>
    1c78:	27bd0018 	addiu	sp,sp,24

00001c7c <Syscall>:
    1c7c:	27bdffc8 	addiu	sp,sp,-56
    1c80:	afb1001c 	sw	s1,28(sp)
    1c84:	2c820009 	sltiu	v0,a0,9
    1c88:	3c110005 	lui	s1,0x5
    1c8c:	afb40028 	sw	s4,40(sp)
    1c90:	afbf0034 	sw	ra,52(sp)
    1c94:	afb60030 	sw	s6,48(sp)
    1c98:	afb5002c 	sw	s5,44(sp)
    1c9c:	afb30024 	sw	s3,36(sp)
    1ca0:	afb20020 	sw	s2,32(sp)
    1ca4:	afb00018 	sw	s0,24(sp)
    1ca8:	00a0a021 	move	s4,a1
    1cac:	00c04021 	move	t0,a2
    1cb0:	1040000f 	beqz	v0,1cf0 <Syscall+0x74>
    1cb4:	ae20a788 	sw	zero,-22648(s1)
    1cb8:	3c030001 	lui	v1,0x1
    1cbc:	00041080 	sll	v0,a0,0x2
    1cc0:	24639eb8 	addiu	v1,v1,-24904
    1cc4:	00431021 	addu	v0,v0,v1
    1cc8:	8c440000 	lw	a0,0(v0)
    1ccc:	00000000 	nop
    1cd0:	00800008 	jr	a0
    1cd4:	00000000 	nop
    1cd8:	3c102000 	lui	s0,0x2000
    1cdc:	36020250 	ori	v0,s0,0x250
    1ce0:	8c440000 	lw	a0,0(v0)
    1ce4:	24030001 	li	v1,1
    1ce8:	108000be 	beqz	a0,1fe4 <Syscall+0x368>
    1cec:	ae23a788 	sw	v1,-22648(s1)
    1cf0:	00004021 	move	t0,zero
    1cf4:	8fbf0034 	lw	ra,52(sp)
    1cf8:	8fb60030 	lw	s6,48(sp)
    1cfc:	8fb5002c 	lw	s5,44(sp)
    1d00:	8fb40028 	lw	s4,40(sp)
    1d04:	8fb30024 	lw	s3,36(sp)
    1d08:	8fb20020 	lw	s2,32(sp)
    1d0c:	8fb1001c 	lw	s1,28(sp)
    1d10:	8fb00018 	lw	s0,24(sp)
    1d14:	01001021 	move	v0,t0
    1d18:	03e00008 	jr	ra
    1d1c:	27bd0038 	addiu	sp,sp,56
    1d20:	0c000706 	jal	1c18 <send_dull_packet>
    1d24:	00000000 	nop
    1d28:	0800073d 	j	1cf4 <Syscall+0x78>
    1d2c:	24080001 	li	t0,1
    1d30:	3c022000 	lui	v0,0x2000
    1d34:	34420250 	ori	v0,v0,0x250
    1d38:	8c430000 	lw	v1,0(v0)
    1d3c:	00000000 	nop
    1d40:	1460ffeb 	bnez	v1,1cf0 <Syscall+0x74>
    1d44:	3c100005 	lui	s0,0x5
    1d48:	8e03a774 	lw	v1,-22668(s0)
    1d4c:	3c020005 	lui	v0,0x5
    1d50:	8c46a770 	lw	a2,-22672(v0)
    1d54:	8c670098 	lw	a3,152(v1)
    1d58:	8c650080 	lw	a1,128(v1)
    1d5c:	0c001011 	jal	4044 <send_io_request>
    1d60:	01002021 	move	a0,t0
    1d64:	8e02a774 	lw	v0,-22668(s0)
    1d68:	24040001 	li	a0,1
    1d6c:	8c4300a0 	lw	v1,160(v0)
    1d70:	00004021 	move	t0,zero
    1d74:	ac640000 	sw	a0,0(v1)
    1d78:	0800073d 	j	1cf4 <Syscall+0x78>
    1d7c:	ae24a788 	sw	a0,-22648(s1)
    1d80:	3c022000 	lui	v0,0x2000
    1d84:	34420250 	ori	v0,v0,0x250
    1d88:	8c430000 	lw	v1,0(v0)
    1d8c:	00000000 	nop
    1d90:	1460ffd7 	bnez	v1,1cf0 <Syscall+0x74>
    1d94:	3c100005 	lui	s0,0x5
    1d98:	8e02a774 	lw	v0,-22668(s0)
    1d9c:	00c02821 	move	a1,a2
    1da0:	8c46007c 	lw	a2,124(v0)
    1da4:	8c440080 	lw	a0,128(v0)
    1da8:	8c470098 	lw	a3,152(v0)
    1dac:	0c001034 	jal	40d0 <send_message_io>
    1db0:	02863025 	or	a2,s4,a2
    1db4:	8e02a774 	lw	v0,-22668(s0)
    1db8:	24040001 	li	a0,1
    1dbc:	8c4300a0 	lw	v1,160(v0)
    1dc0:	24080001 	li	t0,1
    1dc4:	ac640000 	sw	a0,0(v1)
    1dc8:	0800073d 	j	1cf4 <Syscall+0x78>
    1dcc:	ae24a788 	sw	a0,-22648(s1)
    1dd0:	3c022000 	lui	v0,0x2000
    1dd4:	34420250 	ori	v0,v0,0x250
    1dd8:	8c430000 	lw	v1,0(v0)
    1ddc:	00000000 	nop
    1de0:	1460ffc3 	bnez	v1,1cf0 <Syscall+0x74>
    1de4:	3c020005 	lui	v0,0x5
    1de8:	8c43a774 	lw	v1,-22668(v0)
    1dec:	00000000 	nop
    1df0:	8c6400a0 	lw	a0,160(v1)
    1df4:	0c001709 	jal	5c24 <real_time_task>
    1df8:	00000000 	nop
    1dfc:	24020001 	li	v0,1
    1e00:	24080001 	li	t0,1
    1e04:	0800073d 	j	1cf4 <Syscall+0x78>
    1e08:	ae22a788 	sw	v0,-22648(s1)
    1e0c:	3c102000 	lui	s0,0x2000
    1e10:	36020300 	ori	v0,s0,0x300
    1e14:	8c440000 	lw	a0,0(v0)
    1e18:	0c0008f2 	jal	23c8 <itoa>
    1e1c:	3c130005 	lui	s3,0x5
    1e20:	3c110001 	lui	s1,0x1
    1e24:	8e64a770 	lw	a0,-22672(s3)
    1e28:	26319e0c 	addiu	s1,s1,-25076
    1e2c:	00042202 	srl	a0,a0,0x8
    1e30:	ae020000 	sw	v0,0(s0)
    1e34:	ae110000 	sw	s1,0(s0)
    1e38:	0c0008f2 	jal	23c8 <itoa>
    1e3c:	00000000 	nop
    1e40:	9264a773 	lbu	a0,-22669(s3)
    1e44:	ae020000 	sw	v0,0(s0)
    1e48:	3c020001 	lui	v0,0x1
    1e4c:	24429e10 	addiu	v0,v0,-25072
    1e50:	3c120005 	lui	s2,0x5
    1e54:	ae020000 	sw	v0,0(s0)
    1e58:	0c0008f2 	jal	23c8 <itoa>
    1e5c:	00000000 	nop
    1e60:	8e43a774 	lw	v1,-22668(s2)
    1e64:	ae020000 	sw	v0,0(s0)
    1e68:	ae110000 	sw	s1,0(s0)
    1e6c:	8c640080 	lw	a0,128(v1)
    1e70:	0c0008f2 	jal	23c8 <itoa>
    1e74:	00042203 	sra	a0,a0,0x8
    1e78:	8e43a774 	lw	v1,-22668(s2)
    1e7c:	ae020000 	sw	v0,0(s0)
    1e80:	ae110000 	sw	s1,0(s0)
    1e84:	90640083 	lbu	a0,131(v1)
    1e88:	0c0008f2 	jal	23c8 <itoa>
    1e8c:	00000000 	nop
    1e90:	8e44a774 	lw	a0,-22668(s2)
    1e94:	ae020000 	sw	v0,0(s0)
    1e98:	ae110000 	sw	s1,0(s0)
    1e9c:	8c83007c 	lw	v1,124(a0)
    1ea0:	3c020001 	lui	v0,0x1
    1ea4:	02831825 	or	v1,s4,v1
    1ea8:	2442a160 	addiu	v0,v0,-24224
    1eac:	00004021 	move	t0,zero
    1eb0:	ae030000 	sw	v1,0(s0)
    1eb4:	ae020000 	sw	v0,0(s0)
    1eb8:	0800073d 	j	1cf4 <Syscall+0x78>
    1ebc:	00000000 	nop
    1ec0:	3c022000 	lui	v0,0x2000
    1ec4:	34420300 	ori	v0,v0,0x300
    1ec8:	8c480000 	lw	t0,0(v0)
    1ecc:	0800073d 	j	1cf4 <Syscall+0x78>
    1ed0:	00000000 	nop
    1ed4:	3c022000 	lui	v0,0x2000
    1ed8:	34430250 	ori	v1,v0,0x250
    1edc:	34420300 	ori	v0,v0,0x300
    1ee0:	8c440000 	lw	a0,0(v0)
    1ee4:	8c650000 	lw	a1,0(v1)
    1ee8:	3c020005 	lui	v0,0x5
    1eec:	14a0ff80 	bnez	a1,1cf0 <Syscall+0x74>
    1ef0:	ac44a754 	sw	a0,-22700(v0)
    1ef4:	3c130005 	lui	s3,0x5
    1ef8:	8e62a774 	lw	v0,-22668(s3)
    1efc:	00000000 	nop
    1f00:	8c520080 	lw	s2,128(v0)
    1f04:	00000000 	nop
    1f08:	00121a03 	sra	v1,s2,0x8
    1f0c:	00031a00 	sll	v1,v1,0x8
    1f10:	00c38025 	or	s0,a2,v1
    1f14:	0c0012b8 	jal	4ae0 <get_task_location>
    1f18:	02002021 	move	a0,s0
    1f1c:	00403021 	move	a2,v0
    1f20:	2402ffff 	li	v0,-1
    1f24:	10c20092 	beq	a2,v0,2170 <Syscall+0x4f4>
    1f28:	3c150005 	lui	s5,0x5
    1f2c:	8ea7a770 	lw	a3,-22672(s5)
    1f30:	00000000 	nop
    1f34:	10c70094 	beq	a2,a3,2188 <Syscall+0x50c>
    1f38:	24020001 	li	v0,1
    1f3c:	02002021 	move	a0,s0
    1f40:	02402821 	move	a1,s2
    1f44:	0c001057 	jal	415c <send_message_request_>
    1f48:	afa20010 	sw	v0,16(sp)
    1f4c:	8e62a774 	lw	v0,-22668(s3)
    1f50:	24040001 	li	a0,1
    1f54:	8c4300a0 	lw	v1,160(v0)
    1f58:	3c022000 	lui	v0,0x2000
    1f5c:	ac640000 	sw	a0,0(v1)
    1f60:	34420300 	ori	v0,v0,0x300
    1f64:	8c430000 	lw	v1,0(v0)
    1f68:	00004021 	move	t0,zero
    1f6c:	3c020005 	lui	v0,0x5
    1f70:	ae24a788 	sw	a0,-22648(s1)
    1f74:	0800073d 	j	1cf4 <Syscall+0x78>
    1f78:	ac43a780 	sw	v1,-22656(v0)
    1f7c:	3c152000 	lui	s5,0x2000
    1f80:	36a20300 	ori	v0,s5,0x300
    1f84:	36a30250 	ori	v1,s5,0x250
    1f88:	8c440000 	lw	a0,0(v0)
    1f8c:	8c650000 	lw	a1,0(v1)
    1f90:	3c020005 	lui	v0,0x5
    1f94:	14a0ff56 	bnez	a1,1cf0 <Syscall+0x74>
    1f98:	ac44a754 	sw	a0,-22700(v0)
    1f9c:	3c100005 	lui	s0,0x5
    1fa0:	8e03a774 	lw	v1,-22668(s0)
    1fa4:	2416ffff 	li	s6,-1
    1fa8:	8c730080 	lw	s3,128(v1)
    1fac:	00000000 	nop
    1fb0:	00131203 	sra	v0,s3,0x8
    1fb4:	00021200 	sll	v0,v0,0x8
    1fb8:	00c29025 	or	s2,a2,v0
    1fbc:	0c0012b8 	jal	4ae0 <get_task_location>
    1fc0:	02402021 	move	a0,s2
    1fc4:	1456004b 	bne	v0,s6,20f4 <Syscall+0x478>
    1fc8:	02402821 	move	a1,s2
    1fcc:	8e02a774 	lw	v0,-22668(s0)
    1fd0:	00004021 	move	t0,zero
    1fd4:	8c4300a0 	lw	v1,160(v0)
    1fd8:	24020004 	li	v0,4
    1fdc:	0800073d 	j	1cf4 <Syscall+0x78>
    1fe0:	ac620000 	sw	v0,0(v1)
    1fe4:	3c110005 	lui	s1,0x5
    1fe8:	3c020001 	lui	v0,0x1
    1fec:	8e23a774 	lw	v1,-22668(s1)
    1ff0:	24429c80 	addiu	v0,v0,-25472
    1ff4:	ae020000 	sw	v0,0(s0)
    1ff8:	8c640080 	lw	a0,128(v1)
    1ffc:	0c0008f2 	jal	23c8 <itoa>
    2000:	3c130005 	lui	s3,0x5
    2004:	ae020000 	sw	v0,0(s0)
    2008:	3c020001 	lui	v0,0x1
    200c:	24429de4 	addiu	v0,v0,-25116
    2010:	36030300 	ori	v1,s0,0x300
    2014:	ae020000 	sw	v0,0(s0)
    2018:	8c640000 	lw	a0,0(v1)
    201c:	0c0008f2 	jal	23c8 <itoa>
    2020:	00000000 	nop
    2024:	ae020000 	sw	v0,0(s0)
    2028:	3c020001 	lui	v0,0x1
    202c:	8e24a774 	lw	a0,-22668(s1)
    2030:	2442a160 	addiu	v0,v0,-24224
    2034:	ae020000 	sw	v0,0(s0)
    2038:	8c830080 	lw	v1,128(a0)
    203c:	8c900094 	lw	s0,148(a0)
    2040:	00031103 	sra	v0,v1,0x4
    2044:	304200f0 	andi	v0,v0,0xf0
    2048:	3063000f 	andi	v1,v1,0xf
    204c:	0c0008ee 	jal	23b8 <get_net_address>
    2050:	00439025 	or	s2,v0,v1
    2054:	8e23a774 	lw	v1,-22668(s1)
    2058:	3042ffff 	andi	v0,v0,0xffff
    205c:	00108400 	sll	s0,s0,0x10
    2060:	8c660094 	lw	a2,148(v1)
    2064:	02022825 	or	a1,s0,v0
    2068:	24040006 	li	a0,6
    206c:	0c00196b 	jal	65ac <Seek>
    2070:	02403821 	move	a3,s2
    2074:	8e23a774 	lw	v1,-22668(s1)
    2078:	8e70a75c 	lw	s0,-22692(s3)
    207c:	8c620094 	lw	v0,148(v1)
    2080:	00000000 	nop
    2084:	1050000c 	beq	v0,s0,20b8 <Syscall+0x43c>
    2088:	00000000 	nop
    208c:	0c0008ee 	jal	23b8 <get_net_address>
    2090:	00000000 	nop
    2094:	3042ffff 	andi	v0,v0,0xffff
    2098:	00102c00 	sll	a1,s0,0x10
    209c:	8e66a75c 	lw	a2,-22692(s3)
    20a0:	00a22825 	or	a1,a1,v0
    20a4:	02403821 	move	a3,s2
    20a8:	0c00196b 	jal	65ac <Seek>
    20ac:	24040015 	li	a0,21
    20b0:	8e23a774 	lw	v1,-22668(s1)
    20b4:	00000000 	nop
    20b8:	8c6400a0 	lw	a0,160(v1)
    20bc:	0c0017c2 	jal	5f08 <clear_scheduling>
    20c0:	00000000 	nop
    20c4:	8e22a774 	lw	v0,-22668(s1)
    20c8:	00000000 	nop
    20cc:	8c440080 	lw	a0,128(v0)
    20d0:	0c001194 	jal	4650 <is_another_task_running>
    20d4:	00042203 	sra	a0,a0,0x8
    20d8:	8e23a774 	lw	v1,-22668(s1)
    20dc:	00000000 	nop
    20e0:	8c640080 	lw	a0,128(v1)
    20e4:	0c000fa0 	jal	3e80 <remove_last_msg_waiting_ack>
    20e8:	00000000 	nop
    20ec:	0800073d 	j	1cf4 <Syscall+0x78>
    20f0:	24080001 	li	t0,1
    20f4:	8e02a774 	lw	v0,-22668(s0)
    20f8:	02602021 	move	a0,s3
    20fc:	8c43007c 	lw	v1,124(v0)
    2100:	0c000f21 	jal	3c84 <remove_message_request>
    2104:	0283a025 	or	s4,s4,v1
    2108:	00408021 	move	s0,v0
    210c:	3c020005 	lui	v0,0x5
    2110:	8c43a770 	lw	v1,-22672(v0)
    2114:	00000000 	nop
    2118:	12030032 	beq	s0,v1,21e4 <Syscall+0x568>
    211c:	02602021 	move	a0,s3
    2120:	02402821 	move	a1,s2
    2124:	0c000e92 	jal	3a48 <add_PIPE>
    2128:	02803021 	move	a2,s4
    212c:	1040003f 	beqz	v0,222c <Syscall+0x5b0>
    2130:	00401821 	move	v1,v0
    2134:	12160007 	beq	s0,s6,2154 <Syscall+0x4d8>
    2138:	24020003 	li	v0,3
    213c:	a062020c 	sb	v0,524(v1)
    2140:	02602021 	move	a0,s3
    2144:	02402821 	move	a1,s2
    2148:	02003021 	move	a2,s0
    214c:	0c001080 	jal	4200 <send_message_delivery>
    2150:	02803821 	move	a3,s4
    2154:	3c022000 	lui	v0,0x2000
    2158:	34420300 	ori	v0,v0,0x300
    215c:	8c430000 	lw	v1,0(v0)
    2160:	24080001 	li	t0,1
    2164:	3c020005 	lui	v0,0x5
    2168:	0800073d 	j	1cf4 <Syscall+0x78>
    216c:	ac43a780 	sw	v1,-22656(v0)
    2170:	8e62a774 	lw	v0,-22668(s3)
    2174:	00004021 	move	t0,zero
    2178:	8c4300a0 	lw	v1,160(v0)
    217c:	24020004 	li	v0,4
    2180:	0800073d 	j	1cf4 <Syscall+0x78>
    2184:	ac620000 	sw	v0,0(v1)
    2188:	02002021 	move	a0,s0
    218c:	0c000dfa 	jal	37e8 <remove_PIPE>
    2190:	02402821 	move	a1,s2
    2194:	10400029 	beqz	v0,223c <Syscall+0x5c0>
    2198:	00402021 	move	a0,v0
    219c:	8e63a774 	lw	v1,-22668(s3)
    21a0:	8c480008 	lw	t0,8(v0)
    21a4:	8c62007c 	lw	v0,124(v1)
    21a8:	00000000 	nop
    21ac:	02821825 	or	v1,s4,v0
    21b0:	1900000a 	blez	t0,21dc <Syscall+0x560>
    21b4:	ac680000 	sw	t0,0(v1)
    21b8:	24650004 	addiu	a1,v1,4
    21bc:	00003021 	move	a2,zero
    21c0:	8c82000c 	lw	v0,12(a0)
    21c4:	24c60001 	addiu	a2,a2,1
    21c8:	00c8182a 	slt	v1,a2,t0
    21cc:	aca20000 	sw	v0,0(a1)
    21d0:	24840004 	addiu	a0,a0,4
    21d4:	1460fffa 	bnez	v1,21c0 <Syscall+0x544>
    21d8:	24a50004 	addiu	a1,a1,4
    21dc:	0800073d 	j	1cf4 <Syscall+0x78>
    21e0:	24080001 	li	t0,1
    21e4:	0c001181 	jal	4604 <searchTCB>
    21e8:	02402021 	move	a0,s2
    21ec:	8e850000 	lw	a1,0(s4)
    21f0:	00408021 	move	s0,v0
    21f4:	00402021 	move	a0,v0
    21f8:	0c0000a3 	jal	28c <write_local_msg_to_task>
    21fc:	26860004 	addiu	a2,s4,4
    2200:	8e020090 	lw	v0,144(s0)
    2204:	00000000 	nop
    2208:	1056ffd2 	beq	v0,s6,2154 <Syscall+0x4d8>
    220c:	3c020001 	lui	v0,0x1
    2210:	24429df4 	addiu	v0,v0,-25100
    2214:	aea20000 	sw	v0,0(s5)
    2218:	0c001546 	jal	5518 <migrate_dynamic_memory>
    221c:	02002021 	move	a0,s0
    2220:	24020001 	li	v0,1
    2224:	08000855 	j	2154 <Syscall+0x4d8>
    2228:	ae22a788 	sw	v0,-22648(s1)
    222c:	24020001 	li	v0,1
    2230:	00004021 	move	t0,zero
    2234:	0800073d 	j	1cf4 <Syscall+0x78>
    2238:	ae22a788 	sw	v0,-22648(s1)
    223c:	8ea6a770 	lw	a2,-22672(s5)
    2240:	02002021 	move	a0,s0
    2244:	0c000eed 	jal	3bb4 <insert_message_request>
    2248:	02402821 	move	a1,s2
    224c:	080007d3 	j	1f4c <Syscall+0x2d0>
    2250:	00000000 	nop

00002254 <send_task_real_time_change>:
    2254:	27bdffe0 	addiu	sp,sp,-32
    2258:	afbf0018 	sw	ra,24(sp)
    225c:	afb10014 	sw	s1,20(sp)
    2260:	afb00010 	sw	s0,16(sp)
    2264:	0c000a29 	jal	28a4 <get_service_header_slot>
    2268:	00808821 	move	s1,a0
    226c:	0c000a29 	jal	28a4 <get_service_header_slot>
    2270:	00000000 	nop
    2274:	00408021 	move	s0,v0
    2278:	3c020005 	lui	v0,0x5
    227c:	8c43a75c 	lw	v1,-22692(v0)
    2280:	24020280 	li	v0,640
    2284:	ae020084 	sw	v0,132(s0)
    2288:	ae03007c 	sw	v1,124(s0)
    228c:	8e230080 	lw	v1,128(s1)
    2290:	00000000 	nop
    2294:	ae030088 	sw	v1,136(s0)
    2298:	8e2200a0 	lw	v0,160(s1)
    229c:	3c112000 	lui	s1,0x2000
    22a0:	8c430020 	lw	v1,32(v0)
    22a4:	3c020001 	lui	v0,0x1
    22a8:	24429e14 	addiu	v0,v0,-25068
    22ac:	ae0300ac 	sw	v1,172(s0)
    22b0:	ae220000 	sw	v0,0(s1)
    22b4:	8e0400ac 	lw	a0,172(s0)
    22b8:	0c0008f2 	jal	23c8 <itoa>
    22bc:	00000000 	nop
    22c0:	ae220000 	sw	v0,0(s1)
    22c4:	3c020001 	lui	v0,0x1
    22c8:	2442a160 	addiu	v0,v0,-24224
    22cc:	ae220000 	sw	v0,0(s1)
    22d0:	02002021 	move	a0,s0
    22d4:	8fbf0018 	lw	ra,24(sp)
    22d8:	8fb10014 	lw	s1,20(sp)
    22dc:	8fb00010 	lw	s0,16(sp)
    22e0:	00002821 	move	a1,zero
    22e4:	00003021 	move	a2,zero
    22e8:	08000c01 	j	3004 <send_packet>
    22ec:	27bd0020 	addiu	sp,sp,32

000022f0 <send_task_terminated>:
    22f0:	27bdffe0 	addiu	sp,sp,-32
    22f4:	afb00010 	sw	s0,16(sp)
    22f8:	00808021 	move	s0,a0
    22fc:	afbf0018 	sw	ra,24(sp)
    2300:	0c000a29 	jal	28a4 <get_service_header_slot>
    2304:	afb10014 	sw	s1,20(sp)
    2308:	8e030094 	lw	v1,148(s0)
    230c:	24040070 	li	a0,112
    2310:	ac440084 	sw	a0,132(v0)
    2314:	ac43007c 	sw	v1,124(v0)
    2318:	3c110005 	lui	s1,0x5
    231c:	8e030080 	lw	v1,128(s0)
    2320:	8e24a75c 	lw	a0,-22692(s1)
    2324:	00002821 	move	a1,zero
    2328:	ac430088 	sw	v1,136(v0)
    232c:	ac44008c 	sw	a0,140(v0)
    2330:	00003021 	move	a2,zero
    2334:	0c000c01 	jal	3004 <send_packet>
    2338:	00402021 	move	a0,v0
    233c:	8e030094 	lw	v1,148(s0)
    2340:	8e22a75c 	lw	v0,-22692(s1)
    2344:	00000000 	nop
    2348:	10620013 	beq	v1,v0,2398 <send_task_terminated+0xa8>
    234c:	00000000 	nop
    2350:	0c000a29 	jal	28a4 <get_service_header_slot>
    2354:	00000000 	nop
    2358:	8e23a75c 	lw	v1,-22692(s1)
    235c:	24040180 	li	a0,384
    2360:	ac440084 	sw	a0,132(v0)
    2364:	ac43007c 	sw	v1,124(v0)
    2368:	8e030080 	lw	v1,128(s0)
    236c:	00402021 	move	a0,v0
    2370:	ac430088 	sw	v1,136(v0)
    2374:	8e060094 	lw	a2,148(s0)
    2378:	00002821 	move	a1,zero
    237c:	ac46008c 	sw	a2,140(v0)
    2380:	8fbf0018 	lw	ra,24(sp)
    2384:	8fb10014 	lw	s1,20(sp)
    2388:	8fb00010 	lw	s0,16(sp)
    238c:	00003021 	move	a2,zero
    2390:	08000c01 	j	3004 <send_packet>
    2394:	27bd0020 	addiu	sp,sp,32
    2398:	8fbf0018 	lw	ra,24(sp)
    239c:	8fb10014 	lw	s1,20(sp)
    23a0:	8fb00010 	lw	s0,16(sp)
    23a4:	03e00008 	jr	ra
    23a8:	27bd0020 	addiu	sp,sp,32

000023ac <set_net_address>:
    23ac:	3c020005 	lui	v0,0x5
    23b0:	03e00008 	jr	ra
    23b4:	ac44a770 	sw	a0,-22672(v0)

000023b8 <get_net_address>:
    23b8:	3c030005 	lui	v1,0x5
    23bc:	8c62a770 	lw	v0,-22672(v1)
    23c0:	03e00008 	jr	ra
    23c4:	00000000 	nop

000023c8 <itoa>:
    23c8:	14800009 	bnez	a0,23f0 <itoa+0x28>
    23cc:	00802821 	move	a1,a0
    23d0:	3c020005 	lui	v0,0x5
    23d4:	2444a7fc 	addiu	a0,v0,-22532
    23d8:	00802821 	move	a1,a0
    23dc:	24030030 	li	v1,48
    23e0:	a043a7fc 	sb	v1,-22532(v0)
    23e4:	00a01021 	move	v0,a1
    23e8:	03e00008 	jr	ra
    23ec:	a0800001 	sb	zero,1(a0)
    23f0:	3c03cccc 	lui	v1,0xcccc
    23f4:	3463cccd 	ori	v1,v1,0xcccd
    23f8:	00830019 	multu	a0,v1
    23fc:	3c020005 	lui	v0,0x5
    2400:	2446a7fd 	addiu	a2,v0,-22531
    2404:	3c080005 	lui	t0,0x5
    2408:	24070001 	li	a3,1
    240c:	00001810 	mfhi	v1
    2410:	000318c2 	srl	v1,v1,0x3
    2414:	00031040 	sll	v0,v1,0x1
    2418:	000320c0 	sll	a0,v1,0x3
    241c:	00441021 	addu	v0,v0,a0
    2420:	00a21023 	subu	v0,a1,v0
    2424:	24420030 	addiu	v0,v0,48
    2428:	00602821 	move	a1,v1
    242c:	10a00013 	beqz	a1,247c <itoa+0xb4>
    2430:	a102a7fc 	sb	v0,-22532(t0)
    2434:	3c03cccc 	lui	v1,0xcccc
    2438:	3463cccd 	ori	v1,v1,0xcccd
    243c:	00a30019 	multu	a1,v1
    2440:	24e70001 	addiu	a3,a3,1
    2444:	00001810 	mfhi	v1
    2448:	000320c2 	srl	a0,v1,0x3
    244c:	00041040 	sll	v0,a0,0x1
    2450:	000418c0 	sll	v1,a0,0x3
    2454:	00431021 	addu	v0,v0,v1
    2458:	00a21023 	subu	v0,a1,v0
    245c:	24420030 	addiu	v0,v0,48
    2460:	a0c20000 	sb	v0,0(a2)
    2464:	2402000b 	li	v0,11
    2468:	10e2000d 	beq	a3,v0,24a0 <itoa+0xd8>
    246c:	24c60001 	addiu	a2,a2,1
    2470:	00802821 	move	a1,a0
    2474:	14a0fff0 	bnez	a1,2438 <itoa+0x70>
    2478:	3c03cccc 	lui	v1,0xcccc
    247c:	3c040005 	lui	a0,0x5
    2480:	2482a7f0 	addiu	v0,a0,-22544
    2484:	00e21021 	addu	v0,a3,v0
    2488:	24e3ffff 	addiu	v1,a3,-1
    248c:	04610008 	bgez	v1,24b0 <itoa+0xe8>
    2490:	a0400000 	sb	zero,0(v0)
    2494:	2485a7f0 	addiu	a1,a0,-22544
    2498:	03e00008 	jr	ra
    249c:	00a01021 	move	v0,a1
    24a0:	3c040005 	lui	a0,0x5
    24a4:	2482a7f0 	addiu	v0,a0,-22544
    24a8:	2403000a 	li	v1,10
    24ac:	a040000b 	sb	zero,11(v0)
    24b0:	2482a7f0 	addiu	v0,a0,-22544
    24b4:	00621821 	addu	v1,v1,v0
    24b8:	3c020005 	lui	v0,0x5
    24bc:	2505a7fc 	addiu	a1,t0,-22532
    24c0:	2446a7ef 	addiu	a2,v0,-22545
    24c4:	90a20000 	lbu	v0,0(a1)
    24c8:	00000000 	nop
    24cc:	a0620000 	sb	v0,0(v1)
    24d0:	2463ffff 	addiu	v1,v1,-1
    24d4:	1466fffb 	bne	v1,a2,24c4 <itoa+0xfc>
    24d8:	24a50001 	addiu	a1,a1,1
    24dc:	08000926 	j	2498 <itoa+0xd0>
    24e0:	2485a7f0 	addiu	a1,a0,-22544

000024e4 <itoh>:
    24e4:	3c080005 	lui	t0,0x5
    24e8:	2503a7e4 	addiu	v1,t0,-22556
    24ec:	24050030 	li	a1,48
    24f0:	24020078 	li	v0,120
    24f4:	a0620001 	sb	v0,1(v1)
    24f8:	a060000a 	sb	zero,10(v1)
    24fc:	1480000b 	bnez	a0,252c <itoh+0x48>
    2500:	a105a7e4 	sb	a1,-22556(t0)
    2504:	a0650009 	sb	a1,9(v1)
    2508:	a0650002 	sb	a1,2(v1)
    250c:	a0650003 	sb	a1,3(v1)
    2510:	a0650004 	sb	a1,4(v1)
    2514:	a0650005 	sb	a1,5(v1)
    2518:	a0650006 	sb	a1,6(v1)
    251c:	a0650007 	sb	a1,7(v1)
    2520:	a0650008 	sb	a1,8(v1)
    2524:	03e00008 	jr	ra
    2528:	2502a7e4 	addiu	v0,t0,-22556
    252c:	3c020005 	lui	v0,0x5
    2530:	3c030005 	lui	v1,0x5
    2534:	2447a7ed 	addiu	a3,v0,-22547
    2538:	08000954 	j	2550 <itoh+0x6c>
    253c:	2463a7e5 	addiu	v1,v1,-22555
    2540:	a0e60000 	sb	a2,0(a3)
    2544:	24e7ffff 	addiu	a3,a3,-1
    2548:	10e3fff6 	beq	a3,v1,2524 <itoh+0x40>
    254c:	00042102 	srl	a0,a0,0x4
    2550:	3082000f 	andi	v0,a0,0xf
    2554:	24460030 	addiu	a2,v0,48
    2558:	24450057 	addiu	a1,v0,87
    255c:	2c42000a 	sltiu	v0,v0,10
    2560:	1440fff7 	bnez	v0,2540 <itoh+0x5c>
    2564:	00000000 	nop
    2568:	08000951 	j	2544 <itoh+0x60>
    256c:	a0e50000 	sb	a1,0(a3)

00002570 <abs>:
    2570:	04800003 	bltz	a0,2580 <abs+0x10>
    2574:	00801021 	move	v0,a0
    2578:	03e00008 	jr	ra
    257c:	00000000 	nop
    2580:	03e00008 	jr	ra
    2584:	00041023 	negu	v0,a0

00002588 <rand>:
    2588:	30820001 	andi	v0,a0,0x1
    258c:	00021023 	negu	v0,v0
    2590:	3042b400 	andi	v0,v0,0xb400
    2594:	00042043 	sra	a0,a0,0x1
    2598:	00822026 	xor	a0,a0,v0
    259c:	14c00002 	bnez	a2,25a8 <rand+0x20>
    25a0:	0086001a 	div	zero,a0,a2
    25a4:	0007000d 	break	0x7
    25a8:	00001010 	mfhi	v0
    25ac:	03e00008 	jr	ra
    25b0:	00451021 	addu	v0,v0,a1

000025b4 <add>:
    25b4:	03e00008 	jr	ra
    25b8:	00851021 	addu	v0,a0,a1

000025bc <sub>:
    25bc:	03e00008 	jr	ra
    25c0:	00851023 	subu	v0,a0,a1

000025c4 <memset>:
    25c4:	18c00008 	blez	a2,25e8 <memset+0x24>
    25c8:	00801021 	move	v0,a0
    25cc:	30a500ff 	andi	a1,a1,0xff
    25d0:	00c43021 	addu	a2,a2,a0
    25d4:	00801821 	move	v1,a0
    25d8:	a0650000 	sb	a1,0(v1)
    25dc:	24630001 	addiu	v1,v1,1
    25e0:	1466fffd 	bne	v1,a2,25d8 <memset+0x14>
    25e4:	00000000 	nop
    25e8:	03e00008 	jr	ra
    25ec:	00000000 	nop

000025f0 <fixetoa>:
    25f0:	0480004b 	bltz	a0,2720 <fixetoa+0x130>
    25f4:	3c0b0005 	lui	t3,0x5
    25f8:	10800042 	beqz	a0,2704 <fixetoa+0x114>
    25fc:	3c020005 	lui	v0,0x5
    2600:	3c0b0005 	lui	t3,0x5
    2604:	00802821 	move	a1,a0
    2608:	00003021 	move	a2,zero
    260c:	0800098c 	j	2630 <fixetoa+0x40>
    2610:	2567a7d4 	addiu	a3,t3,-22572
    2614:	10400084 	beqz	v0,2828 <fixetoa+0x238>
    2618:	24020030 	li	v0,48
    261c:	a0e20000 	sb	v0,0(a3)
    2620:	24c60001 	addiu	a2,a2,1
    2624:	2402000c 	li	v0,12
    2628:	10c20015 	beq	a2,v0,2680 <fixetoa+0x90>
    262c:	24e70001 	addiu	a3,a3,1
    2630:	00051fc3 	sra	v1,a1,0x1f
    2634:	10a0fff7 	beqz	a1,2614 <fixetoa+0x24>
    2638:	28c20005 	slti	v0,a2,5
    263c:	3c026666 	lui	v0,0x6666
    2640:	34426667 	ori	v0,v0,0x6667
    2644:	00a20018 	mult	a1,v0
    2648:	24c60001 	addiu	a2,a2,1
    264c:	00001010 	mfhi	v0
    2650:	00021083 	sra	v0,v0,0x2
    2654:	00431023 	subu	v0,v0,v1
    2658:	00021840 	sll	v1,v0,0x1
    265c:	000220c0 	sll	a0,v0,0x3
    2660:	00641821 	addu	v1,v1,a0
    2664:	00a31823 	subu	v1,a1,v1
    2668:	24630030 	addiu	v1,v1,48
    266c:	00402821 	move	a1,v0
    2670:	2402000c 	li	v0,12
    2674:	a0e30000 	sb	v1,0(a3)
    2678:	14c2ffed 	bne	a2,v0,2630 <fixetoa+0x40>
    267c:	24e70001 	addiu	a3,a3,1
    2680:	3c090005 	lui	t1,0x5
    2684:	2522a7c4 	addiu	v0,t1,-22588
    2688:	2406000c 	li	a2,12
    268c:	a040000d 	sb	zero,13(v0)
    2690:	2567a7d4 	addiu	a3,t3,-22572
    2694:	00002821 	move	a1,zero
    2698:	2522a7c4 	addiu	v0,t1,-22588
    269c:	90e40000 	lbu	a0,0(a3)
    26a0:	00c21821 	addu	v1,a2,v0
    26a4:	24c6ffff 	addiu	a2,a2,-1
    26a8:	24a50001 	addiu	a1,a1,1
    26ac:	24e70001 	addiu	a3,a3,1
    26b0:	00c24021 	addu	t0,a2,v0
    26b4:	04c00010 	bltz	a2,26f8 <fixetoa+0x108>
    26b8:	a0640000 	sb	a0,0(v1)
    26bc:	24020004 	li	v0,4
    26c0:	14a2fff6 	bne	a1,v0,269c <fixetoa+0xac>
    26c4:	2522a7c4 	addiu	v0,t1,-22588
    26c8:	2402002e 	li	v0,46
    26cc:	a1020000 	sb	v0,0(t0)
    26d0:	24c6ffff 	addiu	a2,a2,-1
    26d4:	2522a7c4 	addiu	v0,t1,-22588
    26d8:	90e40000 	lbu	a0,0(a3)
    26dc:	00c21821 	addu	v1,a2,v0
    26e0:	24c6ffff 	addiu	a2,a2,-1
    26e4:	24a50001 	addiu	a1,a1,1
    26e8:	24e70001 	addiu	a3,a3,1
    26ec:	00c24021 	addu	t0,a2,v0
    26f0:	04c1fff2 	bgez	a2,26bc <fixetoa+0xcc>
    26f4:	a0640000 	sb	a0,0(v1)
    26f8:	2525a7c4 	addiu	a1,t1,-22588
    26fc:	03e00008 	jr	ra
    2700:	00a01021 	move	v0,a1
    2704:	2444a7d4 	addiu	a0,v0,-22572
    2708:	00802821 	move	a1,a0
    270c:	24030030 	li	v1,48
    2710:	a043a7d4 	sb	v1,-22572(v0)
    2714:	00a01021 	move	v0,a1
    2718:	03e00008 	jr	ra
    271c:	a0800001 	sb	zero,1(a0)
    2720:	3c026666 	lui	v0,0x6666
    2724:	00042823 	negu	a1,a0
    2728:	344a6667 	ori	t2,v0,0x6667
    272c:	00003021 	move	a2,zero
    2730:	2567a7d4 	addiu	a3,t3,-22572
    2734:	24090030 	li	t1,48
    2738:	080009d6 	j	2758 <fixetoa+0x168>
    273c:	2408000c 	li	t0,12
    2740:	10400040 	beqz	v0,2844 <fixetoa+0x254>
    2744:	00000000 	nop
    2748:	24c60001 	addiu	a2,a2,1
    274c:	a0e90000 	sb	t1,0(a3)
    2750:	10c80012 	beq	a2,t0,279c <fixetoa+0x1ac>
    2754:	24e70001 	addiu	a3,a3,1
    2758:	00051fc3 	sra	v1,a1,0x1f
    275c:	10a0fff8 	beqz	a1,2740 <fixetoa+0x150>
    2760:	28c20005 	slti	v0,a2,5
    2764:	00aa0018 	mult	a1,t2
    2768:	24c60001 	addiu	a2,a2,1
    276c:	00001010 	mfhi	v0
    2770:	00021083 	sra	v0,v0,0x2
    2774:	00431023 	subu	v0,v0,v1
    2778:	00021840 	sll	v1,v0,0x1
    277c:	000220c0 	sll	a0,v0,0x3
    2780:	00641821 	addu	v1,v1,a0
    2784:	00a31823 	subu	v1,a1,v1
    2788:	24630030 	addiu	v1,v1,48
    278c:	a0e30000 	sb	v1,0(a3)
    2790:	00402821 	move	a1,v0
    2794:	14c8fff0 	bne	a2,t0,2758 <fixetoa+0x168>
    2798:	24e70001 	addiu	a3,a3,1
    279c:	3c090005 	lui	t1,0x5
    27a0:	2522a7c4 	addiu	v0,t1,-22588
    27a4:	a040000e 	sb	zero,14(v0)
    27a8:	2405000d 	li	a1,13
    27ac:	2567a7d4 	addiu	a3,t3,-22572
    27b0:	00003021 	move	a2,zero
    27b4:	2522a7c4 	addiu	v0,t1,-22588
    27b8:	90e40000 	lbu	a0,0(a3)
    27bc:	00a21821 	addu	v1,a1,v0
    27c0:	24a5ffff 	addiu	a1,a1,-1
    27c4:	24c60001 	addiu	a2,a2,1
    27c8:	24e70001 	addiu	a3,a3,1
    27cc:	00a24021 	addu	t0,a1,v0
    27d0:	04a00010 	bltz	a1,2814 <fixetoa+0x224>
    27d4:	a0640000 	sb	a0,0(v1)
    27d8:	24020004 	li	v0,4
    27dc:	14c2fff6 	bne	a2,v0,27b8 <fixetoa+0x1c8>
    27e0:	2522a7c4 	addiu	v0,t1,-22588
    27e4:	2402002e 	li	v0,46
    27e8:	a1020000 	sb	v0,0(t0)
    27ec:	24a5ffff 	addiu	a1,a1,-1
    27f0:	2522a7c4 	addiu	v0,t1,-22588
    27f4:	90e40000 	lbu	a0,0(a3)
    27f8:	00a21821 	addu	v1,a1,v0
    27fc:	24a5ffff 	addiu	a1,a1,-1
    2800:	24c60001 	addiu	a2,a2,1
    2804:	24e70001 	addiu	a3,a3,1
    2808:	00a24021 	addu	t0,a1,v0
    280c:	04a1fff2 	bgez	a1,27d8 <fixetoa+0x1e8>
    2810:	a0640000 	sb	a0,0(v1)
    2814:	2525a7c4 	addiu	a1,t1,-22588
    2818:	2402002d 	li	v0,45
    281c:	a122a7c4 	sb	v0,-22588(t1)
    2820:	03e00008 	jr	ra
    2824:	00a01021 	move	v0,a1
    2828:	3c090005 	lui	t1,0x5
    282c:	2522a7c4 	addiu	v0,t1,-22588
    2830:	00c21021 	addu	v0,a2,v0
    2834:	04c1ff96 	bgez	a2,2690 <fixetoa+0xa0>
    2838:	a0400001 	sb	zero,1(v0)
    283c:	080009bf 	j	26fc <fixetoa+0x10c>
    2840:	2525a7c4 	addiu	a1,t1,-22588
    2844:	3c090005 	lui	t1,0x5
    2848:	2522a7c4 	addiu	v0,t1,-22588
    284c:	00c21021 	addu	v0,a2,v0
    2850:	24c50001 	addiu	a1,a2,1
    2854:	04a1ffd5 	bgez	a1,27ac <fixetoa+0x1bc>
    2858:	a0400002 	sb	zero,2(v0)
    285c:	08000a06 	j	2818 <fixetoa+0x228>
    2860:	2525a7c4 	addiu	a1,t1,-22588

00002864 <strcpy>:
    2864:	00801821 	move	v1,a0
    2868:	80a20000 	lb	v0,0(a1)
    286c:	24a50001 	addiu	a1,a1,1
    2870:	a0620000 	sb	v0,0(v1)
    2874:	1440fffc 	bnez	v0,2868 <strcpy+0x4>
    2878:	24630001 	addiu	v1,v1,1
    287c:	03e00008 	jr	ra
    2880:	00801021 	move	v0,a0

00002884 <strlen>:
    2884:	00801821 	move	v1,a0
    2888:	80620000 	lb	v0,0(v1)
    288c:	00000000 	nop
    2890:	1440fffd 	bnez	v0,2888 <strlen+0x4>
    2894:	24630001 	addiu	v1,v1,1
    2898:	00641023 	subu	v0,v1,a0
    289c:	03e00008 	jr	ra
    28a0:	2442ffff 	addiu	v0,v0,-1

000028a4 <get_service_header_slot>:
    28a4:	3c020005 	lui	v0,0x5
    28a8:	2444cb2c 	addiu	a0,v0,-13524
    28ac:	8c8200b0 	lw	v0,176(a0)
    28b0:	3c030005 	lui	v1,0x5
    28b4:	2463ca78 	addiu	v1,v1,-13704
    28b8:	10400007 	beqz	v0,28d8 <get_service_header_slot+0x34>
    28bc:	00802821 	move	a1,a0
    28c0:	24030001 	li	v1,1
    28c4:	3c020005 	lui	v0,0x5
    28c8:	ac43cb28 	sw	v1,-13528(v0)
    28cc:	00a01021 	move	v0,a1
    28d0:	03e00008 	jr	ra
    28d4:	ac8000b0 	sw	zero,176(a0)
    28d8:	24020001 	li	v0,1
    28dc:	00602821 	move	a1,v1
    28e0:	ac8200b0 	sw	v0,176(a0)
    28e4:	00a01021 	move	v0,a1
    28e8:	03e00008 	jr	ra
    28ec:	ac6000b0 	sw	zero,176(v1)

000028f0 <init_service_header_slots>:
    28f0:	24020001 	li	v0,1
    28f4:	3c030005 	lui	v1,0x5
    28f8:	3c040005 	lui	a0,0x5
    28fc:	ac62cb28 	sw	v0,-13528(v1)
    2900:	03e00008 	jr	ra
    2904:	ac82cbdc 	sw	v0,-13348(a0)

00002908 <DMNI_read_data>:
    2908:	3c022000 	lui	v0,0x2000
    290c:	3c0c2000 	lui	t4,0x2000
    2910:	34480230 	ori	t0,v0,0x230
    2914:	24070001 	li	a3,1
    2918:	34430200 	ori	v1,v0,0x200
    291c:	34460220 	ori	a2,v0,0x220
    2920:	34420210 	ori	v0,v0,0x210
    2924:	ac650000 	sw	a1,0(v1)
    2928:	358b0260 	ori	t3,t4,0x260
    292c:	acc70000 	sw	a3,0(a2)
    2930:	358a0530 	ori	t2,t4,0x530
    2934:	ac440000 	sw	a0,0(v0)
    2938:	24090001 	li	t1,1
    293c:	ad070000 	sw	a3,0(t0)
    2940:	8d620000 	lw	v0,0(t3)
    2944:	00000000 	nop
    2948:	1040000a 	beqz	v0,2974 <DMNI_read_data+0x6c>
    294c:	24030001 	li	v1,1
    2950:	8d420000 	lw	v0,0(t2)
    2954:	00000000 	nop
    2958:	1449fff9 	bne	v0,t1,2940 <DMNI_read_data+0x38>
    295c:	3c020001 	lui	v0,0x1
    2960:	2403ffff 	li	v1,-1
    2964:	24429eec 	addiu	v0,v0,-24852
    2968:	ad820000 	sw	v0,0(t4)
    296c:	03e00008 	jr	ra
    2970:	00601021 	move	v0,v1
    2974:	03e00008 	jr	ra
    2978:	00601021 	move	v0,v1

0000297c <DMNI_send_data>:
    297c:	3c062000 	lui	a2,0x2000
    2980:	00804021 	move	t0,a0
    2984:	00a03821 	move	a3,a1
    2988:	34c30250 	ori	v1,a2,0x250
    298c:	8c620000 	lw	v0,0(v1)
    2990:	00000000 	nop
    2994:	1440fffd 	bnez	v0,298c <DMNI_send_data+0x10>
    2998:	34c20200 	ori	v0,a2,0x200
    299c:	ac470000 	sw	a3,0(v0)
    29a0:	34c50230 	ori	a1,a2,0x230
    29a4:	34c30220 	ori	v1,a2,0x220
    29a8:	34c40210 	ori	a0,a2,0x210
    29ac:	24020001 	li	v0,1
    29b0:	ac600000 	sw	zero,0(v1)
    29b4:	ac880000 	sw	t0,0(a0)
    29b8:	aca20000 	sw	v0,0(a1)
    29bc:	03e00008 	jr	ra
    29c0:	00000000 	nop

000029c4 <get_last_hop>:
    29c4:	3c060005 	lui	a2,0x5
    29c8:	24c3a6b4 	addiu	v1,a2,-22860
    29cc:	8c620004 	lw	v0,4(v1)
    29d0:	00000000 	nop
    29d4:	14440012 	bne	v0,a0,2a20 <get_last_hop+0x5c>
    29d8:	00000000 	nop
    29dc:	8c620008 	lw	v0,8(v1)
    29e0:	00000000 	nop
    29e4:	1445000e 	bne	v0,a1,2a20 <get_last_hop+0x5c>
    29e8:	24020003 	li	v0,3
    29ec:	8c63000c 	lw	v1,12(v1)
    29f0:	00000000 	nop
    29f4:	10620025 	beq	v1,v0,2a8c <get_last_hop+0xc8>
    29f8:	00000000 	nop
    29fc:	28620004 	slti	v0,v1,4
    2a00:	1440001e 	bnez	v0,2a7c <get_last_hop+0xb8>
    2a04:	24020002 	li	v0,2
    2a08:	24020004 	li	v0,4
    2a0c:	10620027 	beq	v1,v0,2aac <get_last_hop+0xe8>
    2a10:	00000000 	nop
    2a14:	24020005 	li	v0,5
    2a18:	10620022 	beq	v1,v0,2aa4 <get_last_hop+0xe0>
    2a1c:	24c3a6b4 	addiu	v1,a2,-22860
    2a20:	8c620024 	lw	v0,36(v1)
    2a24:	00000000 	nop
    2a28:	14440012 	bne	v0,a0,2a74 <get_last_hop+0xb0>
    2a2c:	00000000 	nop
    2a30:	8c620028 	lw	v0,40(v1)
    2a34:	00000000 	nop
    2a38:	1445000e 	bne	v0,a1,2a74 <get_last_hop+0xb0>
    2a3c:	00000000 	nop
    2a40:	8c63002c 	lw	v1,44(v1)
    2a44:	24020003 	li	v0,3
    2a48:	10620010 	beq	v1,v0,2a8c <get_last_hop+0xc8>
    2a4c:	00000000 	nop
    2a50:	28620004 	slti	v0,v1,4
    2a54:	1440000f 	bnez	v0,2a94 <get_last_hop+0xd0>
    2a58:	24020002 	li	v0,2
    2a5c:	24020004 	li	v0,4
    2a60:	10620012 	beq	v1,v0,2aac <get_last_hop+0xe8>
    2a64:	00000000 	nop
    2a68:	24020005 	li	v0,5
    2a6c:	1062000d 	beq	v1,v0,2aa4 <get_last_hop+0xe0>
    2a70:	00000000 	nop
    2a74:	03e00008 	jr	ra
    2a78:	2402ffff 	li	v0,-1
    2a7c:	1462ffe8 	bne	v1,v0,2a20 <get_last_hop+0x5c>
    2a80:	24c3a6b4 	addiu	v1,a2,-22860
    2a84:	03e00008 	jr	ra
    2a88:	24020003 	li	v0,3
    2a8c:	03e00008 	jr	ra
    2a90:	24020001 	li	v0,1
    2a94:	1062fffb 	beq	v1,v0,2a84 <get_last_hop+0xc0>
    2a98:	00000000 	nop
    2a9c:	03e00008 	jr	ra
    2aa0:	2402ffff 	li	v0,-1
    2aa4:	03e00008 	jr	ra
    2aa8:	24020002 	li	v0,2
    2aac:	03e00008 	jr	ra
    2ab0:	00001021 	move	v0,zero

00002ab4 <find_io_peripheral>:
    2ab4:	3c080005 	lui	t0,0x5
    2ab8:	2507a6b4 	addiu	a3,t0,-22860
    2abc:	3082ff00 	andi	v0,a0,0xff00
    2ac0:	8ce30004 	lw	v1,4(a3)
    2ac4:	00022a02 	srl	a1,v0,0x8
    2ac8:	00e04821 	move	t1,a3
    2acc:	10650007 	beq	v1,a1,2aec <find_io_peripheral+0x38>
    2ad0:	308600ff 	andi	a2,a0,0xff
    2ad4:	8d220024 	lw	v0,36(t1)
    2ad8:	308400ff 	andi	a0,a0,0xff
    2adc:	1045000d 	beq	v0,a1,2b14 <find_io_peripheral+0x60>
    2ae0:	00001821 	move	v1,zero
    2ae4:	03e00008 	jr	ra
    2ae8:	00601021 	move	v0,v1
    2aec:	8ce20008 	lw	v0,8(a3)
    2af0:	00000000 	nop
    2af4:	1446fff7 	bne	v0,a2,2ad4 <find_io_peripheral+0x20>
    2af8:	00003821 	move	a3,zero
    2afc:	2503a6b4 	addiu	v1,t0,-22860
    2b00:	00071140 	sll	v0,a3,0x5
    2b04:	00431021 	addu	v0,v0,v1
    2b08:	8c430000 	lw	v1,0(v0)
    2b0c:	08000ab9 	j	2ae4 <find_io_peripheral+0x30>
    2b10:	00000000 	nop
    2b14:	8d220028 	lw	v0,40(t1)
    2b18:	00000000 	nop
    2b1c:	1044fff7 	beq	v0,a0,2afc <find_io_peripheral+0x48>
    2b20:	24070001 	li	a3,1
    2b24:	03e00008 	jr	ra
    2b28:	00601021 	move	v0,v1

00002b2c <find_peripheral_at_line_column>:
    2b2c:	3c070005 	lui	a3,0x5
    2b30:	24e2a6b4 	addiu	v0,a3,-22860
    2b34:	8c460004 	lw	a2,4(v0)
    2b38:	00041a02 	srl	v1,a0,0x8
    2b3c:	10660015 	beq	v1,a2,2b94 <find_peripheral_at_line_column+0x68>
    2b40:	308500ff 	andi	a1,a0,0xff
    2b44:	8c420008 	lw	v0,8(v0)
    2b48:	00000000 	nop
    2b4c:	10a20022 	beq	a1,v0,2bd8 <find_peripheral_at_line_column+0xac>
    2b50:	00c3102a 	slt	v0,a2,v1
    2b54:	24e2a6b4 	addiu	v0,a3,-22860
    2b58:	8c440024 	lw	a0,36(v0)
    2b5c:	00000000 	nop
    2b60:	10640016 	beq	v1,a0,2bbc <find_peripheral_at_line_column+0x90>
    2b64:	00000000 	nop
    2b68:	8c420028 	lw	v0,40(v0)
    2b6c:	00000000 	nop
    2b70:	10a20003 	beq	a1,v0,2b80 <find_peripheral_at_line_column+0x54>
    2b74:	00000000 	nop
    2b78:	03e00008 	jr	ra
    2b7c:	00001021 	move	v0,zero
    2b80:	0083102a 	slt	v0,a0,v1
    2b84:	1440fffc 	bnez	v0,2b78 <find_peripheral_at_line_column+0x4c>
    2b88:	00000000 	nop
    2b8c:	03e00008 	jr	ra
    2b90:	24020001 	li	v0,1
    2b94:	8c420008 	lw	v0,8(v0)
    2b98:	00000000 	nop
    2b9c:	0045102a 	slt	v0,v0,a1
    2ba0:	1040fffa 	beqz	v0,2b8c <find_peripheral_at_line_column+0x60>
    2ba4:	00000000 	nop
    2ba8:	24e2a6b4 	addiu	v0,a3,-22860
    2bac:	8c440024 	lw	a0,36(v0)
    2bb0:	00000000 	nop
    2bb4:	1464ffec 	bne	v1,a0,2b68 <find_peripheral_at_line_column+0x3c>
    2bb8:	00000000 	nop
    2bbc:	8c420028 	lw	v0,40(v0)
    2bc0:	00000000 	nop
    2bc4:	0045102a 	slt	v0,v0,a1
    2bc8:	1040fff0 	beqz	v0,2b8c <find_peripheral_at_line_column+0x60>
    2bcc:	00000000 	nop
    2bd0:	03e00008 	jr	ra
    2bd4:	00001021 	move	v0,zero
    2bd8:	1440ffde 	bnez	v0,2b54 <find_peripheral_at_line_column+0x28>
    2bdc:	00000000 	nop
    2be0:	08000ae3 	j	2b8c <find_peripheral_at_line_column+0x60>
    2be4:	00000000 	nop

00002be8 <peripheral_connected_to_PE>:
    2be8:	3c020005 	lui	v0,0x5
    2bec:	2446a6b4 	addiu	a2,v0,-22860
    2bf0:	8cc30004 	lw	v1,4(a2)
    2bf4:	00000000 	nop
    2bf8:	10640007 	beq	v1,a0,2c18 <peripheral_connected_to_PE+0x30>
    2bfc:	00003821 	move	a3,zero
    2c00:	8cc20024 	lw	v0,36(a2)
    2c04:	00000000 	nop
    2c08:	10440009 	beq	v0,a0,2c30 <peripheral_connected_to_PE+0x48>
    2c0c:	00000000 	nop
    2c10:	03e00008 	jr	ra
    2c14:	00e01021 	move	v0,a3
    2c18:	8cc20008 	lw	v0,8(a2)
    2c1c:	00000000 	nop
    2c20:	1445fff7 	bne	v0,a1,2c00 <peripheral_connected_to_PE+0x18>
    2c24:	00000000 	nop
    2c28:	08000b04 	j	2c10 <peripheral_connected_to_PE+0x28>
    2c2c:	24070001 	li	a3,1
    2c30:	8cc20028 	lw	v0,40(a2)
    2c34:	00000000 	nop
    2c38:	1045fffb 	beq	v0,a1,2c28 <peripheral_connected_to_PE+0x40>
    2c3c:	00000000 	nop
    2c40:	03e00008 	jr	ra
    2c44:	00e01021 	move	v0,a3

00002c48 <read_packet>:
    2c48:	3c032000 	lui	v1,0x2000
    2c4c:	27bdffe8 	addiu	sp,sp,-24
    2c50:	00806021 	move	t4,a0
    2c54:	afb00010 	sw	s0,16(sp)
    2c58:	34680230 	ori	t0,v1,0x230
    2c5c:	3c102000 	lui	s0,0x2000
    2c60:	24040001 	li	a0,1
    2c64:	34650200 	ori	a1,v1,0x200
    2c68:	34660220 	ori	a2,v1,0x220
    2c6c:	25870078 	addiu	a3,t4,120
    2c70:	34630210 	ori	v1,v1,0x210
    2c74:	2402000d 	li	v0,13
    2c78:	afbf0014 	sw	ra,20(sp)
    2c7c:	360b0260 	ori	t3,s0,0x260
    2c80:	aca20000 	sw	v0,0(a1)
    2c84:	360a0530 	ori	t2,s0,0x530
    2c88:	acc40000 	sw	a0,0(a2)
    2c8c:	24090001 	li	t1,1
    2c90:	ac670000 	sw	a3,0(v1)
    2c94:	ad040000 	sw	a0,0(t0)
    2c98:	8d620000 	lw	v0,0(t3)
    2c9c:	00000000 	nop
    2ca0:	10400012 	beqz	v0,2cec <read_packet+0xa4>
    2ca4:	24030001 	li	v1,1
    2ca8:	8d420000 	lw	v0,0(t2)
    2cac:	00000000 	nop
    2cb0:	1449fff9 	bne	v0,t1,2c98 <read_packet+0x50>
    2cb4:	00000000 	nop
    2cb8:	8d840078 	lw	a0,120(t4)
    2cbc:	0c000939 	jal	24e4 <itoh>
    2cc0:	00000000 	nop
    2cc4:	ae020000 	sw	v0,0(s0)
    2cc8:	3c020001 	lui	v0,0x1
    2ccc:	24429f08 	addiu	v0,v0,-24824
    2cd0:	ae020000 	sw	v0,0(s0)
    2cd4:	2403ffff 	li	v1,-1
    2cd8:	8fbf0014 	lw	ra,20(sp)
    2cdc:	8fb00010 	lw	s0,16(sp)
    2ce0:	00601021 	move	v0,v1
    2ce4:	03e00008 	jr	ra
    2ce8:	27bd0018 	addiu	sp,sp,24
    2cec:	8fbf0014 	lw	ra,20(sp)
    2cf0:	8fb00010 	lw	s0,16(sp)
    2cf4:	00601021 	move	v0,v1
    2cf8:	03e00008 	jr	ra
    2cfc:	27bd0018 	addiu	sp,sp,24

00002d00 <send_packet_io>:
    2d00:	27bdffd8 	addiu	sp,sp,-40
    2d04:	afb3001c 	sw	s3,28(sp)
    2d08:	afb20018 	sw	s2,24(sp)
    2d0c:	afb00010 	sw	s0,16(sp)
    2d10:	afbf0024 	sw	ra,36(sp)
    2d14:	afb40020 	sw	s4,32(sp)
    2d18:	afb10014 	sw	s1,20(sp)
    2d1c:	3c080005 	lui	t0,0x5
    2d20:	8d02a6b4 	lw	v0,-22860(t0)
    2d24:	00808021 	move	s0,a0
    2d28:	00a09021 	move	s2,a1
    2d2c:	10470087 	beq	v0,a3,2f4c <send_packet_io+0x24c>
    2d30:	00c09821 	move	s3,a2
    2d34:	2502a6b4 	addiu	v0,t0,-22860
    2d38:	8c430020 	lw	v1,32(v0)
    2d3c:	00000000 	nop
    2d40:	10670007 	beq	v1,a3,2d60 <send_packet_io+0x60>
    2d44:	24030001 	li	v1,1
    2d48:	3c020001 	lui	v0,0x1
    2d4c:	2442a5e0 	addiu	v0,v0,-23072
    2d50:	3c032000 	lui	v1,0x2000
    2d54:	ac620000 	sw	v0,0(v1)
    2d58:	08000b56 	j	2d58 <send_packet_io+0x58>
    2d5c:	00000000 	nop
    2d60:	2504a6b4 	addiu	a0,t0,-22860
    2d64:	00031940 	sll	v1,v1,0x5
    2d68:	00641821 	addu	v1,v1,a0
    2d6c:	8c620004 	lw	v0,4(v1)
    2d70:	8c640008 	lw	a0,8(v1)
    2d74:	00021200 	sll	v0,v0,0x8
    2d78:	00441025 	or	v0,v0,a0
    2d7c:	ae02007c 	sw	v0,124(s0)
    2d80:	8c71000c 	lw	s1,12(v1)
    2d84:	2414ffff 	li	s4,-1
    2d88:	1234ffef 	beq	s1,s4,2d48 <send_packet_io+0x48>
    2d8c:	2662000b 	addiu	v0,s3,11
    2d90:	ae020080 	sw	v0,128(s0)
    2d94:	ae000098 	sw	zero,152(s0)
    2d98:	0c0008ee 	jal	23b8 <get_net_address>
    2d9c:	00000000 	nop
    2da0:	ae020090 	sw	v0,144(s0)
    2da4:	8e030090 	lw	v1,144(s0)
    2da8:	8e020090 	lw	v0,144(s0)
    2dac:	30633f00 	andi	v1,v1,0x3f00
    2db0:	8e04007c 	lw	a0,124(s0)
    2db4:	3042003f 	andi	v0,v0,0x3f
    2db8:	00031882 	srl	v1,v1,0x2
    2dbc:	00621825 	or	v1,v1,v0
    2dc0:	00118f00 	sll	s1,s1,0x1c
    2dc4:	02242025 	or	a0,s1,a0
    2dc8:	00031c00 	sll	v1,v1,0x10
    2dcc:	00641825 	or	v1,v1,a0
    2dd0:	ae030078 	sw	v1,120(s0)
    2dd4:	8e020090 	lw	v0,144(s0)
    2dd8:	8e040090 	lw	a0,144(s0)
    2ddc:	30423f00 	andi	v0,v0,0x3f00
    2de0:	8e03007c 	lw	v1,124(s0)
    2de4:	3084003f 	andi	a0,a0,0x3f
    2de8:	00021082 	srl	v0,v0,0x2
    2dec:	00441025 	or	v0,v0,a0
    2df0:	02231825 	or	v1,s1,v1
    2df4:	00021400 	sll	v0,v0,0x10
    2df8:	00431025 	or	v0,v0,v1
    2dfc:	ae02007c 	sw	v0,124(s0)
    2e00:	8e04007c 	lw	a0,124(s0)
    2e04:	0c0018ec 	jal	63b0 <SearchSourceRoutingDestination>
    2e08:	3084ffff 	andi	a0,a0,0xffff
    2e0c:	10540051 	beq	v0,s4,2f54 <send_packet_io+0x254>
    2e10:	00403821 	move	a3,v0
    2e14:	00022080 	sll	a0,v0,0x2
    2e18:	00021900 	sll	v1,v0,0x4
    2e1c:	00641823 	subu	v1,v1,a0
    2e20:	00031180 	sll	v0,v1,0x6
    2e24:	00621821 	addu	v1,v1,v0
    2e28:	3c020005 	lui	v0,0x5
    2e2c:	8e040090 	lw	a0,144(s0)
    2e30:	2442f2c4 	addiu	v0,v0,-3388
    2e34:	00624021 	addu	t0,v1,v0
    2e38:	8e050090 	lw	a1,144(s0)
    2e3c:	8d060088 	lw	a2,136(t0)
    2e40:	30843f00 	andi	a0,a0,0x3f00
    2e44:	8e03007c 	lw	v1,124(s0)
    2e48:	00042082 	srl	a0,a0,0x2
    2e4c:	30a5003f 	andi	a1,a1,0x3f
    2e50:	2402001f 	li	v0,31
    2e54:	00852025 	or	a0,a0,a1
    2e58:	00461023 	subu	v0,v0,a2
    2e5c:	02231825 	or	v1,s1,v1
    2e60:	00042400 	sll	a0,a0,0x10
    2e64:	00021080 	sll	v0,v0,0x2
    2e68:	00832025 	or	a0,a0,v1
    2e6c:	00501021 	addu	v0,v0,s0
    2e70:	ac440000 	sw	a0,0(v0)
    2e74:	10c0000d 	beqz	a2,2eac <send_packet_io+0x1ac>
    2e78:	01002021 	move	a0,t0
    2e7c:	00002821 	move	a1,zero
    2e80:	00001021 	move	v0,zero
    2e84:	00461023 	subu	v0,v0,a2
    2e88:	24420020 	addiu	v0,v0,32
    2e8c:	8c830000 	lw	v1,0(a0)
    2e90:	00021080 	sll	v0,v0,0x2
    2e94:	00501021 	addu	v0,v0,s0
    2e98:	24a50001 	addiu	a1,a1,1
    2e9c:	ac430000 	sw	v1,0(v0)
    2ea0:	24840004 	addiu	a0,a0,4
    2ea4:	14c5fff7 	bne	a2,a1,2e84 <send_packet_io+0x184>
    2ea8:	00a01021 	move	v0,a1
    2eac:	24040001 	li	a0,1
    2eb0:	3c062000 	lui	a2,0x2000
    2eb4:	34c20250 	ori	v0,a2,0x250
    2eb8:	8c430000 	lw	v1,0(v0)
    2ebc:	00000000 	nop
    2ec0:	1460fffb 	bnez	v1,2eb0 <send_packet_io+0x1b0>
    2ec4:	34c20300 	ori	v0,a2,0x300
    2ec8:	8c430000 	lw	v1,0(v0)
    2ecc:	24020001 	li	v0,1
    2ed0:	ae030094 	sw	v1,148(s0)
    2ed4:	10820038 	beq	a0,v0,2fb8 <send_packet_io+0x2b8>
    2ed8:	34c50210 	ori	a1,a2,0x210
    2edc:	34c30200 	ori	v1,a2,0x200
    2ee0:	26040078 	addiu	a0,s0,120
    2ee4:	2402000d 	li	v0,13
    2ee8:	ac620000 	sw	v0,0(v1)
    2eec:	aca40000 	sw	a0,0(a1)
    2ef0:	12600005 	beqz	s3,2f08 <send_packet_io+0x208>
    2ef4:	3c022000 	lui	v0,0x2000
    2ef8:	34430215 	ori	v1,v0,0x215
    2efc:	34420205 	ori	v0,v0,0x205
    2f00:	ac530000 	sw	s3,0(v0)
    2f04:	ac720000 	sw	s2,0(v1)
    2f08:	3c022000 	lui	v0,0x2000
    2f0c:	34470230 	ori	a3,v0,0x230
    2f10:	24030001 	li	v1,1
    2f14:	34420220 	ori	v0,v0,0x220
    2f18:	ac400000 	sw	zero,0(v0)
    2f1c:	ace30000 	sw	v1,0(a3)
    2f20:	02002021 	move	a0,s0
    2f24:	02402821 	move	a1,s2
    2f28:	02603021 	move	a2,s3
    2f2c:	8fbf0024 	lw	ra,36(sp)
    2f30:	8fb40020 	lw	s4,32(sp)
    2f34:	8fb3001c 	lw	s3,28(sp)
    2f38:	8fb20018 	lw	s2,24(sp)
    2f3c:	8fb10014 	lw	s1,20(sp)
    2f40:	8fb00010 	lw	s0,16(sp)
    2f44:	08001bf2 	j	6fc8 <insert_CM_FIFO>
    2f48:	27bd0028 	addiu	sp,sp,40
    2f4c:	08000b58 	j	2d60 <send_packet_io+0x60>
    2f50:	00001821 	move	v1,zero
    2f54:	8e020090 	lw	v0,144(s0)
    2f58:	8e040090 	lw	a0,144(s0)
    2f5c:	30423f00 	andi	v0,v0,0x3f00
    2f60:	8e03007c 	lw	v1,124(s0)
    2f64:	3084003f 	andi	a0,a0,0x3f
    2f68:	00021082 	srl	v0,v0,0x2
    2f6c:	00441025 	or	v0,v0,a0
    2f70:	02231825 	or	v1,s1,v1
    2f74:	00021400 	sll	v0,v0,0x10
    2f78:	00431025 	or	v0,v0,v1
    2f7c:	ae020078 	sw	v0,120(s0)
    2f80:	8e030090 	lw	v1,144(s0)
    2f84:	8e040090 	lw	a0,144(s0)
    2f88:	30633f00 	andi	v1,v1,0x3f00
    2f8c:	3084003f 	andi	a0,a0,0x3f
    2f90:	8e02007c 	lw	v0,124(s0)
    2f94:	00031882 	srl	v1,v1,0x2
    2f98:	00641825 	or	v1,v1,a0
    2f9c:	02221025 	or	v0,s1,v0
    2fa0:	00031c00 	sll	v1,v1,0x10
    2fa4:	00621825 	or	v1,v1,v0
    2fa8:	00002021 	move	a0,zero
    2fac:	ae03007c 	sw	v1,124(s0)
    2fb0:	08000bad 	j	2eb4 <send_packet_io+0x1b4>
    2fb4:	3c062000 	lui	a2,0x2000
    2fb8:	00071080 	sll	v0,a3,0x2
    2fbc:	00071900 	sll	v1,a3,0x4
    2fc0:	00621823 	subu	v1,v1,v0
    2fc4:	00032180 	sll	a0,v1,0x6
    2fc8:	3c020005 	lui	v0,0x5
    2fcc:	00641821 	addu	v1,v1,a0
    2fd0:	2442f2c4 	addiu	v0,v0,-3388
    2fd4:	00621821 	addu	v1,v1,v0
    2fd8:	8c640088 	lw	a0,136(v1)
    2fdc:	2402001f 	li	v0,31
    2fe0:	00441023 	subu	v0,v0,a0
    2fe4:	00021080 	sll	v0,v0,0x2
    2fe8:	02021021 	addu	v0,s0,v0
    2fec:	2484000c 	addiu	a0,a0,12
    2ff0:	34c30200 	ori	v1,a2,0x200
    2ff4:	ac640000 	sw	a0,0(v1)
    2ff8:	aca20000 	sw	v0,0(a1)
    2ffc:	08000bbc 	j	2ef0 <send_packet_io+0x1f0>
    3000:	00000000 	nop

00003004 <send_packet>:
    3004:	27bdffe0 	addiu	sp,sp,-32
    3008:	24c2000b 	addiu	v0,a2,11
    300c:	afbf001c 	sw	ra,28(sp)
    3010:	afb20018 	sw	s2,24(sp)
    3014:	afb10014 	sw	s1,20(sp)
    3018:	afb00010 	sw	s0,16(sp)
    301c:	ac820080 	sw	v0,128(a0)
    3020:	ac800098 	sw	zero,152(a0)
    3024:	00808021 	move	s0,a0
    3028:	00c08821 	move	s1,a2
    302c:	0c0008ee 	jal	23b8 <get_net_address>
    3030:	00a09021 	move	s2,a1
    3034:	ae020090 	sw	v0,144(s0)
    3038:	8e04007c 	lw	a0,124(s0)
    303c:	0c0018ec 	jal	63b0 <SearchSourceRoutingDestination>
    3040:	3084ffff 	andi	a0,a0,0xffff
    3044:	00404021 	move	t0,v0
    3048:	2402ffff 	li	v0,-1
    304c:	1102004f 	beq	t0,v0,318c <send_packet+0x188>
    3050:	00000000 	nop
    3054:	8e030084 	lw	v1,132(s0)
    3058:	24020295 	li	v0,661
    305c:	1062004b 	beq	v1,v0,318c <send_packet+0x188>
    3060:	00081880 	sll	v1,t0,0x2
    3064:	00082100 	sll	a0,t0,0x4
    3068:	00832023 	subu	a0,a0,v1
    306c:	00041180 	sll	v0,a0,0x6
    3070:	00822021 	addu	a0,a0,v0
    3074:	3c020005 	lui	v0,0x5
    3078:	8e030090 	lw	v1,144(s0)
    307c:	2442f2c4 	addiu	v0,v0,-3388
    3080:	00823821 	addu	a3,a0,v0
    3084:	8e050090 	lw	a1,144(s0)
    3088:	8ce60088 	lw	a2,136(a3)
    308c:	30633f00 	andi	v1,v1,0x3f00
    3090:	00031882 	srl	v1,v1,0x2
    3094:	30a5003f 	andi	a1,a1,0x3f
    3098:	2402001f 	li	v0,31
    309c:	8e04007c 	lw	a0,124(s0)
    30a0:	00651825 	or	v1,v1,a1
    30a4:	00461023 	subu	v0,v0,a2
    30a8:	00031c00 	sll	v1,v1,0x10
    30ac:	00021080 	sll	v0,v0,0x2
    30b0:	00641825 	or	v1,v1,a0
    30b4:	00501021 	addu	v0,v0,s0
    30b8:	ac430000 	sw	v1,0(v0)
    30bc:	10c0000d 	beqz	a2,30f4 <send_packet+0xf0>
    30c0:	00e02021 	move	a0,a3
    30c4:	00002821 	move	a1,zero
    30c8:	00001021 	move	v0,zero
    30cc:	00461023 	subu	v0,v0,a2
    30d0:	24420020 	addiu	v0,v0,32
    30d4:	8c830000 	lw	v1,0(a0)
    30d8:	00021080 	sll	v0,v0,0x2
    30dc:	00501021 	addu	v0,v0,s0
    30e0:	24a50001 	addiu	a1,a1,1
    30e4:	ac430000 	sw	v1,0(v0)
    30e8:	24840004 	addiu	a0,a0,4
    30ec:	14c5fff7 	bne	a2,a1,30cc <send_packet+0xc8>
    30f0:	00a01021 	move	v0,a1
    30f4:	24040001 	li	a0,1
    30f8:	3c062000 	lui	a2,0x2000
    30fc:	34c20250 	ori	v0,a2,0x250
    3100:	8c430000 	lw	v1,0(v0)
    3104:	00000000 	nop
    3108:	1460fffb 	bnez	v1,30f8 <send_packet+0xf4>
    310c:	34c20300 	ori	v0,a2,0x300
    3110:	8c430000 	lw	v1,0(v0)
    3114:	24020001 	li	v0,1
    3118:	ae030094 	sw	v1,148(s0)
    311c:	10820036 	beq	a0,v0,31f8 <send_packet+0x1f4>
    3120:	34c50210 	ori	a1,a2,0x210
    3124:	34c30200 	ori	v1,a2,0x200
    3128:	26040078 	addiu	a0,s0,120
    312c:	2402000d 	li	v0,13
    3130:	ac620000 	sw	v0,0(v1)
    3134:	aca40000 	sw	a0,0(a1)
    3138:	12200005 	beqz	s1,3150 <send_packet+0x14c>
    313c:	3c022000 	lui	v0,0x2000
    3140:	34430215 	ori	v1,v0,0x215
    3144:	34420205 	ori	v0,v0,0x205
    3148:	ac510000 	sw	s1,0(v0)
    314c:	ac720000 	sw	s2,0(v1)
    3150:	3c022000 	lui	v0,0x2000
    3154:	34470230 	ori	a3,v0,0x230
    3158:	24030001 	li	v1,1
    315c:	34420220 	ori	v0,v0,0x220
    3160:	ac400000 	sw	zero,0(v0)
    3164:	ace30000 	sw	v1,0(a3)
    3168:	02002021 	move	a0,s0
    316c:	02402821 	move	a1,s2
    3170:	02203021 	move	a2,s1
    3174:	8fbf001c 	lw	ra,28(sp)
    3178:	8fb20018 	lw	s2,24(sp)
    317c:	8fb10014 	lw	s1,20(sp)
    3180:	8fb00010 	lw	s0,16(sp)
    3184:	08001bf2 	j	6fc8 <insert_CM_FIFO>
    3188:	27bd0020 	addiu	sp,sp,32
    318c:	8e030084 	lw	v1,132(s0)
    3190:	24020295 	li	v0,661
    3194:	1062002b 	beq	v1,v0,3244 <send_packet+0x240>
    3198:	00000000 	nop
    319c:	8e020090 	lw	v0,144(s0)
    31a0:	8e030090 	lw	v1,144(s0)
    31a4:	30423f00 	andi	v0,v0,0x3f00
    31a8:	3063003f 	andi	v1,v1,0x3f
    31ac:	00021082 	srl	v0,v0,0x2
    31b0:	8e04007c 	lw	a0,124(s0)
    31b4:	00431025 	or	v0,v0,v1
    31b8:	00021400 	sll	v0,v0,0x10
    31bc:	00441025 	or	v0,v0,a0
    31c0:	ae020078 	sw	v0,120(s0)
    31c4:	8e030090 	lw	v1,144(s0)
    31c8:	8e020090 	lw	v0,144(s0)
    31cc:	30633f00 	andi	v1,v1,0x3f00
    31d0:	00031882 	srl	v1,v1,0x2
    31d4:	3042003f 	andi	v0,v0,0x3f
    31d8:	8e04007c 	lw	a0,124(s0)
    31dc:	00621825 	or	v1,v1,v0
    31e0:	00031c00 	sll	v1,v1,0x10
    31e4:	00641825 	or	v1,v1,a0
    31e8:	00002021 	move	a0,zero
    31ec:	ae03007c 	sw	v1,124(s0)
    31f0:	08000c3f 	j	30fc <send_packet+0xf8>
    31f4:	3c062000 	lui	a2,0x2000
    31f8:	00081080 	sll	v0,t0,0x2
    31fc:	00081900 	sll	v1,t0,0x4
    3200:	00621823 	subu	v1,v1,v0
    3204:	00032180 	sll	a0,v1,0x6
    3208:	3c020005 	lui	v0,0x5
    320c:	00641821 	addu	v1,v1,a0
    3210:	2442f2c4 	addiu	v0,v0,-3388
    3214:	00621821 	addu	v1,v1,v0
    3218:	8c640088 	lw	a0,136(v1)
    321c:	2402001f 	li	v0,31
    3220:	00441023 	subu	v0,v0,a0
    3224:	00021080 	sll	v0,v0,0x2
    3228:	02021021 	addu	v0,s0,v0
    322c:	2484000c 	addiu	a0,a0,12
    3230:	34c30200 	ori	v1,a2,0x200
    3234:	ac640000 	sw	a0,0(v1)
    3238:	aca20000 	sw	v0,0(a1)
    323c:	08000c4e 	j	3138 <send_packet+0x134>
    3240:	00000000 	nop
    3244:	8e03007c 	lw	v1,124(s0)
    3248:	00002021 	move	a0,zero
    324c:	ae030078 	sw	v1,120(s0)
    3250:	8e02007c 	lw	v0,124(s0)
    3254:	00000000 	nop
    3258:	ae02007c 	sw	v0,124(s0)
    325c:	08000c3f 	j	30fc <send_packet+0xf8>
    3260:	3c062000 	lui	a2,0x2000

00003264 <add_pending_service>:
    3264:	3c0a0005 	lui	t2,0x5
    3268:	3c020005 	lui	v0,0x5
    326c:	8c43a80c 	lw	v1,-22516(v0)
    3270:	8d45a810 	lw	a1,-22512(t2)
    3274:	00000000 	nop
    3278:	10650024 	beq	v1,a1,330c <add_pending_service+0xa8>
    327c:	3c090005 	lui	t1,0x5
    3280:	00051080 	sll	v0,a1,0x2
    3284:	00051900 	sll	v1,a1,0x4
    3288:	00621823 	subu	v1,v1,v0
    328c:	00651823 	subu	v1,v1,a1
    3290:	3c020005 	lui	v0,0x5
    3294:	00031900 	sll	v1,v1,0x4
    3298:	2442cbe0 	addiu	v0,v0,-13344
    329c:	00803021 	move	a2,a0
    32a0:	00623821 	addu	a3,v1,v0
    32a4:	248800b0 	addiu	t0,a0,176
    32a8:	8cc20000 	lw	v0,0(a2)
    32ac:	8cc30004 	lw	v1,4(a2)
    32b0:	8cc40008 	lw	a0,8(a2)
    32b4:	8cc5000c 	lw	a1,12(a2)
    32b8:	24c60010 	addiu	a2,a2,16
    32bc:	ace20000 	sw	v0,0(a3)
    32c0:	ace30004 	sw	v1,4(a3)
    32c4:	ace40008 	sw	a0,8(a3)
    32c8:	ace5000c 	sw	a1,12(a3)
    32cc:	14c8fff6 	bne	a2,t0,32a8 <add_pending_service+0x44>
    32d0:	24e70010 	addiu	a3,a3,16
    32d4:	8d43a810 	lw	v1,-22512(t2)
    32d8:	24020013 	li	v0,19
    32dc:	10620015 	beq	v1,v0,3334 <add_pending_service+0xd0>
    32e0:	3c040005 	lui	a0,0x5
    32e4:	24620001 	addiu	v0,v1,1
    32e8:	ac82a810 	sw	v0,-22512(a0)
    32ec:	24020001 	li	v0,1
    32f0:	a122a814 	sb	v0,-22508(t1)
    32f4:	3c022000 	lui	v0,0x2000
    32f8:	24030001 	li	v1,1
    32fc:	34420400 	ori	v0,v0,0x400
    3300:	ac430000 	sw	v1,0(v0)
    3304:	03e00008 	jr	ra
    3308:	24020001 	li	v0,1
    330c:	9123a814 	lbu	v1,-22508(t1)
    3310:	24020001 	li	v0,1
    3314:	1462ffdb 	bne	v1,v0,3284 <add_pending_service+0x20>
    3318:	00051080 	sll	v0,a1,0x2
    331c:	3c020001 	lui	v0,0x1
    3320:	24429f24 	addiu	v0,v0,-24796
    3324:	3c032000 	lui	v1,0x2000
    3328:	ac620000 	sw	v0,0(v1)
    332c:	08000ccb 	j	332c <add_pending_service+0xc8>
    3330:	00000000 	nop
    3334:	24020001 	li	v0,1
    3338:	a122a814 	sb	v0,-22508(t1)
    333c:	3c022000 	lui	v0,0x2000
    3340:	24030001 	li	v1,1
    3344:	34420400 	ori	v0,v0,0x400
    3348:	ac80a810 	sw	zero,-22512(a0)
    334c:	ac430000 	sw	v1,0(v0)
    3350:	03e00008 	jr	ra
    3354:	24020001 	li	v0,1

00003358 <get_next_pending_service>:
    3358:	3c050005 	lui	a1,0x5
    335c:	8ca4a80c 	lw	a0,-22516(a1)
    3360:	3c020005 	lui	v0,0x5
    3364:	00041880 	sll	v1,a0,0x2
    3368:	8c46a810 	lw	a2,-22512(v0)
    336c:	00041100 	sll	v0,a0,0x4
    3370:	00431023 	subu	v0,v0,v1
    3374:	00441023 	subu	v0,v0,a0
    3378:	3c030005 	lui	v1,0x5
    337c:	00021100 	sll	v0,v0,0x4
    3380:	2463cbe0 	addiu	v1,v1,-13344
    3384:	3c080005 	lui	t0,0x5
    3388:	10860011 	beq	a0,a2,33d0 <get_next_pending_service+0x78>
    338c:	00433821 	addu	a3,v0,v1
    3390:	3c080005 	lui	t0,0x5
    3394:	24020013 	li	v0,19
    3398:	1082000b 	beq	a0,v0,33c8 <get_next_pending_service+0x70>
    339c:	24830001 	addiu	v1,a0,1
    33a0:	aca3a80c 	sw	v1,-22516(a1)
    33a4:	8ca2a80c 	lw	v0,-22516(a1)
    33a8:	00000000 	nop
    33ac:	14c20004 	bne	a2,v0,33c0 <get_next_pending_service+0x68>
    33b0:	a100a814 	sb	zero,-22508(t0)
    33b4:	3c022000 	lui	v0,0x2000
    33b8:	34420400 	ori	v0,v0,0x400
    33bc:	ac400000 	sw	zero,0(v0)
    33c0:	03e00008 	jr	ra
    33c4:	00e01021 	move	v0,a3
    33c8:	08000ce9 	j	33a4 <get_next_pending_service+0x4c>
    33cc:	aca0a80c 	sw	zero,-22516(a1)
    33d0:	9102a814 	lbu	v0,-22508(t0)
    33d4:	00000000 	nop
    33d8:	1440ffee 	bnez	v0,3394 <get_next_pending_service+0x3c>
    33dc:	00000000 	nop
    33e0:	08000cf0 	j	33c0 <get_next_pending_service+0x68>
    33e4:	00003821 	move	a3,zero

000033e8 <init_communication>:
    33e8:	3c020005 	lui	v0,0x5
    33ec:	3c030005 	lui	v1,0x5
    33f0:	2442dbac 	addiu	v0,v0,-9300
    33f4:	2463f288 	addiu	v1,v1,-3448
    33f8:	a0400000 	sb	zero,0(v0)
    33fc:	24420214 	addiu	v0,v0,532
    3400:	1443fffd 	bne	v0,v1,33f8 <init_communication+0x10>
    3404:	2404ffff 	li	a0,-1
    3408:	3c020005 	lui	v0,0x5
    340c:	3c030005 	lui	v1,0x5
    3410:	2442f0a8 	addiu	v0,v0,-3928
    3414:	2463f138 	addiu	v1,v1,-3784
    3418:	ac440000 	sw	a0,0(v0)
    341c:	ac44fffc 	sw	a0,-4(v0)
    3420:	ac440004 	sw	a0,4(v0)
    3424:	2442000c 	addiu	v0,v0,12
    3428:	1443fffb 	bne	v0,v1,3418 <init_communication+0x30>
    342c:	00000000 	nop
    3430:	03e00008 	jr	ra
    3434:	00000000 	nop

00003438 <initFTStructs>:
    3438:	3c030005 	lui	v1,0x5
    343c:	2462f07c 	addiu	v0,v1,-3972
    3440:	a060f07c 	sb	zero,-3972(v1)
    3444:	ac400024 	sw	zero,36(v0)
    3448:	ac400010 	sw	zero,16(v0)
    344c:	03e00008 	jr	ra
    3450:	a0400014 	sb	zero,20(v0)

00003454 <add_msg_request>:
    3454:	3c070005 	lui	a3,0x5
    3458:	80e2f07c 	lb	v0,-3972(a3)
    345c:	24e8f07c 	addiu	t0,a3,-3972
    3460:	00001821 	move	v1,zero
    3464:	1040000b 	beqz	v0,3494 <add_msg_request+0x40>
    3468:	00804821 	move	t1,a0
    346c:	81020014 	lb	v0,20(t0)
    3470:	00000000 	nop
    3474:	10400006 	beqz	v0,3490 <add_msg_request+0x3c>
    3478:	3c032000 	lui	v1,0x2000
    347c:	3c020001 	lui	v0,0x1
    3480:	24429f48 	addiu	v0,v0,-24760
    3484:	ac620000 	sw	v0,0(v1)
    3488:	03e00008 	jr	ra
    348c:	00001021 	move	v0,zero
    3490:	24030001 	li	v1,1
    3494:	00032100 	sll	a0,v1,0x4
    3498:	00031880 	sll	v1,v1,0x2
    349c:	00641821 	addu	v1,v1,a0
    34a0:	24e2f07c 	addiu	v0,a3,-3972
    34a4:	00621821 	addu	v1,v1,v0
    34a8:	24040002 	li	a0,2
    34ac:	3c022000 	lui	v0,0x2000
    34b0:	34420300 	ori	v0,v0,0x300
    34b4:	a0640000 	sb	a0,0(v1)
    34b8:	ac690004 	sw	t1,4(v1)
    34bc:	ac65000c 	sw	a1,12(v1)
    34c0:	ac660008 	sw	a2,8(v1)
    34c4:	8c440000 	lw	a0,0(v0)
    34c8:	24020001 	li	v0,1
    34cc:	03e00008 	jr	ra
    34d0:	ac640010 	sw	a0,16(v1)

000034d4 <add_msg_request_migration>:
    34d4:	3c080005 	lui	t0,0x5
    34d8:	8102f07c 	lb	v0,-3972(t0)
    34dc:	2509f07c 	addiu	t1,t0,-3972
    34e0:	00001821 	move	v1,zero
    34e4:	1040000c 	beqz	v0,3518 <add_msg_request_migration+0x44>
    34e8:	00805021 	move	t2,a0
    34ec:	81220014 	lb	v0,20(t1)
    34f0:	00000000 	nop
    34f4:	10400007 	beqz	v0,3514 <add_msg_request_migration+0x40>
    34f8:	3c032000 	lui	v1,0x2000
    34fc:	3c020001 	lui	v0,0x1
    3500:	24429f48 	addiu	v0,v0,-24760
    3504:	ac620000 	sw	v0,0(v1)
    3508:	00002021 	move	a0,zero
    350c:	03e00008 	jr	ra
    3510:	00801021 	move	v0,a0
    3514:	24030001 	li	v1,1
    3518:	00032100 	sll	a0,v1,0x4
    351c:	00031880 	sll	v1,v1,0x2
    3520:	00641821 	addu	v1,v1,a0
    3524:	2502f07c 	addiu	v0,t0,-3972
    3528:	00621821 	addu	v1,v1,v0
    352c:	8fa20010 	lw	v0,16(sp)
    3530:	24040001 	li	a0,1
    3534:	ac620010 	sw	v0,16(v1)
    3538:	a06a0000 	sb	t2,0(v1)
    353c:	ac650004 	sw	a1,4(v1)
    3540:	ac66000c 	sw	a2,12(v1)
    3544:	08000d43 	j	350c <add_msg_request_migration+0x38>
    3548:	ac670008 	sw	a3,8(v1)

0000354c <update_msg_request_migration>:
    354c:	3c020005 	lui	v0,0x5
    3550:	8043f07c 	lb	v1,-3972(v0)
    3554:	00000000 	nop
    3558:	10600005 	beqz	v1,3570 <update_msg_request_migration+0x24>
    355c:	2446f07c 	addiu	a2,v0,-3972
    3560:	8cc20008 	lw	v0,8(a2)
    3564:	00000000 	nop
    3568:	1044000d 	beq	v0,a0,35a0 <update_msg_request_migration+0x54>
    356c:	00000000 	nop
    3570:	80c20014 	lb	v0,20(a2)
    3574:	00000000 	nop
    3578:	10400005 	beqz	v0,3590 <update_msg_request_migration+0x44>
    357c:	00000000 	nop
    3580:	8cc2001c 	lw	v0,28(a2)
    3584:	00000000 	nop
    3588:	10440003 	beq	v0,a0,3598 <update_msg_request_migration+0x4c>
    358c:	00000000 	nop
    3590:	03e00008 	jr	ra
    3594:	00000000 	nop
    3598:	03e00008 	jr	ra
    359c:	acc50018 	sw	a1,24(a2)
    35a0:	08000d5c 	j	3570 <update_msg_request_migration+0x24>
    35a4:	acc50004 	sw	a1,4(a2)

000035a8 <print_msg_req>:
    35a8:	3c040005 	lui	a0,0x5
    35ac:	8083f07c 	lb	v1,-3972(a0)
    35b0:	00000000 	nop
    35b4:	10600016 	beqz	v1,3610 <print_msg_req+0x68>
    35b8:	3c020001 	lui	v0,0x1
    35bc:	24020002 	li	v0,2
    35c0:	10620027 	beq	v1,v0,3660 <print_msg_req+0xb8>
    35c4:	3c032000 	lui	v1,0x2000
    35c8:	3c020001 	lui	v0,0x1
    35cc:	24429f68 	addiu	v0,v0,-24728
    35d0:	ac620000 	sw	v0,0(v1)
    35d4:	2482f07c 	addiu	v0,a0,-3972
    35d8:	80430014 	lb	v1,20(v0)
    35dc:	00000000 	nop
    35e0:	14600014 	bnez	v1,3634 <print_msg_req+0x8c>
    35e4:	24020002 	li	v0,2
    35e8:	3c020001 	lui	v0,0x1
    35ec:	24429f6c 	addiu	v0,v0,-24724
    35f0:	3c032000 	lui	v1,0x2000
    35f4:	ac620000 	sw	v0,0(v1)
    35f8:	3c020001 	lui	v0,0x1
    35fc:	2442a160 	addiu	v0,v0,-24224
    3600:	3c032000 	lui	v1,0x2000
    3604:	ac620000 	sw	v0,0(v1)
    3608:	03e00008 	jr	ra
    360c:	00000000 	nop
    3610:	24429f6c 	addiu	v0,v0,-24724
    3614:	3c032000 	lui	v1,0x2000
    3618:	ac620000 	sw	v0,0(v1)
    361c:	2482f07c 	addiu	v0,a0,-3972
    3620:	80430014 	lb	v1,20(v0)
    3624:	00000000 	nop
    3628:	1060fff0 	beqz	v1,35ec <print_msg_req+0x44>
    362c:	3c020001 	lui	v0,0x1
    3630:	24020002 	li	v0,2
    3634:	1062000f 	beq	v1,v0,3674 <print_msg_req+0xcc>
    3638:	3c020001 	lui	v0,0x1
    363c:	24429f68 	addiu	v0,v0,-24728
    3640:	3c032000 	lui	v1,0x2000
    3644:	ac620000 	sw	v0,0(v1)
    3648:	3c020001 	lui	v0,0x1
    364c:	2442a160 	addiu	v0,v0,-24224
    3650:	3c032000 	lui	v1,0x2000
    3654:	ac620000 	sw	v0,0(v1)
    3658:	03e00008 	jr	ra
    365c:	00000000 	nop
    3660:	3c020001 	lui	v0,0x1
    3664:	24429f70 	addiu	v0,v0,-24720
    3668:	ac620000 	sw	v0,0(v1)
    366c:	08000d88 	j	3620 <print_msg_req+0x78>
    3670:	2482f07c 	addiu	v0,a0,-3972
    3674:	3c020001 	lui	v0,0x1
    3678:	24429f70 	addiu	v0,v0,-24720
    367c:	3c032000 	lui	v1,0x2000
    3680:	ac620000 	sw	v0,0(v1)
    3684:	3c020001 	lui	v0,0x1
    3688:	2442a160 	addiu	v0,v0,-24224
    368c:	3c032000 	lui	v1,0x2000
    3690:	ac620000 	sw	v0,0(v1)
    3694:	03e00008 	jr	ra
    3698:	00000000 	nop

0000369c <print_pipe_status>:
    369c:	00042600 	sll	a0,a0,0x18
    36a0:	00042603 	sra	a0,a0,0x18
    36a4:	24020001 	li	v0,1
    36a8:	1082000d 	beq	a0,v0,36e0 <print_pipe_status+0x44>
    36ac:	28820002 	slti	v0,a0,2
    36b0:	14400017 	bnez	v0,3710 <print_pipe_status+0x74>
    36b4:	24020002 	li	v0,2
    36b8:	1082000f 	beq	a0,v0,36f8 <print_pipe_status+0x5c>
    36bc:	24020003 	li	v0,3
    36c0:	1082001b 	beq	a0,v0,3730 <print_pipe_status+0x94>
    36c4:	3c020001 	lui	v0,0x1
    36c8:	3c020001 	lui	v0,0x1
    36cc:	24429f7c 	addiu	v0,v0,-24708
    36d0:	3c032000 	lui	v1,0x2000
    36d4:	ac620000 	sw	v0,0(v1)
    36d8:	03e00008 	jr	ra
    36dc:	00000000 	nop
    36e0:	3c020001 	lui	v0,0x1
    36e4:	24429f78 	addiu	v0,v0,-24712
    36e8:	3c032000 	lui	v1,0x2000
    36ec:	ac620000 	sw	v0,0(v1)
    36f0:	03e00008 	jr	ra
    36f4:	00000000 	nop
    36f8:	3c020001 	lui	v0,0x1
    36fc:	24429f70 	addiu	v0,v0,-24720
    3700:	3c032000 	lui	v1,0x2000
    3704:	ac620000 	sw	v0,0(v1)
    3708:	03e00008 	jr	ra
    370c:	00000000 	nop
    3710:	1480ffee 	bnez	a0,36cc <print_pipe_status+0x30>
    3714:	3c020001 	lui	v0,0x1
    3718:	3c020001 	lui	v0,0x1
    371c:	24429f6c 	addiu	v0,v0,-24724
    3720:	3c032000 	lui	v1,0x2000
    3724:	ac620000 	sw	v0,0(v1)
    3728:	03e00008 	jr	ra
    372c:	00000000 	nop
    3730:	24429f74 	addiu	v0,v0,-24716
    3734:	3c032000 	lui	v1,0x2000
    3738:	ac620000 	sw	v0,0(v1)
    373c:	03e00008 	jr	ra
    3740:	00000000 	nop

00003744 <search_PIPE_producer>:
    3744:	3c020005 	lui	v0,0x5
    3748:	3c030005 	lui	v1,0x5
    374c:	2445dbac 	addiu	a1,v0,-9300
    3750:	2463f288 	addiu	v1,v1,-3448
    3754:	00003821 	move	a3,zero
    3758:	08000ddb 	j	376c <search_PIPE_producer+0x28>
    375c:	24060002 	li	a2,2
    3760:	24a50214 	addiu	a1,a1,532
    3764:	10a3000c 	beq	a1,v1,3798 <search_PIPE_producer+0x54>
    3768:	00000000 	nop
    376c:	80a20000 	lb	v0,0(a1)
    3770:	00000000 	nop
    3774:	1446fffa 	bne	v0,a2,3760 <search_PIPE_producer+0x1c>
    3778:	00000000 	nop
    377c:	8ca2fdf4 	lw	v0,-524(a1)
    3780:	00000000 	nop
    3784:	1444fff6 	bne	v0,a0,3760 <search_PIPE_producer+0x1c>
    3788:	00000000 	nop
    378c:	24a50214 	addiu	a1,a1,532
    3790:	14a3fff6 	bne	a1,v1,376c <search_PIPE_producer+0x28>
    3794:	24e70001 	addiu	a3,a3,1
    3798:	03e00008 	jr	ra
    379c:	00e01021 	move	v0,a3

000037a0 <PIPE_msg_number>:
    37a0:	3c020005 	lui	v0,0x5
    37a4:	3c030005 	lui	v1,0x5
    37a8:	2444dbac 	addiu	a0,v0,-9300
    37ac:	2463f288 	addiu	v1,v1,-3448
    37b0:	00003021 	move	a2,zero
    37b4:	24050002 	li	a1,2
    37b8:	80820000 	lb	v0,0(a0)
    37bc:	00000000 	nop
    37c0:	10450005 	beq	v0,a1,37d8 <PIPE_msg_number+0x38>
    37c4:	24840214 	addiu	a0,a0,532
    37c8:	1483fffb 	bne	a0,v1,37b8 <PIPE_msg_number+0x18>
    37cc:	00000000 	nop
    37d0:	03e00008 	jr	ra
    37d4:	00c01021 	move	v0,a2
    37d8:	1483fff7 	bne	a0,v1,37b8 <PIPE_msg_number+0x18>
    37dc:	24c60001 	addiu	a2,a2,1
    37e0:	08000df4 	j	37d0 <PIPE_msg_number+0x30>
    37e4:	00000000 	nop

000037e8 <remove_PIPE>:
    37e8:	3c080005 	lui	t0,0x5
    37ec:	8d03a690 	lw	v1,-22896(t0)
    37f0:	2402000b 	li	v0,11
    37f4:	14620004 	bne	v1,v0,3808 <remove_PIPE+0x20>
    37f8:	3c090005 	lui	t1,0x5
    37fc:	00003021 	move	a2,zero
    3800:	03e00008 	jr	ra
    3804:	00c01021 	move	v0,a2
    3808:	3c020005 	lui	v0,0x5
    380c:	2447f07c 	addiu	a3,v0,-3972
    3810:	2523d9a0 	addiu	v1,t1,-9824
    3814:	08000e0a 	j	3828 <remove_PIPE+0x40>
    3818:	24060003 	li	a2,3
    381c:	24630214 	addiu	v1,v1,532
    3820:	10670013 	beq	v1,a3,3870 <remove_PIPE+0x88>
    3824:	3c020005 	lui	v0,0x5
    3828:	8062020c 	lb	v0,524(v1)
    382c:	00000000 	nop
    3830:	1446fffa 	bne	v0,a2,381c <remove_PIPE+0x34>
    3834:	00000000 	nop
    3838:	8c620000 	lw	v0,0(v1)
    383c:	00000000 	nop
    3840:	1482fff6 	bne	a0,v0,381c <remove_PIPE+0x34>
    3844:	00000000 	nop
    3848:	8c620004 	lw	v0,4(v1)
    384c:	00000000 	nop
    3850:	14a2fff3 	bne	a1,v0,3820 <remove_PIPE+0x38>
    3854:	24630214 	addiu	v1,v1,532
    3858:	2463fdec 	addiu	v1,v1,-532
    385c:	8d02a690 	lw	v0,-22896(t0)
    3860:	a060020c 	sb	zero,524(v1)
    3864:	24420001 	addiu	v0,v0,1
    3868:	ad02a690 	sw	v0,-22896(t0)
    386c:	3c020005 	lui	v0,0x5
    3870:	2523d9a0 	addiu	v1,t1,-9824
    3874:	2447f07c 	addiu	a3,v0,-3972
    3878:	00004821 	move	t1,zero
    387c:	240affff 	li	t2,-1
    3880:	08000e25 	j	3894 <remove_PIPE+0xac>
    3884:	24060002 	li	a2,2
    3888:	24630214 	addiu	v1,v1,532
    388c:	10670015 	beq	v1,a3,38e4 <remove_PIPE+0xfc>
    3890:	00000000 	nop
    3894:	8062020c 	lb	v0,524(v1)
    3898:	00000000 	nop
    389c:	1446fffa 	bne	v0,a2,3888 <remove_PIPE+0xa0>
    38a0:	00000000 	nop
    38a4:	8c620000 	lw	v0,0(v1)
    38a8:	00000000 	nop
    38ac:	1482fff6 	bne	a0,v0,3888 <remove_PIPE+0xa0>
    38b0:	00000000 	nop
    38b4:	8c620004 	lw	v0,4(v1)
    38b8:	00000000 	nop
    38bc:	14a2fff2 	bne	a1,v0,3888 <remove_PIPE+0xa0>
    38c0:	00000000 	nop
    38c4:	8c680210 	lw	t0,528(v1)
    38c8:	00000000 	nop
    38cc:	010a102b 	sltu	v0,t0,t2
    38d0:	1040ffed 	beqz	v0,3888 <remove_PIPE+0xa0>
    38d4:	00000000 	nop
    38d8:	01005021 	move	t2,t0
    38dc:	08000e22 	j	3888 <remove_PIPE+0xa0>
    38e0:	00604821 	move	t1,v1
    38e4:	1120ffc6 	beqz	t1,3800 <remove_PIPE+0x18>
    38e8:	01203021 	move	a2,t1
    38ec:	30a2ffff 	andi	v0,a1,0xffff
    38f0:	00042400 	sll	a0,a0,0x10
    38f4:	00822025 	or	a0,a0,v0
    38f8:	3c022000 	lui	v0,0x2000
    38fc:	24030003 	li	v1,3
    3900:	34420285 	ori	v0,v0,0x285
    3904:	a123020c 	sb	v1,524(t1)
    3908:	ac440000 	sw	a0,0(v0)
    390c:	03e00008 	jr	ra
    3910:	00c01021 	move	v0,a2

00003914 <remove_PIPE_by_producer>:
    3914:	3c070005 	lui	a3,0x5
    3918:	8ce3a690 	lw	v1,-22896(a3)
    391c:	2402000b 	li	v0,11
    3920:	14620004 	bne	v1,v0,3934 <remove_PIPE_by_producer+0x20>
    3924:	3c080005 	lui	t0,0x5
    3928:	00001821 	move	v1,zero
    392c:	03e00008 	jr	ra
    3930:	00601021 	move	v0,v1
    3934:	3c020005 	lui	v0,0x5
    3938:	2446f07c 	addiu	a2,v0,-3972
    393c:	2503d9a0 	addiu	v1,t0,-9824
    3940:	08000e55 	j	3954 <remove_PIPE_by_producer+0x40>
    3944:	24050003 	li	a1,3
    3948:	24630214 	addiu	v1,v1,532
    394c:	1066000f 	beq	v1,a2,398c <remove_PIPE_by_producer+0x78>
    3950:	3c020005 	lui	v0,0x5
    3954:	8062020c 	lb	v0,524(v1)
    3958:	00000000 	nop
    395c:	1445fffa 	bne	v0,a1,3948 <remove_PIPE_by_producer+0x34>
    3960:	00000000 	nop
    3964:	8c620000 	lw	v0,0(v1)
    3968:	00000000 	nop
    396c:	1482fff7 	bne	a0,v0,394c <remove_PIPE_by_producer+0x38>
    3970:	24630214 	addiu	v1,v1,532
    3974:	2463fdec 	addiu	v1,v1,-532
    3978:	8ce2a690 	lw	v0,-22896(a3)
    397c:	a060020c 	sb	zero,524(v1)
    3980:	24420001 	addiu	v0,v0,1
    3984:	ace2a690 	sw	v0,-22896(a3)
    3988:	3c020005 	lui	v0,0x5
    398c:	2503d9a0 	addiu	v1,t0,-9824
    3990:	2447f07c 	addiu	a3,v0,-3972
    3994:	00004821 	move	t1,zero
    3998:	2408ffff 	li	t0,-1
    399c:	08000e6c 	j	39b0 <remove_PIPE_by_producer+0x9c>
    39a0:	24060002 	li	a2,2
    39a4:	24630214 	addiu	v1,v1,532
    39a8:	10670011 	beq	v1,a3,39f0 <remove_PIPE_by_producer+0xdc>
    39ac:	00000000 	nop
    39b0:	8062020c 	lb	v0,524(v1)
    39b4:	00000000 	nop
    39b8:	1446fffa 	bne	v0,a2,39a4 <remove_PIPE_by_producer+0x90>
    39bc:	00000000 	nop
    39c0:	8c620000 	lw	v0,0(v1)
    39c4:	00000000 	nop
    39c8:	1444fff6 	bne	v0,a0,39a4 <remove_PIPE_by_producer+0x90>
    39cc:	00000000 	nop
    39d0:	8c650210 	lw	a1,528(v1)
    39d4:	00000000 	nop
    39d8:	00a8102b 	sltu	v0,a1,t0
    39dc:	1040fff1 	beqz	v0,39a4 <remove_PIPE_by_producer+0x90>
    39e0:	00000000 	nop
    39e4:	00a04021 	move	t0,a1
    39e8:	08000e69 	j	39a4 <remove_PIPE_by_producer+0x90>
    39ec:	00604821 	move	t1,v1
    39f0:	1120ffce 	beqz	t1,392c <remove_PIPE_by_producer+0x18>
    39f4:	01201821 	move	v1,t1
    39f8:	24020003 	li	v0,3
    39fc:	a122020c 	sb	v0,524(t1)
    3a00:	03e00008 	jr	ra
    3a04:	00601021 	move	v0,v1

00003a08 <get_PIPE_free_position>:
    3a08:	3c020005 	lui	v0,0x5
    3a0c:	3c030005 	lui	v1,0x5
    3a10:	2445dbac 	addiu	a1,v0,-9300
    3a14:	2463d9a0 	addiu	v1,v1,-9824
    3a18:	00002021 	move	a0,zero
    3a1c:	2406000b 	li	a2,11
    3a20:	80a20000 	lb	v0,0(a1)
    3a24:	24840001 	addiu	a0,a0,1
    3a28:	10400005 	beqz	v0,3a40 <get_PIPE_free_position+0x38>
    3a2c:	24a50214 	addiu	a1,a1,532
    3a30:	1486fffb 	bne	a0,a2,3a20 <get_PIPE_free_position+0x18>
    3a34:	24630214 	addiu	v1,v1,532
    3a38:	03e00008 	jr	ra
    3a3c:	00001021 	move	v0,zero
    3a40:	03e00008 	jr	ra
    3a44:	00601021 	move	v0,v1

00003a48 <add_PIPE>:
    3a48:	27bdffd8 	addiu	sp,sp,-40
    3a4c:	afb00010 	sw	s0,16(sp)
    3a50:	3c100005 	lui	s0,0x5
    3a54:	8e02a690 	lw	v0,-22896(s0)
    3a58:	afb3001c 	sw	s3,28(sp)
    3a5c:	afb20018 	sw	s2,24(sp)
    3a60:	afb10014 	sw	s1,20(sp)
    3a64:	afbf0024 	sw	ra,36(sp)
    3a68:	afb40020 	sw	s4,32(sp)
    3a6c:	00809021 	move	s2,a0
    3a70:	00a09821 	move	s3,a1
    3a74:	1440000b 	bnez	v0,3aa4 <add_PIPE+0x5c>
    3a78:	00c08821 	move	s1,a2
    3a7c:	00003821 	move	a3,zero
    3a80:	8fbf0024 	lw	ra,36(sp)
    3a84:	8fb40020 	lw	s4,32(sp)
    3a88:	8fb3001c 	lw	s3,28(sp)
    3a8c:	8fb20018 	lw	s2,24(sp)
    3a90:	8fb10014 	lw	s1,20(sp)
    3a94:	8fb00010 	lw	s0,16(sp)
    3a98:	00e01021 	move	v0,a3
    3a9c:	03e00008 	jr	ra
    3aa0:	27bd0028 	addiu	sp,sp,40
    3aa4:	3c020005 	lui	v0,0x5
    3aa8:	3c030005 	lui	v1,0x5
    3aac:	2444dbac 	addiu	a0,v0,-9300
    3ab0:	2463f288 	addiu	v1,v1,-3448
    3ab4:	0000a021 	move	s4,zero
    3ab8:	00003821 	move	a3,zero
    3abc:	08000eb4 	j	3ad0 <add_PIPE+0x88>
    3ac0:	24060002 	li	a2,2
    3ac4:	24840214 	addiu	a0,a0,532
    3ac8:	10830014 	beq	a0,v1,3b1c <add_PIPE+0xd4>
    3acc:	2402000b 	li	v0,11
    3ad0:	80820000 	lb	v0,0(a0)
    3ad4:	00000000 	nop
    3ad8:	1446fffa 	bne	v0,a2,3ac4 <add_PIPE+0x7c>
    3adc:	00000000 	nop
    3ae0:	8c82fdf4 	lw	v0,-524(a0)
    3ae4:	00000000 	nop
    3ae8:	1642fff6 	bne	s2,v0,3ac4 <add_PIPE+0x7c>
    3aec:	24e50001 	addiu	a1,a3,1
    3af0:	8c82fdf8 	lw	v0,-520(a0)
    3af4:	00000000 	nop
    3af8:	1662fff2 	bne	s3,v0,3ac4 <add_PIPE+0x7c>
    3afc:	30a700ff 	andi	a3,a1,0xff
    3b00:	8c850004 	lw	a1,4(a0)
    3b04:	00000000 	nop
    3b08:	0285102b 	sltu	v0,s4,a1
    3b0c:	1040ffed 	beqz	v0,3ac4 <add_PIPE+0x7c>
    3b10:	00000000 	nop
    3b14:	08000eb1 	j	3ac4 <add_PIPE+0x7c>
    3b18:	00a0a021 	move	s4,a1
    3b1c:	10e2ffd8 	beq	a3,v0,3a80 <add_PIPE+0x38>
    3b20:	00003821 	move	a3,zero
    3b24:	0c000e82 	jal	3a08 <get_PIPE_free_position>
    3b28:	00000000 	nop
    3b2c:	1040ffd4 	beqz	v0,3a80 <add_PIPE+0x38>
    3b30:	00403821 	move	a3,v0
    3b34:	ac520000 	sw	s2,0(v0)
    3b38:	ac530004 	sw	s3,4(v0)
    3b3c:	8e220000 	lw	v0,0(s1)
    3b40:	26840001 	addiu	a0,s4,1
    3b44:	24030002 	li	v1,2
    3b48:	ace20008 	sw	v0,8(a3)
    3b4c:	a0e3020c 	sb	v1,524(a3)
    3b50:	ace40210 	sw	a0,528(a3)
    3b54:	8e280000 	lw	t0,0(s1)
    3b58:	00000000 	nop
    3b5c:	1900000a 	blez	t0,3b88 <add_PIPE+0x140>
    3b60:	00e02021 	move	a0,a3
    3b64:	26260004 	addiu	a2,s1,4
    3b68:	00002821 	move	a1,zero
    3b6c:	8cc20000 	lw	v0,0(a2)
    3b70:	24a50001 	addiu	a1,a1,1
    3b74:	00a8182a 	slt	v1,a1,t0
    3b78:	ac82000c 	sw	v0,12(a0)
    3b7c:	24c60004 	addiu	a2,a2,4
    3b80:	1460fffa 	bnez	v1,3b6c <add_PIPE+0x124>
    3b84:	24840004 	addiu	a0,a0,4
    3b88:	8e03a690 	lw	v1,-22896(s0)
    3b8c:	3262ffff 	andi	v0,s3,0xffff
    3b90:	00122400 	sll	a0,s2,0x10
    3b94:	00822025 	or	a0,a0,v0
    3b98:	3c022000 	lui	v0,0x2000
    3b9c:	2463ffff 	addiu	v1,v1,-1
    3ba0:	34420280 	ori	v0,v0,0x280
    3ba4:	ae03a690 	sw	v1,-22896(s0)
    3ba8:	ac440000 	sw	a0,0(v0)
    3bac:	08000ea0 	j	3a80 <add_PIPE+0x38>
    3bb0:	00000000 	nop

00003bb4 <insert_message_request>:
    3bb4:	3c020005 	lui	v0,0x5
    3bb8:	2449f0a4 	addiu	t1,v0,-3932
    3bbc:	00041c00 	sll	v1,a0,0x10
    3bc0:	30a2ffff 	andi	v0,a1,0xffff
    3bc4:	00621825 	or	v1,v1,v0
    3bc8:	00003821 	move	a3,zero
    3bcc:	240bffff 	li	t3,-1
    3bd0:	240a000c 	li	t2,12
    3bd4:	01204021 	move	t0,t1
    3bd8:	8d220000 	lw	v0,0(t1)
    3bdc:	24e70001 	addiu	a3,a3,1
    3be0:	104b000a 	beq	v0,t3,3c0c <insert_message_request+0x58>
    3be4:	2529000c 	addiu	t1,t1,12
    3be8:	14eafffb 	bne	a3,t2,3bd8 <insert_message_request+0x24>
    3bec:	2508000c 	addiu	t0,t0,12
    3bf0:	3c020001 	lui	v0,0x1
    3bf4:	24429f80 	addiu	v0,v0,-24704
    3bf8:	3c032000 	lui	v1,0x2000
    3bfc:	00003821 	move	a3,zero
    3c00:	ac620000 	sw	v0,0(v1)
    3c04:	03e00008 	jr	ra
    3c08:	00e01021 	move	v0,a3
    3c0c:	3c022000 	lui	v0,0x2000
    3c10:	24070001 	li	a3,1
    3c14:	34420290 	ori	v0,v0,0x290
    3c18:	ad060008 	sw	a2,8(t0)
    3c1c:	ad050000 	sw	a1,0(t0)
    3c20:	ad040004 	sw	a0,4(t0)
    3c24:	ac430000 	sw	v1,0(v0)
    3c28:	03e00008 	jr	ra
    3c2c:	00e01021 	move	v0,a3

00003c30 <search_message_request>:
    3c30:	3c020005 	lui	v0,0x5
    3c34:	3c030005 	lui	v1,0x5
    3c38:	2446f0a8 	addiu	a2,v0,-3928
    3c3c:	08000f14 	j	3c50 <search_message_request+0x20>
    3c40:	2463f138 	addiu	v1,v1,-3784
    3c44:	24c6000c 	addiu	a2,a2,12
    3c48:	10c3000c 	beq	a2,v1,3c7c <search_message_request+0x4c>
    3c4c:	00000000 	nop
    3c50:	8cc20000 	lw	v0,0(a2)
    3c54:	00000000 	nop
    3c58:	1444fffa 	bne	v0,a0,3c44 <search_message_request+0x14>
    3c5c:	00000000 	nop
    3c60:	8cc2fffc 	lw	v0,-4(a2)
    3c64:	00000000 	nop
    3c68:	1445fff7 	bne	v0,a1,3c48 <search_message_request+0x18>
    3c6c:	24c6000c 	addiu	a2,a2,12
    3c70:	24c6fff4 	addiu	a2,a2,-12
    3c74:	03e00008 	jr	ra
    3c78:	24020001 	li	v0,1
    3c7c:	03e00008 	jr	ra
    3c80:	00001021 	move	v0,zero

00003c84 <remove_message_request>:
    3c84:	30a2ffff 	andi	v0,a1,0xffff
    3c88:	00804821 	move	t1,a0
    3c8c:	00042400 	sll	a0,a0,0x10
    3c90:	00822025 	or	a0,a0,v0
    3c94:	3c030005 	lui	v1,0x5
    3c98:	3c020005 	lui	v0,0x5
    3c9c:	2463f0a8 	addiu	v1,v1,-3928
    3ca0:	2447f0a4 	addiu	a3,v0,-3932
    3ca4:	00003021 	move	a2,zero
    3ca8:	240affff 	li	t2,-1
    3cac:	2408000c 	li	t0,12
    3cb0:	8c620000 	lw	v0,0(v1)
    3cb4:	00000000 	nop
    3cb8:	14490005 	bne	v0,t1,3cd0 <remove_message_request+0x4c>
    3cbc:	24c60001 	addiu	a2,a2,1
    3cc0:	8c62fffc 	lw	v0,-4(v1)
    3cc4:	00000000 	nop
    3cc8:	10450006 	beq	v0,a1,3ce4 <remove_message_request+0x60>
    3ccc:	3c022000 	lui	v0,0x2000
    3cd0:	24e7000c 	addiu	a3,a3,12
    3cd4:	14c8fff6 	bne	a2,t0,3cb0 <remove_message_request+0x2c>
    3cd8:	2463000c 	addiu	v1,v1,12
    3cdc:	03e00008 	jr	ra
    3ce0:	2402ffff 	li	v0,-1
    3ce4:	34420295 	ori	v0,v0,0x295
    3ce8:	acea0004 	sw	t2,4(a3)
    3cec:	acea0000 	sw	t2,0(a3)
    3cf0:	ac440000 	sw	a0,0(v0)
    3cf4:	8ce20008 	lw	v0,8(a3)
    3cf8:	03e00008 	jr	ra
    3cfc:	00000000 	nop

00003d00 <update_msg_request_table>:
    3d00:	3c070005 	lui	a3,0x5
    3d04:	24e6f07c 	addiu	a2,a3,-3972
    3d08:	8cc20008 	lw	v0,8(a2)
    3d0c:	00000000 	nop
    3d10:	10440008 	beq	v0,a0,3d34 <update_msg_request_table+0x34>
    3d14:	00001821 	move	v1,zero
    3d18:	8cc2001c 	lw	v0,28(a2)
    3d1c:	00000000 	nop
    3d20:	10440003 	beq	v0,a0,3d30 <update_msg_request_table+0x30>
    3d24:	2403ffff 	li	v1,-1
    3d28:	03e00008 	jr	ra
    3d2c:	00601021 	move	v0,v1
    3d30:	24030001 	li	v1,1
    3d34:	00031100 	sll	v0,v1,0x4
    3d38:	00031880 	sll	v1,v1,0x2
    3d3c:	00621821 	addu	v1,v1,v0
    3d40:	24e4f07c 	addiu	a0,a3,-3972
    3d44:	00641821 	addu	v1,v1,a0
    3d48:	ac650004 	sw	a1,4(v1)
    3d4c:	08000f4a 	j	3d28 <update_msg_request_table+0x28>
    3d50:	24030001 	li	v1,1

00003d54 <remove_prod_requested_msgs>:
    3d54:	3c020005 	lui	v0,0x5
    3d58:	2446f0a8 	addiu	a2,v0,-3928
    3d5c:	3c032000 	lui	v1,0x2000
    3d60:	3c020005 	lui	v0,0x5
    3d64:	346a0295 	ori	t2,v1,0x295
    3d68:	2449f138 	addiu	t1,v0,-3784
    3d6c:	00003821 	move	a3,zero
    3d70:	08000f65 	j	3d94 <remove_prod_requested_msgs+0x40>
    3d74:	2408ffff 	li	t0,-1
    3d78:	8cc2fffc 	lw	v0,-4(a2)
    3d7c:	00000000 	nop
    3d80:	1082000a 	beq	a0,v0,3dac <remove_prod_requested_msgs+0x58>
    3d84:	00000000 	nop
    3d88:	24c6000c 	addiu	a2,a2,12
    3d8c:	10c90018 	beq	a2,t1,3df0 <remove_prod_requested_msgs+0x9c>
    3d90:	00000000 	nop
    3d94:	8cc20000 	lw	v0,0(a2)
    3d98:	00000000 	nop
    3d9c:	1444fff6 	bne	v0,a0,3d78 <remove_prod_requested_msgs+0x24>
    3da0:	00000000 	nop
    3da4:	8cc2fffc 	lw	v0,-4(a2)
    3da8:	00000000 	nop
    3dac:	aca20000 	sw	v0,0(a1)
    3db0:	8cc20000 	lw	v0,0(a2)
    3db4:	24e70003 	addiu	a3,a3,3
    3db8:	aca20004 	sw	v0,4(a1)
    3dbc:	8cc30004 	lw	v1,4(a2)
    3dc0:	00000000 	nop
    3dc4:	aca30008 	sw	v1,8(a1)
    3dc8:	8cc2fffc 	lw	v0,-4(a2)
    3dcc:	94c30002 	lhu	v1,2(a2)
    3dd0:	00021400 	sll	v0,v0,0x10
    3dd4:	00431025 	or	v0,v0,v1
    3dd8:	ad420000 	sw	v0,0(t2)
    3ddc:	acc8fffc 	sw	t0,-4(a2)
    3de0:	acc80000 	sw	t0,0(a2)
    3de4:	24c6000c 	addiu	a2,a2,12
    3de8:	14c9ffea 	bne	a2,t1,3d94 <remove_prod_requested_msgs+0x40>
    3dec:	24a5000c 	addiu	a1,a1,12
    3df0:	03e00008 	jr	ra
    3df4:	00e01021 	move	v0,a3

00003df8 <remove_cons_requested_msgs>:
    3df8:	3c020005 	lui	v0,0x5
    3dfc:	3c030005 	lui	v1,0x5
    3e00:	2446f07c 	addiu	a2,v0,-3972
    3e04:	2468f0a4 	addiu	t0,v1,-3932
    3e08:	00003821 	move	a3,zero
    3e0c:	80c30000 	lb	v1,0(a2)
    3e10:	00000000 	nop
    3e14:	10600005 	beqz	v1,3e2c <remove_cons_requested_msgs+0x34>
    3e18:	00000000 	nop
    3e1c:	8cc2000c 	lw	v0,12(a2)
    3e20:	00000000 	nop
    3e24:	10440006 	beq	v0,a0,3e40 <remove_cons_requested_msgs+0x48>
    3e28:	00000000 	nop
    3e2c:	24c60014 	addiu	a2,a2,20
    3e30:	14c8fff6 	bne	a2,t0,3e0c <remove_cons_requested_msgs+0x14>
    3e34:	00e01021 	move	v0,a3
    3e38:	03e00008 	jr	ra
    3e3c:	00000000 	nop
    3e40:	aca30000 	sw	v1,0(a1)
    3e44:	8cc20004 	lw	v0,4(a2)
    3e48:	24e70005 	addiu	a3,a3,5
    3e4c:	aca20004 	sw	v0,4(a1)
    3e50:	8cc30008 	lw	v1,8(a2)
    3e54:	00000000 	nop
    3e58:	aca30008 	sw	v1,8(a1)
    3e5c:	8cc2000c 	lw	v0,12(a2)
    3e60:	00000000 	nop
    3e64:	aca2000c 	sw	v0,12(a1)
    3e68:	8cc30010 	lw	v1,16(a2)
    3e6c:	00000000 	nop
    3e70:	aca30010 	sw	v1,16(a1)
    3e74:	24a50014 	addiu	a1,a1,20
    3e78:	08000f8b 	j	3e2c <remove_cons_requested_msgs+0x34>
    3e7c:	a0c00000 	sb	zero,0(a2)

00003e80 <remove_last_msg_waiting_ack>:
    3e80:	3c020005 	lui	v0,0x5
    3e84:	3c030005 	lui	v1,0x5
    3e88:	2445d9a0 	addiu	a1,v0,-9824
    3e8c:	2463f07c 	addiu	v1,v1,-3972
    3e90:	00003021 	move	a2,zero
    3e94:	08000faa 	j	3ea8 <remove_last_msg_waiting_ack+0x28>
    3e98:	24070003 	li	a3,3
    3e9c:	24a50214 	addiu	a1,a1,532
    3ea0:	10a3000d 	beq	a1,v1,3ed8 <remove_last_msg_waiting_ack+0x58>
    3ea4:	00000000 	nop
    3ea8:	8ca20000 	lw	v0,0(a1)
    3eac:	00000000 	nop
    3eb0:	1444fffa 	bne	v0,a0,3e9c <remove_last_msg_waiting_ack+0x1c>
    3eb4:	00000000 	nop
    3eb8:	80a2020c 	lb	v0,524(a1)
    3ebc:	00000000 	nop
    3ec0:	1447fff6 	bne	v0,a3,3e9c <remove_last_msg_waiting_ack+0x1c>
    3ec4:	24c60001 	addiu	a2,a2,1
    3ec8:	a0a0020c 	sb	zero,524(a1)
    3ecc:	24a50214 	addiu	a1,a1,532
    3ed0:	14a3fff5 	bne	a1,v1,3ea8 <remove_last_msg_waiting_ack+0x28>
    3ed4:	00000000 	nop
    3ed8:	03e00008 	jr	ra
    3edc:	00c01021 	move	v0,a2

00003ee0 <send_peripheral_SR_path>:
    3ee0:	27bdffc0 	addiu	sp,sp,-64
    3ee4:	afb70034 	sw	s7,52(sp)
    3ee8:	afb60030 	sw	s6,48(sp)
    3eec:	afb1001c 	sw	s1,28(sp)
    3ef0:	afb00018 	sw	s0,24(sp)
    3ef4:	afbf003c 	sw	ra,60(sp)
    3ef8:	afbe0038 	sw	s8,56(sp)
    3efc:	afb5002c 	sw	s5,44(sp)
    3f00:	afb40028 	sw	s4,40(sp)
    3f04:	afb30024 	sw	s3,36(sp)
    3f08:	afb20020 	sw	s2,32(sp)
    3f0c:	00c08021 	move	s0,a2
    3f10:	00808821 	move	s1,a0
    3f14:	0c000a29 	jal	28a4 <get_service_header_slot>
    3f18:	00a0b821 	move	s7,a1
    3f1c:	16000044 	bnez	s0,4030 <send_peripheral_SR_path+0x150>
    3f20:	0040b021 	move	s6,v0
    3f24:	00111100 	sll	v0,s1,0x4
    3f28:	0011f080 	sll	s8,s1,0x2
    3f2c:	005e1823 	subu	v1,v0,s8
    3f30:	afa20010 	sw	v0,16(sp)
    3f34:	00031180 	sll	v0,v1,0x6
    3f38:	00621821 	addu	v1,v1,v0
    3f3c:	3c020005 	lui	v0,0x5
    3f40:	2444f2c4 	addiu	a0,v0,-3388
    3f44:	24020300 	li	v0,768
    3f48:	aec20084 	sw	v0,132(s6)
    3f4c:	00648821 	addu	s1,v1,a0
    3f50:	8e240084 	lw	a0,132(s1)
    3f54:	3c020001 	lui	v0,0x1
    3f58:	3c102000 	lui	s0,0x2000
    3f5c:	24429fa0 	addiu	v0,v0,-24672
    3f60:	aec40088 	sw	a0,136(s6)
    3f64:	aed7008c 	sw	s7,140(s6)
    3f68:	ae020000 	sw	v0,0(s0)
    3f6c:	0c000939 	jal	24e4 <itoh>
    3f70:	00000000 	nop
    3f74:	ae020000 	sw	v0,0(s0)
    3f78:	3c020001 	lui	v0,0x1
    3f7c:	24429fac 	addiu	v0,v0,-24660
    3f80:	ae020000 	sw	v0,0(s0)
    3f84:	8e260088 	lw	a2,136(s1)
    3f88:	00000000 	nop
    3f8c:	10c00013 	beqz	a2,3fdc <send_peripheral_SR_path+0xfc>
    3f90:	02208021 	move	s0,s1
    3f94:	3c020001 	lui	v0,0x1
    3f98:	3c030001 	lui	v1,0x1
    3f9c:	24559fb8 	addiu	s5,v0,-24648
    3fa0:	2474a160 	addiu	s4,v1,-24224
    3fa4:	00009021 	move	s2,zero
    3fa8:	3c112000 	lui	s1,0x2000
    3fac:	02009821 	move	s3,s0
    3fb0:	ae350000 	sw	s5,0(s1)
    3fb4:	8e040000 	lw	a0,0(s0)
    3fb8:	0c000939 	jal	24e4 <itoh>
    3fbc:	26520001 	addiu	s2,s2,1
    3fc0:	ae220000 	sw	v0,0(s1)
    3fc4:	ae340000 	sw	s4,0(s1)
    3fc8:	8e660088 	lw	a2,136(s3)
    3fcc:	00000000 	nop
    3fd0:	0246102b 	sltu	v0,s2,a2
    3fd4:	1440fff6 	bnez	v0,3fb0 <send_peripheral_SR_path+0xd0>
    3fd8:	26100004 	addiu	s0,s0,4
    3fdc:	8fa20010 	lw	v0,16(sp)
    3fe0:	02c02021 	move	a0,s6
    3fe4:	005e2823 	subu	a1,v0,s8
    3fe8:	00051180 	sll	v0,a1,0x6
    3fec:	00a22821 	addu	a1,a1,v0
    3ff0:	3c020005 	lui	v0,0x5
    3ff4:	2443f2c4 	addiu	v1,v0,-3388
    3ff8:	02e03821 	move	a3,s7
    3ffc:	8fbf003c 	lw	ra,60(sp)
    4000:	8fbe0038 	lw	s8,56(sp)
    4004:	8fb70034 	lw	s7,52(sp)
    4008:	8fb60030 	lw	s6,48(sp)
    400c:	8fb5002c 	lw	s5,44(sp)
    4010:	8fb40028 	lw	s4,40(sp)
    4014:	8fb30024 	lw	s3,36(sp)
    4018:	8fb20020 	lw	s2,32(sp)
    401c:	8fb1001c 	lw	s1,28(sp)
    4020:	8fb00018 	lw	s0,24(sp)
    4024:	00a32821 	addu	a1,a1,v1
    4028:	08000b40 	j	2d00 <send_packet_io>
    402c:	27bd0040 	addiu	sp,sp,64
    4030:	02e02021 	move	a0,s7
    4034:	0c00232f 	jal	8cbc <send_wrapper_open_forward>
    4038:	24050001 	li	a1,1
    403c:	08000fca 	j	3f28 <send_peripheral_SR_path+0x48>
    4040:	00111100 	sll	v0,s1,0x4

00004044 <send_io_request>:
    4044:	27bdffd8 	addiu	sp,sp,-40
    4048:	afb40020 	sw	s4,32(sp)
    404c:	afb3001c 	sw	s3,28(sp)
    4050:	afb20018 	sw	s2,24(sp)
    4054:	afb10014 	sw	s1,20(sp)
    4058:	afb00010 	sw	s0,16(sp)
    405c:	00809021 	move	s2,a0
    4060:	00a0a021 	move	s4,a1
    4064:	afbf0024 	sw	ra,36(sp)
    4068:	00e08021 	move	s0,a3
    406c:	0c000a29 	jal	28a4 <get_service_header_slot>
    4070:	00c09821 	move	s3,a2
    4074:	00408821 	move	s1,v0
    4078:	02402021 	move	a0,s2
    407c:	12000003 	beqz	s0,408c <send_io_request+0x48>
    4080:	00002821 	move	a1,zero
    4084:	0c00240d 	jal	9034 <open_wrapper_IO_SZ>
    4088:	00000000 	nop
    408c:	24020015 	li	v0,21
    4090:	ae220084 	sw	v0,132(s1)
    4094:	ae33009c 	sw	s3,156(s1)
    4098:	ae340088 	sw	s4,136(s1)
    409c:	ae32008c 	sw	s2,140(s1)
    40a0:	02202021 	move	a0,s1
    40a4:	02403821 	move	a3,s2
    40a8:	8fbf0024 	lw	ra,36(sp)
    40ac:	8fb40020 	lw	s4,32(sp)
    40b0:	8fb3001c 	lw	s3,28(sp)
    40b4:	8fb20018 	lw	s2,24(sp)
    40b8:	8fb10014 	lw	s1,20(sp)
    40bc:	8fb00010 	lw	s0,16(sp)
    40c0:	00002821 	move	a1,zero
    40c4:	00003021 	move	a2,zero
    40c8:	08000b40 	j	2d00 <send_packet_io>
    40cc:	27bd0028 	addiu	sp,sp,40

000040d0 <send_message_io>:
    40d0:	27bdffd8 	addiu	sp,sp,-40
    40d4:	afb40020 	sw	s4,32(sp)
    40d8:	afb3001c 	sw	s3,28(sp)
    40dc:	afb20018 	sw	s2,24(sp)
    40e0:	afb10014 	sw	s1,20(sp)
    40e4:	00a09021 	move	s2,a1
    40e8:	afb00010 	sw	s0,16(sp)
    40ec:	00809821 	move	s3,a0
    40f0:	afbf0024 	sw	ra,36(sp)
    40f4:	00e08021 	move	s0,a3
    40f8:	0c000a29 	jal	28a4 <get_service_header_slot>
    40fc:	00c0a021 	move	s4,a2
    4100:	00408821 	move	s1,v0
    4104:	02402021 	move	a0,s2
    4108:	12000003 	beqz	s0,4118 <send_message_io+0x48>
    410c:	24050001 	li	a1,1
    4110:	0c00240d 	jal	9034 <open_wrapper_IO_SZ>
    4114:	00000000 	nop
    4118:	24020025 	li	v0,37
    411c:	ae220084 	sw	v0,132(s1)
    4120:	ae330088 	sw	s3,136(s1)
    4124:	ae32008c 	sw	s2,140(s1)
    4128:	8e860000 	lw	a2,0(s4)
    412c:	02202021 	move	a0,s1
    4130:	ae26009c 	sw	a2,156(s1)
    4134:	26850004 	addiu	a1,s4,4
    4138:	02403821 	move	a3,s2
    413c:	8fbf0024 	lw	ra,36(sp)
    4140:	8fb40020 	lw	s4,32(sp)
    4144:	8fb3001c 	lw	s3,28(sp)
    4148:	8fb20018 	lw	s2,24(sp)
    414c:	8fb10014 	lw	s1,20(sp)
    4150:	8fb00010 	lw	s0,16(sp)
    4154:	08000b40 	j	2d00 <send_packet_io>
    4158:	27bd0028 	addiu	sp,sp,40

0000415c <send_message_request_>:
    415c:	27bdffd8 	addiu	sp,sp,-40
    4160:	afb00010 	sw	s0,16(sp)
    4164:	00808021 	move	s0,a0
    4168:	afbf0024 	sw	ra,36(sp)
    416c:	afb40020 	sw	s4,32(sp)
    4170:	afb3001c 	sw	s3,28(sp)
    4174:	afb20018 	sw	s2,24(sp)
    4178:	afb10014 	sw	s1,20(sp)
    417c:	00e09021 	move	s2,a3
    4180:	8fb30038 	lw	s3,56(sp)
    4184:	0c000a29 	jal	28a4 <get_service_header_slot>
    4188:	00a08821 	move	s1,a1
    418c:	02002021 	move	a0,s0
    4190:	0c0012b8 	jal	4ae0 <get_task_location>
    4194:	0040a021 	move	s4,v0
    4198:	ae82007c 	sw	v0,124(s4)
    419c:	24020010 	li	v0,16
    41a0:	ae820084 	sw	v0,132(s4)
    41a4:	24020001 	li	v0,1
    41a8:	ae92009c 	sw	s2,156(s4)
    41ac:	02202821 	move	a1,s1
    41b0:	ae900088 	sw	s0,136(s4)
    41b4:	02003021 	move	a2,s0
    41b8:	ae91008c 	sw	s1,140(s4)
    41bc:	1262000b 	beq	s3,v0,41ec <send_message_request_+0x90>
    41c0:	02802021 	move	a0,s4
    41c4:	8fbf0024 	lw	ra,36(sp)
    41c8:	8fb40020 	lw	s4,32(sp)
    41cc:	8fb3001c 	lw	s3,28(sp)
    41d0:	8fb20018 	lw	s2,24(sp)
    41d4:	8fb10014 	lw	s1,20(sp)
    41d8:	8fb00010 	lw	s0,16(sp)
    41dc:	00002821 	move	a1,zero
    41e0:	00003021 	move	a2,zero
    41e4:	08000c01 	j	3004 <send_packet>
    41e8:	27bd0028 	addiu	sp,sp,40
    41ec:	8e84007c 	lw	a0,124(s4)
    41f0:	0c000d15 	jal	3454 <add_msg_request>
    41f4:	00000000 	nop
    41f8:	08001071 	j	41c4 <send_message_request_+0x68>
    41fc:	02802021 	move	a0,s4

00004200 <send_message_delivery>:
    4200:	27bdffd8 	addiu	sp,sp,-40
    4204:	afb10014 	sw	s1,20(sp)
    4208:	00a08821 	move	s1,a1
    420c:	afbf0020 	sw	ra,32(sp)
    4210:	afb3001c 	sw	s3,28(sp)
    4214:	afb20018 	sw	s2,24(sp)
    4218:	00e09821 	move	s3,a3
    421c:	00809021 	move	s2,a0
    4220:	0c000a29 	jal	28a4 <get_service_header_slot>
    4224:	afb00010 	sw	s0,16(sp)
    4228:	02202021 	move	a0,s1
    422c:	0c0012b8 	jal	4ae0 <get_task_location>
    4230:	00408021 	move	s0,v0
    4234:	ae02007c 	sw	v0,124(s0)
    4238:	24020020 	li	v0,32
    423c:	ae020084 	sw	v0,132(s0)
    4240:	ae120088 	sw	s2,136(s0)
    4244:	ae11008c 	sw	s1,140(s0)
    4248:	8e660000 	lw	a2,0(s3)
    424c:	3c021234 	lui	v0,0x1234
    4250:	34425678 	ori	v0,v0,0x5678
    4254:	ae06009c 	sw	a2,156(s0)
    4258:	ae020098 	sw	v0,152(s0)
    425c:	02002021 	move	a0,s0
    4260:	26650004 	addiu	a1,s3,4
    4264:	8fbf0020 	lw	ra,32(sp)
    4268:	8fb3001c 	lw	s3,28(sp)
    426c:	8fb20018 	lw	s2,24(sp)
    4270:	8fb10014 	lw	s1,20(sp)
    4274:	8fb00010 	lw	s0,16(sp)
    4278:	08000c01 	j	3004 <send_packet>
    427c:	27bd0028 	addiu	sp,sp,40

00004280 <resend_messages>:
    4280:	27bdffc8 	addiu	sp,sp,-56
    4284:	3c020005 	lui	v0,0x5
    4288:	afb7002c 	sw	s7,44(sp)
    428c:	2457d9a0 	addiu	s7,v0,-9824
    4290:	3c020005 	lui	v0,0x5
    4294:	afb60028 	sw	s6,40(sp)
    4298:	afb50024 	sw	s5,36(sp)
    429c:	afb40020 	sw	s4,32(sp)
    42a0:	afb3001c 	sw	s3,28(sp)
    42a4:	afb20018 	sw	s2,24(sp)
    42a8:	afb10014 	sw	s1,20(sp)
    42ac:	afb00010 	sw	s0,16(sp)
    42b0:	0080b021 	move	s6,a0
    42b4:	2450d9a4 	addiu	s0,v0,-9820
    42b8:	00008821 	move	s1,zero
    42bc:	24150003 	li	s5,3
    42c0:	2414000b 	li	s4,11
    42c4:	26f30008 	addiu	s3,s7,8
    42c8:	00009021 	move	s2,zero
    42cc:	080010b8 	j	42e0 <resend_messages+0x60>
    42d0:	afbf0030 	sw	ra,48(sp)
    42d4:	26520214 	addiu	s2,s2,532
    42d8:	12340014 	beq	s1,s4,432c <resend_messages+0xac>
    42dc:	26730214 	addiu	s3,s3,532
    42e0:	8e040000 	lw	a0,0(s0)
    42e4:	0c0012b8 	jal	4ae0 <get_task_location>
    42e8:	26310001 	addiu	s1,s1,1
    42ec:	00401821 	move	v1,v0
    42f0:	82020208 	lb	v0,520(s0)
    42f4:	00000000 	nop
    42f8:	1455fff6 	bne	v0,s5,42d4 <resend_messages+0x54>
    42fc:	26100214 	addiu	s0,s0,532
    4300:	1476fff5 	bne	v1,s6,42d8 <resend_messages+0x58>
    4304:	26520214 	addiu	s2,s2,532
    4308:	2652fdec 	addiu	s2,s2,-532
    430c:	02571021 	addu	v0,s2,s7
    4310:	8c450004 	lw	a1,4(v0)
    4314:	8c440000 	lw	a0,0(v0)
    4318:	02c03021 	move	a2,s6
    431c:	0c001080 	jal	4200 <send_message_delivery>
    4320:	02603821 	move	a3,s3
    4324:	080010cc 	j	4330 <resend_messages+0xb0>
    4328:	24020001 	li	v0,1
    432c:	00001021 	move	v0,zero
    4330:	8fbf0030 	lw	ra,48(sp)
    4334:	8fb7002c 	lw	s7,44(sp)
    4338:	8fb60028 	lw	s6,40(sp)
    433c:	8fb50024 	lw	s5,36(sp)
    4340:	8fb40020 	lw	s4,32(sp)
    4344:	8fb3001c 	lw	s3,28(sp)
    4348:	8fb20018 	lw	s2,24(sp)
    434c:	8fb10014 	lw	s1,20(sp)
    4350:	8fb00010 	lw	s0,16(sp)
    4354:	03e00008 	jr	ra
    4358:	27bd0038 	addiu	sp,sp,56

0000435c <resend_msg_request>:
    435c:	27bdffc0 	addiu	sp,sp,-64
    4360:	3c020005 	lui	v0,0x5
    4364:	3c032000 	lui	v1,0x2000
    4368:	afb30024 	sw	s3,36(sp)
    436c:	2453f07c 	addiu	s3,v0,-3972
    4370:	3c020005 	lui	v0,0x5
    4374:	afb70034 	sw	s7,52(sp)
    4378:	afb60030 	sw	s6,48(sp)
    437c:	afb5002c 	sw	s5,44(sp)
    4380:	afb40028 	sw	s4,40(sp)
    4384:	34770300 	ori	s7,v1,0x300
    4388:	afbf0038 	sw	ra,56(sp)
    438c:	afb20020 	sw	s2,32(sp)
    4390:	afb1001c 	sw	s1,28(sp)
    4394:	afb00018 	sw	s0,24(sp)
    4398:	0080b021 	move	s6,a0
    439c:	2455f0a4 	addiu	s5,v0,-3932
    43a0:	00001821 	move	v1,zero
    43a4:	24140002 	li	s4,2
    43a8:	82620000 	lb	v0,0(s3)
    43ac:	00000000 	nop
    43b0:	1054000f 	beq	v0,s4,43f0 <resend_msg_request+0x94>
    43b4:	00000000 	nop
    43b8:	26730014 	addiu	s3,s3,20
    43bc:	1675fffa 	bne	s3,s5,43a8 <resend_msg_request+0x4c>
    43c0:	00601021 	move	v0,v1
    43c4:	8fbf0038 	lw	ra,56(sp)
    43c8:	8fb70034 	lw	s7,52(sp)
    43cc:	8fb60030 	lw	s6,48(sp)
    43d0:	8fb5002c 	lw	s5,44(sp)
    43d4:	8fb40028 	lw	s4,40(sp)
    43d8:	8fb30024 	lw	s3,36(sp)
    43dc:	8fb20020 	lw	s2,32(sp)
    43e0:	8fb1001c 	lw	s1,28(sp)
    43e4:	8fb00018 	lw	s0,24(sp)
    43e8:	03e00008 	jr	ra
    43ec:	27bd0040 	addiu	sp,sp,64
    43f0:	8e620004 	lw	v0,4(s3)
    43f4:	00000000 	nop
    43f8:	1456ffef 	bne	v0,s6,43b8 <resend_msg_request+0x5c>
    43fc:	00000000 	nop
    4400:	8e700008 	lw	s0,8(s3)
    4404:	8e72000c 	lw	s2,12(s3)
    4408:	0c0012b8 	jal	4ae0 <get_task_location>
    440c:	02002021 	move	a0,s0
    4410:	0c0008ee 	jal	23b8 <get_net_address>
    4414:	00408821 	move	s1,v0
    4418:	00403821 	move	a3,v0
    441c:	02002021 	move	a0,s0
    4420:	02402821 	move	a1,s2
    4424:	02203021 	move	a2,s1
    4428:	0c001057 	jal	415c <send_message_request_>
    442c:	afa00010 	sw	zero,16(sp)
    4430:	8ee20000 	lw	v0,0(s7)
    4434:	24030001 	li	v1,1
    4438:	080010ee 	j	43b8 <resend_msg_request+0x5c>
    443c:	ae620010 	sw	v0,16(s3)

00004440 <remove_msg_request>:
    4440:	27bdffd8 	addiu	sp,sp,-40
    4444:	afb40020 	sw	s4,32(sp)
    4448:	afb3001c 	sw	s3,28(sp)
    444c:	afb20018 	sw	s2,24(sp)
    4450:	afbf0024 	sw	ra,36(sp)
    4454:	afb10014 	sw	s1,20(sp)
    4458:	afb00010 	sw	s0,16(sp)
    445c:	3c070005 	lui	a3,0x5
    4460:	80e3f07c 	lb	v1,-3972(a3)
    4464:	24020002 	li	v0,2
    4468:	00809021 	move	s2,a0
    446c:	00a09821 	move	s3,a1
    4470:	10620032 	beq	v1,v0,453c <remove_msg_request+0xfc>
    4474:	00c0a021 	move	s4,a2
    4478:	24e4f07c 	addiu	a0,a3,-3972
    447c:	80830014 	lb	v1,20(a0)
    4480:	24020002 	li	v0,2
    4484:	1062003c 	beq	v1,v0,4578 <remove_msg_request+0x138>
    4488:	00000000 	nop
    448c:	3c020001 	lui	v0,0x1
    4490:	3c102000 	lui	s0,0x2000
    4494:	24429fc4 	addiu	v0,v0,-24636
    4498:	36030300 	ori	v1,s0,0x300
    449c:	ae020000 	sw	v0,0(s0)
    44a0:	8c640000 	lw	a0,0(v1)
    44a4:	0c0008f2 	jal	23c8 <itoa>
    44a8:	3c110001 	lui	s1,0x1
    44ac:	ae020000 	sw	v0,0(s0)
    44b0:	3c020001 	lui	v0,0x1
    44b4:	2631a160 	addiu	s1,s1,-24224
    44b8:	24429ff0 	addiu	v0,v0,-24592
    44bc:	02402021 	move	a0,s2
    44c0:	ae110000 	sw	s1,0(s0)
    44c4:	ae020000 	sw	v0,0(s0)
    44c8:	0c000939 	jal	24e4 <itoh>
    44cc:	00000000 	nop
    44d0:	ae020000 	sw	v0,0(s0)
    44d4:	3c020001 	lui	v0,0x1
    44d8:	24429ff8 	addiu	v0,v0,-24584
    44dc:	02602021 	move	a0,s3
    44e0:	ae110000 	sw	s1,0(s0)
    44e4:	ae020000 	sw	v0,0(s0)
    44e8:	0c000939 	jal	24e4 <itoh>
    44ec:	00000000 	nop
    44f0:	ae020000 	sw	v0,0(s0)
    44f4:	3c020001 	lui	v0,0x1
    44f8:	2442a004 	addiu	v0,v0,-24572
    44fc:	ae110000 	sw	s1,0(s0)
    4500:	02802021 	move	a0,s4
    4504:	ae020000 	sw	v0,0(s0)
    4508:	0c000939 	jal	24e4 <itoh>
    450c:	00000000 	nop
    4510:	ae020000 	sw	v0,0(s0)
    4514:	ae110000 	sw	s1,0(s0)
    4518:	00001021 	move	v0,zero
    451c:	8fbf0024 	lw	ra,36(sp)
    4520:	8fb40020 	lw	s4,32(sp)
    4524:	8fb3001c 	lw	s3,28(sp)
    4528:	8fb20018 	lw	s2,24(sp)
    452c:	8fb10014 	lw	s1,20(sp)
    4530:	8fb00010 	lw	s0,16(sp)
    4534:	03e00008 	jr	ra
    4538:	27bd0028 	addiu	sp,sp,40
    453c:	24e3f07c 	addiu	v1,a3,-3972
    4540:	8c620004 	lw	v0,4(v1)
    4544:	00000000 	nop
    4548:	1482ffcb 	bne	a0,v0,4478 <remove_msg_request+0x38>
    454c:	00000000 	nop
    4550:	8c620008 	lw	v0,8(v1)
    4554:	00000000 	nop
    4558:	14c2ffc8 	bne	a2,v0,447c <remove_msg_request+0x3c>
    455c:	24e4f07c 	addiu	a0,a3,-3972
    4560:	8c62000c 	lw	v0,12(v1)
    4564:	00000000 	nop
    4568:	14a2ffc4 	bne	a1,v0,447c <remove_msg_request+0x3c>
    456c:	00001821 	move	v1,zero
    4570:	0800116b 	j	45ac <remove_msg_request+0x16c>
    4574:	00031100 	sll	v0,v1,0x4
    4578:	8c820018 	lw	v0,24(a0)
    457c:	00000000 	nop
    4580:	1642ffc3 	bne	s2,v0,4490 <remove_msg_request+0x50>
    4584:	3c020001 	lui	v0,0x1
    4588:	8c82001c 	lw	v0,28(a0)
    458c:	00000000 	nop
    4590:	1682ffbf 	bne	s4,v0,4490 <remove_msg_request+0x50>
    4594:	3c020001 	lui	v0,0x1
    4598:	8c820020 	lw	v0,32(a0)
    459c:	00000000 	nop
    45a0:	1662ffba 	bne	s3,v0,448c <remove_msg_request+0x4c>
    45a4:	24030001 	li	v1,1
    45a8:	00031100 	sll	v0,v1,0x4
    45ac:	00031880 	sll	v1,v1,0x2
    45b0:	00621821 	addu	v1,v1,v0
    45b4:	24e4f07c 	addiu	a0,a3,-3972
    45b8:	00641821 	addu	v1,v1,a0
    45bc:	24020001 	li	v0,1
    45c0:	08001147 	j	451c <remove_msg_request+0xdc>
    45c4:	a0600000 	sb	zero,0(v1)

000045c8 <search_free_TCB>:
    45c8:	3c050005 	lui	a1,0x5
    45cc:	24a2f134 	addiu	v0,a1,-3788
    45d0:	8c4300a0 	lw	v1,160(v0)
    45d4:	2402ffff 	li	v0,-1
    45d8:	8c640000 	lw	a0,0(v1)
    45dc:	00000000 	nop
    45e0:	10820006 	beq	a0,v0,45fc <search_free_TCB+0x34>
    45e4:	3c032000 	lui	v1,0x2000
    45e8:	3c020001 	lui	v0,0x1
    45ec:	2442a010 	addiu	v0,v0,-24560
    45f0:	ac620000 	sw	v0,0(v1)
    45f4:	0800117d 	j	45f4 <search_free_TCB+0x2c>
    45f8:	00000000 	nop
    45fc:	03e00008 	jr	ra
    4600:	24a2f134 	addiu	v0,a1,-3788

00004604 <searchTCB>:
    4604:	3c020005 	lui	v0,0x5
    4608:	2442f134 	addiu	v0,v0,-3788
    460c:	8c430080 	lw	v1,128(v0)
    4610:	00000000 	nop
    4614:	14640003 	bne	v1,a0,4624 <searchTCB+0x20>
    4618:	00000000 	nop
    461c:	03e00008 	jr	ra
    4620:	00000000 	nop
    4624:	03e00008 	jr	ra
    4628:	00001021 	move	v0,zero

0000462c <get_tcb_index_ptr>:
    462c:	00041140 	sll	v0,a0,0x5
    4630:	000418c0 	sll	v1,a0,0x3
    4634:	00621821 	addu	v1,v1,v0
    4638:	00641821 	addu	v1,v1,a0
    463c:	3c020005 	lui	v0,0x5
    4640:	00031880 	sll	v1,v1,0x2
    4644:	2442f134 	addiu	v0,v0,-3788
    4648:	03e00008 	jr	ra
    464c:	00621021 	addu	v0,v1,v0

00004650 <is_another_task_running>:
    4650:	3c020005 	lui	v0,0x5
    4654:	2446f134 	addiu	a2,v0,-3788
    4658:	8cc300a0 	lw	v1,160(a2)
    465c:	2402ffff 	li	v0,-1
    4660:	8c650000 	lw	a1,0(v1)
    4664:	00000000 	nop
    4668:	10a20006 	beq	a1,v0,4684 <is_another_task_running+0x34>
    466c:	00001821 	move	v1,zero
    4670:	8cc20080 	lw	v0,128(a2)
    4674:	00000000 	nop
    4678:	00021203 	sra	v0,v0,0x8
    467c:	00441026 	xor	v0,v0,a0
    4680:	2c430001 	sltiu	v1,v0,1
    4684:	03e00008 	jr	ra
    4688:	00601021 	move	v0,v1

0000468c <unblock_tasks_of_App>:
    468c:	3c020005 	lui	v0,0x5
    4690:	2446f134 	addiu	a2,v0,-3788
    4694:	8cc500a0 	lw	a1,160(a2)
    4698:	24020004 	li	v0,4
    469c:	8ca30000 	lw	v1,0(a1)
    46a0:	00000000 	nop
    46a4:	10620004 	beq	v1,v0,46b8 <unblock_tasks_of_App+0x2c>
    46a8:	00000000 	nop
    46ac:	00001821 	move	v1,zero
    46b0:	03e00008 	jr	ra
    46b4:	00601021 	move	v0,v1
    46b8:	8cc20080 	lw	v0,128(a2)
    46bc:	00000000 	nop
    46c0:	00021203 	sra	v0,v0,0x8
    46c4:	1444fff9 	bne	v0,a0,46ac <unblock_tasks_of_App+0x20>
    46c8:	24030001 	li	v1,1
    46cc:	00601021 	move	v0,v1
    46d0:	03e00008 	jr	ra
    46d4:	aca00000 	sw	zero,0(a1)

000046d8 <clear_all_memory_areas>:
    46d8:	3c080005 	lui	t0,0x5
    46dc:	2505f134 	addiu	a1,t0,-3788
    46e0:	8ca200a0 	lw	v0,160(a1)
    46e4:	00000000 	nop
    46e8:	8c430000 	lw	v1,0(v0)
    46ec:	2402ffff 	li	v0,-1
    46f0:	10620003 	beq	v1,v0,4700 <clear_all_memory_areas+0x28>
    46f4:	00000000 	nop
    46f8:	03e00008 	jr	ra
    46fc:	00000000 	nop
    4700:	8ca20080 	lw	v0,128(a1)
    4704:	00000000 	nop
    4708:	00021203 	sra	v0,v0,0x8
    470c:	1444003f 	bne	v0,a0,480c <clear_all_memory_areas+0x134>
    4710:	00000000 	nop
    4714:	8ca30064 	lw	v1,100(a1)
    4718:	3c050001 	lui	a1,0x1
    471c:	00a32023 	subu	a0,a1,v1
    4720:	30820003 	andi	v0,a0,0x3
    4724:	10400007 	beqz	v0,4744 <clear_all_memory_areas+0x6c>
    4728:	34a20001 	ori	v0,a1,0x1
    472c:	080011ce 	j	4738 <clear_all_memory_areas+0x60>
    4730:	00432023 	subu	a0,v0,v1
    4734:	00602021 	move	a0,v1
    4738:	30820003 	andi	v0,a0,0x3
    473c:	1440fffd 	bnez	v0,4734 <clear_all_memory_areas+0x5c>
    4740:	24830001 	addiu	v1,a0,1
    4744:	2505f134 	addiu	a1,t0,-3788
    4748:	8ca3008c 	lw	v1,140(a1)
    474c:	8ca20088 	lw	v0,136(a1)
    4750:	00043882 	srl	a3,a0,0x2
    4754:	00431021 	addu	v0,v0,v1
    4758:	8ca4007c 	lw	a0,124(a1)
    475c:	8ca30084 	lw	v1,132(a1)
    4760:	1040000c 	beqz	v0,4794 <clear_all_memory_areas+0xbc>
    4764:	00031080 	sll	v0,v1,0x2
    4768:	00a03021 	move	a2,a1
    476c:	00822021 	addu	a0,a0,v0
    4770:	00002821 	move	a1,zero
    4774:	ac800000 	sw	zero,0(a0)
    4778:	8cc2008c 	lw	v0,140(a2)
    477c:	8cc30088 	lw	v1,136(a2)
    4780:	24a50001 	addiu	a1,a1,1
    4784:	00431021 	addu	v0,v0,v1
    4788:	00a2102b 	sltu	v0,a1,v0
    478c:	1440fff9 	bnez	v0,4774 <clear_all_memory_areas+0x9c>
    4790:	24840004 	addiu	a0,a0,4
    4794:	2502f134 	addiu	v0,t0,-3788
    4798:	8c430064 	lw	v1,100(v0)
    479c:	8c42007c 	lw	v0,124(v0)
    47a0:	10e00006 	beqz	a3,47bc <clear_all_memory_areas+0xe4>
    47a4:	00431021 	addu	v0,v0,v1
    47a8:	00001821 	move	v1,zero
    47ac:	24630001 	addiu	v1,v1,1
    47b0:	ac400000 	sw	zero,0(v0)
    47b4:	14e3fffd 	bne	a3,v1,47ac <clear_all_memory_areas+0xd4>
    47b8:	24420004 	addiu	v0,v0,4
    47bc:	2504f134 	addiu	a0,t0,-3788
    47c0:	8c820084 	lw	v0,132(a0)
    47c4:	8c83007c 	lw	v1,124(a0)
    47c8:	1040000a 	beqz	v0,47f4 <clear_all_memory_areas+0x11c>
    47cc:	3c020005 	lui	v0,0x5
    47d0:	00802821 	move	a1,a0
    47d4:	00002021 	move	a0,zero
    47d8:	ac600000 	sw	zero,0(v1)
    47dc:	8ca20084 	lw	v0,132(a1)
    47e0:	24840001 	addiu	a0,a0,1
    47e4:	0082102b 	sltu	v0,a0,v0
    47e8:	1440fffb 	bnez	v0,47d8 <clear_all_memory_areas+0x100>
    47ec:	24630004 	addiu	v1,v1,4
    47f0:	3c020005 	lui	v0,0x5
    47f4:	2503f134 	addiu	v1,t0,-3788
    47f8:	2442f1ac 	addiu	v0,v0,-3668
    47fc:	ac600000 	sw	zero,0(v1)
    4800:	24630004 	addiu	v1,v1,4
    4804:	1462fffd 	bne	v1,v0,47fc <clear_all_memory_areas+0x124>
    4808:	00000000 	nop
    480c:	03e00008 	jr	ra
    4810:	00000000 	nop

00004814 <freeze_tasks_of_cluster>:
    4814:	3c020005 	lui	v0,0x5
    4818:	2442f134 	addiu	v0,v0,-3788
    481c:	8c430094 	lw	v1,148(v0)
    4820:	00000000 	nop
    4824:	14640007 	bne	v1,a0,4844 <freeze_tasks_of_cluster+0x30>
    4828:	00002821 	move	a1,zero
    482c:	8c4200a0 	lw	v0,160(v0)
    4830:	24030004 	li	v1,4
    4834:	8c440000 	lw	a0,0(v0)
    4838:	24050001 	li	a1,1
    483c:	ac430000 	sw	v1,0(v0)
    4840:	ac440028 	sw	a0,40(v0)
    4844:	03e00008 	jr	ra
    4848:	00a01021 	move	v0,a1

0000484c <unfreeze_tasks_of_cluster>:
    484c:	3c020005 	lui	v0,0x5
    4850:	2447f134 	addiu	a3,v0,-3788
    4854:	8ce30080 	lw	v1,128(a3)
    4858:	2402ffff 	li	v0,-1
    485c:	10620009 	beq	v1,v0,4884 <unfreeze_tasks_of_cluster+0x38>
    4860:	00804021 	move	t0,a0
    4864:	8ce300a0 	lw	v1,160(a3)
    4868:	24040001 	li	a0,1
    486c:	8c620028 	lw	v0,40(v1)
    4870:	00000000 	nop
    4874:	ac620000 	sw	v0,0(v1)
    4878:	00801021 	move	v0,a0
    487c:	03e00008 	jr	ra
    4880:	ace50094 	sw	a1,148(a3)
    4884:	8ce200a0 	lw	v0,160(a3)
    4888:	24030004 	li	v1,4
    488c:	8c440000 	lw	a0,0(v0)
    4890:	00000000 	nop
    4894:	1083fff3 	beq	a0,v1,4864 <unfreeze_tasks_of_cluster+0x18>
    4898:	00000000 	nop
    489c:	8ce20094 	lw	v0,148(a3)
    48a0:	00000000 	nop
    48a4:	1048ffef 	beq	v0,t0,4864 <unfreeze_tasks_of_cluster+0x18>
    48a8:	00002021 	move	a0,zero
    48ac:	03e00008 	jr	ra
    48b0:	00801021 	move	v0,a0

000048b4 <unfreeze_tasks_of_App>:
    48b4:	3c030005 	lui	v1,0x5
    48b8:	2463f134 	addiu	v1,v1,-3788
    48bc:	8c620080 	lw	v0,128(v1)
    48c0:	00000000 	nop
    48c4:	00021203 	sra	v0,v0,0x8
    48c8:	14440005 	bne	v0,a0,48e0 <unfreeze_tasks_of_App+0x2c>
    48cc:	00002821 	move	a1,zero
    48d0:	8c6300a0 	lw	v1,160(v1)
    48d4:	24020002 	li	v0,2
    48d8:	24050001 	li	a1,1
    48dc:	ac620000 	sw	v0,0(v1)
    48e0:	03e00008 	jr	ra
    48e4:	00a01021 	move	v0,a1

000048e8 <freeze_tasks_of_App>:
    48e8:	27bdffe0 	addiu	sp,sp,-32
    48ec:	3c030005 	lui	v1,0x5
    48f0:	afb20018 	sw	s2,24(sp)
    48f4:	afb10014 	sw	s1,20(sp)
    48f8:	2472f134 	addiu	s2,v1,-3788
    48fc:	afbf001c 	sw	ra,28(sp)
    4900:	afb00010 	sw	s0,16(sp)
    4904:	8e420080 	lw	v0,128(s2)
    4908:	3c112000 	lui	s1,0x2000
    490c:	00021203 	sra	v0,v0,0x8
    4910:	10440008 	beq	v0,a0,4934 <freeze_tasks_of_App+0x4c>
    4914:	00001821 	move	v1,zero
    4918:	8fbf001c 	lw	ra,28(sp)
    491c:	8fb20018 	lw	s2,24(sp)
    4920:	8fb10014 	lw	s1,20(sp)
    4924:	8fb00010 	lw	s0,16(sp)
    4928:	00601021 	move	v0,v1
    492c:	03e00008 	jr	ra
    4930:	27bd0020 	addiu	sp,sp,32
    4934:	8e4300a0 	lw	v1,160(s2)
    4938:	24020004 	li	v0,4
    493c:	8c650000 	lw	a1,0(v1)
    4940:	ac620000 	sw	v0,0(v1)
    4944:	3c020001 	lui	v0,0x1
    4948:	2442a028 	addiu	v0,v0,-24536
    494c:	ac650028 	sw	a1,40(v1)
    4950:	ae220000 	sw	v0,0(s1)
    4954:	0c000939 	jal	24e4 <itoh>
    4958:	00000000 	nop
    495c:	ae220000 	sw	v0,0(s1)
    4960:	3c100001 	lui	s0,0x1
    4964:	3c020001 	lui	v0,0x1
    4968:	2610a160 	addiu	s0,s0,-24224
    496c:	8e4300a0 	lw	v1,160(s2)
    4970:	2442a034 	addiu	v0,v0,-24524
    4974:	ae300000 	sw	s0,0(s1)
    4978:	ae220000 	sw	v0,0(s1)
    497c:	8c640000 	lw	a0,0(v1)
    4980:	0c000939 	jal	24e4 <itoh>
    4984:	00000000 	nop
    4988:	ae220000 	sw	v0,0(s1)
    498c:	3c020001 	lui	v0,0x1
    4990:	8e4300a0 	lw	v1,160(s2)
    4994:	2442a040 	addiu	v0,v0,-24512
    4998:	ae300000 	sw	s0,0(s1)
    499c:	ae220000 	sw	v0,0(s1)
    49a0:	8c640028 	lw	a0,40(v1)
    49a4:	0c000939 	jal	24e4 <itoh>
    49a8:	00000000 	nop
    49ac:	ae220000 	sw	v0,0(s1)
    49b0:	ae300000 	sw	s0,0(s1)
    49b4:	24030001 	li	v1,1
    49b8:	8fbf001c 	lw	ra,28(sp)
    49bc:	8fb20018 	lw	s2,24(sp)
    49c0:	8fb10014 	lw	s1,20(sp)
    49c4:	8fb00010 	lw	s0,16(sp)
    49c8:	00601021 	move	v0,v1
    49cc:	03e00008 	jr	ra
    49d0:	27bd0020 	addiu	sp,sp,32

000049d4 <print_task>:
    49d4:	27bdffe0 	addiu	sp,sp,-32
    49d8:	afb00010 	sw	s0,16(sp)
    49dc:	3c100005 	lui	s0,0x5
    49e0:	2610f134 	addiu	s0,s0,-3788
    49e4:	3c020001 	lui	v0,0x1
    49e8:	afb20018 	sw	s2,24(sp)
    49ec:	8e040080 	lw	a0,128(s0)
    49f0:	3c122000 	lui	s2,0x2000
    49f4:	2442a050 	addiu	v0,v0,-24496
    49f8:	afbf001c 	sw	ra,28(sp)
    49fc:	afb10014 	sw	s1,20(sp)
    4a00:	ae420000 	sw	v0,0(s2)
    4a04:	0c0008f2 	jal	23c8 <itoa>
    4a08:	00000000 	nop
    4a0c:	ae420000 	sw	v0,0(s2)
    4a10:	3c110001 	lui	s1,0x1
    4a14:	3c020001 	lui	v0,0x1
    4a18:	2631a160 	addiu	s1,s1,-24224
    4a1c:	8e0300a0 	lw	v1,160(s0)
    4a20:	2442a060 	addiu	v0,v0,-24480
    4a24:	ae510000 	sw	s1,0(s2)
    4a28:	ae420000 	sw	v0,0(s2)
    4a2c:	8c640000 	lw	a0,0(v1)
    4a30:	0c0008f2 	jal	23c8 <itoa>
    4a34:	00000000 	nop
    4a38:	ae420000 	sw	v0,0(s2)
    4a3c:	ae510000 	sw	s1,0(s2)
    4a40:	8fbf001c 	lw	ra,28(sp)
    4a44:	8fb20018 	lw	s2,24(sp)
    4a48:	8fb10014 	lw	s1,20(sp)
    4a4c:	8fb00010 	lw	s0,16(sp)
    4a50:	03e00008 	jr	ra
    4a54:	27bd0020 	addiu	sp,sp,32

00004a58 <init_TCBs>:
    4a58:	27bdffe8 	addiu	sp,sp,-24
    4a5c:	afb00010 	sw	s0,16(sp)
    4a60:	3c100005 	lui	s0,0x5
    4a64:	2610f134 	addiu	s0,s0,-3788
    4a68:	2403ffff 	li	v1,-1
    4a6c:	3c020001 	lui	v0,0x1
    4a70:	3c040005 	lui	a0,0x5
    4a74:	afbf0014 	sw	ra,20(sp)
    4a78:	2484f1d4 	addiu	a0,a0,-3628
    4a7c:	ae02007c 	sw	v0,124(s0)
    4a80:	ae030090 	sw	v1,144(s0)
    4a84:	ae030080 	sw	v1,128(s0)
    4a88:	ae000078 	sw	zero,120(s0)
    4a8c:	0c0016ef 	jal	5bbc <init_scheduling_ptr>
    4a90:	00002821 	move	a1,zero
    4a94:	8e0400a0 	lw	a0,160(s0)
    4a98:	00000000 	nop
    4a9c:	ac900024 	sw	s0,36(a0)
    4aa0:	8fbf0014 	lw	ra,20(sp)
    4aa4:	8fb00010 	lw	s0,16(sp)
    4aa8:	080017c2 	j	5f08 <clear_scheduling>
    4aac:	27bd0018 	addiu	sp,sp,24

00004ab0 <init_task_location>:
    4ab0:	3c020005 	lui	v0,0x5
    4ab4:	3c030005 	lui	v1,0x5
    4ab8:	2442f1d8 	addiu	v0,v0,-3624
    4abc:	2463f298 	addiu	v1,v1,-3432
    4ac0:	2404ffff 	li	a0,-1
    4ac4:	ac440000 	sw	a0,0(v0)
    4ac8:	ac440004 	sw	a0,4(v0)
    4acc:	24420008 	addiu	v0,v0,8
    4ad0:	1443fffc 	bne	v0,v1,4ac4 <init_task_location+0x14>
    4ad4:	00000000 	nop
    4ad8:	03e00008 	jr	ra
    4adc:	00000000 	nop

00004ae0 <get_task_location>:
    4ae0:	3c020005 	lui	v0,0x5
    4ae4:	2445f1d8 	addiu	a1,v0,-3624
    4ae8:	00001821 	move	v1,zero
    4aec:	24070018 	li	a3,24
    4af0:	080012c0 	j	4b00 <get_task_location+0x20>
    4af4:	24a60004 	addiu	a2,a1,4
    4af8:	10670008 	beq	v1,a3,4b1c <get_task_location+0x3c>
    4afc:	24c60008 	addiu	a2,a2,8
    4b00:	8ca20000 	lw	v0,0(a1)
    4b04:	24630001 	addiu	v1,v1,1
    4b08:	1444fffb 	bne	v0,a0,4af8 <get_task_location+0x18>
    4b0c:	24a50008 	addiu	a1,a1,8
    4b10:	8cc20000 	lw	v0,0(a2)
    4b14:	03e00008 	jr	ra
    4b18:	00000000 	nop
    4b1c:	03e00008 	jr	ra
    4b20:	2402ffff 	li	v0,-1

00004b24 <add_task_location>:
    4b24:	3c020005 	lui	v0,0x5
    4b28:	2447f1d8 	addiu	a3,v0,-3624
    4b2c:	00003021 	move	a2,zero
    4b30:	2408ffff 	li	t0,-1
    4b34:	24090018 	li	t1,24
    4b38:	080012d2 	j	4b48 <add_task_location+0x24>
    4b3c:	00e01821 	move	v1,a3
    4b40:	10c90008 	beq	a2,t1,4b64 <add_task_location+0x40>
    4b44:	24630008 	addiu	v1,v1,8
    4b48:	8ce20000 	lw	v0,0(a3)
    4b4c:	24c60001 	addiu	a2,a2,1
    4b50:	1448fffb 	bne	v0,t0,4b40 <add_task_location+0x1c>
    4b54:	24e70008 	addiu	a3,a3,8
    4b58:	ac650004 	sw	a1,4(v1)
    4b5c:	03e00008 	jr	ra
    4b60:	ac640000 	sw	a0,0(v1)
    4b64:	3c020001 	lui	v0,0x1
    4b68:	2442a06c 	addiu	v0,v0,-24468
    4b6c:	3c032000 	lui	v1,0x2000
    4b70:	ac620000 	sw	v0,0(v1)
    4b74:	080012dd 	j	4b74 <add_task_location+0x50>
    4b78:	00000000 	nop

00004b7c <change_task_location>:
    4b7c:	3c020005 	lui	v0,0x5
    4b80:	2446f1d8 	addiu	a2,v0,-3624
    4b84:	00001821 	move	v1,zero
    4b88:	24080018 	li	t0,24
    4b8c:	080012e7 	j	4b9c <change_task_location+0x20>
    4b90:	24c70004 	addiu	a3,a2,4
    4b94:	10680007 	beq	v1,t0,4bb4 <change_task_location+0x38>
    4b98:	24e70008 	addiu	a3,a3,8
    4b9c:	8cc20000 	lw	v0,0(a2)
    4ba0:	24630001 	addiu	v1,v1,1
    4ba4:	1444fffb 	bne	v0,a0,4b94 <change_task_location+0x18>
    4ba8:	24c60008 	addiu	a2,a2,8
    4bac:	03e00008 	jr	ra
    4bb0:	ace50000 	sw	a1,0(a3)
    4bb4:	03e00008 	jr	ra
    4bb8:	00000000 	nop

00004bbc <remove_task_location>:
    4bbc:	3c070005 	lui	a3,0x5
    4bc0:	00001821 	move	v1,zero
    4bc4:	24e5f1d8 	addiu	a1,a3,-3624
    4bc8:	080012f7 	j	4bdc <remove_task_location+0x20>
    4bcc:	24060018 	li	a2,24
    4bd0:	24630001 	addiu	v1,v1,1
    4bd4:	1066000d 	beq	v1,a2,4c0c <remove_task_location+0x50>
    4bd8:	3c020001 	lui	v0,0x1
    4bdc:	8ca20000 	lw	v0,0(a1)
    4be0:	00000000 	nop
    4be4:	1444fffa 	bne	v0,a0,4bd0 <remove_task_location+0x14>
    4be8:	24a50008 	addiu	a1,a1,8
    4bec:	24e2f1d8 	addiu	v0,a3,-3624
    4bf0:	000318c0 	sll	v1,v1,0x3
    4bf4:	00621821 	addu	v1,v1,v0
    4bf8:	8c620004 	lw	v0,4(v1)
    4bfc:	2404ffff 	li	a0,-1
    4c00:	ac640004 	sw	a0,4(v1)
    4c04:	03e00008 	jr	ra
    4c08:	ac640000 	sw	a0,0(v1)
    4c0c:	2442a08c 	addiu	v0,v0,-24436
    4c10:	3c032000 	lui	v1,0x2000
    4c14:	ac620000 	sw	v0,0(v1)
    4c18:	08001306 	j	4c18 <remove_task_location+0x5c>
    4c1c:	00000000 	nop

00004c20 <clear_app_tasks_locations>:
    4c20:	3c020005 	lui	v0,0x5
    4c24:	3c030005 	lui	v1,0x5
    4c28:	2446f1d8 	addiu	a2,v0,-3624
    4c2c:	2463f298 	addiu	v1,v1,-3432
    4c30:	08001311 	j	4c44 <clear_app_tasks_locations+0x24>
    4c34:	2407ffff 	li	a3,-1
    4c38:	24c60008 	addiu	a2,a2,8
    4c3c:	10c3000c 	beq	a2,v1,4c70 <clear_app_tasks_locations+0x50>
    4c40:	00000000 	nop
    4c44:	8cc20000 	lw	v0,0(a2)
    4c48:	00000000 	nop
    4c4c:	1047fffa 	beq	v0,a3,4c38 <clear_app_tasks_locations+0x18>
    4c50:	00022a03 	sra	a1,v0,0x8
    4c54:	14a4fff8 	bne	a1,a0,4c38 <clear_app_tasks_locations+0x18>
    4c58:	00000000 	nop
    4c5c:	acc70000 	sw	a3,0(a2)
    4c60:	acc70004 	sw	a3,4(a2)
    4c64:	24c60008 	addiu	a2,a2,8
    4c68:	14c3fff6 	bne	a2,v1,4c44 <clear_app_tasks_locations+0x24>
    4c6c:	00000000 	nop
    4c70:	03e00008 	jr	ra
    4c74:	00000000 	nop

00004c78 <handle_migration_stack>:
    4c78:	27bdffe8 	addiu	sp,sp,-24
    4c7c:	afbf0010 	sw	ra,16(sp)
    4c80:	8c82009c 	lw	v0,156(a0)
    4c84:	00000000 	nop
    4c88:	10400006 	beqz	v0,4ca4 <handle_migration_stack+0x2c>
    4c8c:	00a01821 	move	v1,a1
    4c90:	8c85009c 	lw	a1,156(a0)
    4c94:	8c620064 	lw	v0,100(v1)
    4c98:	8c64007c 	lw	a0,124(v1)
    4c9c:	0c000a42 	jal	2908 <DMNI_read_data>
    4ca0:	00822021 	addu	a0,a0,v0
    4ca4:	3c020001 	lui	v0,0x1
    4ca8:	2442a0b0 	addiu	v0,v0,-24400
    4cac:	3c032000 	lui	v1,0x2000
    4cb0:	ac620000 	sw	v0,0(v1)
    4cb4:	8fbf0010 	lw	ra,16(sp)
    4cb8:	00000000 	nop
    4cbc:	03e00008 	jr	ra
    4cc0:	27bd0018 	addiu	sp,sp,24

00004cc4 <handle_migration_TCB>:
    4cc4:	27bdff68 	addiu	sp,sp,-152
    4cc8:	afb1008c 	sw	s1,140(sp)
    4ccc:	afb00088 	sw	s0,136(sp)
    4cd0:	afbf0090 	sw	ra,144(sp)
    4cd4:	8c8200a4 	lw	v0,164(a0)
    4cd8:	8ca3007c 	lw	v1,124(a1)
    4cdc:	00a08021 	move	s0,a1
    4ce0:	00431021 	addu	v0,v0,v1
    4ce4:	ae020078 	sw	v0,120(s0)
    4ce8:	8ca500a0 	lw	a1,160(a1)
    4cec:	8c83008c 	lw	v1,140(a0)
    4cf0:	27b10010 	addiu	s1,sp,16
    4cf4:	aca30028 	sw	v1,40(a1)
    4cf8:	02202021 	move	a0,s1
    4cfc:	0c000a42 	jal	2908 <DMNI_read_data>
    4d00:	2405001e 	li	a1,30
    4d04:	00002821 	move	a1,zero
    4d08:	2406001b 	li	a2,27
    4d0c:	00051080 	sll	v0,a1,0x2
    4d10:	00511821 	addu	v1,v0,s1
    4d14:	10a6000b 	beq	a1,a2,4d44 <handle_migration_TCB+0x80>
    4d18:	00502021 	addu	a0,v0,s0
    4d1c:	8c630000 	lw	v1,0(v1)
    4d20:	24a50001 	addiu	a1,a1,1
    4d24:	28a2001e 	slti	v0,a1,30
    4d28:	1440fff8 	bnez	v0,4d0c <handle_migration_TCB+0x48>
    4d2c:	ac830000 	sw	v1,0(a0)
    4d30:	8fbf0090 	lw	ra,144(sp)
    4d34:	8fb1008c 	lw	s1,140(sp)
    4d38:	8fb00088 	lw	s0,136(sp)
    4d3c:	03e00008 	jr	ra
    4d40:	27bd0098 	addiu	sp,sp,152
    4d44:	8fa2007c 	lw	v0,124(sp)
    4d48:	8e03007c 	lw	v1,124(s0)
    4d4c:	2405001c 	li	a1,28
    4d50:	00431021 	addu	v0,v0,v1
    4d54:	08001343 	j	4d0c <handle_migration_TCB+0x48>
    4d58:	ae02006c 	sw	v0,108(s0)

00004d5c <handle_migration_code>:
    4d5c:	00a03021 	move	a2,a1
    4d60:	8ca500a0 	lw	a1,160(a1)
    4d64:	24020003 	li	v0,3
    4d68:	aca20000 	sw	v0,0(a1)
    4d6c:	8c850088 	lw	a1,136(a0)
    4d70:	00801821 	move	v1,a0
    4d74:	acc50080 	sw	a1,128(a2)
    4d78:	8c62008c 	lw	v0,140(v1)
    4d7c:	8cc4007c 	lw	a0,124(a2)
    4d80:	acc20094 	sw	v0,148(a2)
    4d84:	8c6500a4 	lw	a1,164(v1)
    4d88:	08000a42 	j	2908 <DMNI_read_data>
    4d8c:	acc50084 	sw	a1,132(a2)

00004d90 <handle_migration_PIPE>:
    4d90:	27bdfde0 	addiu	sp,sp,-544
    4d94:	afbf021c 	sw	ra,540(sp)
    4d98:	afb00218 	sw	s0,536(sp)
    4d9c:	8c82009c 	lw	v0,156(a0)
    4da0:	00808021 	move	s0,a0
    4da4:	00402821 	move	a1,v0
    4da8:	27a40014 	addiu	a0,sp,20
    4dac:	0c000a42 	jal	2908 <DMNI_read_data>
    4db0:	afa20010 	sw	v0,16(sp)
    4db4:	8e040088 	lw	a0,136(s0)
    4db8:	8e05008c 	lw	a1,140(s0)
    4dbc:	0c000e92 	jal	3a48 <add_PIPE>
    4dc0:	27a60010 	addiu	a2,sp,16
    4dc4:	8fbf021c 	lw	ra,540(sp)
    4dc8:	8fb00218 	lw	s0,536(sp)
    4dcc:	03e00008 	jr	ra
    4dd0:	27bd0220 	addiu	sp,sp,544

00004dd4 <handle_consumer_migration_request_msg>:
    4dd4:	27bdffb8 	addiu	sp,sp,-72
    4dd8:	afbf0044 	sw	ra,68(sp)
    4ddc:	afbe0040 	sw	s8,64(sp)
    4de0:	afb50034 	sw	s5,52(sp)
    4de4:	afb10024 	sw	s1,36(sp)
    4de8:	afb00020 	sw	s0,32(sp)
    4dec:	afb7003c 	sw	s7,60(sp)
    4df0:	afb60038 	sw	s6,56(sp)
    4df4:	afb40030 	sw	s4,48(sp)
    4df8:	afb3002c 	sw	s3,44(sp)
    4dfc:	afb20028 	sw	s2,40(sp)
    4e00:	8c8200a8 	lw	v0,168(a0)
    4e04:	03a0f021 	move	s8,sp
    4e08:	00021080 	sll	v0,v0,0x2
    4e0c:	2442000e 	addiu	v0,v0,14
    4e10:	000210c2 	srl	v0,v0,0x3
    4e14:	afdd0018 	sw	sp,24(s8)
    4e18:	000210c0 	sll	v0,v0,0x3
    4e1c:	8c8300a8 	lw	v1,168(a0)
    4e20:	03a2e823 	subu	sp,sp,v0
    4e24:	27b10018 	addiu	s1,sp,24
    4e28:	00808021 	move	s0,a0
    4e2c:	afc5004c 	sw	a1,76(s8)
    4e30:	02202021 	move	a0,s1
    4e34:	0c000a42 	jal	2908 <DMNI_read_data>
    4e38:	00602821 	move	a1,v1
    4e3c:	8e0400a8 	lw	a0,168(s0)
    4e40:	3c02cccc 	lui	v0,0xcccc
    4e44:	3442cccd 	ori	v0,v0,0xcccd
    4e48:	00820019 	multu	a0,v0
    4e4c:	3c030001 	lui	v1,0x1
    4e50:	3c020001 	lui	v0,0x1
    4e54:	3c102000 	lui	s0,0x2000
    4e58:	2442a0c4 	addiu	v0,v0,-24380
    4e5c:	2463a0ec 	addiu	v1,v1,-24340
    4e60:	ae020000 	sw	v0,0(s0)
    4e64:	ae030000 	sw	v1,0(s0)
    4e68:	00002010 	mfhi	a0
    4e6c:	0004a882 	srl	s5,a0,0x2
    4e70:	0c000939 	jal	24e4 <itoh>
    4e74:	02a02021 	move	a0,s5
    4e78:	ae020000 	sw	v0,0(s0)
    4e7c:	3c020001 	lui	v0,0x1
    4e80:	2442a160 	addiu	v0,v0,-24224
    4e84:	ae020000 	sw	v0,0(s0)
    4e88:	12a0000f 	beqz	s5,4ec8 <handle_consumer_migration_request_msg+0xf4>
    4e8c:	02208021 	move	s0,s1
    4e90:	00009821 	move	s3,zero
    4e94:	8fc3004c 	lw	v1,76(s8)
    4e98:	8e160000 	lw	s6,0(s0)
    4e9c:	8c620080 	lw	v0,128(v1)
    4ea0:	8e120004 	lw	s2,4(s0)
    4ea4:	8e170008 	lw	s7,8(s0)
    4ea8:	8e11000c 	lw	s1,12(s0)
    4eac:	26730001 	addiu	s3,s3,1
    4eb0:	8e140010 	lw	s4,16(s0)
    4eb4:	02402021 	move	a0,s2
    4eb8:	12220015 	beq	s1,v0,4f10 <handle_consumer_migration_request_msg+0x13c>
    4ebc:	26100014 	addiu	s0,s0,20
    4ec0:	1675fff4 	bne	s3,s5,4e94 <handle_consumer_migration_request_msg+0xc0>
    4ec4:	00000000 	nop
    4ec8:	3c020001 	lui	v0,0x1
    4ecc:	2442a118 	addiu	v0,v0,-24296
    4ed0:	3c032000 	lui	v1,0x2000
    4ed4:	ac620000 	sw	v0,0(v1)
    4ed8:	8fdd0018 	lw	sp,24(s8)
    4edc:	03c0e821 	move	sp,s8
    4ee0:	8fbf0044 	lw	ra,68(sp)
    4ee4:	8fbe0040 	lw	s8,64(sp)
    4ee8:	8fb7003c 	lw	s7,60(sp)
    4eec:	8fb60038 	lw	s6,56(sp)
    4ef0:	8fb50034 	lw	s5,52(sp)
    4ef4:	8fb40030 	lw	s4,48(sp)
    4ef8:	8fb3002c 	lw	s3,44(sp)
    4efc:	8fb20028 	lw	s2,40(sp)
    4f00:	8fb10024 	lw	s1,36(sp)
    4f04:	8fb00020 	lw	s0,32(sp)
    4f08:	03e00008 	jr	ra
    4f0c:	27bd0048 	addiu	sp,sp,72
    4f10:	3c030001 	lui	v1,0x1
    4f14:	2463a100 	addiu	v1,v1,-24320
    4f18:	3c022000 	lui	v0,0x2000
    4f1c:	ac430000 	sw	v1,0(v0)
    4f20:	0c0008f2 	jal	23c8 <itoa>
    4f24:	00000000 	nop
    4f28:	3c032000 	lui	v1,0x2000
    4f2c:	ac620000 	sw	v0,0(v1)
    4f30:	3c020001 	lui	v0,0x1
    4f34:	2442a110 	addiu	v0,v0,-24304
    4f38:	02802021 	move	a0,s4
    4f3c:	ac620000 	sw	v0,0(v1)
    4f40:	0c0008f2 	jal	23c8 <itoa>
    4f44:	00000000 	nop
    4f48:	3c032000 	lui	v1,0x2000
    4f4c:	ac620000 	sw	v0,0(v1)
    4f50:	3c020001 	lui	v0,0x1
    4f54:	2442a160 	addiu	v0,v0,-24224
    4f58:	ac620000 	sw	v0,0(v1)
    4f5c:	02c02021 	move	a0,s6
    4f60:	afb40010 	sw	s4,16(sp)
    4f64:	02402821 	move	a1,s2
    4f68:	02203021 	move	a2,s1
    4f6c:	0c000d35 	jal	34d4 <add_msg_request_migration>
    4f70:	02e03821 	move	a3,s7
    4f74:	1675ffc7 	bne	s3,s5,4e94 <handle_consumer_migration_request_msg+0xc0>
    4f78:	3c020001 	lui	v0,0x1
    4f7c:	080013b4 	j	4ed0 <handle_consumer_migration_request_msg+0xfc>
    4f80:	2442a118 	addiu	v0,v0,-24296

00004f84 <handle_producer_migration_request_msg>:
    4f84:	27bdffc0 	addiu	sp,sp,-64
    4f88:	afbf003c 	sw	ra,60(sp)
    4f8c:	afbe0038 	sw	s8,56(sp)
    4f90:	afb70034 	sw	s7,52(sp)
    4f94:	afb5002c 	sw	s5,44(sp)
    4f98:	afb1001c 	sw	s1,28(sp)
    4f9c:	afb00018 	sw	s0,24(sp)
    4fa0:	afb60030 	sw	s6,48(sp)
    4fa4:	afb40028 	sw	s4,40(sp)
    4fa8:	afb30024 	sw	s3,36(sp)
    4fac:	afb20020 	sw	s2,32(sp)
    4fb0:	8c8200a8 	lw	v0,168(a0)
    4fb4:	03a0f021 	move	s8,sp
    4fb8:	00021080 	sll	v0,v0,0x2
    4fbc:	2442000e 	addiu	v0,v0,14
    4fc0:	000210c2 	srl	v0,v0,0x3
    4fc4:	afdd0010 	sw	sp,16(s8)
    4fc8:	000210c0 	sll	v0,v0,0x3
    4fcc:	8c8300a8 	lw	v1,168(a0)
    4fd0:	03a2e823 	subu	sp,sp,v0
    4fd4:	27b10010 	addiu	s1,sp,16
    4fd8:	00808021 	move	s0,a0
    4fdc:	00a0b821 	move	s7,a1
    4fe0:	02202021 	move	a0,s1
    4fe4:	0c000a42 	jal	2908 <DMNI_read_data>
    4fe8:	00602821 	move	a1,v1
    4fec:	8e0400a8 	lw	a0,168(s0)
    4ff0:	3c02aaaa 	lui	v0,0xaaaa
    4ff4:	3442aaab 	ori	v0,v0,0xaaab
    4ff8:	00820019 	multu	a0,v0
    4ffc:	3c030001 	lui	v1,0x1
    5000:	3c020001 	lui	v0,0x1
    5004:	3c102000 	lui	s0,0x2000
    5008:	2442a13c 	addiu	v0,v0,-24260
    500c:	2463a0ec 	addiu	v1,v1,-24340
    5010:	ae020000 	sw	v0,0(s0)
    5014:	ae030000 	sw	v1,0(s0)
    5018:	00002010 	mfhi	a0
    501c:	0004a842 	srl	s5,a0,0x1
    5020:	0c0008f2 	jal	23c8 <itoa>
    5024:	02a02021 	move	a0,s5
    5028:	ae020000 	sw	v0,0(s0)
    502c:	3c020001 	lui	v0,0x1
    5030:	2442a160 	addiu	v0,v0,-24224
    5034:	ae020000 	sw	v0,0(s0)
    5038:	12a0000c 	beqz	s5,506c <handle_producer_migration_request_msg+0xe8>
    503c:	00009821 	move	s3,zero
    5040:	3c162000 	lui	s6,0x2000
    5044:	8e320000 	lw	s2,0(s1)
    5048:	8ee20080 	lw	v0,128(s7)
    504c:	8e300004 	lw	s0,4(s1)
    5050:	26730001 	addiu	s3,s3,1
    5054:	8e340008 	lw	s4,8(s1)
    5058:	02402021 	move	a0,s2
    505c:	12020015 	beq	s0,v0,50b4 <handle_producer_migration_request_msg+0x130>
    5060:	2631000c 	addiu	s1,s1,12
    5064:	1675fff7 	bne	s3,s5,5044 <handle_producer_migration_request_msg+0xc0>
    5068:	00000000 	nop
    506c:	3c020001 	lui	v0,0x1
    5070:	2442a17c 	addiu	v0,v0,-24196
    5074:	3c032000 	lui	v1,0x2000
    5078:	ac620000 	sw	v0,0(v1)
    507c:	8fdd0010 	lw	sp,16(s8)
    5080:	03c0e821 	move	sp,s8
    5084:	8fbf003c 	lw	ra,60(sp)
    5088:	8fbe0038 	lw	s8,56(sp)
    508c:	8fb70034 	lw	s7,52(sp)
    5090:	8fb60030 	lw	s6,48(sp)
    5094:	8fb5002c 	lw	s5,44(sp)
    5098:	8fb40028 	lw	s4,40(sp)
    509c:	8fb30024 	lw	s3,36(sp)
    50a0:	8fb20020 	lw	s2,32(sp)
    50a4:	8fb1001c 	lw	s1,28(sp)
    50a8:	8fb00018 	lw	s0,24(sp)
    50ac:	03e00008 	jr	ra
    50b0:	27bd0040 	addiu	sp,sp,64
    50b4:	3c020001 	lui	v0,0x1
    50b8:	2442a164 	addiu	v0,v0,-24220
    50bc:	aec20000 	sw	v0,0(s6)
    50c0:	0c0008f2 	jal	23c8 <itoa>
    50c4:	00000000 	nop
    50c8:	aec20000 	sw	v0,0(s6)
    50cc:	3c020001 	lui	v0,0x1
    50d0:	2442a170 	addiu	v0,v0,-24208
    50d4:	02002021 	move	a0,s0
    50d8:	aec20000 	sw	v0,0(s6)
    50dc:	0c0008f2 	jal	23c8 <itoa>
    50e0:	00000000 	nop
    50e4:	aec20000 	sw	v0,0(s6)
    50e8:	3c020001 	lui	v0,0x1
    50ec:	2442a160 	addiu	v0,v0,-24224
    50f0:	02002021 	move	a0,s0
    50f4:	02402821 	move	a1,s2
    50f8:	02803021 	move	a2,s4
    50fc:	aec20000 	sw	v0,0(s6)
    5100:	0c000eed 	jal	3bb4 <insert_message_request>
    5104:	00000000 	nop
    5108:	1675ffce 	bne	s3,s5,5044 <handle_producer_migration_request_msg+0xc0>
    510c:	3c020001 	lui	v0,0x1
    5110:	0800141d 	j	5074 <handle_producer_migration_request_msg+0xf0>
    5114:	2442a17c 	addiu	v0,v0,-24196

00005118 <print_locations>:
    5118:	27bdffd0 	addiu	sp,sp,-48
    511c:	3c020001 	lui	v0,0x1
    5120:	afb60028 	sw	s6,40(sp)
    5124:	3c030001 	lui	v1,0x1
    5128:	2456a1a0 	addiu	s6,v0,-24160
    512c:	3c020001 	lui	v0,0x1
    5130:	afb50024 	sw	s5,36(sp)
    5134:	afb40020 	sw	s4,32(sp)
    5138:	afb3001c 	sw	s3,28(sp)
    513c:	afb20018 	sw	s2,24(sp)
    5140:	afb10014 	sw	s1,20(sp)
    5144:	afbf002c 	sw	ra,44(sp)
    5148:	afb00010 	sw	s0,16(sp)
    514c:	2475a1a8 	addiu	s5,v1,-24152
    5150:	2454a160 	addiu	s4,v0,-24224
    5154:	00009021 	move	s2,zero
    5158:	3c112000 	lui	s1,0x2000
    515c:	2413000c 	li	s3,12
    5160:	0c0012b8 	jal	4ae0 <get_task_location>
    5164:	02402021 	move	a0,s2
    5168:	02402021 	move	a0,s2
    516c:	ae360000 	sw	s6,0(s1)
    5170:	0c0008f2 	jal	23c8 <itoa>
    5174:	00408021 	move	s0,v0
    5178:	ae220000 	sw	v0,0(s1)
    517c:	02002021 	move	a0,s0
    5180:	ae350000 	sw	s5,0(s1)
    5184:	0c000939 	jal	24e4 <itoh>
    5188:	26520001 	addiu	s2,s2,1
    518c:	ae220000 	sw	v0,0(s1)
    5190:	ae340000 	sw	s4,0(s1)
    5194:	1653fff2 	bne	s2,s3,5160 <print_locations+0x48>
    5198:	00000000 	nop
    519c:	8fbf002c 	lw	ra,44(sp)
    51a0:	8fb60028 	lw	s6,40(sp)
    51a4:	8fb50024 	lw	s5,36(sp)
    51a8:	8fb40020 	lw	s4,32(sp)
    51ac:	8fb3001c 	lw	s3,28(sp)
    51b0:	8fb20018 	lw	s2,24(sp)
    51b4:	8fb10014 	lw	s1,20(sp)
    51b8:	8fb00010 	lw	s0,16(sp)
    51bc:	03e00008 	jr	ra
    51c0:	27bd0030 	addiu	sp,sp,48

000051c4 <handle_migration_task_location>:
    51c4:	27bdff98 	addiu	sp,sp,-104
    51c8:	afb10044 	sw	s1,68(sp)
    51cc:	27b10010 	addiu	s1,sp,16
    51d0:	afb00040 	sw	s0,64(sp)
    51d4:	02202021 	move	a0,s1
    51d8:	00a08021 	move	s0,a1
    51dc:	2405000c 	li	a1,12
    51e0:	afbe0060 	sw	s8,96(sp)
    51e4:	afb7005c 	sw	s7,92(sp)
    51e8:	afb60058 	sw	s6,88(sp)
    51ec:	afb50054 	sw	s5,84(sp)
    51f0:	afb40050 	sw	s4,80(sp)
    51f4:	afb3004c 	sw	s3,76(sp)
    51f8:	afbf0064 	sw	ra,100(sp)
    51fc:	0c000a42 	jal	2908 <DMNI_read_data>
    5200:	afb20048 	sw	s2,72(sp)
    5204:	3c020001 	lui	v0,0x1
    5208:	8e040080 	lw	a0,128(s0)
    520c:	2442a1b8 	addiu	v0,v0,-24136
    5210:	3c032000 	lui	v1,0x2000
    5214:	ac620000 	sw	v0,0(v1)
    5218:	3c020001 	lui	v0,0x1
    521c:	3096ff00 	andi	s6,a0,0xff00
    5220:	2455a160 	addiu	s5,v0,-24224
    5224:	0220a021 	move	s4,s1
    5228:	00009821 	move	s3,zero
    522c:	3c102000 	lui	s0,0x2000
    5230:	2417ffff 	li	s7,-1
    5234:	241e000c 	li	s8,12
    5238:	3c020001 	lui	v0,0x1
    523c:	02d38825 	or	s1,s6,s3
    5240:	2442a1d8 	addiu	v0,v0,-24104
    5244:	8e920000 	lw	s2,0(s4)
    5248:	02202021 	move	a0,s1
    524c:	ae020000 	sw	v0,0(s0)
    5250:	0c0008f2 	jal	23c8 <itoa>
    5254:	00000000 	nop
    5258:	ae020000 	sw	v0,0(s0)
    525c:	3c020001 	lui	v0,0x1
    5260:	2442a1e8 	addiu	v0,v0,-24088
    5264:	02402021 	move	a0,s2
    5268:	ae020000 	sw	v0,0(s0)
    526c:	0c000939 	jal	24e4 <itoh>
    5270:	00000000 	nop
    5274:	ae020000 	sw	v0,0(s0)
    5278:	3c020001 	lui	v0,0x1
    527c:	2442a1ec 	addiu	v0,v0,-24084
    5280:	02202021 	move	a0,s1
    5284:	ae150000 	sw	s5,0(s0)
    5288:	ae020000 	sw	v0,0(s0)
    528c:	0c0012b8 	jal	4ae0 <get_task_location>
    5290:	00000000 	nop
    5294:	0c000939 	jal	24e4 <itoh>
    5298:	00402021 	move	a0,v0
    529c:	ae020000 	sw	v0,0(s0)
    52a0:	26730001 	addiu	s3,s3,1
    52a4:	26940004 	addiu	s4,s4,4
    52a8:	02202021 	move	a0,s1
    52ac:	ae150000 	sw	s5,0(s0)
    52b0:	12570006 	beq	s2,s7,52cc <handle_migration_task_location+0x108>
    52b4:	00000000 	nop
    52b8:	0c0012b8 	jal	4ae0 <get_task_location>
    52bc:	00000000 	nop
    52c0:	02202021 	move	a0,s1
    52c4:	10570013 	beq	v0,s7,5314 <handle_migration_task_location+0x150>
    52c8:	02402821 	move	a1,s2
    52cc:	167effdb 	bne	s3,s8,523c <handle_migration_task_location+0x78>
    52d0:	3c020001 	lui	v0,0x1
    52d4:	3c020001 	lui	v0,0x1
    52d8:	2442a214 	addiu	v0,v0,-24044
    52dc:	3c032000 	lui	v1,0x2000
    52e0:	ac620000 	sw	v0,0(v1)
    52e4:	8fbf0064 	lw	ra,100(sp)
    52e8:	8fbe0060 	lw	s8,96(sp)
    52ec:	8fb7005c 	lw	s7,92(sp)
    52f0:	8fb60058 	lw	s6,88(sp)
    52f4:	8fb50054 	lw	s5,84(sp)
    52f8:	8fb40050 	lw	s4,80(sp)
    52fc:	8fb3004c 	lw	s3,76(sp)
    5300:	8fb20048 	lw	s2,72(sp)
    5304:	8fb10044 	lw	s1,68(sp)
    5308:	8fb00040 	lw	s0,64(sp)
    530c:	03e00008 	jr	ra
    5310:	27bd0068 	addiu	sp,sp,104
    5314:	3c020001 	lui	v0,0x1
    5318:	2442a208 	addiu	v0,v0,-24056
    531c:	ae020000 	sw	v0,0(s0)
    5320:	0c0012c9 	jal	4b24 <add_task_location>
    5324:	00000000 	nop
    5328:	167effc3 	bne	s3,s8,5238 <handle_migration_task_location+0x74>
    532c:	3c020001 	lui	v0,0x1
    5330:	080014b7 	j	52dc <handle_migration_task_location+0x118>
    5334:	2442a214 	addiu	v0,v0,-24044

00005338 <migrate_CODE>:
    5338:	27bdffe8 	addiu	sp,sp,-24
    533c:	afb00010 	sw	s0,16(sp)
    5340:	afbf0014 	sw	ra,20(sp)
    5344:	0c000a29 	jal	28a4 <get_service_header_slot>
    5348:	00808021 	move	s0,a0
    534c:	8e030090 	lw	v1,144(s0)
    5350:	24040220 	li	a0,544
    5354:	ac440084 	sw	a0,132(v0)
    5358:	ac43007c 	sw	v1,124(v0)
    535c:	8e050094 	lw	a1,148(s0)
    5360:	00402021 	move	a0,v0
    5364:	ac45008c 	sw	a1,140(v0)
    5368:	8e030080 	lw	v1,128(s0)
    536c:	00000000 	nop
    5370:	ac430088 	sw	v1,136(v0)
    5374:	8e060084 	lw	a2,132(s0)
    5378:	00000000 	nop
    537c:	ac4600a4 	sw	a2,164(v0)
    5380:	8e05007c 	lw	a1,124(s0)
    5384:	8fbf0014 	lw	ra,20(sp)
    5388:	8fb00010 	lw	s0,16(sp)
    538c:	08000c01 	j	3004 <send_packet>
    5390:	27bd0018 	addiu	sp,sp,24

00005394 <send_update_task_location>:
    5394:	27bdffd8 	addiu	sp,sp,-40
    5398:	afbf0020 	sw	ra,32(sp)
    539c:	afb3001c 	sw	s3,28(sp)
    53a0:	afb20018 	sw	s2,24(sp)
    53a4:	00c09821 	move	s3,a2
    53a8:	00a09021 	move	s2,a1
    53ac:	afb10014 	sw	s1,20(sp)
    53b0:	afb00010 	sw	s0,16(sp)
    53b4:	0c000a29 	jal	28a4 <get_service_header_slot>
    53b8:	00808821 	move	s1,a0
    53bc:	00402021 	move	a0,v0
    53c0:	0c000939 	jal	24e4 <itoh>
    53c4:	00408021 	move	s0,v0
    53c8:	3c032000 	lui	v1,0x2000
    53cc:	ac620000 	sw	v0,0(v1)
    53d0:	3c020001 	lui	v0,0x1
    53d4:	2442a160 	addiu	v0,v0,-24224
    53d8:	ac620000 	sw	v0,0(v1)
    53dc:	24020230 	li	v0,560
    53e0:	ae11007c 	sw	s1,124(s0)
    53e4:	ae020084 	sw	v0,132(s0)
    53e8:	ae120088 	sw	s2,136(s0)
    53ec:	ae13009c 	sw	s3,156(s0)
    53f0:	02002021 	move	a0,s0
    53f4:	8fbf0020 	lw	ra,32(sp)
    53f8:	8fb3001c 	lw	s3,28(sp)
    53fc:	8fb20018 	lw	s2,24(sp)
    5400:	8fb10014 	lw	s1,20(sp)
    5404:	8fb00010 	lw	s0,16(sp)
    5408:	00002821 	move	a1,zero
    540c:	00003021 	move	a2,zero
    5410:	08000c01 	j	3004 <send_packet>
    5414:	27bd0028 	addiu	sp,sp,40

00005418 <send_task_migrated>:
    5418:	27bdffe0 	addiu	sp,sp,-32
    541c:	afbf001c 	sw	ra,28(sp)
    5420:	afb20018 	sw	s2,24(sp)
    5424:	afb10014 	sw	s1,20(sp)
    5428:	00a09021 	move	s2,a1
    542c:	00808821 	move	s1,a0
    5430:	afb00010 	sw	s0,16(sp)
    5434:	0c000a29 	jal	28a4 <get_service_header_slot>
    5438:	00c08021 	move	s0,a2
    543c:	24030235 	li	v1,565
    5440:	ac50007c 	sw	s0,124(v0)
    5444:	ac430084 	sw	v1,132(v0)
    5448:	ac510088 	sw	s1,136(v0)
    544c:	ac52009c 	sw	s2,156(v0)
    5450:	8fbf001c 	lw	ra,28(sp)
    5454:	8fb20018 	lw	s2,24(sp)
    5458:	8fb10014 	lw	s1,20(sp)
    545c:	8fb00010 	lw	s0,16(sp)
    5460:	00402021 	move	a0,v0
    5464:	00002821 	move	a1,zero
    5468:	00003021 	move	a2,zero
    546c:	08000c01 	j	3004 <send_packet>
    5470:	27bd0020 	addiu	sp,sp,32

00005474 <handle_migration_DATA_BSS>:
    5474:	27bdffe0 	addiu	sp,sp,-32
    5478:	afb20018 	sw	s2,24(sp)
    547c:	afb10014 	sw	s1,20(sp)
    5480:	afb00010 	sw	s0,16(sp)
    5484:	afbf001c 	sw	ra,28(sp)
    5488:	8c8200a0 	lw	v0,160(a0)
    548c:	00a08021 	move	s0,a1
    5490:	aca20088 	sw	v0,136(a1)
    5494:	8c8300a8 	lw	v1,168(a0)
    5498:	00808821 	move	s1,a0
    549c:	00621021 	addu	v0,v1,v0
    54a0:	00c09021 	move	s2,a2
    54a4:	00402821 	move	a1,v0
    54a8:	10400006 	beqz	v0,54c4 <handle_migration_DATA_BSS+0x50>
    54ac:	ae03008c 	sw	v1,140(s0)
    54b0:	8e040084 	lw	a0,132(s0)
    54b4:	8e02007c 	lw	v0,124(s0)
    54b8:	00042080 	sll	a0,a0,0x2
    54bc:	0c000a42 	jal	2908 <DMNI_read_data>
    54c0:	00822021 	addu	a0,a0,v0
    54c4:	8e0400a0 	lw	a0,160(s0)
    54c8:	24020004 	li	v0,4
    54cc:	ac820000 	sw	v0,0(a0)
    54d0:	2403ffff 	li	v1,-1
    54d4:	24023fbe 	li	v0,16318
    54d8:	ae030090 	sw	v1,144(s0)
    54dc:	ac820014 	sw	v0,20(a0)
    54e0:	8e250090 	lw	a1,144(s1)
    54e4:	8e040080 	lw	a0,128(s0)
    54e8:	0c001506 	jal	5418 <send_task_migrated>
    54ec:	02403021 	move	a2,s2
    54f0:	3c020001 	lui	v0,0x1
    54f4:	2442a230 	addiu	v0,v0,-24016
    54f8:	3c032000 	lui	v1,0x2000
    54fc:	ac620000 	sw	v0,0(v1)
    5500:	8fbf001c 	lw	ra,28(sp)
    5504:	8fb20018 	lw	s2,24(sp)
    5508:	8fb10014 	lw	s1,20(sp)
    550c:	8fb00010 	lw	s0,16(sp)
    5510:	03e00008 	jr	ra
    5514:	27bd0020 	addiu	sp,sp,32

00005518 <migrate_dynamic_memory>:
    5518:	27bdfe80 	addiu	sp,sp,-384
    551c:	afb30164 	sw	s3,356(sp)
    5520:	afbf017c 	sw	ra,380(sp)
    5524:	afbe0178 	sw	s8,376(sp)
    5528:	afb70174 	sw	s7,372(sp)
    552c:	afb60170 	sw	s6,368(sp)
    5530:	afb5016c 	sw	s5,364(sp)
    5534:	afb40168 	sw	s4,360(sp)
    5538:	afb20160 	sw	s2,352(sp)
    553c:	afb1015c 	sw	s1,348(sp)
    5540:	afb00158 	sw	s0,344(sp)
    5544:	8c820064 	lw	v0,100(a0)
    5548:	00809821 	move	s3,a0
    554c:	3c040001 	lui	a0,0x1
    5550:	00823023 	subu	a2,a0,v0
    5554:	afa20150 	sw	v0,336(sp)
    5558:	8e620090 	lw	v0,144(s3)
    555c:	30c30003 	andi	v1,a2,0x3
    5560:	afa20148 	sw	v0,328(sp)
    5564:	2402ffff 	li	v0,-1
    5568:	10600009 	beqz	v1,5590 <migrate_dynamic_memory+0x78>
    556c:	ae620090 	sw	v0,144(s3)
    5570:	8fa30150 	lw	v1,336(sp)
    5574:	34820001 	ori	v0,a0,0x1
    5578:	08001561 	j	5584 <migrate_dynamic_memory+0x6c>
    557c:	00433023 	subu	a2,v0,v1
    5580:	00603021 	move	a2,v1
    5584:	30c20003 	andi	v0,a2,0x3
    5588:	1440fffd 	bnez	v0,5580 <migrate_dynamic_memory+0x68>
    558c:	24c30001 	addiu	v1,a2,1
    5590:	00063082 	srl	a2,a2,0x2
    5594:	0c000a29 	jal	28a4 <get_service_header_slot>
    5598:	afa6014c 	sw	a2,332(sp)
    559c:	8fa40148 	lw	a0,328(sp)
    55a0:	00403821 	move	a3,v0
    55a4:	24020221 	li	v0,545
    55a8:	ace4007c 	sw	a0,124(a3)
    55ac:	ace20084 	sw	v0,132(a3)
    55b0:	8e620080 	lw	v0,128(s3)
    55b4:	00003021 	move	a2,zero
    55b8:	ace20088 	sw	v0,136(a3)
    55bc:	8e6400a0 	lw	a0,160(s3)
    55c0:	27b50010 	addiu	s5,sp,16
    55c4:	8c830028 	lw	v1,40(a0)
    55c8:	00000000 	nop
    55cc:	ace3008c 	sw	v1,140(a3)
    55d0:	8e620078 	lw	v0,120(s3)
    55d4:	8e63007c 	lw	v1,124(s3)
    55d8:	00000000 	nop
    55dc:	00431023 	subu	v0,v0,v1
    55e0:	ace200a4 	sw	v0,164(a3)
    55e4:	00061880 	sll	v1,a2,0x2
    55e8:	2402001b 	li	v0,27
    55ec:	00732021 	addu	a0,v1,s3
    55f0:	10c20090 	beq	a2,v0,5834 <migrate_dynamic_memory+0x31c>
    55f4:	00752821 	addu	a1,v1,s5
    55f8:	8c830000 	lw	v1,0(a0)
    55fc:	24c60001 	addiu	a2,a2,1
    5600:	28c2001e 	slti	v0,a2,30
    5604:	aca30030 	sw	v1,48(a1)
    5608:	1440fff7 	bnez	v0,55e8 <migrate_dynamic_memory+0xd0>
    560c:	00061880 	sll	v1,a2,0x2
    5610:	00e02021 	move	a0,a3
    5614:	27a50040 	addiu	a1,sp,64
    5618:	0c000c01 	jal	3004 <send_packet>
    561c:	2406001e 	li	a2,30
    5620:	0c000a29 	jal	28a4 <get_service_header_slot>
    5624:	00009021 	move	s2,zero
    5628:	0040f021 	move	s8,v0
    562c:	8fa20148 	lw	v0,328(sp)
    5630:	00000000 	nop
    5634:	afc2007c 	sw	v0,124(s8)
    5638:	8e630080 	lw	v1,128(s3)
    563c:	24020222 	li	v0,546
    5640:	00602021 	move	a0,v1
    5644:	afc30088 	sw	v1,136(s8)
    5648:	afc20084 	sw	v0,132(s8)
    564c:	0c0012ef 	jal	4bbc <remove_task_location>
    5650:	3074ff00 	andi	s4,v1,0xff00
    5654:	8e640080 	lw	a0,128(s3)
    5658:	8fa50148 	lw	a1,328(sp)
    565c:	0c0012c9 	jal	4b24 <add_task_location>
    5660:	2417ffff 	li	s7,-1
    5664:	2416000c 	li	s6,12
    5668:	02a08821 	move	s1,s5
    566c:	02928025 	or	s0,s4,s2
    5670:	0c0012b8 	jal	4ae0 <get_task_location>
    5674:	02002021 	move	a0,s0
    5678:	ae220000 	sw	v0,0(s1)
    567c:	8e220000 	lw	v0,0(s1)
    5680:	26520001 	addiu	s2,s2,1
    5684:	26310004 	addiu	s1,s1,4
    5688:	10570003 	beq	v0,s7,5698 <migrate_dynamic_memory+0x180>
    568c:	02002021 	move	a0,s0
    5690:	0c0012ef 	jal	4bbc <remove_task_location>
    5694:	00000000 	nop
    5698:	1656fff4 	bne	s2,s6,566c <migrate_dynamic_memory+0x154>
    569c:	03c02021 	move	a0,s8
    56a0:	02a02821 	move	a1,s5
    56a4:	0c000c01 	jal	3004 <send_packet>
    56a8:	2406000c 	li	a2,12
    56ac:	27b100b8 	addiu	s1,sp,184
    56b0:	8e640080 	lw	a0,128(s3)
    56b4:	0c000f55 	jal	3d54 <remove_prod_requested_msgs>
    56b8:	02202821 	move	a1,s1
    56bc:	14400064 	bnez	v0,5850 <migrate_dynamic_memory+0x338>
    56c0:	00408021 	move	s0,v0
    56c4:	8e640080 	lw	a0,128(s3)
    56c8:	8fa60148 	lw	a2,328(sp)
    56cc:	0c000f7e 	jal	3df8 <remove_cons_requested_msgs>
    56d0:	02202821 	move	a1,s1
    56d4:	14400071 	bnez	v0,589c <migrate_dynamic_memory+0x384>
    56d8:	00408021 	move	s0,v0
    56dc:	0c000a29 	jal	28a4 <get_service_header_slot>
    56e0:	00000000 	nop
    56e4:	24030225 	li	v1,549
    56e8:	ac430084 	sw	v1,132(v0)
    56ec:	8fa30148 	lw	v1,328(sp)
    56f0:	8fa4014c 	lw	a0,332(sp)
    56f4:	ac43007c 	sw	v1,124(v0)
    56f8:	8e630080 	lw	v1,128(s3)
    56fc:	ac44009c 	sw	a0,156(v0)
    5700:	ac430088 	sw	v1,136(v0)
    5704:	00402021 	move	a0,v0
    5708:	8e65007c 	lw	a1,124(s3)
    570c:	8fa20150 	lw	v0,336(sp)
    5710:	8fa6014c 	lw	a2,332(sp)
    5714:	0c000c01 	jal	3004 <send_packet>
    5718:	00452821 	addu	a1,v0,a1
    571c:	8e640080 	lw	a0,128(s3)
    5720:	0c000e45 	jal	3914 <remove_PIPE_by_producer>
    5724:	00000000 	nop
    5728:	1040001a 	beqz	v0,5794 <migrate_dynamic_memory+0x27c>
    572c:	00408021 	move	s0,v0
    5730:	24110227 	li	s1,551
    5734:	0c000a29 	jal	28a4 <get_service_header_slot>
    5738:	00000000 	nop
    573c:	8fa30148 	lw	v1,328(sp)
    5740:	ac510084 	sw	s1,132(v0)
    5744:	ac43007c 	sw	v1,124(v0)
    5748:	8e630080 	lw	v1,128(s3)
    574c:	2605000c 	addiu	a1,s0,12
    5750:	ac430088 	sw	v1,136(v0)
    5754:	8e060000 	lw	a2,0(s0)
    5758:	00402021 	move	a0,v0
    575c:	ac460088 	sw	a2,136(v0)
    5760:	8e030004 	lw	v1,4(s0)
    5764:	00000000 	nop
    5768:	ac43008c 	sw	v1,140(v0)
    576c:	8e070008 	lw	a3,8(s0)
    5770:	00000000 	nop
    5774:	00e03021 	move	a2,a3
    5778:	0c000c01 	jal	3004 <send_packet>
    577c:	ac47009c 	sw	a3,156(v0)
    5780:	8e640080 	lw	a0,128(s3)
    5784:	0c000e45 	jal	3914 <remove_PIPE_by_producer>
    5788:	00000000 	nop
    578c:	1440ffe9 	bnez	v0,5734 <migrate_dynamic_memory+0x21c>
    5790:	00408021 	move	s0,v0
    5794:	0c000a29 	jal	28a4 <get_service_header_slot>
    5798:	00000000 	nop
    579c:	8fa40148 	lw	a0,328(sp)
    57a0:	24030226 	li	v1,550
    57a4:	ac44007c 	sw	a0,124(v0)
    57a8:	ac430084 	sw	v1,132(v0)
    57ac:	8e650080 	lw	a1,128(s3)
    57b0:	00402021 	move	a0,v0
    57b4:	ac450088 	sw	a1,136(v0)
    57b8:	8e630088 	lw	v1,136(s3)
    57bc:	00000000 	nop
    57c0:	ac4300a0 	sw	v1,160(v0)
    57c4:	8e66008c 	lw	a2,140(s3)
    57c8:	00000000 	nop
    57cc:	ac4600a8 	sw	a2,168(v0)
    57d0:	8e650084 	lw	a1,132(s3)
    57d4:	8e62007c 	lw	v0,124(s3)
    57d8:	00052880 	sll	a1,a1,0x2
    57dc:	00a22821 	addu	a1,a1,v0
    57e0:	0c000c01 	jal	3004 <send_packet>
    57e4:	00663021 	addu	a2,v1,a2
    57e8:	8e6400a0 	lw	a0,160(s3)
    57ec:	0c0017c2 	jal	5f08 <clear_scheduling>
    57f0:	00000000 	nop
    57f4:	2402ffff 	li	v0,-1
    57f8:	ae620090 	sw	v0,144(s3)
    57fc:	ae600078 	sw	zero,120(s3)
    5800:	ae620080 	sw	v0,128(s3)
    5804:	8fbf017c 	lw	ra,380(sp)
    5808:	8fbe0178 	lw	s8,376(sp)
    580c:	8fb70174 	lw	s7,372(sp)
    5810:	8fb60170 	lw	s6,368(sp)
    5814:	8fb5016c 	lw	s5,364(sp)
    5818:	8fb40168 	lw	s4,360(sp)
    581c:	8fb30164 	lw	s3,356(sp)
    5820:	8fb20160 	lw	s2,352(sp)
    5824:	8fb1015c 	lw	s1,348(sp)
    5828:	8fb00158 	lw	s0,344(sp)
    582c:	03e00008 	jr	ra
    5830:	27bd0180 	addiu	sp,sp,384
    5834:	8e62006c 	lw	v0,108(s3)
    5838:	8e63007c 	lw	v1,124(s3)
    583c:	2406001c 	li	a2,28
    5840:	00431023 	subu	v0,v0,v1
    5844:	afa200ac 	sw	v0,172(sp)
    5848:	0800157a 	j	55e8 <migrate_dynamic_memory+0xd0>
    584c:	00061880 	sll	v1,a2,0x2
    5850:	0c000a29 	jal	28a4 <get_service_header_slot>
    5854:	00000000 	nop
    5858:	24030223 	li	v1,547
    585c:	ac430084 	sw	v1,132(v0)
    5860:	8fa30148 	lw	v1,328(sp)
    5864:	00402021 	move	a0,v0
    5868:	ac43007c 	sw	v1,124(v0)
    586c:	8e630080 	lw	v1,128(s3)
    5870:	02003021 	move	a2,s0
    5874:	ac5000a8 	sw	s0,168(v0)
    5878:	ac430088 	sw	v1,136(v0)
    587c:	0c000c01 	jal	3004 <send_packet>
    5880:	02202821 	move	a1,s1
    5884:	8e640080 	lw	a0,128(s3)
    5888:	8fa60148 	lw	a2,328(sp)
    588c:	0c000f7e 	jal	3df8 <remove_cons_requested_msgs>
    5890:	02202821 	move	a1,s1
    5894:	1040ff91 	beqz	v0,56dc <migrate_dynamic_memory+0x1c4>
    5898:	00408021 	move	s0,v0
    589c:	0c000a29 	jal	28a4 <get_service_header_slot>
    58a0:	00000000 	nop
    58a4:	8fa40148 	lw	a0,328(sp)
    58a8:	24030224 	li	v1,548
    58ac:	ac44007c 	sw	a0,124(v0)
    58b0:	ac430084 	sw	v1,132(v0)
    58b4:	8e630080 	lw	v1,128(s3)
    58b8:	00402021 	move	a0,v0
    58bc:	ac430088 	sw	v1,136(v0)
    58c0:	ac5000a8 	sw	s0,168(v0)
    58c4:	02202821 	move	a1,s1
    58c8:	0c000c01 	jal	3004 <send_packet>
    58cc:	02003021 	move	a2,s0
    58d0:	080015b7 	j	56dc <migrate_dynamic_memory+0x1c4>
    58d4:	00000000 	nop

000058d8 <handle_task_migration>:
    58d8:	27bdffd8 	addiu	sp,sp,-40
    58dc:	3c020001 	lui	v0,0x1
    58e0:	afb00010 	sw	s0,16(sp)
    58e4:	2442a248 	addiu	v0,v0,-23992
    58e8:	3c102000 	lui	s0,0x2000
    58ec:	afbf0020 	sw	ra,32(sp)
    58f0:	afb3001c 	sw	s3,28(sp)
    58f4:	afb20018 	sw	s2,24(sp)
    58f8:	afb10014 	sw	s1,20(sp)
    58fc:	ae020000 	sw	v0,0(s0)
    5900:	00809021 	move	s2,a0
    5904:	8c840088 	lw	a0,136(a0)
    5908:	0c0008f2 	jal	23c8 <itoa>
    590c:	00a08821 	move	s1,a1
    5910:	ae020000 	sw	v0,0(s0)
    5914:	3c020001 	lui	v0,0x1
    5918:	2442a278 	addiu	v0,v0,-23944
    591c:	ae020000 	sw	v0,0(s0)
    5920:	8e44009c 	lw	a0,156(s2)
    5924:	0c000939 	jal	24e4 <itoh>
    5928:	00000000 	nop
    592c:	3c030001 	lui	v1,0x1
    5930:	2473a160 	addiu	s3,v1,-24224
    5934:	ae020000 	sw	v0,0(s0)
    5938:	ae130000 	sw	s3,0(s0)
    593c:	12200005 	beqz	s1,5954 <handle_task_migration+0x7c>
    5940:	2402ffff 	li	v0,-1
    5944:	8e230090 	lw	v1,144(s1)
    5948:	00000000 	nop
    594c:	10620011 	beq	v1,v0,5994 <handle_task_migration+0xbc>
    5950:	02202021 	move	a0,s1
    5954:	3c020001 	lui	v0,0x1
    5958:	2442a2b8 	addiu	v0,v0,-23880
    595c:	3c032000 	lui	v1,0x2000
    5960:	ac620000 	sw	v0,0(v1)
    5964:	3c020001 	lui	v0,0x1
    5968:	2442a2f4 	addiu	v0,v0,-23820
    596c:	3c032000 	lui	v1,0x2000
    5970:	ac620000 	sw	v0,0(v1)
    5974:	00001021 	move	v0,zero
    5978:	8fbf0020 	lw	ra,32(sp)
    597c:	8fb3001c 	lw	s3,28(sp)
    5980:	8fb20018 	lw	s2,24(sp)
    5984:	8fb10014 	lw	s1,20(sp)
    5988:	8fb00010 	lw	s0,16(sp)
    598c:	03e00008 	jr	ra
    5990:	27bd0028 	addiu	sp,sp,40
    5994:	8e42009c 	lw	v0,156(s2)
    5998:	0c0014ce 	jal	5338 <migrate_CODE>
    599c:	ae220090 	sw	v0,144(s1)
    59a0:	3c020001 	lui	v0,0x1
    59a4:	8e2300a0 	lw	v1,160(s1)
    59a8:	2442a290 	addiu	v0,v0,-23920
    59ac:	ae020000 	sw	v0,0(s0)
    59b0:	8c640000 	lw	a0,0(v1)
    59b4:	0c0008f2 	jal	23c8 <itoa>
    59b8:	00000000 	nop
    59bc:	8e2300a0 	lw	v1,160(s1)
    59c0:	ae020000 	sw	v0,0(s0)
    59c4:	ae130000 	sw	s3,0(s0)
    59c8:	8c630000 	lw	v1,0(v1)
    59cc:	00000000 	nop
    59d0:	2c620003 	sltiu	v0,v1,3
    59d4:	14400004 	bnez	v0,59e8 <handle_task_migration+0x110>
    59d8:	02202021 	move	a0,s1
    59dc:	24020004 	li	v0,4
    59e0:	1462ffe0 	bne	v1,v0,5964 <handle_task_migration+0x8c>
    59e4:	00000000 	nop
    59e8:	3c020001 	lui	v0,0x1
    59ec:	2442a2a0 	addiu	v0,v0,-23904
    59f0:	ae020000 	sw	v0,0(s0)
    59f4:	0c001546 	jal	5518 <migrate_dynamic_memory>
    59f8:	00000000 	nop
    59fc:	0800165e 	j	5978 <handle_task_migration+0xa0>
    5a00:	24020001 	li	v0,1

00005a04 <handle_migration>:
    5a04:	27bdffd8 	addiu	sp,sp,-40
    5a08:	afb3001c 	sw	s3,28(sp)
    5a0c:	afb10014 	sw	s1,20(sp)
    5a10:	afbf0020 	sw	ra,32(sp)
    5a14:	afb20018 	sw	s2,24(sp)
    5a18:	afb00010 	sw	s0,16(sp)
    5a1c:	8c830084 	lw	v1,132(a0)
    5a20:	24020220 	li	v0,544
    5a24:	00808821 	move	s1,a0
    5a28:	1062002a 	beq	v1,v0,5ad4 <handle_migration+0xd0>
    5a2c:	00a09821 	move	s3,a1
    5a30:	8c840088 	lw	a0,136(a0)
    5a34:	0c001181 	jal	4604 <searchTCB>
    5a38:	00000000 	nop
    5a3c:	00409021 	move	s2,v0
    5a40:	3c020001 	lui	v0,0x1
    5a44:	3c102000 	lui	s0,0x2000
    5a48:	2442a314 	addiu	v0,v0,-23788
    5a4c:	ae020000 	sw	v0,0(s0)
    5a50:	8e240084 	lw	a0,132(s1)
    5a54:	0c000939 	jal	24e4 <itoh>
    5a58:	00000000 	nop
    5a5c:	ae020000 	sw	v0,0(s0)
    5a60:	3c020001 	lui	v0,0x1
    5a64:	2442a160 	addiu	v0,v0,-24224
    5a68:	ae020000 	sw	v0,0(s0)
    5a6c:	8e230084 	lw	v1,132(s1)
    5a70:	00000000 	nop
    5a74:	2463fdf0 	addiu	v1,v1,-528
    5a78:	2c620018 	sltiu	v0,v1,24
    5a7c:	1040000a 	beqz	v0,5aa8 <handle_migration+0xa4>
    5a80:	3c020001 	lui	v0,0x1
    5a84:	00031080 	sll	v0,v1,0x2
    5a88:	3c030001 	lui	v1,0x1
    5a8c:	2463a348 	addiu	v1,v1,-23736
    5a90:	00431021 	addu	v0,v0,v1
    5a94:	8c440000 	lw	a0,0(v0)
    5a98:	00000000 	nop
    5a9c:	00800008 	jr	a0
    5aa0:	00000000 	nop
    5aa4:	3c020001 	lui	v0,0x1
    5aa8:	2442a320 	addiu	v0,v0,-23776
    5aac:	3c032000 	lui	v1,0x2000
    5ab0:	ac620000 	sw	v0,0(v1)
    5ab4:	00001021 	move	v0,zero
    5ab8:	8fbf0020 	lw	ra,32(sp)
    5abc:	8fb3001c 	lw	s3,28(sp)
    5ac0:	8fb20018 	lw	s2,24(sp)
    5ac4:	8fb10014 	lw	s1,20(sp)
    5ac8:	8fb00010 	lw	s0,16(sp)
    5acc:	03e00008 	jr	ra
    5ad0:	27bd0028 	addiu	sp,sp,40
    5ad4:	0c001172 	jal	45c8 <search_free_TCB>
    5ad8:	00000000 	nop
    5adc:	08001690 	j	5a40 <handle_migration+0x3c>
    5ae0:	00409021 	move	s2,v0
    5ae4:	02202021 	move	a0,s1
    5ae8:	02402821 	move	a1,s2
    5aec:	8fbf0020 	lw	ra,32(sp)
    5af0:	8fb3001c 	lw	s3,28(sp)
    5af4:	8fb20018 	lw	s2,24(sp)
    5af8:	8fb10014 	lw	s1,20(sp)
    5afc:	8fb00010 	lw	s0,16(sp)
    5b00:	08001636 	j	58d8 <handle_task_migration>
    5b04:	27bd0028 	addiu	sp,sp,40
    5b08:	02202021 	move	a0,s1
    5b0c:	0c001364 	jal	4d90 <handle_migration_PIPE>
    5b10:	02402821 	move	a1,s2
    5b14:	080016ae 	j	5ab8 <handle_migration+0xb4>
    5b18:	00001021 	move	v0,zero
    5b1c:	02202021 	move	a0,s1
    5b20:	02402821 	move	a1,s2
    5b24:	0c00151d 	jal	5474 <handle_migration_DATA_BSS>
    5b28:	02603021 	move	a2,s3
    5b2c:	080016ae 	j	5ab8 <handle_migration+0xb4>
    5b30:	24020001 	li	v0,1
    5b34:	02202021 	move	a0,s1
    5b38:	0c00131e 	jal	4c78 <handle_migration_stack>
    5b3c:	02402821 	move	a1,s2
    5b40:	080016ae 	j	5ab8 <handle_migration+0xb4>
    5b44:	00001021 	move	v0,zero
    5b48:	02202021 	move	a0,s1
    5b4c:	0c001375 	jal	4dd4 <handle_consumer_migration_request_msg>
    5b50:	02402821 	move	a1,s2
    5b54:	080016ae 	j	5ab8 <handle_migration+0xb4>
    5b58:	00001021 	move	v0,zero
    5b5c:	02202021 	move	a0,s1
    5b60:	0c0013e1 	jal	4f84 <handle_producer_migration_request_msg>
    5b64:	02402821 	move	a1,s2
    5b68:	080016ae 	j	5ab8 <handle_migration+0xb4>
    5b6c:	00001021 	move	v0,zero
    5b70:	02202021 	move	a0,s1
    5b74:	0c001471 	jal	51c4 <handle_migration_task_location>
    5b78:	02402821 	move	a1,s2
    5b7c:	080016ae 	j	5ab8 <handle_migration+0xb4>
    5b80:	00001021 	move	v0,zero
    5b84:	02202021 	move	a0,s1
    5b88:	0c001331 	jal	4cc4 <handle_migration_TCB>
    5b8c:	02402821 	move	a1,s2
    5b90:	080016ae 	j	5ab8 <handle_migration+0xb4>
    5b94:	00001021 	move	v0,zero
    5b98:	02202021 	move	a0,s1
    5b9c:	0c001357 	jal	4d5c <handle_migration_code>
    5ba0:	02402821 	move	a1,s2
    5ba4:	080016ae 	j	5ab8 <handle_migration+0xb4>
    5ba8:	00001021 	move	v0,zero

00005bac <get_time_slice>:
    5bac:	3c030005 	lui	v1,0x5
    5bb0:	8c62a790 	lw	v0,-22640(v1)
    5bb4:	03e00008 	jr	ra
    5bb8:	00000000 	nop

00005bbc <init_scheduling_ptr>:
    5bbc:	00051080 	sll	v0,a1,0x2
    5bc0:	00051900 	sll	v1,a1,0x4
    5bc4:	00621823 	subu	v1,v1,v0
    5bc8:	00651823 	subu	v1,v1,a1
    5bcc:	3c020005 	lui	v0,0x5
    5bd0:	00031880 	sll	v1,v1,0x2
    5bd4:	2442f298 	addiu	v0,v0,-3432
    5bd8:	00621821 	addu	v1,v1,v0
    5bdc:	2405ffff 	li	a1,-1
    5be0:	ac65000c 	sw	a1,12(v1)
    5be4:	03e00008 	jr	ra
    5be8:	ac830000 	sw	v1,0(a0)

00005bec <update_slack_time>:
    5bec:	8c83000c 	lw	v1,12(a0)
    5bf0:	8c820010 	lw	v0,16(a0)
    5bf4:	00803021 	move	a2,a0
    5bf8:	00431021 	addu	v0,v0,v1
    5bfc:	8c840014 	lw	a0,20(a0)
    5c00:	00451023 	subu	v0,v0,a1
    5c04:	00441823 	subu	v1,v0,a0
    5c08:	0044102a 	slt	v0,v0,a0
    5c0c:	10400003 	beqz	v0,5c1c <update_slack_time+0x30>
    5c10:	00000000 	nop
    5c14:	03e00008 	jr	ra
    5c18:	acc00018 	sw	zero,24(a2)
    5c1c:	03e00008 	jr	ra
    5c20:	acc30018 	sw	v1,24(a2)

00005c24 <real_time_task>:
    5c24:	3c022000 	lui	v0,0x2000
    5c28:	8c830010 	lw	v1,16(a0)
    5c2c:	ac86000c 	sw	a2,12(a0)
    5c30:	ac850008 	sw	a1,8(a0)
    5c34:	ac870004 	sw	a3,4(a0)
    5c38:	34420300 	ori	v0,v0,0x300
    5c3c:	00804021 	move	t0,a0
    5c40:	8c460000 	lw	a2,0(v0)
    5c44:	14600025 	bnez	v1,5cdc <real_time_task+0xb8>
    5c48:	00000000 	nop
    5c4c:	14a00002 	bnez	a1,5c58 <real_time_task+0x34>
    5c50:	00c5001b 	divu	zero,a2,a1
    5c54:	0007000d 	break	0x7
    5c58:	00001012 	mflo	v0
	...
    5c64:	00a20018 	mult	a1,v0
    5c68:	00001012 	mflo	v0
    5c6c:	0046182b 	sltu	v1,v0,a2
    5c70:	10600007 	beqz	v1,5c90 <real_time_task+0x6c>
    5c74:	00a21821 	addu	v1,a1,v0
    5c78:	00651821 	addu	v1,v1,a1
    5c7c:	00652023 	subu	a0,v1,a1
    5c80:	0086102b 	sltu	v0,a0,a2
    5c84:	1440fffd 	bnez	v0,5c7c <real_time_task+0x58>
    5c88:	00651821 	addu	v1,v1,a1
    5c8c:	00801021 	move	v0,a0
    5c90:	3c060005 	lui	a2,0x5
    5c94:	ad020010 	sw	v0,16(t0)
    5c98:	ad000000 	sw	zero,0(t0)
    5c9c:	ad070014 	sw	a3,20(t0)
    5ca0:	00072100 	sll	a0,a3,0x4
    5ca4:	00071080 	sll	v0,a3,0x2
    5ca8:	00441021 	addu	v0,v0,a0
    5cac:	00021880 	sll	v1,v0,0x2
    5cb0:	00431021 	addu	v0,v0,v1
    5cb4:	14a00002 	bnez	a1,5cc0 <real_time_task+0x9c>
    5cb8:	0045001b 	divu	zero,v0,a1
    5cbc:	0007000d 	break	0x7
    5cc0:	8cc3a818 	lw	v1,-22504(a2)
    5cc4:	00001012 	mflo	v0
    5cc8:	2442000a 	addiu	v0,v0,10
    5ccc:	00431821 	addu	v1,v0,v1
    5cd0:	ad020020 	sw	v0,32(t0)
    5cd4:	03e00008 	jr	ra
    5cd8:	acc3a818 	sw	v1,-22504(a2)
    5cdc:	3c060005 	lui	a2,0x5
    5ce0:	8cc2a818 	lw	v0,-22504(a2)
    5ce4:	8c830020 	lw	v1,32(a0)
    5ce8:	00000000 	nop
    5cec:	00431023 	subu	v0,v0,v1
    5cf0:	08001728 	j	5ca0 <real_time_task+0x7c>
    5cf4:	acc2a818 	sw	v0,-22504(a2)

00005cf8 <round_robin>:
    5cf8:	3c040005 	lui	a0,0x5
    5cfc:	8c82a81c 	lw	v0,-22500(a0)
    5d00:	00000000 	nop
    5d04:	14400005 	bnez	v0,5d1c <round_robin+0x24>
    5d08:	24430001 	addiu	v1,v0,1
    5d0c:	ac80a81c 	sw	zero,-22500(a0)
    5d10:	8c82a81c 	lw	v0,-22500(a0)
    5d14:	03e00008 	jr	ra
    5d18:	00000000 	nop
    5d1c:	ac83a81c 	sw	v1,-22500(a0)
    5d20:	8c82a81c 	lw	v0,-22500(a0)
    5d24:	03e00008 	jr	ra
    5d28:	00000000 	nop

00005d2c <dynamic_slice_time>:
    5d2c:	3c070005 	lui	a3,0x5
    5d30:	24e6f298 	addiu	a2,a3,-3432
    5d34:	8cc3000c 	lw	v1,12(a2)
    5d38:	2402ffff 	li	v0,-1
    5d3c:	10620021 	beq	v1,v0,5dc4 <dynamic_slice_time+0x98>
    5d40:	00000000 	nop
    5d44:	1086001f 	beq	a0,a2,5dc4 <dynamic_slice_time+0x98>
    5d48:	24020005 	li	v0,5
    5d4c:	8ce3f298 	lw	v1,-3432(a3)
    5d50:	00000000 	nop
    5d54:	1062000e 	beq	v1,v0,5d90 <dynamic_slice_time+0x64>
    5d58:	24020001 	li	v0,1
    5d5c:	1062000c 	beq	v1,v0,5d90 <dynamic_slice_time+0x64>
    5d60:	00000000 	nop
    5d64:	8cc30018 	lw	v1,24(a2)
    5d68:	00000000 	nop
    5d6c:	10600015 	beqz	v1,5dc4 <dynamic_slice_time+0x98>
    5d70:	3c040005 	lui	a0,0x5
    5d74:	8c82a790 	lw	v0,-22640(a0)
    5d78:	00000000 	nop
    5d7c:	0062102b 	sltu	v0,v1,v0
    5d80:	10400010 	beqz	v0,5dc4 <dynamic_slice_time+0x98>
    5d84:	00000000 	nop
    5d88:	03e00008 	jr	ra
    5d8c:	ac83a790 	sw	v1,-22640(a0)
    5d90:	8cc30008 	lw	v1,8(a2)
    5d94:	8cc20010 	lw	v0,16(a2)
    5d98:	00000000 	nop
    5d9c:	00431821 	addu	v1,v0,v1
    5da0:	10600008 	beqz	v1,5dc4 <dynamic_slice_time+0x98>
    5da4:	3c040005 	lui	a0,0x5
    5da8:	8c82a790 	lw	v0,-22640(a0)
    5dac:	00652823 	subu	a1,v1,a1
    5db0:	00a2102b 	sltu	v0,a1,v0
    5db4:	10400003 	beqz	v0,5dc4 <dynamic_slice_time+0x98>
    5db8:	00000000 	nop
    5dbc:	03e00008 	jr	ra
    5dc0:	ac85a790 	sw	a1,-22640(a0)
    5dc4:	03e00008 	jr	ra
    5dc8:	00000000 	nop

00005dcc <update_real_time>:
    5dcc:	3c060005 	lui	a2,0x5
    5dd0:	24c7f298 	addiu	a3,a2,-3432
    5dd4:	8ce5000c 	lw	a1,12(a3)
    5dd8:	2402ffff 	li	v0,-1
    5ddc:	10a20027 	beq	a1,v0,5e7c <update_real_time+0xb0>
    5de0:	00804021 	move	t0,a0
    5de4:	8cc3f298 	lw	v1,-3432(a2)
    5de8:	00000000 	nop
    5dec:	1062002d 	beq	v1,v0,5ea4 <update_real_time+0xd8>
    5df0:	24020003 	li	v0,3
    5df4:	1062002b 	beq	v1,v0,5ea4 <update_real_time+0xd8>
    5df8:	24020004 	li	v0,4
    5dfc:	10620029 	beq	v1,v0,5ea4 <update_real_time+0xd8>
    5e00:	24020002 	li	v0,2
    5e04:	10620029 	beq	v1,v0,5eac <update_real_time+0xe0>
    5e08:	3c020005 	lui	v0,0x5
    5e0c:	24c5f298 	addiu	a1,a2,-3432
    5e10:	8ca40010 	lw	a0,16(a1)
    5e14:	8ca30008 	lw	v1,8(a1)
    5e18:	00000000 	nop
    5e1c:	00832021 	addu	a0,a0,v1
    5e20:	0104102b 	sltu	v0,t0,a0
    5e24:	1440001b 	bnez	v0,5e94 <update_real_time+0xc8>
    5e28:	3c070005 	lui	a3,0x5
    5e2c:	8ca20004 	lw	v0,4(a1)
    5e30:	8ce3f298 	lw	v1,-3432(a3)
    5e34:	aca20014 	sw	v0,20(a1)
    5e38:	24020001 	li	v0,1
    5e3c:	10620003 	beq	v1,v0,5e4c <update_real_time+0x80>
    5e40:	aca40010 	sw	a0,16(a1)
    5e44:	ace0f298 	sw	zero,-3432(a3)
    5e48:	24c5f298 	addiu	a1,a2,-3432
    5e4c:	8ca3000c 	lw	v1,12(a1)
    5e50:	8ca20010 	lw	v0,16(a1)
    5e54:	8ca40014 	lw	a0,20(a1)
    5e58:	00431021 	addu	v0,v0,v1
    5e5c:	00481023 	subu	v0,v0,t0
    5e60:	0044182a 	slt	v1,v0,a0
    5e64:	10600003 	beqz	v1,5e74 <update_real_time+0xa8>
    5e68:	00441023 	subu	v0,v0,a0
    5e6c:	03e00008 	jr	ra
    5e70:	aca00018 	sw	zero,24(a1)
    5e74:	03e00008 	jr	ra
    5e78:	aca20018 	sw	v0,24(a1)
    5e7c:	8cc3f298 	lw	v1,-3432(a2)
    5e80:	24020002 	li	v0,2
    5e84:	14620013 	bne	v1,v0,5ed4 <update_real_time+0x108>
    5e88:	00000000 	nop
    5e8c:	03e00008 	jr	ra
    5e90:	acc0f298 	sw	zero,-3432(a2)
    5e94:	8ce3f298 	lw	v1,-3432(a3)
    5e98:	24020005 	li	v0,5
    5e9c:	1462ffeb 	bne	v1,v0,5e4c <update_real_time+0x80>
    5ea0:	24c5f298 	addiu	a1,a2,-3432
    5ea4:	03e00008 	jr	ra
    5ea8:	00000000 	nop
    5eac:	8c43a694 	lw	v1,-22892(v0)
    5eb0:	8ce4001c 	lw	a0,28(a3)
    5eb4:	8ce20014 	lw	v0,20(a3)
    5eb8:	01031823 	subu	v1,t0,v1
    5ebc:	00641823 	subu	v1,v1,a0
    5ec0:	00431023 	subu	v0,v0,v1
    5ec4:	18400005 	blez	v0,5edc <update_real_time+0x110>
    5ec8:	ace20014 	sw	v0,20(a3)
    5ecc:	08001783 	j	5e0c <update_real_time+0x40>
    5ed0:	acc0f298 	sw	zero,-3432(a2)
    5ed4:	03e00008 	jr	ra
    5ed8:	00000000 	nop
    5edc:	8ce20010 	lw	v0,16(a3)
    5ee0:	24030005 	li	v1,5
    5ee4:	00451021 	addu	v0,v0,a1
    5ee8:	00481023 	subu	v0,v0,t0
    5eec:	acc3f298 	sw	v1,-3432(a2)
    5ef0:	04410003 	bgez	v0,5f00 <update_real_time+0x134>
    5ef4:	ace00014 	sw	zero,20(a3)
    5ef8:	08001783 	j	5e0c <update_real_time+0x40>
    5efc:	ace00018 	sw	zero,24(a3)
    5f00:	08001783 	j	5e0c <update_real_time+0x40>
    5f04:	ace20018 	sw	v0,24(a3)

00005f08 <clear_scheduling>:
    5f08:	27bdffe0 	addiu	sp,sp,-32
    5f0c:	afb20018 	sw	s2,24(sp)
    5f10:	afb10014 	sw	s1,20(sp)
    5f14:	afb00010 	sw	s0,16(sp)
    5f18:	afbf001c 	sw	ra,28(sp)
    5f1c:	8c82000c 	lw	v0,12(a0)
    5f20:	2411ffff 	li	s1,-1
    5f24:	3c050005 	lui	a1,0x5
    5f28:	00808021 	move	s0,a0
    5f2c:	1051000e 	beq	v0,s1,5f68 <clear_scheduling+0x60>
    5f30:	3c122000 	lui	s2,0x2000
    5f34:	8c840020 	lw	a0,32(a0)
    5f38:	8ca3a818 	lw	v1,-22504(a1)
    5f3c:	3c020001 	lui	v0,0x1
    5f40:	00641823 	subu	v1,v1,a0
    5f44:	2442a3a8 	addiu	v0,v0,-23640
    5f48:	ae420000 	sw	v0,0(s2)
    5f4c:	00602021 	move	a0,v1
    5f50:	0c0008f2 	jal	23c8 <itoa>
    5f54:	aca3a818 	sw	v1,-22504(a1)
    5f58:	ae420000 	sw	v0,0(s2)
    5f5c:	3c020001 	lui	v0,0x1
    5f60:	2442a160 	addiu	v0,v0,-24224
    5f64:	ae420000 	sw	v0,0(s2)
    5f68:	ae11000c 	sw	s1,12(s0)
    5f6c:	ae000020 	sw	zero,32(s0)
    5f70:	ae000010 	sw	zero,16(s0)
    5f74:	ae110000 	sw	s1,0(s0)
    5f78:	ae000014 	sw	zero,20(s0)
    5f7c:	ae000004 	sw	zero,4(s0)
    5f80:	ae000008 	sw	zero,8(s0)
    5f84:	ae000018 	sw	zero,24(s0)
    5f88:	ae00001c 	sw	zero,28(s0)
    5f8c:	8fbf001c 	lw	ra,28(sp)
    5f90:	8fb20018 	lw	s2,24(sp)
    5f94:	8fb10014 	lw	s1,20(sp)
    5f98:	8fb00010 	lw	s0,16(sp)
    5f9c:	03e00008 	jr	ra
    5fa0:	27bd0020 	addiu	sp,sp,32

00005fa4 <LST>:
    5fa4:	27bdffd8 	addiu	sp,sp,-40
    5fa8:	afb00010 	sw	s0,16(sp)
    5fac:	3c100005 	lui	s0,0x5
    5fb0:	afb3001c 	sw	s3,28(sp)
    5fb4:	afb20018 	sw	s2,24(sp)
    5fb8:	afb10014 	sw	s1,20(sp)
    5fbc:	afbf0020 	sw	ra,32(sp)
    5fc0:	3c130005 	lui	s3,0x5
    5fc4:	2607f298 	addiu	a3,s0,-3432
    5fc8:	8e65a694 	lw	a1,-22892(s3)
    5fcc:	8ce6000c 	lw	a2,12(a3)
    5fd0:	3c120005 	lui	s2,0x5
    5fd4:	2402ffff 	li	v0,-1
    5fd8:	ae44a794 	sw	a0,-22636(s2)
    5fdc:	10c2007e 	beq	a2,v0,61d8 <LST+0x234>
    5fe0:	00858821 	addu	s1,a0,a1
    5fe4:	8e03f298 	lw	v1,-3432(s0)
    5fe8:	00000000 	nop
    5fec:	10620025 	beq	v1,v0,6084 <LST+0xe0>
    5ff0:	24020003 	li	v0,3
    5ff4:	10620023 	beq	v1,v0,6084 <LST+0xe0>
    5ff8:	24020004 	li	v0,4
    5ffc:	10620021 	beq	v1,v0,6084 <LST+0xe0>
    6000:	24020002 	li	v0,2
    6004:	10620097 	beq	v1,v0,6264 <LST+0x2c0>
    6008:	02251823 	subu	v1,s1,a1
    600c:	2605f298 	addiu	a1,s0,-3432
    6010:	8ca40010 	lw	a0,16(a1)
    6014:	8ca30008 	lw	v1,8(a1)
    6018:	00000000 	nop
    601c:	00832021 	addu	a0,a0,v1
    6020:	0224102b 	sltu	v0,s1,a0
    6024:	14400013 	bnez	v0,6074 <LST+0xd0>
    6028:	3c060005 	lui	a2,0x5
    602c:	8ca20004 	lw	v0,4(a1)
    6030:	8cc3f298 	lw	v1,-3432(a2)
    6034:	aca20014 	sw	v0,20(a1)
    6038:	24020001 	li	v0,1
    603c:	10620002 	beq	v1,v0,6048 <LST+0xa4>
    6040:	aca40010 	sw	a0,16(a1)
    6044:	acc0f298 	sw	zero,-3432(a2)
    6048:	2604f298 	addiu	a0,s0,-3432
    604c:	8c83000c 	lw	v1,12(a0)
    6050:	8c820010 	lw	v0,16(a0)
    6054:	8c850014 	lw	a1,20(a0)
    6058:	00431021 	addu	v0,v0,v1
    605c:	00511023 	subu	v0,v0,s1
    6060:	0045182a 	slt	v1,v0,a1
    6064:	10600091 	beqz	v1,62ac <LST+0x308>
    6068:	00451023 	subu	v0,v0,a1
    606c:	0800187a 	j	61e8 <LST+0x244>
    6070:	ac800018 	sw	zero,24(a0)
    6074:	8cc3f298 	lw	v1,-3432(a2)
    6078:	24020005 	li	v0,5
    607c:	1462fff3 	bne	v1,v0,604c <LST+0xa8>
    6080:	2604f298 	addiu	a0,s0,-3432
    6084:	0c00173e 	jal	5cf8 <round_robin>
    6088:	00000000 	nop
    608c:	00022080 	sll	a0,v0,0x2
    6090:	00021900 	sll	v1,v0,0x4
    6094:	00641823 	subu	v1,v1,a0
    6098:	00621823 	subu	v1,v1,v0
    609c:	00031880 	sll	v1,v1,0x2
    60a0:	2602f298 	addiu	v0,s0,-3432
    60a4:	00621021 	addu	v0,v1,v0
    60a8:	8c440000 	lw	a0,0(v0)
    60ac:	00000000 	nop
    60b0:	1480003a 	bnez	a0,619c <LST+0x1f8>
    60b4:	2604f298 	addiu	a0,s0,-3432
    60b8:	00403021 	move	a2,v0
    60bc:	8cc2000c 	lw	v0,12(a2)
    60c0:	24030002 	li	v1,2
    60c4:	2404ffff 	li	a0,-1
    60c8:	10440055 	beq	v0,a0,6220 <LST+0x27c>
    60cc:	acc30000 	sw	v1,0(a2)
    60d0:	8cc20014 	lw	v0,20(a2)
    60d4:	3c070005 	lui	a3,0x5
    60d8:	ace2a790 	sw	v0,-22640(a3)
    60dc:	2605f298 	addiu	a1,s0,-3432
    60e0:	8ca3000c 	lw	v1,12(a1)
    60e4:	2402ffff 	li	v0,-1
    60e8:	10620012 	beq	v1,v0,6134 <LST+0x190>
    60ec:	00000000 	nop
    60f0:	10c50010 	beq	a2,a1,6134 <LST+0x190>
    60f4:	3c020005 	lui	v0,0x5
    60f8:	8c44f298 	lw	a0,-3432(v0)
    60fc:	24030005 	li	v1,5
    6100:	1083004b 	beq	a0,v1,6230 <LST+0x28c>
    6104:	24020001 	li	v0,1
    6108:	10820049 	beq	a0,v0,6230 <LST+0x28c>
    610c:	00000000 	nop
    6110:	8ca30018 	lw	v1,24(a1)
    6114:	00000000 	nop
    6118:	10600006 	beqz	v1,6134 <LST+0x190>
    611c:	00000000 	nop
    6120:	8ce2a790 	lw	v0,-22640(a3)
    6124:	00000000 	nop
    6128:	0062102b 	sltu	v0,v1,v0
    612c:	1440004b 	bnez	v0,625c <LST+0x2b8>
    6130:	3c020005 	lui	v0,0x5
    6134:	8cc3000c 	lw	v1,12(a2)
    6138:	2402ffff 	li	v0,-1
    613c:	10620005 	beq	v1,v0,6154 <LST+0x1b0>
    6140:	3c022000 	lui	v0,0x2000
    6144:	34420300 	ori	v0,v0,0x300
    6148:	8c430000 	lw	v1,0(v0)
    614c:	00000000 	nop
    6150:	acc3001c 	sw	v1,28(a2)
    6154:	3c022000 	lui	v0,0x2000
    6158:	34420300 	ori	v0,v0,0x300
    615c:	8c430000 	lw	v1,0(v0)
    6160:	8e44a794 	lw	a0,-22636(s2)
    6164:	8e62a694 	lw	v0,-22892(s3)
    6168:	00641823 	subu	v1,v1,a0
    616c:	00621021 	addu	v0,v1,v0
    6170:	00021042 	srl	v0,v0,0x1
    6174:	ae62a694 	sw	v0,-22892(s3)
    6178:	ae43a794 	sw	v1,-22636(s2)
    617c:	8fbf0020 	lw	ra,32(sp)
    6180:	8fb3001c 	lw	s3,28(sp)
    6184:	8fb20018 	lw	s2,24(sp)
    6188:	8fb10014 	lw	s1,20(sp)
    618c:	8fb00010 	lw	s0,16(sp)
    6190:	00c01021 	move	v0,a2
    6194:	03e00008 	jr	ra
    6198:	27bd0028 	addiu	sp,sp,40
    619c:	8c83000c 	lw	v1,12(a0)
    61a0:	3c070005 	lui	a3,0x5
    61a4:	2402ffff 	li	v0,-1
    61a8:	10620007 	beq	v1,v0,61c8 <LST+0x224>
    61ac:	ace0a790 	sw	zero,-22640(a3)
    61b0:	8e03f298 	lw	v1,-3432(s0)
    61b4:	24020005 	li	v0,5
    61b8:	10620032 	beq	v1,v0,6284 <LST+0x2e0>
    61bc:	24020001 	li	v0,1
    61c0:	10620030 	beq	v1,v0,6284 <LST+0x2e0>
    61c4:	00000000 	nop
    61c8:	24023fbe 	li	v0,16318
    61cc:	00003021 	move	a2,zero
    61d0:	08001855 	j	6154 <LST+0x1b0>
    61d4:	ace2a790 	sw	v0,-22640(a3)
    61d8:	8e03f298 	lw	v1,-3432(s0)
    61dc:	24020002 	li	v0,2
    61e0:	10620034 	beq	v1,v0,62b4 <LST+0x310>
    61e4:	00000000 	nop
    61e8:	8e02f298 	lw	v0,-3432(s0)
    61ec:	00000000 	nop
    61f0:	1440ffa4 	bnez	v0,6084 <LST+0xe0>
    61f4:	00000000 	nop
    61f8:	2604f298 	addiu	a0,s0,-3432
    61fc:	8c83000c 	lw	v1,12(a0)
    6200:	2402ffff 	li	v0,-1
    6204:	1062ff9f 	beq	v1,v0,6084 <LST+0xe0>
    6208:	00803021 	move	a2,a0
    620c:	8cc2000c 	lw	v0,12(a2)
    6210:	24030002 	li	v1,2
    6214:	2404ffff 	li	a0,-1
    6218:	1444ffad 	bne	v0,a0,60d0 <LST+0x12c>
    621c:	acc30000 	sw	v1,0(a2)
    6220:	3c070005 	lui	a3,0x5
    6224:	24023fbe 	li	v0,16318
    6228:	08001837 	j	60dc <LST+0x138>
    622c:	ace2a790 	sw	v0,-22640(a3)
    6230:	8ca30008 	lw	v1,8(a1)
    6234:	8ca20010 	lw	v0,16(a1)
    6238:	00000000 	nop
    623c:	00431821 	addu	v1,v0,v1
    6240:	1060ffbc 	beqz	v1,6134 <LST+0x190>
    6244:	00711823 	subu	v1,v1,s1
    6248:	8ce2a790 	lw	v0,-22640(a3)
    624c:	00000000 	nop
    6250:	0062102b 	sltu	v0,v1,v0
    6254:	1040ffb7 	beqz	v0,6134 <LST+0x190>
    6258:	3c020005 	lui	v0,0x5
    625c:	0800184d 	j	6134 <LST+0x190>
    6260:	ac43a790 	sw	v1,-22640(v0)
    6264:	8ce2001c 	lw	v0,28(a3)
    6268:	8ce40014 	lw	a0,20(a3)
    626c:	00621823 	subu	v1,v1,v0
    6270:	00832023 	subu	a0,a0,v1
    6274:	18800011 	blez	a0,62bc <LST+0x318>
    6278:	ace40014 	sw	a0,20(a3)
    627c:	08001803 	j	600c <LST+0x68>
    6280:	ae00f298 	sw	zero,-3432(s0)
    6284:	8c830008 	lw	v1,8(a0)
    6288:	8c820010 	lw	v0,16(a0)
    628c:	00000000 	nop
    6290:	00431021 	addu	v0,v0,v1
    6294:	1040ffcc 	beqz	v0,61c8 <LST+0x224>
    6298:	ace2a790 	sw	v0,-22640(a3)
    629c:	00511023 	subu	v0,v0,s1
    62a0:	00003021 	move	a2,zero
    62a4:	08001855 	j	6154 <LST+0x1b0>
    62a8:	ace2a790 	sw	v0,-22640(a3)
    62ac:	0800187a 	j	61e8 <LST+0x244>
    62b0:	ac820018 	sw	v0,24(a0)
    62b4:	0800187e 	j	61f8 <LST+0x254>
    62b8:	ae00f298 	sw	zero,-3432(s0)
    62bc:	8ce20010 	lw	v0,16(a3)
    62c0:	24030005 	li	v1,5
    62c4:	00461021 	addu	v0,v0,a2
    62c8:	00511023 	subu	v0,v0,s1
    62cc:	ae03f298 	sw	v1,-3432(s0)
    62d0:	04410003 	bgez	v0,62e0 <LST+0x33c>
    62d4:	ace00014 	sw	zero,20(a3)
    62d8:	08001803 	j	600c <LST+0x68>
    62dc:	ace00018 	sw	zero,24(a3)
    62e0:	08001803 	j	600c <LST+0x68>
    62e4:	ace20018 	sw	v0,24(a3)

000062e8 <initSRstructs>:
    62e8:	3c022000 	lui	v0,0x2000
    62ec:	34420140 	ori	v0,v0,0x140
    62f0:	8c440000 	lw	a0,0(v0)
    62f4:	3c030005 	lui	v1,0x5
    62f8:	ac64a798 	sw	a0,-22632(v1)
    62fc:	3c020005 	lui	v0,0x5
    6300:	3c030005 	lui	v1,0x5
    6304:	2442f344 	addiu	v0,v0,-3260
    6308:	24633034 	addiu	v1,v1,12340
    630c:	ac400000 	sw	zero,0(v0)
    6310:	2442030c 	addiu	v0,v0,780
    6314:	1443fffd 	bne	v0,v1,630c <initSRstructs+0x24>
    6318:	00000000 	nop
    631c:	03e00008 	jr	ra
    6320:	24020001 	li	v0,1

00006324 <GetFreeSlotSourceRouting>:
    6324:	3c020005 	lui	v0,0x5
    6328:	3c030005 	lui	v1,0x5
    632c:	2445f348 	addiu	a1,v0,-3256
    6330:	246311c0 	addiu	v1,v1,4544
    6334:	24060001 	li	a2,1
    6338:	8ca20000 	lw	v0,0(a1)
    633c:	00000000 	nop
    6340:	10820014 	beq	a0,v0,6394 <GetFreeSlotSourceRouting+0x70>
    6344:	00000000 	nop
    6348:	24a5030c 	addiu	a1,a1,780
    634c:	14a3fffa 	bne	a1,v1,6338 <GetFreeSlotSourceRouting+0x14>
    6350:	3c020005 	lui	v0,0x5
    6354:	2443f344 	addiu	v1,v0,-3260
    6358:	00002021 	move	a0,zero
    635c:	24050014 	li	a1,20
    6360:	8c620000 	lw	v0,0(v1)
    6364:	00000000 	nop
    6368:	10400008 	beqz	v0,638c <GetFreeSlotSourceRouting+0x68>
    636c:	2463030c 	addiu	v1,v1,780
    6370:	24840001 	addiu	a0,a0,1
    6374:	1485fffa 	bne	a0,a1,6360 <GetFreeSlotSourceRouting+0x3c>
    6378:	3c020001 	lui	v0,0x1
    637c:	2442a3d0 	addiu	v0,v0,-23600
    6380:	3c032000 	lui	v1,0x2000
    6384:	ac620000 	sw	v0,0(v1)
    6388:	2404ffff 	li	a0,-1
    638c:	03e00008 	jr	ra
    6390:	00801021 	move	v0,a0
    6394:	8ca2fffc 	lw	v0,-4(a1)
    6398:	00000000 	nop
    639c:	1446ffeb 	bne	v0,a2,634c <GetFreeSlotSourceRouting+0x28>
    63a0:	24a5030c 	addiu	a1,a1,780
    63a4:	24a5fcf4 	addiu	a1,a1,-780
    63a8:	080018e3 	j	638c <GetFreeSlotSourceRouting+0x68>
    63ac:	2404ffff 	li	a0,-1

000063b0 <SearchSourceRoutingDestination>:
    63b0:	3c020005 	lui	v0,0x5
    63b4:	2443f348 	addiu	v1,v0,-3256
    63b8:	00002821 	move	a1,zero
    63bc:	24070001 	li	a3,1
    63c0:	2406000a 	li	a2,10
    63c4:	8c620000 	lw	v0,0(v1)
    63c8:	00000000 	nop
    63cc:	14820005 	bne	a0,v0,63e4 <SearchSourceRoutingDestination+0x34>
    63d0:	00000000 	nop
    63d4:	8c62fffc 	lw	v0,-4(v1)
    63d8:	00000000 	nop
    63dc:	10470005 	beq	v0,a3,63f4 <SearchSourceRoutingDestination+0x44>
    63e0:	00000000 	nop
    63e4:	24a50001 	addiu	a1,a1,1
    63e8:	14a6fff6 	bne	a1,a2,63c4 <SearchSourceRoutingDestination+0x14>
    63ec:	2463030c 	addiu	v1,v1,780
    63f0:	2405ffff 	li	a1,-1
    63f4:	03e00008 	jr	ra
    63f8:	00a01021 	move	v0,a1

000063fc <ClearSlotSourceRouting>:
    63fc:	3c020005 	lui	v0,0x5
    6400:	3c030005 	lui	v1,0x5
    6404:	2442f2c4 	addiu	v0,v0,-3388
    6408:	2463f348 	addiu	v1,v1,-3256
    640c:	24460080 	addiu	a2,v0,128
    6410:	00002821 	move	a1,zero
    6414:	24080001 	li	t0,1
    6418:	2407000a 	li	a3,10
    641c:	8c620000 	lw	v0,0(v1)
    6420:	00000000 	nop
    6424:	14820005 	bne	a0,v0,643c <ClearSlotSourceRouting+0x40>
    6428:	00000000 	nop
    642c:	8c62fffc 	lw	v0,-4(v1)
    6430:	00000000 	nop
    6434:	10480008 	beq	v0,t0,6458 <ClearSlotSourceRouting+0x5c>
    6438:	00a01021 	move	v0,a1
    643c:	24a50001 	addiu	a1,a1,1
    6440:	24c6030c 	addiu	a2,a2,780
    6444:	14a7fff5 	bne	a1,a3,641c <ClearSlotSourceRouting+0x20>
    6448:	2463030c 	addiu	v1,v1,780
    644c:	2405ffff 	li	a1,-1
    6450:	03e00008 	jr	ra
    6454:	00a01021 	move	v0,a1
    6458:	03e00008 	jr	ra
    645c:	acc00000 	sw	zero,0(a2)

00006460 <ClearAllSourceRouting>:
    6460:	3c020005 	lui	v0,0x5
    6464:	3c030005 	lui	v1,0x5
    6468:	2444f344 	addiu	a0,v0,-3260
    646c:	246311bc 	addiu	v1,v1,4540
    6470:	08001921 	j	6484 <ClearAllSourceRouting+0x24>
    6474:	24050001 	li	a1,1
    6478:	2484030c 	addiu	a0,a0,780
    647c:	10830009 	beq	a0,v1,64a4 <ClearAllSourceRouting+0x44>
    6480:	00000000 	nop
    6484:	8c820000 	lw	v0,0(a0)
    6488:	00000000 	nop
    648c:	1445fffa 	bne	v0,a1,6478 <ClearAllSourceRouting+0x18>
    6490:	00000000 	nop
    6494:	ac800000 	sw	zero,0(a0)
    6498:	2484030c 	addiu	a0,a0,780
    649c:	1483fff9 	bne	a0,v1,6484 <ClearAllSourceRouting+0x24>
    64a0:	00000000 	nop
    64a4:	03e00008 	jr	ra
    64a8:	00000000 	nop

000064ac <print_port>:
    64ac:	2c820008 	sltiu	v0,a0,8
    64b0:	10400009 	beqz	v0,64d8 <print_port+0x2c>
    64b4:	3c020001 	lui	v0,0x1
    64b8:	3c030001 	lui	v1,0x1
    64bc:	00041080 	sll	v0,a0,0x2
    64c0:	2463a45c 	addiu	v1,v1,-23460
    64c4:	00431021 	addu	v0,v0,v1
    64c8:	8c440000 	lw	a0,0(v0)
    64cc:	00000000 	nop
    64d0:	00800008 	jr	a0
    64d4:	00000000 	nop
    64d8:	24429f7c 	addiu	v0,v0,-24708
    64dc:	3c032000 	lui	v1,0x2000
    64e0:	ac620000 	sw	v0,0(v1)
    64e4:	03e00008 	jr	ra
    64e8:	00000000 	nop
    64ec:	3c020001 	lui	v0,0x1
    64f0:	2442a40c 	addiu	v0,v0,-23540
    64f4:	3c032000 	lui	v1,0x2000
    64f8:	ac620000 	sw	v0,0(v1)
    64fc:	03e00008 	jr	ra
    6500:	00000000 	nop
    6504:	3c020001 	lui	v0,0x1
    6508:	2442a428 	addiu	v0,v0,-23512
    650c:	3c032000 	lui	v1,0x2000
    6510:	ac620000 	sw	v0,0(v1)
    6514:	03e00008 	jr	ra
    6518:	00000000 	nop
    651c:	3c020001 	lui	v0,0x1
    6520:	2442a420 	addiu	v0,v0,-23520
    6524:	3c032000 	lui	v1,0x2000
    6528:	ac620000 	sw	v0,0(v1)
    652c:	03e00008 	jr	ra
    6530:	00000000 	nop
    6534:	3c020001 	lui	v0,0x1
    6538:	2442a418 	addiu	v0,v0,-23528
    653c:	3c032000 	lui	v1,0x2000
    6540:	ac620000 	sw	v0,0(v1)
    6544:	03e00008 	jr	ra
    6548:	00000000 	nop
    654c:	3c020001 	lui	v0,0x1
    6550:	2442a410 	addiu	v0,v0,-23536
    6554:	3c032000 	lui	v1,0x2000
    6558:	ac620000 	sw	v0,0(v1)
    655c:	03e00008 	jr	ra
    6560:	00000000 	nop
    6564:	3c020001 	lui	v0,0x1
    6568:	2442a424 	addiu	v0,v0,-23516
    656c:	3c032000 	lui	v1,0x2000
    6570:	ac620000 	sw	v0,0(v1)
    6574:	03e00008 	jr	ra
    6578:	00000000 	nop
    657c:	3c020001 	lui	v0,0x1
    6580:	2442a41c 	addiu	v0,v0,-23524
    6584:	3c032000 	lui	v1,0x2000
    6588:	ac620000 	sw	v0,0(v1)
    658c:	03e00008 	jr	ra
    6590:	00000000 	nop
    6594:	3c020001 	lui	v0,0x1
    6598:	2442a414 	addiu	v0,v0,-23532
    659c:	3c032000 	lui	v1,0x2000
    65a0:	ac620000 	sw	v0,0(v1)
    65a4:	03e00008 	jr	ra
    65a8:	00000000 	nop

000065ac <Seek>:
    65ac:	240d0001 	li	t5,1
    65b0:	3c029027 	lui	v0,0x9027
    65b4:	3c0a2000 	lui	t2,0x2000
    65b8:	34427d4a 	ori	v0,v0,0x7d4a
    65bc:	008d5804 	sllv	t3,t5,a0
    65c0:	01626024 	and	t4,t3,v0
    65c4:	35430370 	ori	v1,t2,0x370
    65c8:	35420390 	ori	v0,t2,0x390
    65cc:	35480394 	ori	t0,t2,0x394
    65d0:	2c890020 	sltiu	t1,a0,32
    65d4:	ac640000 	sw	a0,0(v1)
    65d8:	ac450000 	sw	a1,0(v0)
    65dc:	ad070000 	sw	a3,0(t0)
    65e0:	1120000e 	beqz	t1,661c <Seek+0x70>
    65e4:	00000000 	nop
    65e8:	3c026018 	lui	v0,0x6018
    65ec:	344202b4 	ori	v0,v0,0x2b4
    65f0:	01622024 	and	a0,t3,v0
    65f4:	11800007 	beqz	t4,6614 <Seek+0x68>
    65f8:	35420550 	ori	v0,t2,0x550
    65fc:	ac400000 	sw	zero,0(v0)
    6600:	3c022000 	lui	v0,0x2000
    6604:	34420380 	ori	v0,v0,0x380
    6608:	ac460000 	sw	a2,0(v0)
    660c:	03e00008 	jr	ra
    6610:	00000000 	nop
    6614:	14800004 	bnez	a0,6628 <Seek+0x7c>
    6618:	00000000 	nop
    661c:	3c022000 	lui	v0,0x2000
    6620:	0800197f 	j	65fc <Seek+0x50>
    6624:	34420550 	ori	v0,v0,0x550
    6628:	ac4d0000 	sw	t5,0(v0)
    662c:	3c022000 	lui	v0,0x2000
    6630:	34420380 	ori	v0,v0,0x380
    6634:	ac460000 	sw	a2,0(v0)
    6638:	03e00008 	jr	ra
    663c:	00000000 	nop

00006640 <ProcessTurns>:
    6640:	27bdff90 	addiu	sp,sp,-112
    6644:	afb20068 	sw	s2,104(sp)
    6648:	afb00060 	sw	s0,96(sp)
    664c:	27b20010 	addiu	s2,sp,16
    6650:	00008021 	move	s0,zero
    6654:	30820003 	andi	v0,a0,0x3
    6658:	02403821 	move	a3,s2
    665c:	00042082 	srl	a0,a0,0x2
    6660:	240a0010 	li	t2,16
    6664:	26100001 	addiu	s0,s0,1
    6668:	afbf006c 	sw	ra,108(sp)
    666c:	afb10064 	sw	s1,100(sp)
    6670:	240b0020 	li	t3,32
    6674:	24090001 	li	t1,1
    6678:	240c0003 	li	t4,3
    667c:	ace20000 	sw	v0,0(a3)
    6680:	120a0010 	beq	s0,t2,66c4 <ProcessTurns+0x84>
    6684:	30830003 	andi	v1,a0,0x3
    6688:	120b00a8 	beq	s0,t3,692c <ProcessTurns+0x2ec>
    668c:	00000000 	nop
    6690:	8ce20000 	lw	v0,0(a3)
    6694:	00000000 	nop
    6698:	1440000e 	bnez	v0,66d4 <ProcessTurns+0x94>
    669c:	00000000 	nop
    66a0:	10690015 	beq	v1,t1,66f8 <ProcessTurns+0xb8>
    66a4:	00101080 	sll	v0,s0,0x2
    66a8:	24e70004 	addiu	a3,a3,4
    66ac:	30820003 	andi	v0,a0,0x3
    66b0:	26100001 	addiu	s0,s0,1
    66b4:	00042082 	srl	a0,a0,0x2
    66b8:	ace20000 	sw	v0,0(a3)
    66bc:	160afff2 	bne	s0,t2,6688 <ProcessTurns+0x48>
    66c0:	30830003 	andi	v1,a0,0x3
    66c4:	8ce20000 	lw	v0,0(a3)
    66c8:	00000000 	nop
    66cc:	1040fff4 	beqz	v0,66a0 <ProcessTurns+0x60>
    66d0:	00a02021 	move	a0,a1
    66d4:	10490097 	beq	v0,t1,6934 <ProcessTurns+0x2f4>
    66d8:	24080002 	li	t0,2
    66dc:	10480099 	beq	v0,t0,6944 <ProcessTurns+0x304>
    66e0:	00000000 	nop
    66e4:	144cfff0 	bne	v0,t4,66a8 <ProcessTurns+0x68>
    66e8:	00000000 	nop
    66ec:	1468ffef 	bne	v1,t0,66ac <ProcessTurns+0x6c>
    66f0:	24e70004 	addiu	a3,a3,4
    66f4:	00101080 	sll	v0,s0,0x2
    66f8:	00521021 	addu	v0,v0,s2
    66fc:	1a0000c2 	blez	s0,6a08 <ProcessTurns+0x3c8>
    6700:	ac430000 	sw	v1,0(v0)
    6704:	00002021 	move	a0,zero
    6708:	00002821 	move	a1,zero
    670c:	00003821 	move	a3,zero
    6710:	02401821 	move	v1,s2
    6714:	24060001 	li	a2,1
    6718:	24080002 	li	t0,2
    671c:	080019d0 	j	6740 <ProcessTurns+0x100>
    6720:	24090003 	li	t1,3
    6724:	1048008d 	beq	v0,t0,695c <ProcessTurns+0x31c>
    6728:	00000000 	nop
    672c:	104900aa 	beq	v0,t1,69d8 <ProcessTurns+0x398>
    6730:	00000000 	nop
    6734:	24840001 	addiu	a0,a0,1
    6738:	1090000b 	beq	a0,s0,6768 <ProcessTurns+0x128>
    673c:	24630004 	addiu	v1,v1,4
    6740:	8c620000 	lw	v0,0(v1)
    6744:	00000000 	nop
    6748:	10460082 	beq	v0,a2,6954 <ProcessTurns+0x314>
    674c:	00000000 	nop
    6750:	1440fff4 	bnez	v0,6724 <ProcessTurns+0xe4>
    6754:	00000000 	nop
    6758:	24840001 	addiu	a0,a0,1
    675c:	24a50001 	addiu	a1,a1,1
    6760:	1490fff7 	bne	a0,s0,6740 <ProcessTurns+0x100>
    6764:	24630004 	addiu	v1,v1,4
    6768:	00e01821 	move	v1,a3
    676c:	3c110005 	lui	s1,0x5
    6770:	8e22a770 	lw	v0,-22672(s1)
    6774:	00000000 	nop
    6778:	00022202 	srl	a0,v0,0x8
    677c:	00852021 	addu	a0,a0,a1
    6780:	00431021 	addu	v0,v0,v1
    6784:	304200ff 	andi	v0,v0,0xff
    6788:	00042200 	sll	a0,a0,0x8
    678c:	0c0018ec 	jal	63b0 <SearchSourceRoutingDestination>
    6790:	00822025 	or	a0,a0,v0
    6794:	00405021 	move	t2,v0
    6798:	2402ffff 	li	v0,-1
    679c:	11420092 	beq	t2,v0,69e8 <ProcessTurns+0x3a8>
    67a0:	3c020001 	lui	v0,0x1
    67a4:	3c022aaa 	lui	v0,0x2aaa
    67a8:	3442aaab 	ori	v0,v0,0xaaab
    67ac:	02020018 	mult	s0,v0
    67b0:	000a4080 	sll	t0,t2,0x2
    67b4:	000a4900 	sll	t1,t2,0x4
    67b8:	01282023 	subu	a0,t1,t0
    67bc:	3c0c0005 	lui	t4,0x5
    67c0:	00042980 	sll	a1,a0,0x6
    67c4:	001037c3 	sra	a2,s0,0x1f
    67c8:	00852021 	addu	a0,a0,a1
    67cc:	2583f2c4 	addiu	v1,t4,-3388
    67d0:	00832021 	addu	a0,a0,v1
    67d4:	00001010 	mfhi	v0
    67d8:	00461023 	subu	v0,v0,a2
    67dc:	24420001 	addiu	v0,v0,1
    67e0:	1a00008c 	blez	s0,6a14 <ProcessTurns+0x3d4>
    67e4:	ac820088 	sw	v0,136(a0)
    67e8:	00003821 	move	a3,zero
    67ec:	24060001 	li	a2,1
    67f0:	240b0001 	li	t3,1
    67f4:	02402821 	move	a1,s2
    67f8:	14c0005a 	bnez	a2,6964 <ProcessTurns+0x324>
    67fc:	00071880 	sll	v1,a3,0x2
    6800:	8ca20000 	lw	v0,0(a1)
    6804:	00000000 	nop
    6808:	2442fffe 	addiu	v0,v0,-2
    680c:	2c420002 	sltiu	v0,v0,2
    6810:	14400064 	bnez	v0,69a4 <ProcessTurns+0x364>
    6814:	00000000 	nop
    6818:	24e70001 	addiu	a3,a3,1
    681c:	24a50004 	addiu	a1,a1,4
    6820:	00f0102a 	slt	v0,a3,s0
    6824:	1440fff4 	bnez	v0,67f8 <ProcessTurns+0x1b8>
    6828:	01281023 	subu	v0,t1,t0
    682c:	00021980 	sll	v1,v0,0x6
    6830:	00431021 	addu	v0,v0,v1
    6834:	2584f2c4 	addiu	a0,t4,-3388
    6838:	3c037000 	lui	v1,0x7000
    683c:	00442021 	addu	a0,v0,a0
    6840:	34637000 	ori	v1,v1,0x7000
    6844:	04e00032 	bltz	a3,6910 <ProcessTurns+0x2d0>
    6848:	ac830000 	sw	v1,0(a0)
    684c:	8fa20010 	lw	v0,16(sp)
    6850:	240b0014 	li	t3,20
    6854:	3042000f 	andi	v0,v0,0xf
    6858:	00021600 	sll	v0,v0,0x18
    685c:	00431025 	or	v0,v0,v1
    6860:	24060001 	li	a2,1
    6864:	ac820000 	sw	v0,0(a0)
    6868:	000a1040 	sll	v0,t2,0x1
    686c:	004a1021 	addu	v0,v0,t2
    6870:	00021980 	sll	v1,v0,0x6
    6874:	00432821 	addu	a1,v0,v1
    6878:	00062080 	sll	a0,a2,0x2
    687c:	00e6102a 	slt	v0,a3,a2
    6880:	00064fc3 	sra	t1,a2,0x1f
    6884:	00922021 	addu	a0,a0,s2
    6888:	14400021 	bnez	v0,6910 <ProcessTurns+0x2d0>
    688c:	2583f2c4 	addiu	v1,t4,-3388
    6890:	3c022aaa 	lui	v0,0x2aaa
    6894:	3442aaab 	ori	v0,v0,0xaaab
    6898:	00c20018 	mult	a2,v0
    689c:	8c840000 	lw	a0,0(a0)
    68a0:	24c80001 	addiu	t0,a2,1
    68a4:	3084000f 	andi	a0,a0,0xf
    68a8:	01642004 	sllv	a0,a0,t3
    68ac:	01003021 	move	a2,t0
    68b0:	00001010 	mfhi	v0
    68b4:	00491023 	subu	v0,v0,t1
    68b8:	00a21021 	addu	v0,a1,v0
    68bc:	00021080 	sll	v0,v0,0x2
    68c0:	00432821 	addu	a1,v0,v1
    68c4:	8ca30000 	lw	v1,0(a1)
    68c8:	00000000 	nop
    68cc:	00641825 	or	v1,v1,a0
    68d0:	1160002f 	beqz	t3,6990 <ProcessTurns+0x350>
    68d4:	aca30000 	sw	v1,0(a1)
    68d8:	24020010 	li	v0,16
    68dc:	11620040 	beq	t3,v0,69e0 <ProcessTurns+0x3a0>
    68e0:	00000000 	nop
    68e4:	256bfffc 	addiu	t3,t3,-4
    68e8:	000a1040 	sll	v0,t2,0x1
    68ec:	004a1021 	addu	v0,v0,t2
    68f0:	00021980 	sll	v1,v0,0x6
    68f4:	00432821 	addu	a1,v0,v1
    68f8:	00062080 	sll	a0,a2,0x2
    68fc:	00e6102a 	slt	v0,a3,a2
    6900:	00064fc3 	sra	t1,a2,0x1f
    6904:	00922021 	addu	a0,a0,s2
    6908:	1040ffe1 	beqz	v0,6890 <ProcessTurns+0x250>
    690c:	2583f2c4 	addiu	v1,t4,-3388
    6910:	8fbf006c 	lw	ra,108(sp)
    6914:	8fb20068 	lw	s2,104(sp)
    6918:	8fb10064 	lw	s1,100(sp)
    691c:	8fb00060 	lw	s0,96(sp)
    6920:	01401021 	move	v0,t2
    6924:	03e00008 	jr	ra
    6928:	27bd0070 	addiu	sp,sp,112
    692c:	080019a4 	j	6690 <ProcessTurns+0x50>
    6930:	00c02021 	move	a0,a2
    6934:	1060ff6f 	beqz	v1,66f4 <ProcessTurns+0xb4>
    6938:	24e70004 	addiu	a3,a3,4
    693c:	080019ac 	j	66b0 <ProcessTurns+0x70>
    6940:	30820003 	andi	v0,a0,0x3
    6944:	106cff6b 	beq	v1,t4,66f4 <ProcessTurns+0xb4>
    6948:	24e70004 	addiu	a3,a3,4
    694c:	080019ac 	j	66b0 <ProcessTurns+0x70>
    6950:	30820003 	andi	v0,a0,0x3
    6954:	080019cd 	j	6734 <ProcessTurns+0xf4>
    6958:	24a5ffff 	addiu	a1,a1,-1
    695c:	080019cd 	j	6734 <ProcessTurns+0xf4>
    6960:	24e70001 	addiu	a3,a3,1
    6964:	8ca40000 	lw	a0,0(a1)
    6968:	00000000 	nop
    696c:	2482fffe 	addiu	v0,a0,-2
    6970:	2c420002 	sltiu	v0,v0,2
    6974:	00721821 	addu	v1,v1,s2
    6978:	14400011 	bnez	v0,69c0 <ProcessTurns+0x380>
    697c:	24840004 	addiu	a0,a0,4
    6980:	24a50004 	addiu	a1,a1,4
    6984:	24e70001 	addiu	a3,a3,1
    6988:	08001a08 	j	6820 <ProcessTurns+0x1e0>
    698c:	ac640000 	sw	a0,0(v1)
    6990:	3c027000 	lui	v0,0x7000
    6994:	34427000 	ori	v0,v0,0x7000
    6998:	240b0018 	li	t3,24
    699c:	08001a1a 	j	6868 <ProcessTurns+0x228>
    69a0:	aca20004 	sw	v0,4(a1)
    69a4:	24a50004 	addiu	a1,a1,4
    69a8:	8ca20000 	lw	v0,0(a1)
    69ac:	00000000 	nop
    69b0:	144bff9b 	bne	v0,t3,6820 <ProcessTurns+0x1e0>
    69b4:	24e70001 	addiu	a3,a3,1
    69b8:	08001a08 	j	6820 <ProcessTurns+0x1e0>
    69bc:	24060001 	li	a2,1
    69c0:	8ca20004 	lw	v0,4(a1)
    69c4:	00000000 	nop
    69c8:	1440ffed 	bnez	v0,6980 <ProcessTurns+0x340>
    69cc:	00000000 	nop
    69d0:	08001a60 	j	6980 <ProcessTurns+0x340>
    69d4:	00003021 	move	a2,zero
    69d8:	080019cd 	j	6734 <ProcessTurns+0xf4>
    69dc:	24e7ffff 	addiu	a3,a3,-1
    69e0:	08001a1a 	j	6868 <ProcessTurns+0x228>
    69e4:	240b0008 	li	t3,8
    69e8:	8e24a770 	lw	a0,-22672(s1)
    69ec:	2442a42c 	addiu	v0,v0,-23508
    69f0:	3c032000 	lui	v1,0x2000
    69f4:	ac620000 	sw	v0,0(v1)
    69f8:	0c0018ec 	jal	63b0 <SearchSourceRoutingDestination>
    69fc:	00000000 	nop
    6a00:	080019e9 	j	67a4 <ProcessTurns+0x164>
    6a04:	00405021 	move	t2,v0
    6a08:	00002821 	move	a1,zero
    6a0c:	080019db 	j	676c <ProcessTurns+0x12c>
    6a10:	00001821 	move	v1,zero
    6a14:	8fa30010 	lw	v1,16(sp)
    6a18:	3c027000 	lui	v0,0x7000
    6a1c:	3063000f 	andi	v1,v1,0xf
    6a20:	00031e00 	sll	v1,v1,0x18
    6a24:	34427000 	ori	v0,v0,0x7000
    6a28:	240b0018 	li	t3,24
    6a2c:	24080001 	li	t0,1
    6a30:	00621825 	or	v1,v1,v0
    6a34:	00003821 	move	a3,zero
    6a38:	256bfffc 	addiu	t3,t3,-4
    6a3c:	01003021 	move	a2,t0
    6a40:	08001a3a 	j	68e8 <ProcessTurns+0x2a8>
    6a44:	ac830000 	sw	v1,0(a0)

00006a48 <printGray>:
    6a48:	03e00008 	jr	ra
    6a4c:	00000000 	nop

00006a50 <adjust_backtrack_IO>:
    6a50:	27bdff88 	addiu	sp,sp,-120
    6a54:	afb3006c 	sw	s3,108(sp)
    6a58:	afb00060 	sw	s0,96(sp)
    6a5c:	27b30010 	addiu	s3,sp,16
    6a60:	00008021 	move	s0,zero
    6a64:	afb20068 	sw	s2,104(sp)
    6a68:	30820003 	andi	v0,a0,0x3
    6a6c:	00e09021 	move	s2,a3
    6a70:	00042082 	srl	a0,a0,0x2
    6a74:	02603821 	move	a3,s3
    6a78:	240a0010 	li	t2,16
    6a7c:	26100001 	addiu	s0,s0,1
    6a80:	afbf0070 	sw	ra,112(sp)
    6a84:	afb10064 	sw	s1,100(sp)
    6a88:	240b0020 	li	t3,32
    6a8c:	24090001 	li	t1,1
    6a90:	240c0003 	li	t4,3
    6a94:	ace20000 	sw	v0,0(a3)
    6a98:	120a0010 	beq	s0,t2,6adc <adjust_backtrack_IO+0x8c>
    6a9c:	30830003 	andi	v1,a0,0x3
    6aa0:	120b008a 	beq	s0,t3,6ccc <adjust_backtrack_IO+0x27c>
    6aa4:	00000000 	nop
    6aa8:	8ce20000 	lw	v0,0(a3)
    6aac:	00000000 	nop
    6ab0:	1440000e 	bnez	v0,6aec <adjust_backtrack_IO+0x9c>
    6ab4:	00000000 	nop
    6ab8:	10690014 	beq	v1,t1,6b0c <adjust_backtrack_IO+0xbc>
    6abc:	00000000 	nop
    6ac0:	24e70004 	addiu	a3,a3,4
    6ac4:	30820003 	andi	v0,a0,0x3
    6ac8:	26100001 	addiu	s0,s0,1
    6acc:	00042082 	srl	a0,a0,0x2
    6ad0:	ace20000 	sw	v0,0(a3)
    6ad4:	160afff2 	bne	s0,t2,6aa0 <adjust_backtrack_IO+0x50>
    6ad8:	30830003 	andi	v1,a0,0x3
    6adc:	8ce20000 	lw	v0,0(a3)
    6ae0:	00000000 	nop
    6ae4:	1040fff4 	beqz	v0,6ab8 <adjust_backtrack_IO+0x68>
    6ae8:	00a02021 	move	a0,a1
    6aec:	10490079 	beq	v0,t1,6cd4 <adjust_backtrack_IO+0x284>
    6af0:	24080002 	li	t0,2
    6af4:	1048007b 	beq	v0,t0,6ce4 <adjust_backtrack_IO+0x294>
    6af8:	00000000 	nop
    6afc:	144cfff0 	bne	v0,t4,6ac0 <adjust_backtrack_IO+0x70>
    6b00:	00000000 	nop
    6b04:	1468ffef 	bne	v1,t0,6ac4 <adjust_backtrack_IO+0x74>
    6b08:	24e70004 	addiu	a3,a3,4
    6b0c:	00122202 	srl	a0,s2,0x8
    6b10:	0c000a71 	jal	29c4 <get_last_hop>
    6b14:	324500ff 	andi	a1,s2,0xff
    6b18:	00408821 	move	s1,v0
    6b1c:	2402ffff 	li	v0,-1
    6b20:	12220096 	beq	s1,v0,6d7c <adjust_backtrack_IO+0x32c>
    6b24:	3c020001 	lui	v0,0x1
    6b28:	0c0018ec 	jal	63b0 <SearchSourceRoutingDestination>
    6b2c:	02402021 	move	a0,s2
    6b30:	00105080 	sll	t2,s0,0x2
    6b34:	00404821 	move	t1,v0
    6b38:	01531021 	addu	v0,t2,s3
    6b3c:	ac510000 	sw	s1,0(v0)
    6b40:	16200084 	bnez	s1,6d54 <adjust_backtrack_IO+0x304>
    6b44:	26060001 	addiu	a2,s0,1
    6b48:	00061080 	sll	v0,a2,0x2
    6b4c:	00531021 	addu	v0,v0,s3
    6b50:	24030001 	li	v1,1
    6b54:	ac430000 	sw	v1,0(v0)
    6b58:	3c032aaa 	lui	v1,0x2aaa
    6b5c:	3463aaab 	ori	v1,v1,0xaaab
    6b60:	00c30018 	mult	a2,v1
    6b64:	00092080 	sll	a0,t1,0x2
    6b68:	00091100 	sll	v0,t1,0x4
    6b6c:	00441023 	subu	v0,v0,a0
    6b70:	3c0c0005 	lui	t4,0x5
    6b74:	00022180 	sll	a0,v0,0x6
    6b78:	00062fc3 	sra	a1,a2,0x1f
    6b7c:	00441021 	addu	v0,v0,a0
    6b80:	2587f2c4 	addiu	a3,t4,-3388
    6b84:	00471021 	addu	v0,v0,a3
    6b88:	00001810 	mfhi	v1
    6b8c:	00651823 	subu	v1,v1,a1
    6b90:	24630001 	addiu	v1,v1,1
    6b94:	18c000a1 	blez	a2,6e1c <adjust_backtrack_IO+0x3cc>
    6b98:	ac430088 	sw	v1,136(v0)
    6b9c:	24080001 	li	t0,1
    6ba0:	00003821 	move	a3,zero
    6ba4:	240b0001 	li	t3,1
    6ba8:	02602821 	move	a1,s3
    6bac:	15000051 	bnez	t0,6cf4 <adjust_backtrack_IO+0x2a4>
    6bb0:	00000000 	nop
    6bb4:	8ca20000 	lw	v0,0(a1)
    6bb8:	00000000 	nop
    6bbc:	2442fffe 	addiu	v0,v0,-2
    6bc0:	2c420002 	sltiu	v0,v0,2
    6bc4:	14400056 	bnez	v0,6d20 <adjust_backtrack_IO+0x2d0>
    6bc8:	00000000 	nop
    6bcc:	24e70001 	addiu	a3,a3,1
    6bd0:	24a50004 	addiu	a1,a1,4
    6bd4:	00e6102a 	slt	v0,a3,a2
    6bd8:	1440fff4 	bnez	v0,6bac <adjust_backtrack_IO+0x15c>
    6bdc:	00000000 	nop
    6be0:	01532821 	addu	a1,t2,s3
    6be4:	8ca60000 	lw	a2,0(a1)
    6be8:	05200073 	bltz	t1,6db8 <adjust_backtrack_IO+0x368>
    6bec:	01204021 	move	t0,t1
    6bf0:	00082080 	sll	a0,t0,0x2
    6bf4:	00081100 	sll	v0,t0,0x4
    6bf8:	00441023 	subu	v0,v0,a0
    6bfc:	00021980 	sll	v1,v0,0x6
    6c00:	00431021 	addu	v0,v0,v1
    6c04:	2584f2c4 	addiu	a0,t4,-3388
    6c08:	3c037000 	lui	v1,0x7000
    6c0c:	00442021 	addu	a0,v0,a0
    6c10:	34637000 	ori	v1,v1,0x7000
    6c14:	04e00074 	bltz	a3,6de8 <adjust_backtrack_IO+0x398>
    6c18:	ac830000 	sw	v1,0(a0)
    6c1c:	30c20003 	andi	v0,a2,0x3
    6c20:	aca20000 	sw	v0,0(a1)
    6c24:	8fa20010 	lw	v0,16(sp)
    6c28:	24050014 	li	a1,20
    6c2c:	3042000f 	andi	v0,v0,0xf
    6c30:	00021600 	sll	v0,v0,0x18
    6c34:	00431025 	or	v0,v0,v1
    6c38:	24060001 	li	a2,1
    6c3c:	ac820000 	sw	v0,0(a0)
    6c40:	00e6102a 	slt	v0,a3,a2
    6c44:	14400068 	bnez	v0,6de8 <adjust_backtrack_IO+0x398>
    6c48:	3c022aaa 	lui	v0,0x2aaa
    6c4c:	3442aaab 	ori	v0,v0,0xaaab
    6c50:	00c20018 	mult	a2,v0
    6c54:	00061fc3 	sra	v1,a2,0x1f
    6c58:	00a04821 	move	t1,a1
    6c5c:	00c05821 	move	t3,a2
    6c60:	00a05021 	move	t2,a1
    6c64:	24c60001 	addiu	a2,a2,1
    6c68:	00001010 	mfhi	v0
    6c6c:	00432823 	subu	a1,v0,v1
    6c70:	00081040 	sll	v0,t0,0x1
    6c74:	00481021 	addu	v0,v0,t0
    6c78:	00021980 	sll	v1,v0,0x6
    6c7c:	00431021 	addu	v0,v0,v1
    6c80:	000b2080 	sll	a0,t3,0x2
    6c84:	00451021 	addu	v0,v0,a1
    6c88:	00932021 	addu	a0,a0,s3
    6c8c:	8c830000 	lw	v1,0(a0)
    6c90:	00021080 	sll	v0,v0,0x2
    6c94:	2585f2c4 	addiu	a1,t4,-3388
    6c98:	00452021 	addu	a0,v0,a1
    6c9c:	8c820000 	lw	v0,0(a0)
    6ca0:	3063000f 	andi	v1,v1,0xf
    6ca4:	01231804 	sllv	v1,v1,t1
    6ca8:	00431025 	or	v0,v0,v1
    6cac:	ac820000 	sw	v0,0(a0)
    6cb0:	1540003b 	bnez	t2,6da0 <adjust_backtrack_IO+0x350>
    6cb4:	24050008 	li	a1,8
    6cb8:	3c027000 	lui	v0,0x7000
    6cbc:	34427000 	ori	v0,v0,0x7000
    6cc0:	24050018 	li	a1,24
    6cc4:	08001b10 	j	6c40 <adjust_backtrack_IO+0x1f0>
    6cc8:	ac820004 	sw	v0,4(a0)
    6ccc:	08001aaa 	j	6aa8 <adjust_backtrack_IO+0x58>
    6cd0:	00c02021 	move	a0,a2
    6cd4:	1060ff8d 	beqz	v1,6b0c <adjust_backtrack_IO+0xbc>
    6cd8:	24e70004 	addiu	a3,a3,4
    6cdc:	08001ab2 	j	6ac8 <adjust_backtrack_IO+0x78>
    6ce0:	30820003 	andi	v0,a0,0x3
    6ce4:	106cff89 	beq	v1,t4,6b0c <adjust_backtrack_IO+0xbc>
    6ce8:	24e70004 	addiu	a3,a3,4
    6cec:	08001ab2 	j	6ac8 <adjust_backtrack_IO+0x78>
    6cf0:	30820003 	andi	v0,a0,0x3
    6cf4:	8ca40000 	lw	a0,0(a1)
    6cf8:	00071880 	sll	v1,a3,0x2
    6cfc:	2482fffe 	addiu	v0,a0,-2
    6d00:	2c420002 	sltiu	v0,v0,2
    6d04:	00731821 	addu	v1,v1,s3
    6d08:	1440000c 	bnez	v0,6d3c <adjust_backtrack_IO+0x2ec>
    6d0c:	24840004 	addiu	a0,a0,4
    6d10:	24a50004 	addiu	a1,a1,4
    6d14:	24e70001 	addiu	a3,a3,1
    6d18:	08001af5 	j	6bd4 <adjust_backtrack_IO+0x184>
    6d1c:	ac640000 	sw	a0,0(v1)
    6d20:	24a50004 	addiu	a1,a1,4
    6d24:	8ca20000 	lw	v0,0(a1)
    6d28:	00000000 	nop
    6d2c:	144bffa9 	bne	v0,t3,6bd4 <adjust_backtrack_IO+0x184>
    6d30:	24e70001 	addiu	a3,a3,1
    6d34:	08001af5 	j	6bd4 <adjust_backtrack_IO+0x184>
    6d38:	24080001 	li	t0,1
    6d3c:	8ca20004 	lw	v0,4(a1)
    6d40:	00000000 	nop
    6d44:	1440fff2 	bnez	v0,6d10 <adjust_backtrack_IO+0x2c0>
    6d48:	00000000 	nop
    6d4c:	08001b44 	j	6d10 <adjust_backtrack_IO+0x2c0>
    6d50:	00004021 	move	t0,zero
    6d54:	24020001 	li	v0,1
    6d58:	1222000d 	beq	s1,v0,6d90 <adjust_backtrack_IO+0x340>
    6d5c:	24030002 	li	v1,2
    6d60:	12230029 	beq	s1,v1,6e08 <adjust_backtrack_IO+0x3b8>
    6d64:	24020003 	li	v0,3
    6d68:	1622ff7b 	bne	s1,v0,6b58 <adjust_backtrack_IO+0x108>
    6d6c:	00061080 	sll	v0,a2,0x2
    6d70:	00531021 	addu	v0,v0,s3
    6d74:	08001ad6 	j	6b58 <adjust_backtrack_IO+0x108>
    6d78:	ac430000 	sw	v1,0(v0)
    6d7c:	2442a440 	addiu	v0,v0,-23488
    6d80:	3c032000 	lui	v1,0x2000
    6d84:	ac620000 	sw	v0,0(v1)
    6d88:	08001aca 	j	6b28 <adjust_backtrack_IO+0xd8>
    6d8c:	00000000 	nop
    6d90:	00061080 	sll	v0,a2,0x2
    6d94:	00531021 	addu	v0,v0,s3
    6d98:	08001ad6 	j	6b58 <adjust_backtrack_IO+0x108>
    6d9c:	ac400000 	sw	zero,0(v0)
    6da0:	24020010 	li	v0,16
    6da4:	1142ffa7 	beq	t2,v0,6c44 <adjust_backtrack_IO+0x1f4>
    6da8:	00e6102a 	slt	v0,a3,a2
    6dac:	2545fffc 	addiu	a1,t2,-4
    6db0:	08001b10 	j	6c40 <adjust_backtrack_IO+0x1f0>
    6db4:	25660001 	addiu	a2,t3,1
    6db8:	00004021 	move	t0,zero
    6dbc:	00082080 	sll	a0,t0,0x2
    6dc0:	00081100 	sll	v0,t0,0x4
    6dc4:	00441023 	subu	v0,v0,a0
    6dc8:	00021980 	sll	v1,v0,0x6
    6dcc:	00431021 	addu	v0,v0,v1
    6dd0:	2584f2c4 	addiu	a0,t4,-3388
    6dd4:	3c037000 	lui	v1,0x7000
    6dd8:	00442021 	addu	a0,v0,a0
    6ddc:	34637000 	ori	v1,v1,0x7000
    6de0:	04e1ff8e 	bgez	a3,6c1c <adjust_backtrack_IO+0x1cc>
    6de4:	ac830000 	sw	v1,0(a0)
    6de8:	8fbf0070 	lw	ra,112(sp)
    6dec:	8fb3006c 	lw	s3,108(sp)
    6df0:	8fb20068 	lw	s2,104(sp)
    6df4:	8fb10064 	lw	s1,100(sp)
    6df8:	8fb00060 	lw	s0,96(sp)
    6dfc:	01001021 	move	v0,t0
    6e00:	03e00008 	jr	ra
    6e04:	27bd0078 	addiu	sp,sp,120
    6e08:	00061080 	sll	v0,a2,0x2
    6e0c:	00531021 	addu	v0,v0,s3
    6e10:	24030003 	li	v1,3
    6e14:	08001ad6 	j	6b58 <adjust_backtrack_IO+0x108>
    6e18:	ac430000 	sw	v1,0(v0)
    6e1c:	01531821 	addu	v1,t2,s3
    6e20:	8c620000 	lw	v0,0(v1)
    6e24:	01204021 	move	t0,t1
    6e28:	30420003 	andi	v0,v0,0x3
    6e2c:	05200011 	bltz	t1,6e74 <adjust_backtrack_IO+0x424>
    6e30:	ac620000 	sw	v0,0(v1)
    6e34:	00082080 	sll	a0,t0,0x2
    6e38:	00081900 	sll	v1,t0,0x4
    6e3c:	00641823 	subu	v1,v1,a0
    6e40:	00031180 	sll	v0,v1,0x6
    6e44:	00621821 	addu	v1,v1,v0
    6e48:	3c027000 	lui	v0,0x7000
    6e4c:	00671821 	addu	v1,v1,a3
    6e50:	34427000 	ori	v0,v0,0x7000
    6e54:	240a0018 	li	t2,24
    6e58:	00005821 	move	t3,zero
    6e5c:	00003821 	move	a3,zero
    6e60:	00002821 	move	a1,zero
    6e64:	24090018 	li	t1,24
    6e68:	24060001 	li	a2,1
    6e6c:	08001b1c 	j	6c70 <adjust_backtrack_IO+0x220>
    6e70:	ac620000 	sw	v0,0(v1)
    6e74:	08001b8d 	j	6e34 <adjust_backtrack_IO+0x3e4>
    6e78:	00004021 	move	t0,zero

00006e7c <print_SR_Table>:
    6e7c:	00042900 	sll	a1,a0,0x4
    6e80:	00042080 	sll	a0,a0,0x2
    6e84:	00a42823 	subu	a1,a1,a0
    6e88:	00051180 	sll	v0,a1,0x6
    6e8c:	00a22821 	addu	a1,a1,v0
    6e90:	3c030001 	lui	v1,0x1
    6e94:	3c020005 	lui	v0,0x5
    6e98:	27bdffd0 	addiu	sp,sp,-48
    6e9c:	24639fac 	addiu	v1,v1,-24660
    6ea0:	3c042000 	lui	a0,0x2000
    6ea4:	2442f2c4 	addiu	v0,v0,-3388
    6ea8:	afbf0028 	sw	ra,40(sp)
    6eac:	afb50024 	sw	s5,36(sp)
    6eb0:	afb40020 	sw	s4,32(sp)
    6eb4:	afb3001c 	sw	s3,28(sp)
    6eb8:	afb20018 	sw	s2,24(sp)
    6ebc:	afb10014 	sw	s1,20(sp)
    6ec0:	afb00010 	sw	s0,16(sp)
    6ec4:	ac830000 	sw	v1,0(a0)
    6ec8:	00a22021 	addu	a0,a1,v0
    6ecc:	8c830088 	lw	v1,136(a0)
    6ed0:	00000000 	nop
    6ed4:	10600013 	beqz	v1,6f24 <print_SR_Table+0xa8>
    6ed8:	3c020001 	lui	v0,0x1
    6edc:	3c030001 	lui	v1,0x1
    6ee0:	00808021 	move	s0,a0
    6ee4:	24559fb8 	addiu	s5,v0,-24648
    6ee8:	2474a160 	addiu	s4,v1,-24224
    6eec:	00009021 	move	s2,zero
    6ef0:	3c112000 	lui	s1,0x2000
    6ef4:	00809821 	move	s3,a0
    6ef8:	ae350000 	sw	s5,0(s1)
    6efc:	8e040000 	lw	a0,0(s0)
    6f00:	0c000939 	jal	24e4 <itoh>
    6f04:	26520001 	addiu	s2,s2,1
    6f08:	ae220000 	sw	v0,0(s1)
    6f0c:	ae340000 	sw	s4,0(s1)
    6f10:	8e620088 	lw	v0,136(s3)
    6f14:	00000000 	nop
    6f18:	0242102b 	sltu	v0,s2,v0
    6f1c:	1440fff6 	bnez	v0,6ef8 <print_SR_Table+0x7c>
    6f20:	26100004 	addiu	s0,s0,4
    6f24:	8fbf0028 	lw	ra,40(sp)
    6f28:	8fb50024 	lw	s5,36(sp)
    6f2c:	8fb40020 	lw	s4,32(sp)
    6f30:	8fb3001c 	lw	s3,28(sp)
    6f34:	8fb20018 	lw	s2,24(sp)
    6f38:	8fb10014 	lw	s1,20(sp)
    6f3c:	8fb00010 	lw	s0,16(sp)
    6f40:	03e00008 	jr	ra
    6f44:	27bd0030 	addiu	sp,sp,48

00006f48 <search_Service>:
    6f48:	3c020005 	lui	v0,0x5
    6f4c:	8c42a820 	lw	v0,-22496(v0)
    6f50:	00000000 	nop
    6f54:	14400002 	bnez	v0,6f60 <search_Service+0x18>
    6f58:	2445ffff 	addiu	a1,v0,-1
    6f5c:	2405000f 	li	a1,15
    6f60:	3c020005 	lui	v0,0x5
    6f64:	24482fb4 	addiu	t0,v0,12212
    6f68:	00003021 	move	a2,zero
    6f6c:	24070010 	li	a3,16
    6f70:	00051100 	sll	v0,a1,0x4
    6f74:	00051980 	sll	v1,a1,0x6
    6f78:	00621823 	subu	v1,v1,v0
    6f7c:	00651823 	subu	v1,v1,a1
    6f80:	00031880 	sll	v1,v1,0x2
    6f84:	00681821 	addu	v1,v1,t0
    6f88:	8c620084 	lw	v0,132(v1)
    6f8c:	00000000 	nop
    6f90:	10440007 	beq	v0,a0,6fb0 <search_Service+0x68>
    6f94:	24c60001 	addiu	a2,a2,1
    6f98:	24a5ffff 	addiu	a1,a1,-1
    6f9c:	04a00006 	bltz	a1,6fb8 <search_Service+0x70>
    6fa0:	00000000 	nop
    6fa4:	14c7fff2 	bne	a2,a3,6f70 <search_Service+0x28>
    6fa8:	00000000 	nop
    6fac:	2405ffff 	li	a1,-1
    6fb0:	03e00008 	jr	ra
    6fb4:	00a01021 	move	v0,a1
    6fb8:	14c7ffed 	bne	a2,a3,6f70 <search_Service+0x28>
    6fbc:	2405000f 	li	a1,15
    6fc0:	08001bec 	j	6fb0 <search_Service+0x68>
    6fc4:	2405ffff 	li	a1,-1

00006fc8 <insert_CM_FIFO>:
    6fc8:	27bdffe0 	addiu	sp,sp,-32
    6fcc:	afb20018 	sw	s2,24(sp)
    6fd0:	afb10014 	sw	s1,20(sp)
    6fd4:	afb00010 	sw	s0,16(sp)
    6fd8:	afbf001c 	sw	ra,28(sp)
    6fdc:	8c830084 	lw	v1,132(a0)
    6fe0:	24020200 	li	v0,512
    6fe4:	00808021 	move	s0,a0
    6fe8:	00a08821 	move	s1,a1
    6fec:	10620025 	beq	v1,v0,7084 <insert_CM_FIFO+0xbc>
    6ff0:	00c09021 	move	s2,a2
    6ff4:	2c620201 	sltiu	v0,v1,513
    6ff8:	10400016 	beqz	v0,7054 <insert_CM_FIFO+0x8c>
    6ffc:	24020245 	li	v0,581
    7000:	24020070 	li	v0,112
    7004:	1062001f 	beq	v1,v0,7084 <insert_CM_FIFO+0xbc>
    7008:	2c620071 	sltiu	v0,v1,113
    700c:	10400057 	beqz	v0,716c <insert_CM_FIFO+0x1a4>
    7010:	24020160 	li	v0,352
    7014:	24020020 	li	v0,32
    7018:	1062004e 	beq	v1,v0,7154 <insert_CM_FIFO+0x18c>
    701c:	2c620021 	sltiu	v0,v1,33
    7020:	1040009d 	beqz	v0,7298 <insert_CM_FIFO+0x2d0>
    7024:	24020040 	li	v0,64
    7028:	24020010 	li	v0,16
    702c:	10620049 	beq	v1,v0,7154 <insert_CM_FIFO+0x18c>
    7030:	24020015 	li	v0,21
    7034:	10620066 	beq	v1,v0,71d0 <insert_CM_FIFO+0x208>
    7038:	3c180005 	lui	t8,0x5
    703c:	3c020001 	lui	v0,0x1
    7040:	2442a47c 	addiu	v0,v0,-23428
    7044:	3c032000 	lui	v1,0x2000
    7048:	ac620000 	sw	v0,0(v1)
    704c:	08001c13 	j	704c <insert_CM_FIFO+0x84>
    7050:	00000000 	nop
    7054:	1062000b 	beq	v1,v0,7084 <insert_CM_FIFO+0xbc>
    7058:	2c620246 	sltiu	v0,v1,582
    705c:	10400050 	beqz	v0,71a0 <insert_CM_FIFO+0x1d8>
    7060:	24020280 	li	v0,640
    7064:	24020230 	li	v0,560
    7068:	10620006 	beq	v1,v0,7084 <insert_CM_FIFO+0xbc>
    706c:	2c620231 	sltiu	v0,v1,561
    7070:	10400081 	beqz	v0,7278 <insert_CM_FIFO+0x2b0>
    7074:	24020235 	li	v0,565
    7078:	24020210 	li	v0,528
    707c:	14620076 	bne	v1,v0,7258 <insert_CM_FIFO+0x290>
    7080:	2c620210 	sltiu	v0,v1,528
    7084:	3c180005 	lui	t8,0x5
    7088:	3c0a0005 	lui	t2,0x5
    708c:	8f07a820 	lw	a3,-22496(t8)
    7090:	25432fb4 	addiu	v1,t2,12212
    7094:	00074900 	sll	t1,a3,0x4
    7098:	00074180 	sll	t0,a3,0x6
    709c:	01091023 	subu	v0,t0,t1
    70a0:	00471023 	subu	v0,v0,a3
    70a4:	00021080 	sll	v0,v0,0x2
    70a8:	00432021 	addu	a0,v0,v1
    70ac:	00002821 	move	a1,zero
    70b0:	24060020 	li	a2,32
    70b4:	02001821 	move	v1,s0
    70b8:	8c620000 	lw	v0,0(v1)
    70bc:	24a50001 	addiu	a1,a1,1
    70c0:	ac820000 	sw	v0,0(a0)
    70c4:	24630004 	addiu	v1,v1,4
    70c8:	14a6fffb 	bne	a1,a2,70b8 <insert_CM_FIFO+0xf0>
    70cc:	24840004 	addiu	a0,a0,4
    70d0:	01091023 	subu	v0,t0,t1
    70d4:	00471023 	subu	v0,v0,a3
    70d8:	8e050080 	lw	a1,128(s0)
    70dc:	25442fb4 	addiu	a0,t2,12212
    70e0:	8e060084 	lw	a2,132(s0)
    70e4:	24e30001 	addiu	v1,a3,1
    70e8:	00021080 	sll	v0,v0,0x2
    70ec:	8e070088 	lw	a3,136(s0)
    70f0:	8e08008c 	lw	t0,140(s0)
    70f4:	8e090090 	lw	t1,144(s0)
    70f8:	8e0a0094 	lw	t2,148(s0)
    70fc:	8e0b0098 	lw	t3,152(s0)
    7100:	8e0c009c 	lw	t4,156(s0)
    7104:	8e0d00a0 	lw	t5,160(s0)
    7108:	8e0e00a4 	lw	t6,164(s0)
    710c:	8e0f00a8 	lw	t7,168(s0)
    7110:	8e1000ac 	lw	s0,172(s0)
    7114:	00441021 	addu	v0,v0,a0
    7118:	3063000f 	andi	v1,v1,0xf
    711c:	af03a820 	sw	v1,-22496(t8)
    7120:	ac450080 	sw	a1,128(v0)
    7124:	ac460084 	sw	a2,132(v0)
    7128:	ac470088 	sw	a3,136(v0)
    712c:	ac48008c 	sw	t0,140(v0)
    7130:	ac490090 	sw	t1,144(v0)
    7134:	ac4a0094 	sw	t2,148(v0)
    7138:	ac4b0098 	sw	t3,152(v0)
    713c:	ac4c009c 	sw	t4,156(v0)
    7140:	ac4d00a0 	sw	t5,160(v0)
    7144:	ac4e00a4 	sw	t6,164(v0)
    7148:	ac4f00a8 	sw	t7,168(v0)
    714c:	ac5000ac 	sw	s0,172(v0)
    7150:	ac4000b8 	sw	zero,184(v0)
    7154:	8fbf001c 	lw	ra,28(sp)
    7158:	8fb20018 	lw	s2,24(sp)
    715c:	8fb10014 	lw	s1,20(sp)
    7160:	8fb00010 	lw	s0,16(sp)
    7164:	03e00008 	jr	ra
    7168:	27bd0020 	addiu	sp,sp,32
    716c:	10620032 	beq	v1,v0,7238 <insert_CM_FIFO+0x270>
    7170:	2c620161 	sltiu	v0,v1,353
    7174:	1040002a 	beqz	v0,7220 <insert_CM_FIFO+0x258>
    7178:	24020180 	li	v0,384
    717c:	24020140 	li	v0,320
    7180:	10620012 	beq	v1,v0,71cc <insert_CM_FIFO+0x204>
    7184:	24020150 	li	v0,336
    7188:	10620010 	beq	v1,v0,71cc <insert_CM_FIFO+0x204>
    718c:	24020090 	li	v0,144
    7190:	1462ffab 	bne	v1,v0,7040 <insert_CM_FIFO+0x78>
    7194:	3c020001 	lui	v0,0x1
    7198:	08001c22 	j	7088 <insert_CM_FIFO+0xc0>
    719c:	3c180005 	lui	t8,0x5
    71a0:	1062ffb8 	beq	v1,v0,7084 <insert_CM_FIFO+0xbc>
    71a4:	2c620281 	sltiu	v0,v1,641
    71a8:	10400015 	beqz	v0,7200 <insert_CM_FIFO+0x238>
    71ac:	24020300 	li	v0,768
    71b0:	24020255 	li	v0,597
    71b4:	1062ffb3 	beq	v1,v0,7084 <insert_CM_FIFO+0xbc>
    71b8:	24020260 	li	v0,608
    71bc:	1062ffb1 	beq	v1,v0,7084 <insert_CM_FIFO+0xbc>
    71c0:	24020250 	li	v0,592
    71c4:	1462ff9e 	bne	v1,v0,7040 <insert_CM_FIFO+0x78>
    71c8:	3c020001 	lui	v0,0x1
    71cc:	3c180005 	lui	t8,0x5
    71d0:	8f03a820 	lw	v1,-22496(t8)
    71d4:	3c0a0005 	lui	t2,0x5
    71d8:	00032100 	sll	a0,v1,0x4
    71dc:	00031180 	sll	v0,v1,0x6
    71e0:	00441023 	subu	v0,v0,a0
    71e4:	00431023 	subu	v0,v0,v1
    71e8:	00021080 	sll	v0,v0,0x2
    71ec:	25432fb4 	addiu	v1,t2,12212
    71f0:	00431021 	addu	v0,v0,v1
    71f4:	ac5200b4 	sw	s2,180(v0)
    71f8:	08001c23 	j	708c <insert_CM_FIFO+0xc4>
    71fc:	ac5100b0 	sw	s1,176(v0)
    7200:	1062ffd4 	beq	v1,v0,7154 <insert_CM_FIFO+0x18c>
    7204:	24020305 	li	v0,773
    7208:	1062000b 	beq	v1,v0,7238 <insert_CM_FIFO+0x270>
    720c:	24020295 	li	v0,661
    7210:	1462ff8b 	bne	v1,v0,7040 <insert_CM_FIFO+0x78>
    7214:	3c020001 	lui	v0,0x1
    7218:	08001c55 	j	7154 <insert_CM_FIFO+0x18c>
    721c:	00000000 	nop
    7220:	1062ff98 	beq	v1,v0,7084 <insert_CM_FIFO+0xbc>
    7224:	24020190 	li	v0,400
    7228:	10620003 	beq	v1,v0,7238 <insert_CM_FIFO+0x270>
    722c:	24020170 	li	v0,368
    7230:	1462ff83 	bne	v1,v0,7040 <insert_CM_FIFO+0x78>
    7234:	3c020001 	lui	v0,0x1
    7238:	8e040084 	lw	a0,132(s0)
    723c:	0c001bd2 	jal	6f48 <search_Service>
    7240:	00000000 	nop
    7244:	2403ffff 	li	v1,-1
    7248:	1443ffe1 	bne	v0,v1,71d0 <insert_CM_FIFO+0x208>
    724c:	3c180005 	lui	t8,0x5
    7250:	08001c55 	j	7154 <insert_CM_FIFO+0x18c>
    7254:	00000000 	nop
    7258:	1440ff79 	bnez	v0,7040 <insert_CM_FIFO+0x78>
    725c:	3c020001 	lui	v0,0x1
    7260:	2462fde0 	addiu	v0,v1,-544
    7264:	2c420008 	sltiu	v0,v0,8
    7268:	1040ff75 	beqz	v0,7040 <insert_CM_FIFO+0x78>
    726c:	3c020001 	lui	v0,0x1
    7270:	08001c74 	j	71d0 <insert_CM_FIFO+0x208>
    7274:	3c180005 	lui	t8,0x5
    7278:	1062ff82 	beq	v1,v0,7084 <insert_CM_FIFO+0xbc>
    727c:	24020240 	li	v0,576
    7280:	1062ffd2 	beq	v1,v0,71cc <insert_CM_FIFO+0x204>
    7284:	24020231 	li	v0,561
    7288:	1462ff6d 	bne	v1,v0,7040 <insert_CM_FIFO+0x78>
    728c:	3c020001 	lui	v0,0x1
    7290:	08001c74 	j	71d0 <insert_CM_FIFO+0x208>
    7294:	3c180005 	lui	t8,0x5
    7298:	1062ffcc 	beq	v1,v0,71cc <insert_CM_FIFO+0x204>
    729c:	24020050 	li	v0,80
    72a0:	1062ff78 	beq	v1,v0,7084 <insert_CM_FIFO+0xbc>
    72a4:	24020025 	li	v0,37
    72a8:	1462ff65 	bne	v1,v0,7040 <insert_CM_FIFO+0x78>
    72ac:	3c020001 	lui	v0,0x1
    72b0:	08001c74 	j	71d0 <insert_CM_FIFO+0x208>
    72b4:	3c180005 	lui	t8,0x5

000072b8 <get_CM_peripheral_ID>:
    72b8:	00041100 	sll	v0,a0,0x4
    72bc:	00041980 	sll	v1,a0,0x6
    72c0:	00621823 	subu	v1,v1,v0
    72c4:	00641823 	subu	v1,v1,a0
    72c8:	3c020005 	lui	v0,0x5
    72cc:	24422fb4 	addiu	v0,v0,12212
    72d0:	00031880 	sll	v1,v1,0x2
    72d4:	00621821 	addu	v1,v1,v0
    72d8:	8c62008c 	lw	v0,140(v1)
    72dc:	03e00008 	jr	ra
    72e0:	00000000 	nop

000072e4 <get_CM_IO_service>:
    72e4:	00041900 	sll	v1,a0,0x4
    72e8:	00041180 	sll	v0,a0,0x6
    72ec:	00431023 	subu	v0,v0,v1
    72f0:	00441023 	subu	v0,v0,a0
    72f4:	3c030005 	lui	v1,0x5
    72f8:	24632fb4 	addiu	v1,v1,12212
    72fc:	00021080 	sll	v0,v0,0x2
    7300:	00431021 	addu	v0,v0,v1
    7304:	8c440084 	lw	a0,132(v0)
    7308:	24030015 	li	v1,21
    730c:	1083000b 	beq	a0,v1,733c <get_CM_IO_service+0x58>
    7310:	00000000 	nop
    7314:	24020025 	li	v0,37
    7318:	10820006 	beq	a0,v0,7334 <get_CM_IO_service+0x50>
    731c:	3c032000 	lui	v1,0x2000
    7320:	3c020001 	lui	v0,0x1
    7324:	2442a4b4 	addiu	v0,v0,-23372
    7328:	ac620000 	sw	v0,0(v1)
    732c:	08001ccb 	j	732c <get_CM_IO_service+0x48>
    7330:	00000000 	nop
    7334:	03e00008 	jr	ra
    7338:	24020001 	li	v0,1
    733c:	03e00008 	jr	ra
    7340:	00001021 	move	v0,zero

00007344 <search_Target>:
    7344:	3c020005 	lui	v0,0x5
    7348:	8c42a820 	lw	v0,-22496(v0)
    734c:	00000000 	nop
    7350:	14400002 	bnez	v0,735c <search_Target+0x18>
    7354:	2447ffff 	addiu	a3,v0,-1
    7358:	2407000f 	li	a3,15
    735c:	00004021 	move	t0,zero
    7360:	3c090005 	lui	t1,0x5
    7364:	00071100 	sll	v0,a3,0x4
    7368:	00071980 	sll	v1,a3,0x6
    736c:	00621823 	subu	v1,v1,v0
    7370:	00671823 	subu	v1,v1,a3
    7374:	00031880 	sll	v1,v1,0x2
    7378:	25252fb4 	addiu	a1,t1,12212
    737c:	00651021 	addu	v0,v1,a1
    7380:	9446007e 	lhu	a2,126(v0)
    7384:	00000000 	nop
    7388:	10c40015 	beq	a2,a0,73e0 <search_Target+0x9c>
    738c:	00000000 	nop
    7390:	24620078 	addiu	v0,v1,120
    7394:	00451821 	addu	v1,v0,a1
    7398:	2405001e 	li	a1,30
    739c:	10c00008 	beqz	a2,73c0 <search_Target+0x7c>
    73a0:	24a5ffff 	addiu	a1,a1,-1
    73a4:	94660002 	lhu	a2,2(v1)
    73a8:	00000000 	nop
    73ac:	10c4000c 	beq	a2,a0,73e0 <search_Target+0x9c>
    73b0:	2463fffc 	addiu	v1,v1,-4
    73b4:	2402ffff 	li	v0,-1
    73b8:	14a2fff8 	bne	a1,v0,739c <search_Target+0x58>
    73bc:	00000000 	nop
    73c0:	24e7ffff 	addiu	a3,a3,-1
    73c4:	04e00008 	bltz	a3,73e8 <search_Target+0xa4>
    73c8:	00000000 	nop
    73cc:	25080001 	addiu	t0,t0,1
    73d0:	24020010 	li	v0,16
    73d4:	1502ffe3 	bne	t0,v0,7364 <search_Target+0x20>
    73d8:	00000000 	nop
    73dc:	2407ffff 	li	a3,-1
    73e0:	03e00008 	jr	ra
    73e4:	00e01021 	move	v0,a3
    73e8:	08001cf3 	j	73cc <search_Target+0x88>
    73ec:	2407000f 	li	a3,15

000073f0 <initialize_CM_FIFO>:
    73f0:	3c020005 	lui	v0,0x5
    73f4:	3c030005 	lui	v1,0x5
    73f8:	24423038 	addiu	v0,v0,12344
    73fc:	24633bf8 	addiu	v1,v1,15352
    7400:	ac400000 	sw	zero,0(v0)
    7404:	244200bc 	addiu	v0,v0,188
    7408:	1443fffd 	bne	v0,v1,7400 <initialize_CM_FIFO+0x10>
    740c:	00000000 	nop
    7410:	03e00008 	jr	ra
    7414:	00000000 	nop

00007418 <print_CM_FIFO>:
    7418:	27bdffc8 	addiu	sp,sp,-56
    741c:	3c020001 	lui	v0,0x1
    7420:	afb7002c 	sw	s7,44(sp)
    7424:	3c032000 	lui	v1,0x2000
    7428:	2457a160 	addiu	s7,v0,-24224
    742c:	afb60028 	sw	s6,40(sp)
    7430:	afb50024 	sw	s5,36(sp)
    7434:	afb40020 	sw	s4,32(sp)
    7438:	afb3001c 	sw	s3,28(sp)
    743c:	afb20018 	sw	s2,24(sp)
    7440:	afb10014 	sw	s1,20(sp)
    7444:	afb00010 	sw	s0,16(sp)
    7448:	3c020001 	lui	v0,0x1
    744c:	afbf0030 	sw	ra,48(sp)
    7450:	ac770000 	sw	s7,0(v1)
    7454:	3c030001 	lui	v1,0x1
    7458:	2456a66c 	addiu	s6,v0,-22932
    745c:	2475a4d4 	addiu	s5,v1,-23340
    7460:	3c020001 	lui	v0,0x1
    7464:	3c030005 	lui	v1,0x5
    7468:	2454a4e0 	addiu	s4,v0,-23328
    746c:	24723038 	addiu	s2,v1,12344
    7470:	00008821 	move	s1,zero
    7474:	3c102000 	lui	s0,0x2000
    7478:	24130010 	li	s3,16
    747c:	02202021 	move	a0,s1
    7480:	ae160000 	sw	s6,0(s0)
    7484:	0c000939 	jal	24e4 <itoh>
    7488:	00000000 	nop
    748c:	ae020000 	sw	v0,0(s0)
    7490:	ae150000 	sw	s5,0(s0)
    7494:	8e440000 	lw	a0,0(s2)
    7498:	0c000939 	jal	24e4 <itoh>
    749c:	26310001 	addiu	s1,s1,1
    74a0:	ae020000 	sw	v0,0(s0)
    74a4:	ae140000 	sw	s4,0(s0)
    74a8:	8e44fff8 	lw	a0,-8(s2)
    74ac:	0c000939 	jal	24e4 <itoh>
    74b0:	265200bc 	addiu	s2,s2,188
    74b4:	ae020000 	sw	v0,0(s0)
    74b8:	ae170000 	sw	s7,0(s0)
    74bc:	1633fff0 	bne	s1,s3,7480 <print_CM_FIFO+0x68>
    74c0:	02202021 	move	a0,s1
    74c4:	8fbf0030 	lw	ra,48(sp)
    74c8:	8fb7002c 	lw	s7,44(sp)
    74cc:	8fb60028 	lw	s6,40(sp)
    74d0:	8fb50024 	lw	s5,36(sp)
    74d4:	8fb40020 	lw	s4,32(sp)
    74d8:	8fb3001c 	lw	s3,28(sp)
    74dc:	8fb20018 	lw	s2,24(sp)
    74e0:	8fb10014 	lw	s1,20(sp)
    74e4:	8fb00010 	lw	s0,16(sp)
    74e8:	03e00008 	jr	ra
    74ec:	27bd0038 	addiu	sp,sp,56

000074f0 <resend_control_message>:
    74f0:	27bdffc8 	addiu	sp,sp,-56
    74f4:	afa40038 	sw	a0,56(sp)
    74f8:	00e02021 	move	a0,a3
    74fc:	afbf0034 	sw	ra,52(sp)
    7500:	afbe0030 	sw	s8,48(sp)
    7504:	afb7002c 	sw	s7,44(sp)
    7508:	afb60028 	sw	s6,40(sp)
    750c:	afb50024 	sw	s5,36(sp)
    7510:	afb40020 	sw	s4,32(sp)
    7514:	afb3001c 	sw	s3,28(sp)
    7518:	afb20018 	sw	s2,24(sp)
    751c:	afb10014 	sw	s1,20(sp)
    7520:	afb00010 	sw	s0,16(sp)
    7524:	00e0a821 	move	s5,a3
    7528:	00a0f021 	move	s8,a1
    752c:	0c001cd1 	jal	7344 <search_Target>
    7530:	00c0b021 	move	s6,a2
    7534:	00402021 	move	a0,v0
    7538:	00408821 	move	s1,v0
    753c:	0002a100 	sll	s4,v0,0x4
    7540:	00029980 	sll	s3,v0,0x6
    7544:	3c020001 	lui	v0,0x1
    7548:	3c102000 	lui	s0,0x2000
    754c:	2442a4ec 	addiu	v0,v0,-23316
    7550:	ae020000 	sw	v0,0(s0)
    7554:	0c000939 	jal	24e4 <itoh>
    7558:	3c170005 	lui	s7,0x5
    755c:	02741823 	subu	v1,s3,s4
    7560:	00711823 	subu	v1,v1,s1
    7564:	00031880 	sll	v1,v1,0x2
    7568:	ae020000 	sw	v0,0(s0)
    756c:	26e42fb4 	addiu	a0,s7,12212
    7570:	3c020001 	lui	v0,0x1
    7574:	00649021 	addu	s2,v1,a0
    7578:	2442a160 	addiu	v0,v0,-24224
    757c:	2403ffff 	li	v1,-1
    7580:	ae020000 	sw	v0,0(s0)
    7584:	12230034 	beq	s1,v1,7658 <resend_control_message+0x168>
    7588:	24020025 	li	v0,37
    758c:	8e430084 	lw	v1,132(s2)
    7590:	02c03021 	move	a2,s6
    7594:	02a03821 	move	a3,s5
    7598:	8fa40038 	lw	a0,56(sp)
    759c:	10620018 	beq	v1,v0,7600 <resend_control_message+0x110>
    75a0:	03c02821 	move	a1,s8
    75a4:	24020015 	li	v0,21
    75a8:	10620016 	beq	v1,v0,7604 <resend_control_message+0x114>
    75ac:	3c020001 	lui	v0,0x1
    75b0:	8e4500b0 	lw	a1,176(s2)
    75b4:	8e4600b4 	lw	a2,180(s2)
    75b8:	0c000c01 	jal	3004 <send_packet>
    75bc:	02402021 	move	a0,s2
    75c0:	24020001 	li	v0,1
    75c4:	24030001 	li	v1,1
    75c8:	ae4200b8 	sw	v0,184(s2)
    75cc:	8fbf0034 	lw	ra,52(sp)
    75d0:	8fbe0030 	lw	s8,48(sp)
    75d4:	8fb7002c 	lw	s7,44(sp)
    75d8:	8fb60028 	lw	s6,40(sp)
    75dc:	8fb50024 	lw	s5,36(sp)
    75e0:	8fb40020 	lw	s4,32(sp)
    75e4:	8fb3001c 	lw	s3,28(sp)
    75e8:	8fb20018 	lw	s2,24(sp)
    75ec:	8fb10014 	lw	s1,20(sp)
    75f0:	8fb00010 	lw	s0,16(sp)
    75f4:	00601021 	move	v0,v1
    75f8:	03e00008 	jr	ra
    75fc:	27bd0038 	addiu	sp,sp,56
    7600:	3c020001 	lui	v0,0x1
    7604:	3c032000 	lui	v1,0x2000
    7608:	2442a4fc 	addiu	v0,v0,-23300
    760c:	02748023 	subu	s0,s3,s4
    7610:	ac620000 	sw	v0,0(v1)
    7614:	0c001a94 	jal	6a50 <adjust_backtrack_IO>
    7618:	02118023 	subu	s0,s0,s1
    761c:	00108080 	sll	s0,s0,0x2
    7620:	26e22fb4 	addiu	v0,s7,12212
    7624:	02028021 	addu	s0,s0,v0
    7628:	8e050088 	lw	a1,136(s0)
    762c:	8e04008c 	lw	a0,140(s0)
    7630:	0c00240d 	jal	9034 <open_wrapper_IO_SZ>
    7634:	00000000 	nop
    7638:	8e0500b0 	lw	a1,176(s0)
    763c:	8e0600b4 	lw	a2,180(s0)
    7640:	0c000c01 	jal	3004 <send_packet>
    7644:	02002021 	move	a0,s0
    7648:	24020001 	li	v0,1
    764c:	24030001 	li	v1,1
    7650:	08001d73 	j	75cc <resend_control_message+0xdc>
    7654:	ae0200b8 	sw	v0,184(s0)
    7658:	3c020001 	lui	v0,0x1
    765c:	2442a50c 	addiu	v0,v0,-23284
    7660:	00001821 	move	v1,zero
    7664:	ae020000 	sw	v0,0(s0)
    7668:	08001d73 	j	75cc <resend_control_message+0xdc>
    766c:	00000000 	nop

00007670 <le64toh>:
    7670:	00043c02 	srl	a3,a0,0x10
    7674:	30e700ff 	andi	a3,a3,0xff
    7678:	00041e02 	srl	v1,a0,0x18
    767c:	00074602 	srl	t0,a3,0x18
    7680:	00047200 	sll	t6,a0,0x8
    7684:	00073a00 	sll	a3,a3,0x8
    7688:	00054e02 	srl	t1,a1,0x18
    768c:	00003021 	move	a2,zero
    7690:	306300ff 	andi	v1,v1,0xff
    7694:	00671825 	or	v1,v1,a3
    7698:	01c94825 	or	t1,t6,t1
    769c:	00053a02 	srl	a3,a1,0x8
    76a0:	00047600 	sll	t6,a0,0x18
    76a4:	00063200 	sll	a2,a2,0x8
    76a8:	01063025 	or	a2,t0,a2
    76ac:	00045a02 	srl	t3,a0,0x8
    76b0:	312900ff 	andi	t1,t1,0xff
    76b4:	01c73825 	or	a3,t6,a3
    76b8:	00001021 	move	v0,zero
    76bc:	01204021 	move	t0,t1
    76c0:	316b00ff 	andi	t3,t3,0xff
    76c4:	00461025 	or	v0,v0,a2
    76c8:	00004821 	move	t1,zero
    76cc:	30e700ff 	andi	a3,a3,0xff
    76d0:	00005021 	move	t2,zero
    76d4:	00073400 	sll	a2,a3,0x10
    76d8:	00481025 	or	v0,v0,t0
    76dc:	00691825 	or	v1,v1,t1
    76e0:	000b4402 	srl	t0,t3,0x10
    76e4:	00003821 	move	a3,zero
    76e8:	000a5400 	sll	t2,t2,0x10
    76ec:	308d00ff 	andi	t5,a0,0xff
    76f0:	00671825 	or	v1,v1,a3
    76f4:	010a5025 	or	t2,t0,t2
    76f8:	00053c02 	srl	a3,a1,0x10
    76fc:	00044400 	sll	t0,a0,0x10
    7700:	00006021 	move	t4,zero
    7704:	00461025 	or	v0,v0,a2
    7708:	01073825 	or	a3,t0,a3
    770c:	000d3202 	srl	a2,t5,0x8
    7710:	000c6600 	sll	t4,t4,0x18
    7714:	00cc6025 	or	t4,a2,t4
    7718:	000d6e00 	sll	t5,t5,0x18
    771c:	30e700ff 	andi	a3,a3,0xff
    7720:	000b5c00 	sll	t3,t3,0x10
    7724:	00073200 	sll	a2,a3,0x8
    7728:	014c5025 	or	t2,t2,t4
    772c:	016d5825 	or	t3,t3,t5
    7730:	30a500ff 	andi	a1,a1,0xff
    7734:	00003821 	move	a3,zero
    7738:	00052600 	sll	a0,a1,0x18
    773c:	01465025 	or	t2,t2,a2
    7740:	00002821 	move	a1,zero
    7744:	01675825 	or	t3,t3,a3
    7748:	01445025 	or	t2,t2,a0
    774c:	01655825 	or	t3,t3,a1
    7750:	004a1025 	or	v0,v0,t2
    7754:	03e00008 	jr	ra
    7758:	006b1825 	or	v1,v1,t3

0000775c <siphash24>:
    775c:	27bdfe40 	addiu	sp,sp,-448
    7760:	afbf01bc 	sw	ra,444(sp)
    7764:	afbe01b8 	sw	s8,440(sp)
    7768:	afb701b4 	sw	s7,436(sp)
    776c:	afb601b0 	sw	s6,432(sp)
    7770:	afb501ac 	sw	s5,428(sp)
    7774:	afb401a8 	sw	s4,424(sp)
    7778:	afb301a4 	sw	s3,420(sp)
    777c:	afb201a0 	sw	s2,416(sp)
    7780:	afb1019c 	sw	s1,412(sp)
    7784:	afb00198 	sw	s0,408(sp)
    7788:	00801021 	move	v0,a0
    778c:	afa501c4 	sw	a1,452(sp)
    7790:	8cc40000 	lw	a0,0(a2)
    7794:	8cc50004 	lw	a1,4(a2)
    7798:	00c09021 	move	s2,a2
    779c:	0c001d9c 	jal	7670 <le64toh>
    77a0:	0040f021 	move	s8,v0
    77a4:	8e45000c 	lw	a1,12(s2)
    77a8:	8e440008 	lw	a0,8(s2)
    77ac:	00408021 	move	s0,v0
    77b0:	00608821 	move	s1,v1
    77b4:	00001021 	move	v0,zero
    77b8:	00001821 	move	v1,zero
    77bc:	afa30024 	sw	v1,36(sp)
    77c0:	0c001d9c 	jal	7670 <le64toh>
    77c4:	afa20020 	sw	v0,32(sp)
    77c8:	8fa401c4 	lw	a0,452(sp)
    77cc:	3c057073 	lui	a1,0x7073
    77d0:	2c860008 	sltiu	a2,a0,8
    77d4:	3c04736f 	lui	a0,0x736f
    77d8:	34846d65 	ori	a0,a0,0x6d65
    77dc:	0204b026 	xor	s6,s0,a0
    77e0:	34a56575 	ori	a1,a1,0x6575
    77e4:	3c04646f 	lui	a0,0x646f
    77e8:	34847261 	ori	a0,a0,0x7261
    77ec:	0225b826 	xor	s7,s1,a1
    77f0:	3c056e64 	lui	a1,0x6e64
    77f4:	34a56f6d 	ori	a1,a1,0x6f6d
    77f8:	00449026 	xor	s2,v0,a0
    77fc:	3c046c79 	lui	a0,0x6c79
    7800:	00659826 	xor	s3,v1,a1
    7804:	34846765 	ori	a0,a0,0x6765
    7808:	3c056e65 	lui	a1,0x6e65
    780c:	02042026 	xor	a0,s0,a0
    7810:	34a57261 	ori	a1,a1,0x7261
    7814:	afa40018 	sw	a0,24(sp)
    7818:	02258026 	xor	s0,s1,a1
    781c:	3c047465 	lui	a0,0x7465
    7820:	3c057974 	lui	a1,0x7974
    7824:	00006821 	move	t5,zero
    7828:	00006021 	move	t4,zero
    782c:	34846462 	ori	a0,a0,0x6462
    7830:	34a56573 	ori	a1,a1,0x6573
    7834:	afb0001c 	sw	s0,28(sp)
    7838:	afad002c 	sw	t5,44(sp)
    783c:	afac0028 	sw	t4,40(sp)
    7840:	afad0034 	sw	t5,52(sp)
    7844:	afac0030 	sw	t4,48(sp)
    7848:	afad003c 	sw	t5,60(sp)
    784c:	afac0038 	sw	t4,56(sp)
    7850:	afad0044 	sw	t5,68(sp)
    7854:	afac0040 	sw	t4,64(sp)
    7858:	afad004c 	sw	t5,76(sp)
    785c:	afac0048 	sw	t4,72(sp)
    7860:	afad0054 	sw	t5,84(sp)
    7864:	afac0050 	sw	t4,80(sp)
    7868:	afad005c 	sw	t5,92(sp)
    786c:	afac0058 	sw	t4,88(sp)
    7870:	afad0064 	sw	t5,100(sp)
    7874:	afac0060 	sw	t4,96(sp)
    7878:	afad006c 	sw	t5,108(sp)
    787c:	afac0068 	sw	t4,104(sp)
    7880:	afad0074 	sw	t5,116(sp)
    7884:	afac0070 	sw	t4,112(sp)
    7888:	afad007c 	sw	t5,124(sp)
    788c:	afac0078 	sw	t4,120(sp)
    7890:	afad0084 	sw	t5,132(sp)
    7894:	afac0080 	sw	t4,128(sp)
    7898:	afad008c 	sw	t5,140(sp)
    789c:	afac0088 	sw	t4,136(sp)
    78a0:	afad0094 	sw	t5,148(sp)
    78a4:	afac0090 	sw	t4,144(sp)
    78a8:	afad009c 	sw	t5,156(sp)
    78ac:	afac0098 	sw	t4,152(sp)
    78b0:	0044a026 	xor	s4,v0,a0
    78b4:	afad00a4 	sw	t5,164(sp)
    78b8:	0065a826 	xor	s5,v1,a1
    78bc:	afac00a0 	sw	t4,160(sp)
    78c0:	afad00ac 	sw	t5,172(sp)
    78c4:	afac00a8 	sw	t4,168(sp)
    78c8:	afad00b4 	sw	t5,180(sp)
    78cc:	afac00b0 	sw	t4,176(sp)
    78d0:	afad00bc 	sw	t5,188(sp)
    78d4:	afac00b8 	sw	t4,184(sp)
    78d8:	afad00c4 	sw	t5,196(sp)
    78dc:	afac00c0 	sw	t4,192(sp)
    78e0:	afad00cc 	sw	t5,204(sp)
    78e4:	afac00c8 	sw	t4,200(sp)
    78e8:	afad00d4 	sw	t5,212(sp)
    78ec:	afac00d0 	sw	t4,208(sp)
    78f0:	afad00dc 	sw	t5,220(sp)
    78f4:	afac00d8 	sw	t4,216(sp)
    78f8:	afad00e4 	sw	t5,228(sp)
    78fc:	afac00e0 	sw	t4,224(sp)
    7900:	afad00ec 	sw	t5,236(sp)
    7904:	afac00e8 	sw	t4,232(sp)
    7908:	afad00f4 	sw	t5,244(sp)
    790c:	afac00f0 	sw	t4,240(sp)
    7910:	afad00fc 	sw	t5,252(sp)
    7914:	afac00f8 	sw	t4,248(sp)
    7918:	afad0104 	sw	t5,260(sp)
    791c:	afac0100 	sw	t4,256(sp)
    7920:	afad010c 	sw	t5,268(sp)
    7924:	afac0108 	sw	t4,264(sp)
    7928:	afad0114 	sw	t5,276(sp)
    792c:	afac0110 	sw	t4,272(sp)
    7930:	afad011c 	sw	t5,284(sp)
    7934:	afac0118 	sw	t4,280(sp)
    7938:	afad0124 	sw	t5,292(sp)
    793c:	afac0120 	sw	t4,288(sp)
    7940:	afad012c 	sw	t5,300(sp)
    7944:	afac0128 	sw	t4,296(sp)
    7948:	afad0134 	sw	t5,308(sp)
    794c:	afac0130 	sw	t4,304(sp)
    7950:	afad013c 	sw	t5,316(sp)
    7954:	afac0138 	sw	t4,312(sp)
    7958:	afad0144 	sw	t5,324(sp)
    795c:	afac0140 	sw	t4,320(sp)
    7960:	afad014c 	sw	t5,332(sp)
    7964:	afac0148 	sw	t4,328(sp)
    7968:	afad0154 	sw	t5,340(sp)
    796c:	afac0150 	sw	t4,336(sp)
    7970:	afad015c 	sw	t5,348(sp)
    7974:	afac0158 	sw	t4,344(sp)
    7978:	afad0164 	sw	t5,356(sp)
    797c:	afac0160 	sw	t4,352(sp)
    7980:	afad016c 	sw	t5,364(sp)
    7984:	afac0168 	sw	t4,360(sp)
    7988:	afad0174 	sw	t5,372(sp)
    798c:	afac0170 	sw	t4,368(sp)
    7990:	afad017c 	sw	t5,380(sp)
    7994:	afac0178 	sw	t4,376(sp)
    7998:	afad0184 	sw	t5,388(sp)
    799c:	afac0180 	sw	t4,384(sp)
    79a0:	afad018c 	sw	t5,396(sp)
    79a4:	afac0188 	sw	t4,392(sp)
    79a8:	afad0194 	sw	t5,404(sp)
    79ac:	14c00289 	bnez	a2,83d4 <siphash24+0xc78>
    79b0:	afac0190 	sw	t4,400(sp)
    79b4:	8fb101c4 	lw	s1,452(sp)
    79b8:	8fc50004 	lw	a1,4(s8)
    79bc:	8fc40000 	lw	a0,0(s8)
    79c0:	0c001d9c 	jal	7670 <le64toh>
    79c4:	2631fff8 	addiu	s1,s1,-8
    79c8:	00123340 	sll	a2,s2,0xd
    79cc:	8fad001c 	lw	t5,28(sp)
    79d0:	00133cc2 	srl	a3,s3,0x13
    79d4:	00752826 	xor	a1,v1,s5
    79d8:	00e63825 	or	a3,a3,a2
    79dc:	8fa60018 	lw	a2,24(sp)
    79e0:	00ad4821 	addu	t1,a1,t5
    79e4:	02f35821 	addu	t3,s7,s3
    79e8:	00542026 	xor	a0,v0,s4
    79ec:	00137340 	sll	t6,s3,0xd
    79f0:	00126cc2 	srl	t5,s2,0x13
    79f4:	02d25021 	addu	t2,s6,s2
    79f8:	0177602b 	sltu	t4,t3,s7
    79fc:	afa70090 	sw	a3,144(sp)
    7a00:	00864021 	addu	t0,a0,a2
    7a04:	01ae6825 	or	t5,t5,t6
    7a08:	00043400 	sll	a2,a0,0x10
    7a0c:	00053c02 	srl	a3,a1,0x10
    7a10:	018a6021 	addu	t4,t4,t2
    7a14:	afad0094 	sw	t5,148(sp)
    7a18:	00e63825 	or	a3,a3,a2
    7a1c:	00056c00 	sll	t5,a1,0x10
    7a20:	00042402 	srl	a0,a0,0x10
    7a24:	afa70098 	sw	a3,152(sp)
    7a28:	afac005c 	sw	t4,92(sp)
    7a2c:	01803821 	move	a3,t4
    7a30:	008d2025 	or	a0,a0,t5
    7a34:	8fac0090 	lw	t4,144(sp)
    7a38:	afa4009c 	sw	a0,156(sp)
    7a3c:	00ec3026 	xor	a2,a3,t4
    7a40:	0125782b 	sltu	t7,t1,a1
    7a44:	8faa0098 	lw	t2,152(sp)
    7a48:	8fa50094 	lw	a1,148(sp)
    7a4c:	8fac009c 	lw	t4,156(sp)
    7a50:	01e84021 	addu	t0,t7,t0
    7a54:	01653826 	xor	a3,t3,a1
    7a58:	010a2026 	xor	a0,t0,t2
    7a5c:	012c2826 	xor	a1,t1,t4
    7a60:	01066021 	addu	t4,t0,a2
    7a64:	8fa8005c 	lw	t0,92(sp)
    7a68:	01276821 	addu	t5,t1,a3
    7a6c:	afab0058 	sw	t3,88(sp)
    7a70:	01a9702b 	sltu	t6,t5,t1
    7a74:	00a85821 	addu	t3,a1,t0
    7a78:	00074bc2 	srl	t1,a3,0xf
    7a7c:	00064440 	sll	t0,a2,0x11
    7a80:	01284825 	or	t1,t1,t0
    7a84:	00077c40 	sll	t7,a3,0x11
    7a88:	8fa70058 	lw	a3,88(sp)
    7a8c:	afa900a0 	sw	t1,160(sp)
    7a90:	00044540 	sll	t0,a0,0x15
    7a94:	00054ac2 	srl	t1,a1,0xb
    7a98:	01284825 	or	t1,t1,t0
    7a9c:	00875021 	addu	t2,a0,a3
    7aa0:	00054540 	sll	t0,a1,0x15
    7aa4:	000633c2 	srl	a2,a2,0xf
    7aa8:	000422c2 	srl	a0,a0,0xb
    7aac:	0165802b 	sltu	s0,t3,a1
    7ab0:	00cf3025 	or	a2,a2,t7
    7ab4:	8fa500a0 	lw	a1,160(sp)
    7ab8:	00882025 	or	a0,a0,t0
    7abc:	01cc7021 	addu	t6,t6,t4
    7ac0:	afa600a4 	sw	a2,164(sp)
    7ac4:	afa400ac 	sw	a0,172(sp)
    7ac8:	01c53026 	xor	a2,t6,a1
    7acc:	8fac00ac 	lw	t4,172(sp)
    7ad0:	8fa500a4 	lw	a1,164(sp)
    7ad4:	020a5021 	addu	t2,s0,t2
    7ad8:	afae0024 	sw	t6,36(sp)
    7adc:	01a53826 	xor	a3,t5,a1
    7ae0:	01492026 	xor	a0,t2,t1
    7ae4:	016c2826 	xor	a1,t3,t4
    7ae8:	01466021 	addu	t4,t2,a2
    7aec:	8faa0024 	lw	t2,36(sp)
    7af0:	afad0020 	sw	t5,32(sp)
    7af4:	01676821 	addu	t5,t3,a3
    7af8:	01ab702b 	sltu	t6,t5,t3
    7afc:	afa900a8 	sw	t1,168(sp)
    7b00:	00075cc2 	srl	t3,a3,0x13
    7b04:	00aa4821 	addu	t1,a1,t2
    7b08:	00065340 	sll	t2,a2,0xd
    7b0c:	016a5825 	or	t3,t3,t2
    7b10:	afab00b0 	sw	t3,176(sp)
    7b14:	00075340 	sll	t2,a3,0xd
    7b18:	000634c2 	srl	a2,a2,0x13
    7b1c:	00ca3025 	or	a2,a2,t2
    7b20:	8faa00b0 	lw	t2,176(sp)
    7b24:	01cc7021 	addu	t6,t6,t4
    7b28:	afa600b4 	sw	a2,180(sp)
    7b2c:	8fa70020 	lw	a3,32(sp)
    7b30:	01ca3026 	xor	a2,t6,t2
    7b34:	8faa00b4 	lw	t2,180(sp)
    7b38:	0125582b 	sltu	t3,t1,a1
    7b3c:	00874021 	addu	t0,a0,a3
    7b40:	00057c00 	sll	t7,a1,0x10
    7b44:	01aa3826 	xor	a3,t5,t2
    7b48:	00045400 	sll	t2,a0,0x10
    7b4c:	00042402 	srl	a0,a0,0x10
    7b50:	01684021 	addu	t0,t3,t0
    7b54:	008f2025 	or	a0,a0,t7
    7b58:	00055c02 	srl	t3,a1,0x10
    7b5c:	016a5825 	or	t3,t3,t2
    7b60:	afa400bc 	sw	a0,188(sp)
    7b64:	afab00b8 	sw	t3,184(sp)
    7b68:	afad0050 	sw	t5,80(sp)
    7b6c:	8fad00bc 	lw	t5,188(sp)
    7b70:	8fac00b8 	lw	t4,184(sp)
    7b74:	012d2826 	xor	a1,t1,t5
    7b78:	000783c2 	srl	s0,a3,0xf
    7b7c:	00066c40 	sll	t5,a2,0x11
    7b80:	01275821 	addu	t3,t1,a3
    7b84:	010c2026 	xor	a0,t0,t4
    7b88:	020d8025 	or	s0,s0,t5
    7b8c:	00046540 	sll	t4,a0,0x15
    7b90:	afae0054 	sw	t6,84(sp)
    7b94:	0169782b 	sltu	t7,t3,t1
    7b98:	afb000c0 	sw	s0,192(sp)
    7b9c:	00ae4821 	addu	t1,a1,t6
    7ba0:	00076c40 	sll	t5,a3,0x11
    7ba4:	000572c2 	srl	t6,a1,0xb
    7ba8:	8fa70050 	lw	a3,80(sp)
    7bac:	01cc7025 	or	t6,t6,t4
    7bb0:	01065021 	addu	t2,t0,a2
    7bb4:	afae00c8 	sw	t6,200(sp)
    7bb8:	00874021 	addu	t0,a0,a3
    7bbc:	00057540 	sll	t6,a1,0x15
    7bc0:	000422c2 	srl	a0,a0,0xb
    7bc4:	000633c2 	srl	a2,a2,0xf
    7bc8:	008e2025 	or	a0,a0,t6
    7bcc:	00cd3025 	or	a2,a2,t5
    7bd0:	afa400cc 	sw	a0,204(sp)
    7bd4:	0125602b 	sltu	t4,t1,a1
    7bd8:	afa600c4 	sw	a2,196(sp)
    7bdc:	01669826 	xor	s3,t3,a2
    7be0:	8fa700cc 	lw	a3,204(sp)
    7be4:	8fa600c8 	lw	a2,200(sp)
    7be8:	01ea7821 	addu	t7,t7,t2
    7bec:	01884021 	addu	t0,t4,t0
    7bf0:	2e250008 	sltiu	a1,s1,8
    7bf4:	afaf001c 	sw	t7,28(sp)
    7bf8:	27de0008 	addiu	s8,s8,8
    7bfc:	afab0018 	sw	t3,24(sp)
    7c00:	01f09026 	xor	s2,t7,s0
    7c04:	0106a026 	xor	s4,t0,a2
    7c08:	0127a826 	xor	s5,t1,a3
    7c0c:	0048b026 	xor	s6,v0,t0
    7c10:	10a0ff69 	beqz	a1,79b8 <siphash24+0x25c>
    7c14:	0069b826 	xor	s7,v1,t1
    7c18:	00006821 	move	t5,zero
    7c1c:	00006021 	move	t4,zero
    7c20:	afad0014 	sw	t5,20(sp)
    7c24:	afac0010 	sw	t4,16(sp)
    7c28:	10a00012 	beqz	a1,7c74 <siphash24+0x518>
    7c2c:	27a60010 	addiu	a2,sp,16
    7c30:	3c030001 	lui	v1,0x1
    7c34:	00111080 	sll	v0,s1,0x2
    7c38:	2463a534 	addiu	v1,v1,-23244
    7c3c:	00431021 	addu	v0,v0,v1
    7c40:	8c440000 	lw	a0,0(v0)
    7c44:	00000000 	nop
    7c48:	00800008 	jr	a0
    7c4c:	00000000 	nop
    7c50:	93c20002 	lbu	v0,2(s8)
    7c54:	00000000 	nop
    7c58:	a0c20002 	sb	v0,2(a2)
    7c5c:	93c20001 	lbu	v0,1(s8)
    7c60:	00000000 	nop
    7c64:	a0c20001 	sb	v0,1(a2)
    7c68:	93c20000 	lbu	v0,0(s8)
    7c6c:	00000000 	nop
    7c70:	a0c20000 	sb	v0,0(a2)
    7c74:	8fb101c4 	lw	s1,452(sp)
    7c78:	8fa50014 	lw	a1,20(sp)
    7c7c:	8fa40010 	lw	a0,16(sp)
    7c80:	0c001d9c 	jal	7670 <le64toh>
    7c84:	00118600 	sll	s0,s1,0x18
    7c88:	02028025 	or	s0,s0,v0
    7c8c:	8fa40018 	lw	a0,24(sp)
    7c90:	02141026 	xor	v0,s0,s4
    7c94:	00008821 	move	s1,zero
    7c98:	8fad001c 	lw	t5,28(sp)
    7c9c:	00445021 	addu	t2,v0,a0
    7ca0:	02238825 	or	s1,s1,v1
    7ca4:	00122340 	sll	a0,s2,0xd
    7ca8:	00132cc2 	srl	a1,s3,0x13
    7cac:	02351826 	xor	v1,s1,s5
    7cb0:	00a42825 	or	a1,a1,a0
    7cb4:	02f33821 	addu	a3,s7,s3
    7cb8:	006d5821 	addu	t3,v1,t5
    7cbc:	afa500d0 	sw	a1,208(sp)
    7cc0:	00136b40 	sll	t5,s3,0xd
    7cc4:	00022400 	sll	a0,v0,0x10
    7cc8:	00122cc2 	srl	a1,s2,0x13
    7ccc:	00034402 	srl	t0,v1,0x10
    7cd0:	02d23021 	addu	a2,s6,s2
    7cd4:	00f7602b 	sltu	t4,a3,s7
    7cd8:	00ad2825 	or	a1,a1,t5
    7cdc:	01044025 	or	t0,t0,a0
    7ce0:	01866021 	addu	t4,t4,a2
    7ce4:	afa500d4 	sw	a1,212(sp)
    7ce8:	afa800d8 	sw	t0,216(sp)
    7cec:	00021402 	srl	v0,v0,0x10
    7cf0:	00034400 	sll	t0,v1,0x10
    7cf4:	afac008c 	sw	t4,140(sp)
    7cf8:	8fad00d4 	lw	t5,212(sp)
    7cfc:	01802821 	move	a1,t4
    7d00:	00481025 	or	v0,v0,t0
    7d04:	8fac00d0 	lw	t4,208(sp)
    7d08:	afa200dc 	sw	v0,220(sp)
    7d0c:	00ac2026 	xor	a0,a1,t4
    7d10:	afa70088 	sw	a3,136(sp)
    7d14:	00ed2826 	xor	a1,a3,t5
    7d18:	8fa600d8 	lw	a2,216(sp)
    7d1c:	8fa700dc 	lw	a3,220(sp)
    7d20:	0163482b 	sltu	t1,t3,v1
    7d24:	012a4821 	addu	t1,t1,t2
    7d28:	8fac0088 	lw	t4,136(sp)
    7d2c:	8faa008c 	lw	t2,140(sp)
    7d30:	01671826 	xor	v1,t3,a3
    7d34:	01261026 	xor	v0,t1,a2
    7d38:	01653821 	addu	a3,t3,a1
    7d3c:	01243021 	addu	a2,t1,a0
    7d40:	004c4021 	addu	t0,v0,t4
    7d44:	006a4821 	addu	t1,v1,t2
    7d48:	000362c2 	srl	t4,v1,0xb
    7d4c:	00025540 	sll	t2,v0,0x15
    7d50:	00eb682b 	sltu	t5,a3,t3
    7d54:	018a6025 	or	t4,t4,t2
    7d58:	00045c40 	sll	t3,a0,0x11
    7d5c:	00055440 	sll	t2,a1,0x11
    7d60:	000423c2 	srl	a0,a0,0xf
    7d64:	008a2025 	or	a0,a0,t2
    7d68:	000573c2 	srl	t6,a1,0xf
    7d6c:	01cb7025 	or	t6,t6,t3
    7d70:	afa400e4 	sw	a0,228(sp)
    7d74:	00035d40 	sll	t3,v1,0x15
    7d78:	000212c2 	srl	v0,v0,0xb
    7d7c:	0123782b 	sltu	t7,t1,v1
    7d80:	004b1025 	or	v0,v0,t3
    7d84:	8fa300e4 	lw	v1,228(sp)
    7d88:	afac00e8 	sw	t4,232(sp)
    7d8c:	afa200ec 	sw	v0,236(sp)
    7d90:	00e32826 	xor	a1,a3,v1
    7d94:	01a66821 	addu	t5,t5,a2
    7d98:	afa70048 	sw	a3,72(sp)
    7d9c:	8fa600e8 	lw	a2,232(sp)
    7da0:	8fa700ec 	lw	a3,236(sp)
    7da4:	01e87821 	addu	t7,t7,t0
    7da8:	01a06021 	move	t4,t5
    7dac:	8fa80048 	lw	t0,72(sp)
    7db0:	01271826 	xor	v1,t1,a3
    7db4:	018e2026 	xor	a0,t4,t6
    7db8:	01e61026 	xor	v0,t7,a2
    7dbc:	01253821 	addu	a3,t1,a1
    7dc0:	00485021 	addu	t2,v0,t0
    7dc4:	afad004c 	sw	t5,76(sp)
    7dc8:	00044340 	sll	t0,a0,0xd
    7dcc:	00e9682b 	sltu	t5,a3,t1
    7dd0:	00054cc2 	srl	t1,a1,0x13
    7dd4:	006c5821 	addu	t3,v1,t4
    7dd8:	01e43021 	addu	a2,t7,a0
    7ddc:	afae00e0 	sw	t6,224(sp)
    7de0:	01284825 	or	t1,t1,t0
    7de4:	00057340 	sll	t6,a1,0xd
    7de8:	000424c2 	srl	a0,a0,0x13
    7dec:	afa900f0 	sw	t1,240(sp)
    7df0:	0163602b 	sltu	t4,t3,v1
    7df4:	00024400 	sll	t0,v0,0x10
    7df8:	008e2025 	or	a0,a0,t6
    7dfc:	00034c02 	srl	t1,v1,0x10
    7e00:	01a66821 	addu	t5,t5,a2
    7e04:	afa400f4 	sw	a0,244(sp)
    7e08:	01284825 	or	t1,t1,t0
    7e0c:	018a6021 	addu	t4,t4,t2
    7e10:	00034400 	sll	t0,v1,0x10
    7e14:	00021402 	srl	v0,v0,0x10
    7e18:	01805021 	move	t2,t4
    7e1c:	afad0084 	sw	t5,132(sp)
    7e20:	8fa300f4 	lw	v1,244(sp)
    7e24:	01a06021 	move	t4,t5
    7e28:	00481025 	or	v0,v0,t0
    7e2c:	8fad00f0 	lw	t5,240(sp)
    7e30:	afa200fc 	sw	v0,252(sp)
    7e34:	00e32826 	xor	a1,a3,v1
    7e38:	018d2026 	xor	a0,t4,t5
    7e3c:	afa70080 	sw	a3,128(sp)
    7e40:	8fa700fc 	lw	a3,252(sp)
    7e44:	01491026 	xor	v0,t2,t1
    7e48:	01446021 	addu	t4,t2,a0
    7e4c:	8fa60080 	lw	a2,128(sp)
    7e50:	8faa0084 	lw	t2,132(sp)
    7e54:	01671826 	xor	v1,t3,a3
    7e58:	01656821 	addu	t5,t3,a1
    7e5c:	00464021 	addu	t0,v0,a2
    7e60:	afa900f8 	sw	t1,248(sp)
    7e64:	01ab702b 	sltu	t6,t5,t3
    7e68:	006a4821 	addu	t1,v1,t2
    7e6c:	00043c40 	sll	a3,a0,0x11
    7e70:	00023540 	sll	a2,v0,0x15
    7e74:	00055bc2 	srl	t3,a1,0xf
    7e78:	000352c2 	srl	t2,v1,0xb
    7e7c:	01675825 	or	t3,t3,a3
    7e80:	01465025 	or	t2,t2,a2
    7e84:	00033d40 	sll	a3,v1,0x15
    7e88:	00053440 	sll	a2,a1,0x11
    7e8c:	000423c2 	srl	a0,a0,0xf
    7e90:	000212c2 	srl	v0,v0,0xb
    7e94:	00862025 	or	a0,a0,a2
    7e98:	00471025 	or	v0,v0,a3
    7e9c:	afab0100 	sw	t3,256(sp)
    7ea0:	afa40104 	sw	a0,260(sp)
    7ea4:	afaa0108 	sw	t2,264(sp)
    7ea8:	afa2010c 	sw	v0,268(sp)
    7eac:	8faa0108 	lw	t2,264(sp)
    7eb0:	8fa2010c 	lw	v0,268(sp)
    7eb4:	0123782b 	sltu	t7,t1,v1
    7eb8:	8fa30104 	lw	v1,260(sp)
    7ebc:	01cc7021 	addu	t6,t6,t4
    7ec0:	01e87821 	addu	t7,t7,t0
    7ec4:	01a32826 	xor	a1,t5,v1
    7ec8:	01223826 	xor	a3,t1,v0
    7ecc:	01cb2026 	xor	a0,t6,t3
    7ed0:	01ea3026 	xor	a2,t7,t2
    7ed4:	01a01021 	move	v0,t5
    7ed8:	00c25021 	addu	t2,a2,v0
    7edc:	39c300ff 	xori	v1,t6,0xff
    7ee0:	00041340 	sll	v0,a0,0xd
    7ee4:	000564c2 	srl	t4,a1,0x13
    7ee8:	00e35821 	addu	t3,a3,v1
    7eec:	020f8026 	xor	s0,s0,t7
    7ef0:	01826025 	or	t4,t4,v0
    7ef4:	00071c02 	srl	v1,a3,0x10
    7ef8:	00061400 	sll	v0,a2,0x10
    7efc:	00904021 	addu	t0,a0,s0
    7f00:	afac0110 	sw	t4,272(sp)
    7f04:	00621825 	or	v1,v1,v0
    7f08:	00056340 	sll	t4,a1,0xd
    7f0c:	00071400 	sll	v0,a3,0x10
    7f10:	000424c2 	srl	a0,a0,0x13
    7f14:	00063402 	srl	a2,a2,0x10
    7f18:	afad0040 	sw	t5,64(sp)
    7f1c:	008c2025 	or	a0,a0,t4
    7f20:	0167682b 	sltu	t5,t3,a3
    7f24:	00c23025 	or	a2,a2,v0
    7f28:	02298826 	xor	s1,s1,t1
    7f2c:	00b14821 	addu	t1,a1,s1
    7f30:	afa40114 	sw	a0,276(sp)
    7f34:	afa30118 	sw	v1,280(sp)
    7f38:	afa6011c 	sw	a2,284(sp)
    7f3c:	01aa6821 	addu	t5,t5,t2
    7f40:	01a05021 	move	t2,t5
    7f44:	8fa30114 	lw	v1,276(sp)
    7f48:	8fad0110 	lw	t5,272(sp)
    7f4c:	8fa60118 	lw	a2,280(sp)
    7f50:	8fa7011c 	lw	a3,284(sp)
    7f54:	afae0044 	sw	t6,68(sp)
    7f58:	0125702b 	sltu	t6,t1,a1
    7f5c:	01c87021 	addu	t6,t6,t0
    7f60:	01232826 	xor	a1,t1,v1
    7f64:	01cd2026 	xor	a0,t6,t5
    7f68:	01671826 	xor	v1,t3,a3
    7f6c:	01461026 	xor	v0,t2,a2
    7f70:	01653821 	addu	a3,t3,a1
    7f74:	01443021 	addu	a2,t2,a0
    7f78:	000362c2 	srl	t4,v1,0xb
    7f7c:	00025540 	sll	t2,v0,0x15
    7f80:	00eb682b 	sltu	t5,a3,t3
    7f84:	018a6025 	or	t4,t4,t2
    7f88:	00045c40 	sll	t3,a0,0x11
    7f8c:	00055440 	sll	t2,a1,0x11
    7f90:	000423c2 	srl	a0,a0,0xf
    7f94:	afae007c 	sw	t6,124(sp)
    7f98:	afa90078 	sw	t1,120(sp)
    7f9c:	008a2025 	or	a0,a0,t2
    7fa0:	01204021 	move	t0,t1
    7fa4:	006e4821 	addu	t1,v1,t6
    7fa8:	000573c2 	srl	t6,a1,0xf
    7fac:	01cb7025 	or	t6,t6,t3
    7fb0:	afa40124 	sw	a0,292(sp)
    7fb4:	00484021 	addu	t0,v0,t0
    7fb8:	00035d40 	sll	t3,v1,0x15
    7fbc:	000212c2 	srl	v0,v0,0xb
    7fc0:	0123782b 	sltu	t7,t1,v1
    7fc4:	004b1025 	or	v0,v0,t3
    7fc8:	8fa30124 	lw	v1,292(sp)
    7fcc:	afac0128 	sw	t4,296(sp)
    7fd0:	afa2012c 	sw	v0,300(sp)
    7fd4:	00e32826 	xor	a1,a3,v1
    7fd8:	01a66821 	addu	t5,t5,a2
    7fdc:	afa70038 	sw	a3,56(sp)
    7fe0:	8fa60128 	lw	a2,296(sp)
    7fe4:	8fa7012c 	lw	a3,300(sp)
    7fe8:	01e87821 	addu	t7,t7,t0
    7fec:	01a06021 	move	t4,t5
    7ff0:	8fa80038 	lw	t0,56(sp)
    7ff4:	01271826 	xor	v1,t1,a3
    7ff8:	018e2026 	xor	a0,t4,t6
    7ffc:	01e61026 	xor	v0,t7,a2
    8000:	01253821 	addu	a3,t1,a1
    8004:	01e43021 	addu	a2,t7,a0
    8008:	00485021 	addu	t2,v0,t0
    800c:	afae0120 	sw	t6,288(sp)
    8010:	afad003c 	sw	t5,60(sp)
    8014:	00044340 	sll	t0,a0,0xd
    8018:	00e9682b 	sltu	t5,a3,t1
    801c:	00057340 	sll	t6,a1,0xd
    8020:	00054cc2 	srl	t1,a1,0x13
    8024:	000424c2 	srl	a0,a0,0x13
    8028:	01284825 	or	t1,t1,t0
    802c:	008e2025 	or	a0,a0,t6
    8030:	006c5821 	addu	t3,v1,t4
    8034:	afa90130 	sw	t1,304(sp)
    8038:	afa40134 	sw	a0,308(sp)
    803c:	00024400 	sll	t0,v0,0x10
    8040:	00034c02 	srl	t1,v1,0x10
    8044:	01284825 	or	t1,t1,t0
    8048:	0163602b 	sltu	t4,t3,v1
    804c:	00034400 	sll	t0,v1,0x10
    8050:	00021402 	srl	v0,v0,0x10
    8054:	8fa30134 	lw	v1,308(sp)
    8058:	01a66821 	addu	t5,t5,a2
    805c:	00481025 	or	v0,v0,t0
    8060:	018a6021 	addu	t4,t4,t2
    8064:	00e32826 	xor	a1,a3,v1
    8068:	01805021 	move	t2,t4
    806c:	afa90138 	sw	t1,312(sp)
    8070:	01a06021 	move	t4,t5
    8074:	afad0074 	sw	t5,116(sp)
    8078:	8fad0130 	lw	t5,304(sp)
    807c:	afa2013c 	sw	v0,316(sp)
    8080:	afa70070 	sw	a3,112(sp)
    8084:	8fa7013c 	lw	a3,316(sp)
    8088:	018d2026 	xor	a0,t4,t5
    808c:	01671826 	xor	v1,t3,a3
    8090:	01491026 	xor	v0,t2,t1
    8094:	006c4821 	addu	t1,v1,t4
    8098:	8fac0070 	lw	t4,112(sp)
    809c:	01653821 	addu	a3,t3,a1
    80a0:	01443021 	addu	a2,t2,a0
    80a4:	004c4021 	addu	t0,v0,t4
    80a8:	00025540 	sll	t2,v0,0x15
    80ac:	000362c2 	srl	t4,v1,0xb
    80b0:	00eb682b 	sltu	t5,a3,t3
    80b4:	018a6025 	or	t4,t4,t2
    80b8:	00045c40 	sll	t3,a0,0x11
    80bc:	00055440 	sll	t2,a1,0x11
    80c0:	000423c2 	srl	a0,a0,0xf
    80c4:	008a2025 	or	a0,a0,t2
    80c8:	000573c2 	srl	t6,a1,0xf
    80cc:	01cb7025 	or	t6,t6,t3
    80d0:	afa40144 	sw	a0,324(sp)
    80d4:	00035d40 	sll	t3,v1,0x15
    80d8:	000212c2 	srl	v0,v0,0xb
    80dc:	0123782b 	sltu	t7,t1,v1
    80e0:	004b1025 	or	v0,v0,t3
    80e4:	8fa30144 	lw	v1,324(sp)
    80e8:	afac0148 	sw	t4,328(sp)
    80ec:	afa2014c 	sw	v0,332(sp)
    80f0:	00e32826 	xor	a1,a3,v1
    80f4:	01a66821 	addu	t5,t5,a2
    80f8:	afa70030 	sw	a3,48(sp)
    80fc:	8fa60148 	lw	a2,328(sp)
    8100:	8fa7014c 	lw	a3,332(sp)
    8104:	01e87821 	addu	t7,t7,t0
    8108:	01a06021 	move	t4,t5
    810c:	8fa80030 	lw	t0,48(sp)
    8110:	01271826 	xor	v1,t1,a3
    8114:	018e2026 	xor	a0,t4,t6
    8118:	01e61026 	xor	v0,t7,a2
    811c:	01253821 	addu	a3,t1,a1
    8120:	00485021 	addu	t2,v0,t0
    8124:	afad0034 	sw	t5,52(sp)
    8128:	00044340 	sll	t0,a0,0xd
    812c:	00e9682b 	sltu	t5,a3,t1
    8130:	00054cc2 	srl	t1,a1,0x13
    8134:	01e43021 	addu	a2,t7,a0
    8138:	afae0140 	sw	t6,320(sp)
    813c:	01284825 	or	t1,t1,t0
    8140:	00057340 	sll	t6,a1,0xd
    8144:	000424c2 	srl	a0,a0,0x13
    8148:	afa90150 	sw	t1,336(sp)
    814c:	00024400 	sll	t0,v0,0x10
    8150:	008e2025 	or	a0,a0,t6
    8154:	00034c02 	srl	t1,v1,0x10
    8158:	006c5821 	addu	t3,v1,t4
    815c:	afa40154 	sw	a0,340(sp)
    8160:	01284825 	or	t1,t1,t0
    8164:	00021402 	srl	v0,v0,0x10
    8168:	00034400 	sll	t0,v1,0x10
    816c:	0163602b 	sltu	t4,t3,v1
    8170:	00481025 	or	v0,v0,t0
    8174:	8fa30154 	lw	v1,340(sp)
    8178:	afa2015c 	sw	v0,348(sp)
    817c:	00e32826 	xor	a1,a3,v1
    8180:	01a66821 	addu	t5,t5,a2
    8184:	afa70068 	sw	a3,104(sp)
    8188:	018a6021 	addu	t4,t4,t2
    818c:	8fa7015c 	lw	a3,348(sp)
    8190:	01805021 	move	t2,t4
    8194:	afad006c 	sw	t5,108(sp)
    8198:	01a06021 	move	t4,t5
    819c:	8fad0150 	lw	t5,336(sp)
    81a0:	01671826 	xor	v1,t3,a3
    81a4:	018d2026 	xor	a0,t4,t5
    81a8:	01491026 	xor	v0,t2,t1
    81ac:	afa90158 	sw	t1,344(sp)
    81b0:	006c4821 	addu	t1,v1,t4
    81b4:	8fac0068 	lw	t4,104(sp)
    81b8:	01653821 	addu	a3,t3,a1
    81bc:	01443021 	addu	a2,t2,a0
    81c0:	004c4021 	addu	t0,v0,t4
    81c4:	00025540 	sll	t2,v0,0x15
    81c8:	000362c2 	srl	t4,v1,0xb
    81cc:	00eb682b 	sltu	t5,a3,t3
    81d0:	018a6025 	or	t4,t4,t2
    81d4:	00045c40 	sll	t3,a0,0x11
    81d8:	00055440 	sll	t2,a1,0x11
    81dc:	000423c2 	srl	a0,a0,0xf
    81e0:	008a2025 	or	a0,a0,t2
    81e4:	000573c2 	srl	t6,a1,0xf
    81e8:	01cb7025 	or	t6,t6,t3
    81ec:	afa40164 	sw	a0,356(sp)
    81f0:	00035d40 	sll	t3,v1,0x15
    81f4:	000212c2 	srl	v0,v0,0xb
    81f8:	0123782b 	sltu	t7,t1,v1
    81fc:	004b1025 	or	v0,v0,t3
    8200:	8fa30164 	lw	v1,356(sp)
    8204:	afac0168 	sw	t4,360(sp)
    8208:	afa2016c 	sw	v0,364(sp)
    820c:	00e32826 	xor	a1,a3,v1
    8210:	01a66821 	addu	t5,t5,a2
    8214:	afa70028 	sw	a3,40(sp)
    8218:	8fa60168 	lw	a2,360(sp)
    821c:	8fa7016c 	lw	a3,364(sp)
    8220:	01e87821 	addu	t7,t7,t0
    8224:	01a06021 	move	t4,t5
    8228:	8fa80028 	lw	t0,40(sp)
    822c:	01271826 	xor	v1,t1,a3
    8230:	018e2026 	xor	a0,t4,t6
    8234:	01e61026 	xor	v0,t7,a2
    8238:	01253821 	addu	a3,t1,a1
    823c:	00485021 	addu	t2,v0,t0
    8240:	afad002c 	sw	t5,44(sp)
    8244:	00044340 	sll	t0,a0,0xd
    8248:	00e9682b 	sltu	t5,a3,t1
    824c:	00054cc2 	srl	t1,a1,0x13
    8250:	01e43021 	addu	a2,t7,a0
    8254:	afae0160 	sw	t6,352(sp)
    8258:	01284825 	or	t1,t1,t0
    825c:	00057340 	sll	t6,a1,0xd
    8260:	000424c2 	srl	a0,a0,0x13
    8264:	afa90170 	sw	t1,368(sp)
    8268:	00024400 	sll	t0,v0,0x10
    826c:	008e2025 	or	a0,a0,t6
    8270:	00034c02 	srl	t1,v1,0x10
    8274:	006c5821 	addu	t3,v1,t4
    8278:	01284825 	or	t1,t1,t0
    827c:	afa40174 	sw	a0,372(sp)
    8280:	00034400 	sll	t0,v1,0x10
    8284:	00021402 	srl	v0,v0,0x10
    8288:	0163602b 	sltu	t4,t3,v1
    828c:	00481025 	or	v0,v0,t0
    8290:	8fa30174 	lw	v1,372(sp)
    8294:	afa2017c 	sw	v0,380(sp)
    8298:	00e32826 	xor	a1,a3,v1
    829c:	01a66821 	addu	t5,t5,a2
    82a0:	afa70060 	sw	a3,96(sp)
    82a4:	018a6021 	addu	t4,t4,t2
    82a8:	8fa7017c 	lw	a3,380(sp)
    82ac:	01805021 	move	t2,t4
    82b0:	afad0064 	sw	t5,100(sp)
    82b4:	01a06021 	move	t4,t5
    82b8:	8fad0170 	lw	t5,368(sp)
    82bc:	01671826 	xor	v1,t3,a3
    82c0:	018d2026 	xor	a0,t4,t5
    82c4:	01491026 	xor	v0,t2,t1
    82c8:	afa90178 	sw	t1,376(sp)
    82cc:	006c4821 	addu	t1,v1,t4
    82d0:	8fac0060 	lw	t4,96(sp)
    82d4:	01653821 	addu	a3,t3,a1
    82d8:	01443021 	addu	a2,t2,a0
    82dc:	004c4021 	addu	t0,v0,t4
    82e0:	00025540 	sll	t2,v0,0x15
    82e4:	000362c2 	srl	t4,v1,0xb
    82e8:	00eb682b 	sltu	t5,a3,t3
    82ec:	018a6025 	or	t4,t4,t2
    82f0:	00045c40 	sll	t3,a0,0x11
    82f4:	00055440 	sll	t2,a1,0x11
    82f8:	000423c2 	srl	a0,a0,0xf
    82fc:	000573c2 	srl	t6,a1,0xf
    8300:	008a2025 	or	a0,a0,t2
    8304:	01cb7025 	or	t6,t6,t3
    8308:	afa40184 	sw	a0,388(sp)
    830c:	00035d40 	sll	t3,v1,0x15
    8310:	000212c2 	srl	v0,v0,0xb
    8314:	8fa50184 	lw	a1,388(sp)
    8318:	004b1025 	or	v0,v0,t3
    831c:	01a66821 	addu	t5,t5,a2
    8320:	afac0188 	sw	t4,392(sp)
    8324:	afa2018c 	sw	v0,396(sp)
    8328:	01a06021 	move	t4,t5
    832c:	0123782b 	sltu	t7,t1,v1
    8330:	afad0194 	sw	t5,404(sp)
    8334:	00e51826 	xor	v1,a3,a1
    8338:	00e06821 	move	t5,a3
    833c:	afa70190 	sw	a3,400(sp)
    8340:	8fa60188 	lw	a2,392(sp)
    8344:	8fa7018c 	lw	a3,396(sp)
    8348:	01e87821 	addu	t7,t7,t0
    834c:	018e1026 	xor	v0,t4,t6
    8350:	01e62026 	xor	a0,t7,a2
    8354:	01272826 	xor	a1,t1,a3
    8358:	01e21026 	xor	v0,t7,v0
    835c:	01231826 	xor	v1,t1,v1
    8360:	008d2026 	xor	a0,a0,t5
    8364:	00ac2826 	xor	a1,a1,t4
    8368:	8fbf01bc 	lw	ra,444(sp)
    836c:	8fbe01b8 	lw	s8,440(sp)
    8370:	8fb701b4 	lw	s7,436(sp)
    8374:	8fb601b0 	lw	s6,432(sp)
    8378:	8fb501ac 	lw	s5,428(sp)
    837c:	8fb401a8 	lw	s4,424(sp)
    8380:	8fb301a4 	lw	s3,420(sp)
    8384:	8fb201a0 	lw	s2,416(sp)
    8388:	8fb1019c 	lw	s1,412(sp)
    838c:	8fb00198 	lw	s0,408(sp)
    8390:	afae0180 	sw	t6,384(sp)
    8394:	00441026 	xor	v0,v0,a0
    8398:	00651826 	xor	v1,v1,a1
    839c:	03e00008 	jr	ra
    83a0:	27bd01c0 	addiu	sp,sp,448
    83a4:	93c20006 	lbu	v0,6(s8)
    83a8:	00000000 	nop
    83ac:	a0c20006 	sb	v0,6(a2)
    83b0:	93c20005 	lbu	v0,5(s8)
    83b4:	00000000 	nop
    83b8:	a0c20005 	sb	v0,5(a2)
    83bc:	93c20004 	lbu	v0,4(s8)
    83c0:	00000000 	nop
    83c4:	a0c20004 	sb	v0,4(a2)
    83c8:	8fc20000 	lw	v0,0(s8)
    83cc:	08001f1d 	j	7c74 <siphash24+0x518>
    83d0:	acc20000 	sw	v0,0(a2)
    83d4:	8fb101c4 	lw	s1,452(sp)
    83d8:	08001f06 	j	7c18 <siphash24+0x4bc>
    83dc:	24050001 	li	a1,1

000083e0 <GLFSR_init>:
    83e0:	00806821 	move	t5,a0
    83e4:	34e40001 	ori	a0,a3,0x1
    83e8:	ada4000c 	sw	a0,12(t5)
    83ec:	8fa30014 	lw	v1,20(sp)
    83f0:	8fa20010 	lw	v0,16(sp)
    83f4:	00004821 	move	t1,zero
    83f8:	3c088000 	lui	t0,0x8000
    83fc:	240b003e 	li	t3,62
    8400:	240cffff 	li	t4,-1
    8404:	ada30004 	sw	v1,4(t5)
    8408:	ada20000 	sw	v0,0(t5)
    840c:	0800210b 	j	842c <GLFSR_init+0x4c>
    8410:	ada60008 	sw	a2,8(t5)
    8414:	116c000e 	beq	t3,t4,8450 <GLFSR_init+0x70>
    8418:	00092842 	srl	a1,t1,0x1
    841c:	01452825 	or	a1,t2,a1
    8420:	00082042 	srl	a0,t0,0x1
    8424:	00a04821 	move	t1,a1
    8428:	00804021 	move	t0,a0
    842c:	00c81024 	and	v0,a2,t0
    8430:	00e91824 	and	v1,a3,t1
    8434:	00431025 	or	v0,v0,v1
    8438:	000857c0 	sll	t2,t0,0x1f
    843c:	1040fff5 	beqz	v0,8414 <GLFSR_init+0x34>
    8440:	256bffff 	addiu	t3,t3,-1
    8444:	ada90014 	sw	t1,20(t5)
    8448:	03e00008 	jr	ra
    844c:	ada80010 	sw	t0,16(t5)
    8450:	03e00008 	jr	ra
    8454:	00000000 	nop

00008458 <GLFSR_next>:
    8458:	8c830004 	lw	v1,4(a0)
    845c:	8c820000 	lw	v0,0(a0)
    8460:	00803821 	move	a3,a0
    8464:	8c860010 	lw	a2,16(a0)
    8468:	00024040 	sll	t0,v0,0x1
    846c:	000327c2 	srl	a0,v1,0x1f
    8470:	8ce50014 	lw	a1,20(a3)
    8474:	00884025 	or	t0,a0,t0
    8478:	00034840 	sll	t1,v1,0x1
    847c:	00a91824 	and	v1,a1,t1
    8480:	00c81024 	and	v0,a2,t0
    8484:	00431025 	or	v0,v0,v1
    8488:	ace90004 	sw	t1,4(a3)
    848c:	00001821 	move	v1,zero
    8490:	10400008 	beqz	v0,84b4 <GLFSR_next+0x5c>
    8494:	ace80000 	sw	t0,0(a3)
    8498:	8ce30008 	lw	v1,8(a3)
    849c:	8ce2000c 	lw	v0,12(a3)
    84a0:	00681826 	xor	v1,v1,t0
    84a4:	00491026 	xor	v0,v0,t1
    84a8:	ace30000 	sw	v1,0(a3)
    84ac:	ace20004 	sw	v0,4(a3)
    84b0:	24030001 	li	v1,1
    84b4:	03e00008 	jr	ra
    84b8:	00601021 	move	v0,v1

000084bc <findBlankSession>:
    84bc:	00001821 	move	v1,zero
    84c0:	08002135 	j	84d4 <findBlankSession+0x18>
    84c4:	24050018 	li	a1,24
    84c8:	24630001 	addiu	v1,v1,1
    84cc:	10650007 	beq	v1,a1,84ec <findBlankSession+0x30>
    84d0:	3c020001 	lui	v0,0x1
    84d4:	8c820018 	lw	v0,24(a0)
    84d8:	00000000 	nop
    84dc:	1440fffa 	bnez	v0,84c8 <findBlankSession+0xc>
    84e0:	2484002c 	addiu	a0,a0,44
    84e4:	03e00008 	jr	ra
    84e8:	00601021 	move	v0,v1
    84ec:	2442a554 	addiu	v0,v0,-23212
    84f0:	3c032000 	lui	v1,0x2000
    84f4:	ac620000 	sw	v0,0(v1)
    84f8:	2403ffff 	li	v1,-1
    84fc:	03e00008 	jr	ra
    8500:	00601021 	move	v0,v1

00008504 <checkSession>:
    8504:	00001821 	move	v1,zero
    8508:	08002147 	j	851c <checkSession+0x18>
    850c:	24070018 	li	a3,24
    8510:	24630001 	addiu	v1,v1,1
    8514:	1067000c 	beq	v1,a3,8548 <checkSession+0x44>
    8518:	2484002c 	addiu	a0,a0,44
    851c:	8c820000 	lw	v0,0(a0)
    8520:	00000000 	nop
    8524:	1445fffa 	bne	v0,a1,8510 <checkSession+0xc>
    8528:	00000000 	nop
    852c:	8c820004 	lw	v0,4(a0)
    8530:	00000000 	nop
    8534:	1446fff7 	bne	v0,a2,8514 <checkSession+0x10>
    8538:	24630001 	addiu	v1,v1,1
    853c:	2463ffff 	addiu	v1,v1,-1
    8540:	03e00008 	jr	ra
    8544:	00601021 	move	v0,v1
    8548:	2403ffff 	li	v1,-1
    854c:	03e00008 	jr	ra
    8550:	00601021 	move	v0,v1

00008554 <checkSessionCode>:
    8554:	3402ffff 	li	v0,0xffff
    8558:	10a2000c 	beq	a1,v0,858c <checkSessionCode+0x38>
    855c:	00001821 	move	v1,zero
    8560:	24060018 	li	a2,24
    8564:	8c820024 	lw	v0,36(a0)
    8568:	00000000 	nop
    856c:	10a20005 	beq	a1,v0,8584 <checkSessionCode+0x30>
    8570:	2484002c 	addiu	a0,a0,44
    8574:	24630001 	addiu	v1,v1,1
    8578:	1466fffa 	bne	v1,a2,8564 <checkSessionCode+0x10>
    857c:	00000000 	nop
    8580:	2403fffe 	li	v1,-2
    8584:	03e00008 	jr	ra
    8588:	00601021 	move	v0,v1
    858c:	2403ffff 	li	v1,-1
    8590:	03e00008 	jr	ra
    8594:	00601021 	move	v0,v1

00008598 <clearSession>:
    8598:	00051080 	sll	v0,a1,0x2
    859c:	00051900 	sll	v1,a1,0x4
    85a0:	00621823 	subu	v1,v1,v0
    85a4:	00651823 	subu	v1,v1,a1
    85a8:	00031880 	sll	v1,v1,0x2
    85ac:	00641821 	addu	v1,v1,a0
    85b0:	8c620010 	lw	v0,16(v1)
    85b4:	2404ffff 	li	a0,-1
    85b8:	ac640000 	sw	a0,0(v1)
    85bc:	ac640004 	sw	a0,4(v1)
    85c0:	ac600008 	sw	zero,8(v1)
    85c4:	ac600018 	sw	zero,24(v1)
    85c8:	ac60001c 	sw	zero,28(v1)
    85cc:	ac600020 	sw	zero,32(v1)
    85d0:	ac600024 	sw	zero,36(v1)
    85d4:	ac440000 	sw	a0,0(v0)
    85d8:	03e00008 	jr	ra
    85dc:	ac640028 	sw	a0,40(v1)

000085e0 <initSessions>:
    85e0:	3c020005 	lui	v0,0x5
    85e4:	27bdffe0 	addiu	sp,sp,-32
    85e8:	2444b44c 	addiu	a0,v0,-19380
    85ec:	3c030005 	lui	v1,0x5
    85f0:	3c020005 	lui	v0,0x5
    85f4:	afbf001c 	sw	ra,28(sp)
    85f8:	afb20018 	sw	s2,24(sp)
    85fc:	afb10014 	sw	s1,20(sp)
    8600:	afb00010 	sw	s0,16(sp)
    8604:	2463a8ac 	addiu	v1,v1,-22356
    8608:	2442c874 	addiu	v0,v0,-14220
    860c:	2405ffff 	li	a1,-1
    8610:	ac850000 	sw	a1,0(a0)
    8614:	24840204 	addiu	a0,a0,516
    8618:	ac600000 	sw	zero,0(v1)
    861c:	1482fffc 	bne	a0,v0,8610 <initSessions+0x30>
    8620:	246300b0 	addiu	v1,v1,176
    8624:	00008021 	move	s0,zero
    8628:	3c120005 	lui	s2,0x5
    862c:	24110018 	li	s1,24
    8630:	02002821 	move	a1,s0
    8634:	2644af08 	addiu	a0,s2,-20728
    8638:	0c002166 	jal	8598 <clearSession>
    863c:	26100001 	addiu	s0,s0,1
    8640:	1611fffc 	bne	s0,s1,8634 <initSessions+0x54>
    8644:	02002821 	move	a1,s0
    8648:	8fbf001c 	lw	ra,28(sp)
    864c:	8fb20018 	lw	s2,24(sp)
    8650:	8fb10014 	lw	s1,20(sp)
    8654:	8fb00010 	lw	s0,16(sp)
    8658:	03e00008 	jr	ra
    865c:	27bd0020 	addiu	sp,sp,32

00008660 <getMessageSlot>:
    8660:	3c020005 	lui	v0,0x5
    8664:	2444b44c 	addiu	a0,v0,-19380
    8668:	00001821 	move	v1,zero
    866c:	2407ffff 	li	a3,-1
    8670:	2406000a 	li	a2,10
    8674:	00802821 	move	a1,a0
    8678:	8c820000 	lw	v0,0(a0)
    867c:	24630001 	addiu	v1,v1,1
    8680:	10470009 	beq	v0,a3,86a8 <getMessageSlot+0x48>
    8684:	24840204 	addiu	a0,a0,516
    8688:	1466fffb 	bne	v1,a2,8678 <getMessageSlot+0x18>
    868c:	24a50204 	addiu	a1,a1,516
    8690:	3c020001 	lui	v0,0x1
    8694:	2442a578 	addiu	v0,v0,-23176
    8698:	3c032000 	lui	v1,0x2000
    869c:	ac620000 	sw	v0,0(v1)
    86a0:	03e00008 	jr	ra
    86a4:	2402ffff 	li	v0,-1
    86a8:	03e00008 	jr	ra
    86ac:	00a01021 	move	v0,a1

000086b0 <clearMessageSlot>:
    86b0:	2402ffff 	li	v0,-1
    86b4:	03e00008 	jr	ra
    86b8:	ac820000 	sw	v0,0(a0)

000086bc <getServiceSlot>:
    86bc:	3c020005 	lui	v0,0x5
    86c0:	3c030005 	lui	v1,0x5
    86c4:	2445a8ac 	addiu	a1,v0,-22356
    86c8:	2463a828 	addiu	v1,v1,-22488
    86cc:	00002021 	move	a0,zero
    86d0:	2406000a 	li	a2,10
    86d4:	8ca20000 	lw	v0,0(a1)
    86d8:	24840001 	addiu	a0,a0,1
    86dc:	10400009 	beqz	v0,8704 <getServiceSlot+0x48>
    86e0:	24a500b0 	addiu	a1,a1,176
    86e4:	1486fffb 	bne	a0,a2,86d4 <getServiceSlot+0x18>
    86e8:	246300b0 	addiu	v1,v1,176
    86ec:	3c020001 	lui	v0,0x1
    86f0:	2442a594 	addiu	v0,v0,-23148
    86f4:	3c032000 	lui	v1,0x2000
    86f8:	ac620000 	sw	v0,0(v1)
    86fc:	03e00008 	jr	ra
    8700:	2402ffff 	li	v0,-1
    8704:	03e00008 	jr	ra
    8708:	00601021 	move	v0,v1

0000870c <clearServiceSlot>:
    870c:	03e00008 	jr	ra
    8710:	ac800084 	sw	zero,132(a0)

00008714 <createSession>:
    8714:	27bdffd8 	addiu	sp,sp,-40
    8718:	afb3001c 	sw	s3,28(sp)
    871c:	afb20018 	sw	s2,24(sp)
    8720:	afb10014 	sw	s1,20(sp)
    8724:	afb00010 	sw	s0,16(sp)
    8728:	00e08821 	move	s1,a3
    872c:	00808021 	move	s0,a0
    8730:	afbf0020 	sw	ra,32(sp)
    8734:	00a09821 	move	s3,a1
    8738:	0c00212f 	jal	84bc <findBlankSession>
    873c:	00c09021 	move	s2,a2
    8740:	00021880 	sll	v1,v0,0x2
    8744:	00402021 	move	a0,v0
    8748:	00021100 	sll	v0,v0,0x4
    874c:	00431023 	subu	v0,v0,v1
    8750:	00441023 	subu	v0,v0,a0
    8754:	00021080 	sll	v0,v0,0x2
    8758:	02028021 	addu	s0,s0,v0
    875c:	2402ffff 	li	v0,-1
    8760:	3223003f 	andi	v1,s1,0x3f
    8764:	1082000f 	beq	a0,v0,87a4 <createSession+0x90>
    8768:	3231ffc0 	andi	s1,s1,0xffc0
    876c:	24020003 	li	v0,3
    8770:	ae030028 	sw	v1,40(s0)
    8774:	ae020018 	sw	v0,24(s0)
    8778:	ae110024 	sw	s1,36(s0)
    877c:	ae120004 	sw	s2,4(s0)
    8780:	ae130000 	sw	s3,0(s0)
    8784:	8fbf0020 	lw	ra,32(sp)
    8788:	8fb3001c 	lw	s3,28(sp)
    878c:	8fb20018 	lw	s2,24(sp)
    8790:	8fb10014 	lw	s1,20(sp)
    8794:	8fb00010 	lw	s0,16(sp)
    8798:	00801021 	move	v0,a0
    879c:	03e00008 	jr	ra
    87a0:	27bd0028 	addiu	sp,sp,40
    87a4:	3c020001 	lui	v0,0x1
    87a8:	2442a5b0 	addiu	v0,v0,-23120
    87ac:	3c032000 	lui	v1,0x2000
    87b0:	ac620000 	sw	v0,0(v1)
    87b4:	080021e1 	j	8784 <createSession+0x70>
    87b8:	00000000 	nop

000087bc <checkRunningSession>:
    87bc:	00001821 	move	v1,zero
    87c0:	24060018 	li	a2,24
    87c4:	8c820018 	lw	v0,24(a0)
    87c8:	00000000 	nop
    87cc:	10400009 	beqz	v0,87f4 <checkRunningSession+0x38>
    87d0:	00000000 	nop
    87d4:	8c820000 	lw	v0,0(a0)
    87d8:	00000000 	nop
    87dc:	10450009 	beq	v0,a1,8804 <checkRunningSession+0x48>
    87e0:	00000000 	nop
    87e4:	8c820004 	lw	v0,4(a0)
    87e8:	00000000 	nop
    87ec:	10a20005 	beq	a1,v0,8804 <checkRunningSession+0x48>
    87f0:	00000000 	nop
    87f4:	24630001 	addiu	v1,v1,1
    87f8:	1466fff2 	bne	v1,a2,87c4 <checkRunningSession+0x8>
    87fc:	2484002c 	addiu	a0,a0,44
    8800:	2403ffff 	li	v1,-1
    8804:	03e00008 	jr	ra
    8808:	00601021 	move	v0,v1

0000880c <copyService>:
    880c:	27bdfff8 	addiu	sp,sp,-8
    8810:	afb00000 	sw	s0,0(sp)
    8814:	8c9000a8 	lw	s0,168(a0)
    8818:	8c8200ac 	lw	v0,172(a0)
    881c:	8c830080 	lw	v1,128(a0)
    8820:	8c870084 	lw	a3,132(a0)
    8824:	8c880088 	lw	t0,136(a0)
    8828:	8c89008c 	lw	t1,140(a0)
    882c:	8c8a0090 	lw	t2,144(a0)
    8830:	8c8b0094 	lw	t3,148(a0)
    8834:	8c8c0098 	lw	t4,152(a0)
    8838:	8c8d009c 	lw	t5,156(a0)
    883c:	8c8e00a0 	lw	t6,160(a0)
    8840:	8c8f00a4 	lw	t7,164(a0)
    8844:	acb000a8 	sw	s0,168(a1)
    8848:	8fb00000 	lw	s0,0(sp)
    884c:	27bd0008 	addiu	sp,sp,8
    8850:	aca200ac 	sw	v0,172(a1)
    8854:	aca30080 	sw	v1,128(a1)
    8858:	aca70084 	sw	a3,132(a1)
    885c:	aca80088 	sw	t0,136(a1)
    8860:	aca9008c 	sw	t1,140(a1)
    8864:	acaa0090 	sw	t2,144(a1)
    8868:	acab0094 	sw	t3,148(a1)
    886c:	acac0098 	sw	t4,152(a1)
    8870:	acad009c 	sw	t5,156(a1)
    8874:	acae00a0 	sw	t6,160(a1)
    8878:	03e00008 	jr	ra
    887c:	acaf00a4 	sw	t7,164(a1)

00008880 <checkWaitingServices>:
    8880:	00004021 	move	t0,zero
    8884:	2409000a 	li	t1,10
    8888:	8c820088 	lw	v0,136(a0)
    888c:	00801821 	move	v1,a0
    8890:	25080001 	addiu	t0,t0,1
    8894:	10450005 	beq	v0,a1,88ac <checkWaitingServices+0x2c>
    8898:	248400b0 	addiu	a0,a0,176
    889c:	1509fffa 	bne	t0,t1,8888 <checkWaitingServices+0x8>
    88a0:	2403ffff 	li	v1,-1
    88a4:	03e00008 	jr	ra
    88a8:	00601021 	move	v0,v1
    88ac:	8c62008c 	lw	v0,140(v1)
    88b0:	00000000 	nop
    88b4:	1446fff9 	bne	v0,a2,889c <checkWaitingServices+0x1c>
    88b8:	00000000 	nop
    88bc:	8c620084 	lw	v0,132(v1)
    88c0:	00000000 	nop
    88c4:	1047fff7 	beq	v0,a3,88a4 <checkWaitingServices+0x24>
    88c8:	00000000 	nop
    88cc:	1509ffee 	bne	t0,t1,8888 <checkWaitingServices+0x8>
    88d0:	2403ffff 	li	v1,-1
    88d4:	08002229 	j	88a4 <checkWaitingServices+0x24>
    88d8:	00000000 	nop

000088dc <find_SZ_position_and_direction_to_IO>:
    88dc:	27bdffd0 	addiu	sp,sp,-48
    88e0:	afbf0028 	sw	ra,40(sp)
    88e4:	afb50024 	sw	s5,36(sp)
    88e8:	afb40020 	sw	s4,32(sp)
    88ec:	afb3001c 	sw	s3,28(sp)
    88f0:	afb20018 	sw	s2,24(sp)
    88f4:	afb10014 	sw	s1,20(sp)
    88f8:	afb00010 	sw	s0,16(sp)
    88fc:	3c020005 	lui	v0,0x5
    8900:	3c030005 	lui	v1,0x5
    8904:	8c45a68c 	lw	a1,-22900(v0)
    8908:	8c66a688 	lw	a2,-22904(v1)
    890c:	30a200f0 	andi	v0,a1,0xf0
    8910:	30c300f0 	andi	v1,a2,0xf0
    8914:	00808021 	move	s0,a0
    8918:	30b5000f 	andi	s5,a1,0xf
    891c:	00038903 	sra	s1,v1,0x4
    8920:	30d2000f 	andi	s2,a2,0xf
    8924:	0c0008ee 	jal	23b8 <get_net_address>
    8928:	00029903 	sra	s3,v0,0x4
    892c:	30420f00 	andi	v0,v0,0xf00
    8930:	0c0008ee 	jal	23b8 <get_net_address>
    8934:	0002a202 	srl	s4,v0,0x8
    8938:	3c050005 	lui	a1,0x5
    893c:	00402021 	move	a0,v0
    8940:	8ca2a6b4 	lw	v0,-22860(a1)
    8944:	00000000 	nop
    8948:	10500014 	beq	v0,s0,899c <find_SZ_position_and_direction_to_IO+0xc0>
    894c:	24a2a6b4 	addiu	v0,a1,-22860
    8950:	8c430020 	lw	v1,32(v0)
    8954:	00000000 	nop
    8958:	10700012 	beq	v1,s0,89a4 <find_SZ_position_and_direction_to_IO+0xc8>
    895c:	24030001 	li	v1,1
    8960:	3c020001 	lui	v0,0x1
    8964:	2442a5d4 	addiu	v0,v0,-23084
    8968:	3c032000 	lui	v1,0x2000
    896c:	2407ffff 	li	a3,-1
    8970:	ac620000 	sw	v0,0(v1)
    8974:	8fbf0028 	lw	ra,40(sp)
    8978:	8fb50024 	lw	s5,36(sp)
    897c:	8fb40020 	lw	s4,32(sp)
    8980:	8fb3001c 	lw	s3,28(sp)
    8984:	8fb20018 	lw	s2,24(sp)
    8988:	8fb10014 	lw	s1,20(sp)
    898c:	8fb00010 	lw	s0,16(sp)
    8990:	00e01021 	move	v0,a3
    8994:	03e00008 	jr	ra
    8998:	27bd0030 	addiu	sp,sp,48
    899c:	00001821 	move	v1,zero
    89a0:	24a2a6b4 	addiu	v0,a1,-22860
    89a4:	00031940 	sll	v1,v1,0x5
    89a8:	00621821 	addu	v1,v1,v0
    89ac:	8c68000c 	lw	t0,12(v1)
    89b0:	2402ffff 	li	v0,-1
    89b4:	8c650004 	lw	a1,4(v1)
    89b8:	8c690008 	lw	t1,8(v1)
    89bc:	1102ffe8 	beq	t0,v0,8960 <find_SZ_position_and_direction_to_IO+0x84>
    89c0:	24020005 	li	v0,5
    89c4:	1102001c 	beq	t0,v0,8a38 <find_SZ_position_and_direction_to_IO+0x15c>
    89c8:	3087000f 	andi	a3,a0,0xf
    89cc:	24060002 	li	a2,2
    89d0:	1106002b 	beq	t0,a2,8a80 <find_SZ_position_and_direction_to_IO+0x1a4>
    89d4:	24020003 	li	v0,3
    89d8:	1102004c 	beq	t0,v0,8b0c <find_SZ_position_and_direction_to_IO+0x230>
    89dc:	0132102b 	sltu	v0,t1,s2
    89e0:	24020004 	li	v0,4
    89e4:	11020003 	beq	t0,v0,89f4 <find_SZ_position_and_direction_to_IO+0x118>
    89e8:	0132102b 	sltu	v0,t1,s2
    89ec:	0800225d 	j	8974 <find_SZ_position_and_direction_to_IO+0x98>
    89f0:	24070001 	li	a3,1
    89f4:	10400034 	beqz	v0,8ac8 <find_SZ_position_and_direction_to_IO+0x1ec>
    89f8:	02a9102b 	sltu	v0,s5,t1
    89fc:	00132200 	sll	a0,s3,0x8
    8a00:	00142a00 	sll	a1,s4,0x8
    8a04:	00e42025 	or	a0,a3,a0
    8a08:	3c020005 	lui	v0,0x5
    8a0c:	3c030005 	lui	v1,0x5
    8a10:	02452825 	or	a1,s2,a1
    8a14:	ac44a7b4 	sw	a0,-22604(v0)
    8a18:	ac65a7a0 	sw	a1,-22624(v1)
    8a1c:	24040003 	li	a0,3
    8a20:	3c020005 	lui	v0,0x5
    8a24:	3c030005 	lui	v1,0x5
    8a28:	24070001 	li	a3,1
    8a2c:	ac44a7b0 	sw	a0,-22608(v0)
    8a30:	0800225d 	j	8974 <find_SZ_position_and_direction_to_IO+0x98>
    8a34:	ac60a79c 	sw	zero,-22628(v1)
    8a38:	00b1102b 	sltu	v0,a1,s1
    8a3c:	10400044 	beqz	v0,8b50 <find_SZ_position_and_direction_to_IO+0x274>
    8a40:	0265102b 	sltu	v0,s3,a1
    8a44:	00112200 	sll	a0,s1,0x8
    8a48:	00e42025 	or	a0,a3,a0
    8a4c:	3c020005 	lui	v0,0x5
    8a50:	00142a00 	sll	a1,s4,0x8
    8a54:	ac44a7b4 	sw	a0,-22604(v0)
    8a58:	3c030005 	lui	v1,0x5
    8a5c:	3c020005 	lui	v0,0x5
    8a60:	02a52825 	or	a1,s5,a1
    8a64:	24040001 	li	a0,1
    8a68:	ac65a7a0 	sw	a1,-22624(v1)
    8a6c:	ac44a79c 	sw	a0,-22628(v0)
    8a70:	24030002 	li	v1,2
    8a74:	3c020005 	lui	v0,0x5
    8a78:	08002278 	j	89e0 <find_SZ_position_and_direction_to_IO+0x104>
    8a7c:	ac43a7b0 	sw	v1,-22608(v0)
    8a80:	00b1102b 	sltu	v0,a1,s1
    8a84:	10400041 	beqz	v0,8b8c <find_SZ_position_and_direction_to_IO+0x2b0>
    8a88:	0265102b 	sltu	v0,s3,a1
    8a8c:	00112200 	sll	a0,s1,0x8
    8a90:	00e42025 	or	a0,a3,a0
    8a94:	3c020005 	lui	v0,0x5
    8a98:	00142a00 	sll	a1,s4,0x8
    8a9c:	ac44a7b4 	sw	a0,-22604(v0)
    8aa0:	3c030005 	lui	v1,0x5
    8aa4:	3c020005 	lui	v0,0x5
    8aa8:	02452825 	or	a1,s2,a1
    8aac:	24040001 	li	a0,1
    8ab0:	ac65a7a0 	sw	a1,-22624(v1)
    8ab4:	ac44a79c 	sw	a0,-22628(v0)
    8ab8:	24030003 	li	v1,3
    8abc:	3c020005 	lui	v0,0x5
    8ac0:	08002278 	j	89e0 <find_SZ_position_and_direction_to_IO+0x104>
    8ac4:	ac43a7b0 	sw	v1,-22608(v0)
    8ac8:	1040003f 	beqz	v0,8bc8 <find_SZ_position_and_direction_to_IO+0x2ec>
    8acc:	00131200 	sll	v0,s3,0x8
    8ad0:	00132200 	sll	a0,s3,0x8
    8ad4:	00142a00 	sll	a1,s4,0x8
    8ad8:	00e42025 	or	a0,a3,a0
    8adc:	3c020005 	lui	v0,0x5
    8ae0:	3c030005 	lui	v1,0x5
    8ae4:	02a52825 	or	a1,s5,a1
    8ae8:	ac44a7b4 	sw	a0,-22604(v0)
    8aec:	ac65a7a0 	sw	a1,-22624(v1)
    8af0:	24040002 	li	a0,2
    8af4:	3c020005 	lui	v0,0x5
    8af8:	3c030005 	lui	v1,0x5
    8afc:	24070001 	li	a3,1
    8b00:	ac44a7b0 	sw	a0,-22608(v0)
    8b04:	0800225d 	j	8974 <find_SZ_position_and_direction_to_IO+0x98>
    8b08:	ac60a79c 	sw	zero,-22628(v1)
    8b0c:	1040003a 	beqz	v0,8bf8 <find_SZ_position_and_direction_to_IO+0x31c>
    8b10:	02a9102b 	sltu	v0,s5,t1
    8b14:	00112200 	sll	a0,s1,0x8
    8b18:	00142a00 	sll	a1,s4,0x8
    8b1c:	00e42025 	or	a0,a3,a0
    8b20:	3c020005 	lui	v0,0x5
    8b24:	3c030005 	lui	v1,0x5
    8b28:	02452825 	or	a1,s2,a1
    8b2c:	ac44a7b4 	sw	a0,-22604(v0)
    8b30:	ac65a7a0 	sw	a1,-22624(v1)
    8b34:	24040001 	li	a0,1
    8b38:	3c020005 	lui	v0,0x5
    8b3c:	3c030005 	lui	v1,0x5
    8b40:	24070001 	li	a3,1
    8b44:	ac44a79c 	sw	a0,-22628(v0)
    8b48:	0800225d 	j	8974 <find_SZ_position_and_direction_to_IO+0x98>
    8b4c:	ac68a7b0 	sw	t0,-22608(v1)
    8b50:	10400039 	beqz	v0,8c38 <find_SZ_position_and_direction_to_IO+0x35c>
    8b54:	3c020005 	lui	v0,0x5
    8b58:	00132200 	sll	a0,s3,0x8
    8b5c:	00142a00 	sll	a1,s4,0x8
    8b60:	00e42025 	or	a0,a3,a0
    8b64:	3c030005 	lui	v1,0x5
    8b68:	02a52825 	or	a1,s5,a1
    8b6c:	ac44a7b4 	sw	a0,-22604(v0)
    8b70:	ac65a7a0 	sw	a1,-22624(v1)
    8b74:	24040002 	li	a0,2
    8b78:	3c020005 	lui	v0,0x5
    8b7c:	3c030005 	lui	v1,0x5
    8b80:	ac44a7b0 	sw	a0,-22608(v0)
    8b84:	08002278 	j	89e0 <find_SZ_position_and_direction_to_IO+0x104>
    8b88:	ac60a79c 	sw	zero,-22628(v1)
    8b8c:	10400038 	beqz	v0,8c70 <find_SZ_position_and_direction_to_IO+0x394>
    8b90:	3c020005 	lui	v0,0x5
    8b94:	00132200 	sll	a0,s3,0x8
    8b98:	00142a00 	sll	a1,s4,0x8
    8b9c:	00e42025 	or	a0,a3,a0
    8ba0:	3c030005 	lui	v1,0x5
    8ba4:	02452825 	or	a1,s2,a1
    8ba8:	ac44a7b4 	sw	a0,-22604(v0)
    8bac:	ac65a7a0 	sw	a1,-22624(v1)
    8bb0:	24040003 	li	a0,3
    8bb4:	3c020005 	lui	v0,0x5
    8bb8:	3c030005 	lui	v1,0x5
    8bbc:	ac44a7b0 	sw	a0,-22608(v0)
    8bc0:	08002278 	j	89e0 <find_SZ_position_and_direction_to_IO+0x104>
    8bc4:	ac60a79c 	sw	zero,-22628(v1)
    8bc8:	00492825 	or	a1,v0,t1
    8bcc:	3c030005 	lui	v1,0x5
    8bd0:	00e21025 	or	v0,a3,v0
    8bd4:	ac62a7b4 	sw	v0,-22604(v1)
    8bd8:	3c040005 	lui	a0,0x5
    8bdc:	3c020005 	lui	v0,0x5
    8be0:	3c030005 	lui	v1,0x5
    8be4:	24070001 	li	a3,1
    8be8:	ac85a7a0 	sw	a1,-22624(a0)
    8bec:	ac40a79c 	sw	zero,-22628(v0)
    8bf0:	0800225d 	j	8974 <find_SZ_position_and_direction_to_IO+0x98>
    8bf4:	ac60a7b0 	sw	zero,-22608(v1)
    8bf8:	10400023 	beqz	v0,8c88 <find_SZ_position_and_direction_to_IO+0x3ac>
    8bfc:	3c020005 	lui	v0,0x5
    8c00:	00112200 	sll	a0,s1,0x8
    8c04:	00142a00 	sll	a1,s4,0x8
    8c08:	00e42025 	or	a0,a3,a0
    8c0c:	3c030005 	lui	v1,0x5
    8c10:	02a52825 	or	a1,s5,a1
    8c14:	ac44a7b4 	sw	a0,-22604(v0)
    8c18:	ac65a7a0 	sw	a1,-22624(v1)
    8c1c:	24040001 	li	a0,1
    8c20:	3c020005 	lui	v0,0x5
    8c24:	3c030005 	lui	v1,0x5
    8c28:	24070001 	li	a3,1
    8c2c:	ac44a79c 	sw	a0,-22628(v0)
    8c30:	0800225d 	j	8974 <find_SZ_position_and_direction_to_IO+0x98>
    8c34:	ac66a7b0 	sw	a2,-22608(v1)
    8c38:	00052200 	sll	a0,a1,0x8
    8c3c:	00142a00 	sll	a1,s4,0x8
    8c40:	02a42025 	or	a0,s5,a0
    8c44:	02a52825 	or	a1,s5,a1
    8c48:	24060002 	li	a2,2
    8c4c:	3c020005 	lui	v0,0x5
    8c50:	3c030005 	lui	v1,0x5
    8c54:	ac44a7b4 	sw	a0,-22604(v0)
    8c58:	ac65a7a0 	sw	a1,-22624(v1)
    8c5c:	3c020005 	lui	v0,0x5
    8c60:	3c030005 	lui	v1,0x5
    8c64:	ac46a7b0 	sw	a2,-22608(v0)
    8c68:	08002278 	j	89e0 <find_SZ_position_and_direction_to_IO+0x104>
    8c6c:	ac66a79c 	sw	a2,-22628(v1)
    8c70:	00052200 	sll	a0,a1,0x8
    8c74:	00142a00 	sll	a1,s4,0x8
    8c78:	02442025 	or	a0,s2,a0
    8c7c:	02452825 	or	a1,s2,a1
    8c80:	08002313 	j	8c4c <find_SZ_position_and_direction_to_IO+0x370>
    8c84:	24060003 	li	a2,3
    8c88:	00112200 	sll	a0,s1,0x8
    8c8c:	00893025 	or	a2,a0,t1
    8c90:	00e42025 	or	a0,a3,a0
    8c94:	3c030005 	lui	v1,0x5
    8c98:	24050001 	li	a1,1
    8c9c:	ac44a7b4 	sw	a0,-22604(v0)
    8ca0:	ac66a7a0 	sw	a2,-22624(v1)
    8ca4:	3c020005 	lui	v0,0x5
    8ca8:	3c030005 	lui	v1,0x5
    8cac:	24070001 	li	a3,1
    8cb0:	ac45a7b0 	sw	a1,-22608(v0)
    8cb4:	0800225d 	j	8974 <find_SZ_position_and_direction_to_IO+0x98>
    8cb8:	ac65a79c 	sw	a1,-22628(v1)

00008cbc <send_wrapper_open_forward>:
    8cbc:	27bdffe0 	addiu	sp,sp,-32
    8cc0:	afb00010 	sw	s0,16(sp)
    8cc4:	00808021 	move	s0,a0
    8cc8:	afbf001c 	sw	ra,28(sp)
    8ccc:	afb20018 	sw	s2,24(sp)
    8cd0:	afb10014 	sw	s1,20(sp)
    8cd4:	0c000a29 	jal	28a4 <get_service_header_slot>
    8cd8:	00a09021 	move	s2,a1
    8cdc:	02002021 	move	a0,s0
    8ce0:	0c002237 	jal	88dc <find_SZ_position_and_direction_to_IO>
    8ce4:	00408821 	move	s1,v0
    8ce8:	2403ffff 	li	v1,-1
    8cec:	1043001a 	beq	v0,v1,8d58 <send_wrapper_open_forward+0x9c>
    8cf0:	3c020005 	lui	v0,0x5
    8cf4:	8c44a7b4 	lw	a0,-22604(v0)
    8cf8:	2403000b 	li	v1,11
    8cfc:	ae230080 	sw	v1,128(s1)
    8d00:	3085003f 	andi	a1,a0,0x3f
    8d04:	30833f00 	andi	v1,a0,0x3f00
    8d08:	00031b80 	sll	v1,v1,0xe
    8d0c:	3c021000 	lui	v0,0x1000
    8d10:	00052c00 	sll	a1,a1,0x10
    8d14:	00a22825 	or	a1,a1,v0
    8d18:	00832025 	or	a0,a0,v1
    8d1c:	00852025 	or	a0,a0,a1
    8d20:	24020295 	li	v0,661
    8d24:	ae24007c 	sw	a0,124(s1)
    8d28:	ae240078 	sw	a0,120(s1)
    8d2c:	0c0008ee 	jal	23b8 <get_net_address>
    8d30:	ae220084 	sw	v0,132(s1)
    8d34:	3c030005 	lui	v1,0x5
    8d38:	8c64a79c 	lw	a0,-22628(v1)
    8d3c:	ae220090 	sw	v0,144(s1)
    8d40:	24020001 	li	v0,1
    8d44:	ae24008c 	sw	a0,140(s1)
    8d48:	12400009 	beqz	s2,8d70 <send_wrapper_open_forward+0xb4>
    8d4c:	ae22009c 	sw	v0,156(s1)
    8d50:	24020025 	li	v0,37
    8d54:	ae220088 	sw	v0,136(s1)
    8d58:	8fbf001c 	lw	ra,28(sp)
    8d5c:	8fb20018 	lw	s2,24(sp)
    8d60:	8fb10014 	lw	s1,20(sp)
    8d64:	8fb00010 	lw	s0,16(sp)
    8d68:	03e00008 	jr	ra
    8d6c:	27bd0020 	addiu	sp,sp,32
    8d70:	24020015 	li	v0,21
    8d74:	ae220088 	sw	v0,136(s1)
    8d78:	8fbf001c 	lw	ra,28(sp)
    8d7c:	8fb20018 	lw	s2,24(sp)
    8d80:	8fb10014 	lw	s1,20(sp)
    8d84:	8fb00010 	lw	s0,16(sp)
    8d88:	03e00008 	jr	ra
    8d8c:	27bd0020 	addiu	sp,sp,32

00008d90 <send_wrapper_close_forward>:
    8d90:	27bdffe0 	addiu	sp,sp,-32
    8d94:	afb00010 	sw	s0,16(sp)
    8d98:	00808021 	move	s0,a0
    8d9c:	afbf001c 	sw	ra,28(sp)
    8da0:	afb20018 	sw	s2,24(sp)
    8da4:	0c000a29 	jal	28a4 <get_service_header_slot>
    8da8:	afb10014 	sw	s1,20(sp)
    8dac:	02002021 	move	a0,s0
    8db0:	0c001cae 	jal	72b8 <get_CM_peripheral_ID>
    8db4:	00409021 	move	s2,v0
    8db8:	00408821 	move	s1,v0
    8dbc:	0c001cb9 	jal	72e4 <get_CM_IO_service>
    8dc0:	02002021 	move	a0,s0
    8dc4:	02202021 	move	a0,s1
    8dc8:	0c002237 	jal	88dc <find_SZ_position_and_direction_to_IO>
    8dcc:	00408021 	move	s0,v0
    8dd0:	2403ffff 	li	v1,-1
    8dd4:	1043002e 	beq	v0,v1,8e90 <send_wrapper_close_forward+0x100>
    8dd8:	3c020005 	lui	v0,0x5
    8ddc:	8c44a7b4 	lw	a0,-22604(v0)
    8de0:	2403000b 	li	v1,11
    8de4:	ae430080 	sw	v1,128(s2)
    8de8:	3085003f 	andi	a1,a0,0x3f
    8dec:	30833f00 	andi	v1,a0,0x3f00
    8df0:	00031b80 	sll	v1,v1,0xe
    8df4:	3c021000 	lui	v0,0x1000
    8df8:	00052c00 	sll	a1,a1,0x10
    8dfc:	00a22825 	or	a1,a1,v0
    8e00:	00832025 	or	a0,a0,v1
    8e04:	00852025 	or	a0,a0,a1
    8e08:	24020295 	li	v0,661
    8e0c:	ae44007c 	sw	a0,124(s2)
    8e10:	ae440078 	sw	a0,120(s2)
    8e14:	0c0008ee 	jal	23b8 <get_net_address>
    8e18:	ae420084 	sw	v0,132(s2)
    8e1c:	3c030005 	lui	v1,0x5
    8e20:	8c64a79c 	lw	a0,-22628(v1)
    8e24:	ae420090 	sw	v0,144(s2)
    8e28:	24020002 	li	v0,2
    8e2c:	ae44008c 	sw	a0,140(s2)
    8e30:	1600000c 	bnez	s0,8e64 <send_wrapper_close_forward+0xd4>
    8e34:	ae42009c 	sw	v0,156(s2)
    8e38:	24020015 	li	v0,21
    8e3c:	ae420088 	sw	v0,136(s2)
    8e40:	02402021 	move	a0,s2
    8e44:	8fbf001c 	lw	ra,28(sp)
    8e48:	8fb20018 	lw	s2,24(sp)
    8e4c:	8fb10014 	lw	s1,20(sp)
    8e50:	8fb00010 	lw	s0,16(sp)
    8e54:	00002821 	move	a1,zero
    8e58:	00003021 	move	a2,zero
    8e5c:	08000c01 	j	3004 <send_packet>
    8e60:	27bd0020 	addiu	sp,sp,32
    8e64:	24020025 	li	v0,37
    8e68:	ae420088 	sw	v0,136(s2)
    8e6c:	02402021 	move	a0,s2
    8e70:	8fbf001c 	lw	ra,28(sp)
    8e74:	8fb20018 	lw	s2,24(sp)
    8e78:	8fb10014 	lw	s1,20(sp)
    8e7c:	8fb00010 	lw	s0,16(sp)
    8e80:	00002821 	move	a1,zero
    8e84:	00003021 	move	a2,zero
    8e88:	08000c01 	j	3004 <send_packet>
    8e8c:	27bd0020 	addiu	sp,sp,32
    8e90:	8fbf001c 	lw	ra,28(sp)
    8e94:	8fb20018 	lw	s2,24(sp)
    8e98:	8fb10014 	lw	s1,20(sp)
    8e9c:	8fb00010 	lw	s0,16(sp)
    8ea0:	03e00008 	jr	ra
    8ea4:	27bd0020 	addiu	sp,sp,32

00008ea8 <send_wrapper_close_back__open_forward>:
    8ea8:	27bdffd8 	addiu	sp,sp,-40
    8eac:	afb00010 	sw	s0,16(sp)
    8eb0:	00808021 	move	s0,a0
    8eb4:	afbf0020 	sw	ra,32(sp)
    8eb8:	afb3001c 	sw	s3,28(sp)
    8ebc:	afb20018 	sw	s2,24(sp)
    8ec0:	0c000a29 	jal	28a4 <get_service_header_slot>
    8ec4:	afb10014 	sw	s1,20(sp)
    8ec8:	02002021 	move	a0,s0
    8ecc:	0c001cae 	jal	72b8 <get_CM_peripheral_ID>
    8ed0:	00409021 	move	s2,v0
    8ed4:	00408821 	move	s1,v0
    8ed8:	0c001cb9 	jal	72e4 <get_CM_IO_service>
    8edc:	02002021 	move	a0,s0
    8ee0:	02202021 	move	a0,s1
    8ee4:	0c002237 	jal	88dc <find_SZ_position_and_direction_to_IO>
    8ee8:	00408021 	move	s0,v0
    8eec:	2403ffff 	li	v1,-1
    8ef0:	10430049 	beq	v0,v1,9018 <send_wrapper_close_back__open_forward+0x170>
    8ef4:	3c130005 	lui	s3,0x5
    8ef8:	3c020005 	lui	v0,0x5
    8efc:	8c44a7b4 	lw	a0,-22604(v0)
    8f00:	2403000b 	li	v1,11
    8f04:	ae430080 	sw	v1,128(s2)
    8f08:	3085003f 	andi	a1,a0,0x3f
    8f0c:	30833f00 	andi	v1,a0,0x3f00
    8f10:	00031b80 	sll	v1,v1,0xe
    8f14:	3c021000 	lui	v0,0x1000
    8f18:	00052c00 	sll	a1,a1,0x10
    8f1c:	00a22825 	or	a1,a1,v0
    8f20:	00832025 	or	a0,a0,v1
    8f24:	00852025 	or	a0,a0,a1
    8f28:	24020295 	li	v0,661
    8f2c:	ae44007c 	sw	a0,124(s2)
    8f30:	ae420084 	sw	v0,132(s2)
    8f34:	0c0008ee 	jal	23b8 <get_net_address>
    8f38:	ae440078 	sw	a0,120(s2)
    8f3c:	8e63a79c 	lw	v1,-22628(s3)
    8f40:	ae420090 	sw	v0,144(s2)
    8f44:	ae43008c 	sw	v1,140(s2)
    8f48:	16000024 	bnez	s0,8fdc <send_wrapper_close_back__open_forward+0x134>
    8f4c:	ae40009c 	sw	zero,156(s2)
    8f50:	24020015 	li	v0,21
    8f54:	ae420088 	sw	v0,136(s2)
    8f58:	02402021 	move	a0,s2
    8f5c:	00002821 	move	a1,zero
    8f60:	0c000c01 	jal	3004 <send_packet>
    8f64:	00003021 	move	a2,zero
    8f68:	3c020005 	lui	v0,0x5
    8f6c:	8c43a7a0 	lw	v1,-22624(v0)
    8f70:	3c021000 	lui	v0,0x1000
    8f74:	3064003f 	andi	a0,v1,0x3f
    8f78:	30653f00 	andi	a1,v1,0x3f00
    8f7c:	00052b80 	sll	a1,a1,0xe
    8f80:	00042400 	sll	a0,a0,0x10
    8f84:	8e66a79c 	lw	a2,-22628(s3)
    8f88:	00822025 	or	a0,a0,v0
    8f8c:	00651825 	or	v1,v1,a1
    8f90:	00641825 	or	v1,v1,a0
    8f94:	24020002 	li	v0,2
    8f98:	ae43007c 	sw	v1,124(s2)
    8f9c:	ae46008c 	sw	a2,140(s2)
    8fa0:	ae42009c 	sw	v0,156(s2)
    8fa4:	16000010 	bnez	s0,8fe8 <send_wrapper_close_back__open_forward+0x140>
    8fa8:	ae430078 	sw	v1,120(s2)
    8fac:	24020025 	li	v0,37
    8fb0:	ae420088 	sw	v0,136(s2)
    8fb4:	02402021 	move	a0,s2
    8fb8:	8fbf0020 	lw	ra,32(sp)
    8fbc:	8fb3001c 	lw	s3,28(sp)
    8fc0:	8fb20018 	lw	s2,24(sp)
    8fc4:	8fb10014 	lw	s1,20(sp)
    8fc8:	8fb00010 	lw	s0,16(sp)
    8fcc:	00002821 	move	a1,zero
    8fd0:	00003021 	move	a2,zero
    8fd4:	08000c01 	j	3004 <send_packet>
    8fd8:	27bd0028 	addiu	sp,sp,40
    8fdc:	24020025 	li	v0,37
    8fe0:	080023d6 	j	8f58 <send_wrapper_close_back__open_forward+0xb0>
    8fe4:	ae420088 	sw	v0,136(s2)
    8fe8:	24020026 	li	v0,38
    8fec:	ae420088 	sw	v0,136(s2)
    8ff0:	02402021 	move	a0,s2
    8ff4:	8fbf0020 	lw	ra,32(sp)
    8ff8:	8fb3001c 	lw	s3,28(sp)
    8ffc:	8fb20018 	lw	s2,24(sp)
    9000:	8fb10014 	lw	s1,20(sp)
    9004:	8fb00010 	lw	s0,16(sp)
    9008:	00002821 	move	a1,zero
    900c:	00003021 	move	a2,zero
    9010:	08000c01 	j	3004 <send_packet>
    9014:	27bd0028 	addiu	sp,sp,40
    9018:	8fbf0020 	lw	ra,32(sp)
    901c:	8fb3001c 	lw	s3,28(sp)
    9020:	8fb20018 	lw	s2,24(sp)
    9024:	8fb10014 	lw	s1,20(sp)
    9028:	8fb00010 	lw	s0,16(sp)
    902c:	03e00008 	jr	ra
    9030:	27bd0028 	addiu	sp,sp,40

00009034 <open_wrapper_IO_SZ>:
    9034:	27bdffe0 	addiu	sp,sp,-32
    9038:	afb00010 	sw	s0,16(sp)
    903c:	00808021 	move	s0,a0
    9040:	afbf001c 	sw	ra,28(sp)
    9044:	afb20018 	sw	s2,24(sp)
    9048:	afb10014 	sw	s1,20(sp)
    904c:	0c000a29 	jal	28a4 <get_service_header_slot>
    9050:	00a09021 	move	s2,a1
    9054:	02002021 	move	a0,s0
    9058:	0c002237 	jal	88dc <find_SZ_position_and_direction_to_IO>
    905c:	00408821 	move	s1,v0
    9060:	2403ffff 	li	v1,-1
    9064:	10430048 	beq	v0,v1,9188 <open_wrapper_IO_SZ+0x154>
    9068:	3c020005 	lui	v0,0x5
    906c:	8c44a7b4 	lw	a0,-22604(v0)
    9070:	2403000b 	li	v1,11
    9074:	ae230080 	sw	v1,128(s1)
    9078:	3085003f 	andi	a1,a0,0x3f
    907c:	30833f00 	andi	v1,a0,0x3f00
    9080:	00031b80 	sll	v1,v1,0xe
    9084:	3c021000 	lui	v0,0x1000
    9088:	00052c00 	sll	a1,a1,0x10
    908c:	00a22825 	or	a1,a1,v0
    9090:	00832025 	or	a0,a0,v1
    9094:	00852025 	or	a0,a0,a1
    9098:	24020295 	li	v0,661
    909c:	ae24007c 	sw	a0,124(s1)
    90a0:	ae240078 	sw	a0,120(s1)
    90a4:	0c0008ee 	jal	23b8 <get_net_address>
    90a8:	ae220084 	sw	v0,132(s1)
    90ac:	3c030005 	lui	v1,0x5
    90b0:	8c64a79c 	lw	a0,-22628(v1)
    90b4:	ae220090 	sw	v0,144(s1)
    90b8:	24020001 	li	v0,1
    90bc:	ae24008c 	sw	a0,140(s1)
    90c0:	16400023 	bnez	s2,9150 <open_wrapper_IO_SZ+0x11c>
    90c4:	ae22009c 	sw	v0,156(s1)
    90c8:	24020015 	li	v0,21
    90cc:	ae220088 	sw	v0,136(s1)
    90d0:	02202021 	move	a0,s1
    90d4:	00002821 	move	a1,zero
    90d8:	0c000c01 	jal	3004 <send_packet>
    90dc:	00003021 	move	a2,zero
    90e0:	3c030005 	lui	v1,0x5
    90e4:	8c62a7a0 	lw	v0,-22624(v1)
    90e8:	3c040005 	lui	a0,0x5
    90ec:	3045003f 	andi	a1,v0,0x3f
    90f0:	30463f00 	andi	a2,v0,0x3f00
    90f4:	3c031000 	lui	v1,0x1000
    90f8:	00063380 	sll	a2,a2,0xe
    90fc:	00052c00 	sll	a1,a1,0x10
    9100:	00a32825 	or	a1,a1,v1
    9104:	00461025 	or	v0,v0,a2
    9108:	8c83a7b0 	lw	v1,-22608(a0)
    910c:	00451025 	or	v0,v0,a1
    9110:	ae22007c 	sw	v0,124(s1)
    9114:	ae23008c 	sw	v1,140(s1)
    9118:	ae220078 	sw	v0,120(s1)
    911c:	1640000f 	bnez	s2,915c <open_wrapper_IO_SZ+0x128>
    9120:	ae20009c 	sw	zero,156(s1)
    9124:	24020025 	li	v0,37
    9128:	ae220088 	sw	v0,136(s1)
    912c:	02202021 	move	a0,s1
    9130:	8fbf001c 	lw	ra,28(sp)
    9134:	8fb20018 	lw	s2,24(sp)
    9138:	8fb10014 	lw	s1,20(sp)
    913c:	8fb00010 	lw	s0,16(sp)
    9140:	00002821 	move	a1,zero
    9144:	00003021 	move	a2,zero
    9148:	08000c01 	j	3004 <send_packet>
    914c:	27bd0020 	addiu	sp,sp,32
    9150:	24020025 	li	v0,37
    9154:	08002434 	j	90d0 <open_wrapper_IO_SZ+0x9c>
    9158:	ae220088 	sw	v0,136(s1)
    915c:	24020026 	li	v0,38
    9160:	ae220088 	sw	v0,136(s1)
    9164:	02202021 	move	a0,s1
    9168:	8fbf001c 	lw	ra,28(sp)
    916c:	8fb20018 	lw	s2,24(sp)
    9170:	8fb10014 	lw	s1,20(sp)
    9174:	8fb00010 	lw	s0,16(sp)
    9178:	00002821 	move	a1,zero
    917c:	00003021 	move	a2,zero
    9180:	08000c01 	j	3004 <send_packet>
    9184:	27bd0020 	addiu	sp,sp,32
    9188:	8fbf001c 	lw	ra,28(sp)
    918c:	8fb20018 	lw	s2,24(sp)
    9190:	8fb10014 	lw	s1,20(sp)
    9194:	8fb00010 	lw	s0,16(sp)
    9198:	03e00008 	jr	ra
    919c:	27bd0020 	addiu	sp,sp,32

000091a0 <timeoutMonitor>:
    91a0:	27bdffd8 	addiu	sp,sp,-40
    91a4:	afb3001c 	sw	s3,28(sp)
    91a8:	afb20018 	sw	s2,24(sp)
    91ac:	afb10014 	sw	s1,20(sp)
    91b0:	afb00010 	sw	s0,16(sp)
    91b4:	00a09021 	move	s2,a1
    91b8:	afbf0020 	sw	ra,32(sp)
    91bc:	0c0008ee 	jal	23b8 <get_net_address>
    91c0:	00808021 	move	s0,a0
    91c4:	00409821 	move	s3,v0
    91c8:	3c020005 	lui	v0,0x5
    91cc:	2451af08 	addiu	s1,v0,-20728
    91d0:	00001821 	move	v1,zero
    91d4:	24050001 	li	a1,1
    91d8:	0800247b 	j	91ec <timeoutMonitor+0x4c>
    91dc:	24040018 	li	a0,24
    91e0:	2631002c 	addiu	s1,s1,44
    91e4:	1064001a 	beq	v1,a0,9250 <timeoutMonitor+0xb0>
    91e8:	2610002c 	addiu	s0,s0,44
    91ec:	8e020018 	lw	v0,24(s0)
    91f0:	00000000 	nop
    91f4:	1445fffa 	bne	v0,a1,91e0 <timeoutMonitor+0x40>
    91f8:	24630001 	addiu	v1,v1,1
    91fc:	8e020008 	lw	v0,8(s0)
    9200:	00000000 	nop
    9204:	02421023 	subu	v0,s2,v0
    9208:	2c4203e9 	sltiu	v0,v0,1001
    920c:	1440fff5 	bnez	v0,91e4 <timeoutMonitor+0x44>
    9210:	2631002c 	addiu	s1,s1,44
    9214:	2631ffd4 	addiu	s1,s1,-44
    9218:	24020004 	li	v0,4
    921c:	8e240000 	lw	a0,0(s1)
    9220:	0c0012b8 	jal	4ae0 <get_task_location>
    9224:	ae020018 	sw	v0,24(s0)
    9228:	12620010 	beq	s3,v0,926c <timeoutMonitor+0xcc>
    922c:	00000000 	nop
    9230:	8e240000 	lw	a0,0(s1)
    9234:	8fbf0020 	lw	ra,32(sp)
    9238:	8fb3001c 	lw	s3,28(sp)
    923c:	8fb20018 	lw	s2,24(sp)
    9240:	8fb10014 	lw	s1,20(sp)
    9244:	8fb00010 	lw	s0,16(sp)
    9248:	080012b8 	j	4ae0 <get_task_location>
    924c:	27bd0028 	addiu	sp,sp,40
    9250:	8fbf0020 	lw	ra,32(sp)
    9254:	8fb3001c 	lw	s3,28(sp)
    9258:	8fb20018 	lw	s2,24(sp)
    925c:	8fb10014 	lw	s1,20(sp)
    9260:	8fb00010 	lw	s0,16(sp)
    9264:	03e00008 	jr	ra
    9268:	27bd0028 	addiu	sp,sp,40
    926c:	8e240004 	lw	a0,4(s1)
    9270:	0800248d 	j	9234 <timeoutMonitor+0x94>
    9274:	00000000 	nop

00009278 <send_message_request_control>:
    9278:	27bdffd0 	addiu	sp,sp,-48
    927c:	afb60028 	sw	s6,40(sp)
    9280:	afb50024 	sw	s5,36(sp)
    9284:	afb40020 	sw	s4,32(sp)
    9288:	afb3001c 	sw	s3,28(sp)
    928c:	afbf002c 	sw	ra,44(sp)
    9290:	00809821 	move	s3,a0
    9294:	afb20018 	sw	s2,24(sp)
    9298:	afb10014 	sw	s1,20(sp)
    929c:	afb00010 	sw	s0,16(sp)
    92a0:	00e0b021 	move	s6,a3
    92a4:	00a0a821 	move	s5,a1
    92a8:	0c002141 	jal	8504 <checkSession>
    92ac:	00c0a021 	move	s4,a2
    92b0:	0440001c 	bltz	v0,9324 <send_message_request_control+0xac>
    92b4:	00402021 	move	a0,v0
    92b8:	00021880 	sll	v1,v0,0x2
    92bc:	00021100 	sll	v0,v0,0x4
    92c0:	00431023 	subu	v0,v0,v1
    92c4:	00441023 	subu	v0,v0,a0
    92c8:	00021080 	sll	v0,v0,0x2
    92cc:	02621021 	addu	v0,s3,v0
    92d0:	8c440024 	lw	a0,36(v0)
    92d4:	8c450028 	lw	a1,40(v0)
    92d8:	8c430020 	lw	v1,32(v0)
    92dc:	00a42825 	or	a1,a1,a0
    92e0:	24630001 	addiu	v1,v1,1
    92e4:	00052c00 	sll	a1,a1,0x10
    92e8:	00652825 	or	a1,v1,a1
    92ec:	ac430020 	sw	v1,32(v0)
    92f0:	02c03021 	move	a2,s6
    92f4:	24040014 	li	a0,20
    92f8:	00003821 	move	a3,zero
    92fc:	8fbf002c 	lw	ra,44(sp)
    9300:	8fb60028 	lw	s6,40(sp)
    9304:	8fb50024 	lw	s5,36(sp)
    9308:	8fb40020 	lw	s4,32(sp)
    930c:	8fb3001c 	lw	s3,28(sp)
    9310:	8fb20018 	lw	s2,24(sp)
    9314:	8fb10014 	lw	s1,20(sp)
    9318:	8fb00010 	lw	s0,16(sp)
    931c:	0800196b 	j	65ac <Seek>
    9320:	27bd0030 	addiu	sp,sp,48
    9324:	3c022000 	lui	v0,0x2000
    9328:	34520300 	ori	s2,v0,0x300
    932c:	3411ffc0 	li	s1,0xffc0
    9330:	8e500000 	lw	s0,0(s2)
    9334:	0c0008ee 	jal	23b8 <get_net_address>
    9338:	00000000 	nop
    933c:	02020018 	mult	s0,v0
    9340:	00008012 	mflo	s0
    9344:	3207ffc0 	andi	a3,s0,0xffc0
    9348:	10f1fff9 	beq	a3,s1,9330 <send_message_request_control+0xb8>
    934c:	34e7003f 	ori	a3,a3,0x3f
    9350:	02602021 	move	a0,s3
    9354:	02a02821 	move	a1,s5
    9358:	0c0021c5 	jal	8714 <createSession>
    935c:	02803021 	move	a2,s4
    9360:	00022080 	sll	a0,v0,0x2
    9364:	00021900 	sll	v1,v0,0x4
    9368:	00641823 	subu	v1,v1,a0
    936c:	00621823 	subu	v1,v1,v0
    9370:	00031880 	sll	v1,v1,0x2
    9374:	02631821 	addu	v1,s3,v1
    9378:	8c640024 	lw	a0,36(v1)
    937c:	8c660020 	lw	a2,32(v1)
    9380:	00152a00 	sll	a1,s5,0x8
    9384:	00441025 	or	v0,v0,a0
    9388:	30a5ff00 	andi	a1,a1,0xff00
    938c:	328400ff 	andi	a0,s4,0xff
    9390:	00a42825 	or	a1,a1,a0
    9394:	24c60001 	addiu	a2,a2,1
    9398:	00021400 	sll	v0,v0,0x10
    939c:	00143a02 	srl	a3,s4,0x8
    93a0:	ac660020 	sw	a2,32(v1)
    93a4:	00452825 	or	a1,v0,a1
    93a8:	02c03021 	move	a2,s6
    93ac:	30e700ff 	andi	a3,a3,0xff
    93b0:	080024bf 	j	92fc <send_message_request_control+0x84>
    93b4:	24040014 	li	a0,20

000093b8 <send_message_delivery_control>:
    93b8:	27bdffe0 	addiu	sp,sp,-32
    93bc:	afb10014 	sw	s1,20(sp)
    93c0:	afb00010 	sw	s0,16(sp)
    93c4:	00e08821 	move	s1,a3
    93c8:	afbf0018 	sw	ra,24(sp)
    93cc:	0c002141 	jal	8504 <checkSession>
    93d0:	00808021 	move	s0,a0
    93d4:	00022080 	sll	a0,v0,0x2
    93d8:	00021900 	sll	v1,v0,0x4
    93dc:	00641823 	subu	v1,v1,a0
    93e0:	00621823 	subu	v1,v1,v0
    93e4:	00031880 	sll	v1,v1,0x2
    93e8:	02038021 	addu	s0,s0,v1
    93ec:	02203021 	move	a2,s1
    93f0:	00403821 	move	a3,v0
    93f4:	04410005 	bgez	v0,940c <send_message_delivery_control+0x54>
    93f8:	24040013 	li	a0,19
    93fc:	3c020001 	lui	v0,0x1
    9400:	2442a5fc 	addiu	v0,v0,-23044
    9404:	3c032000 	lui	v1,0x2000
    9408:	ac620000 	sw	v0,0(v1)
    940c:	8e02001c 	lw	v0,28(s0)
    9410:	8e050028 	lw	a1,40(s0)
    9414:	8e030024 	lw	v1,36(s0)
    9418:	24420001 	addiu	v0,v0,1
    941c:	00a32825 	or	a1,a1,v1
    9420:	ae02001c 	sw	v0,28(s0)
    9424:	00052c00 	sll	a1,a1,0x10
    9428:	8fbf0018 	lw	ra,24(sp)
    942c:	8fb10014 	lw	s1,20(sp)
    9430:	8fb00010 	lw	s0,16(sp)
    9434:	00452825 	or	a1,v0,a1
    9438:	0800196b 	j	65ac <Seek>
    943c:	27bd0020 	addiu	sp,sp,32

00009440 <printSessionStatus>:
    9440:	27bdffd8 	addiu	sp,sp,-40
    9444:	00051080 	sll	v0,a1,0x2
    9448:	afb10014 	sw	s1,20(sp)
    944c:	00058900 	sll	s1,a1,0x4
    9450:	02228823 	subu	s1,s1,v0
    9454:	02258823 	subu	s1,s1,a1
    9458:	3c020005 	lui	v0,0x5
    945c:	3c030001 	lui	v1,0x1
    9460:	2463a620 	addiu	v1,v1,-23008
    9464:	afb00010 	sw	s0,16(sp)
    9468:	2442af08 	addiu	v0,v0,-20728
    946c:	3c102000 	lui	s0,0x2000
    9470:	00118880 	sll	s1,s1,0x2
    9474:	afbf0020 	sw	ra,32(sp)
    9478:	02228821 	addu	s1,s1,v0
    947c:	afb3001c 	sw	s3,28(sp)
    9480:	afb20018 	sw	s2,24(sp)
    9484:	ae030000 	sw	v1,0(s0)
    9488:	8e240024 	lw	a0,36(s1)
    948c:	0c000939 	jal	24e4 <itoh>
    9490:	00a09821 	move	s3,a1
    9494:	ae020000 	sw	v0,0(s0)
    9498:	3c120001 	lui	s2,0x1
    949c:	3c020001 	lui	v0,0x1
    94a0:	2652a160 	addiu	s2,s2,-24224
    94a4:	2442a638 	addiu	v0,v0,-22984
    94a8:	ae120000 	sw	s2,0(s0)
    94ac:	ae020000 	sw	v0,0(s0)
    94b0:	8e240004 	lw	a0,4(s1)
    94b4:	0c000939 	jal	24e4 <itoh>
    94b8:	00000000 	nop
    94bc:	ae020000 	sw	v0,0(s0)
    94c0:	3c020001 	lui	v0,0x1
    94c4:	2442a648 	addiu	v0,v0,-22968
    94c8:	ae120000 	sw	s2,0(s0)
    94cc:	ae020000 	sw	v0,0(s0)
    94d0:	8e240000 	lw	a0,0(s1)
    94d4:	0c000939 	jal	24e4 <itoh>
    94d8:	00000000 	nop
    94dc:	ae020000 	sw	v0,0(s0)
    94e0:	3c020001 	lui	v0,0x1
    94e4:	2442a658 	addiu	v0,v0,-22952
    94e8:	ae120000 	sw	s2,0(s0)
    94ec:	ae020000 	sw	v0,0(s0)
    94f0:	8e240028 	lw	a0,40(s1)
    94f4:	0c000939 	jal	24e4 <itoh>
    94f8:	00000000 	nop
    94fc:	ae020000 	sw	v0,0(s0)
    9500:	3c020001 	lui	v0,0x1
    9504:	2442a668 	addiu	v0,v0,-22936
    9508:	ae120000 	sw	s2,0(s0)
    950c:	02602021 	move	a0,s3
    9510:	ae020000 	sw	v0,0(s0)
    9514:	0c000939 	jal	24e4 <itoh>
    9518:	00000000 	nop
    951c:	ae020000 	sw	v0,0(s0)
    9520:	ae120000 	sw	s2,0(s0)
    9524:	8fbf0020 	lw	ra,32(sp)
    9528:	8fb3001c 	lw	s3,28(sp)
    952c:	8fb20018 	lw	s2,24(sp)
    9530:	8fb10014 	lw	s1,20(sp)
    9534:	8fb00010 	lw	s0,16(sp)
    9538:	03e00008 	jr	ra
    953c:	27bd0028 	addiu	sp,sp,40

00009540 <printSessions>:
    9540:	27bdffc8 	addiu	sp,sp,-56
    9544:	3c020005 	lui	v0,0x5
    9548:	3c030001 	lui	v1,0x1
    954c:	afb7002c 	sw	s7,44(sp)
    9550:	afb20018 	sw	s2,24(sp)
    9554:	2477a620 	addiu	s7,v1,-23008
    9558:	2452af2c 	addiu	s2,v0,-20692
    955c:	3c030001 	lui	v1,0x1
    9560:	3c020001 	lui	v0,0x1
    9564:	afb60028 	sw	s6,40(sp)
    9568:	afb3001c 	sw	s3,28(sp)
    956c:	2476a638 	addiu	s6,v1,-22984
    9570:	2453a160 	addiu	s3,v0,-24224
    9574:	3c030005 	lui	v1,0x5
    9578:	3c020001 	lui	v0,0x1
    957c:	afb50024 	sw	s5,36(sp)
    9580:	afb40020 	sw	s4,32(sp)
    9584:	afb10014 	sw	s1,20(sp)
    9588:	afb00010 	sw	s0,16(sp)
    958c:	2455a648 	addiu	s5,v0,-22968
    9590:	00808021 	move	s0,a0
    9594:	2474b34c 	addiu	s4,v1,-19636
    9598:	3c112000 	lui	s1,0x2000
    959c:	0800256c 	j	95b0 <printSessions+0x70>
    95a0:	afbf0030 	sw	ra,48(sp)
    95a4:	2652002c 	addiu	s2,s2,44
    95a8:	12540019 	beq	s2,s4,9610 <printSessions+0xd0>
    95ac:	00000000 	nop
    95b0:	8e020018 	lw	v0,24(s0)
    95b4:	00000000 	nop
    95b8:	1040fffa 	beqz	v0,95a4 <printSessions+0x64>
    95bc:	2610002c 	addiu	s0,s0,44
    95c0:	ae370000 	sw	s7,0(s1)
    95c4:	8e440000 	lw	a0,0(s2)
    95c8:	0c000939 	jal	24e4 <itoh>
    95cc:	00000000 	nop
    95d0:	ae220000 	sw	v0,0(s1)
    95d4:	ae330000 	sw	s3,0(s1)
    95d8:	ae360000 	sw	s6,0(s1)
    95dc:	8e44ffe0 	lw	a0,-32(s2)
    95e0:	0c000939 	jal	24e4 <itoh>
    95e4:	00000000 	nop
    95e8:	ae220000 	sw	v0,0(s1)
    95ec:	ae330000 	sw	s3,0(s1)
    95f0:	ae350000 	sw	s5,0(s1)
    95f4:	8e44ffdc 	lw	a0,-36(s2)
    95f8:	0c000939 	jal	24e4 <itoh>
    95fc:	2652002c 	addiu	s2,s2,44
    9600:	ae220000 	sw	v0,0(s1)
    9604:	ae330000 	sw	s3,0(s1)
    9608:	1654ffe9 	bne	s2,s4,95b0 <printSessions+0x70>
    960c:	00000000 	nop
    9610:	8fbf0030 	lw	ra,48(sp)
    9614:	8fb7002c 	lw	s7,44(sp)
    9618:	8fb60028 	lw	s6,40(sp)
    961c:	8fb50024 	lw	s5,36(sp)
    9620:	8fb40020 	lw	s4,32(sp)
    9624:	8fb3001c 	lw	s3,28(sp)
    9628:	8fb20018 	lw	s2,24(sp)
    962c:	8fb10014 	lw	s1,20(sp)
    9630:	8fb00010 	lw	s0,16(sp)
    9634:	03e00008 	jr	ra
    9638:	27bd0038 	addiu	sp,sp,56

0000963c <Unset_Secure_Zone>:
    963c:	27bdffc0 	addiu	sp,sp,-64
    9640:	afa60048 	sw	a2,72(sp)
    9644:	afbf003c 	sw	ra,60(sp)
    9648:	afbe0038 	sw	s8,56(sp)
    964c:	afb60030 	sw	s6,48(sp)
    9650:	afb5002c 	sw	s5,44(sp)
    9654:	afb40028 	sw	s4,40(sp)
    9658:	afb30024 	sw	s3,36(sp)
    965c:	afb20020 	sw	s2,32(sp)
    9660:	afb1001c 	sw	s1,28(sp)
    9664:	afb00018 	sw	s0,24(sp)
    9668:	00a08821 	move	s1,a1
    966c:	00808021 	move	s0,a0
    9670:	0c0008ee 	jal	23b8 <get_net_address>
    9674:	afb70034 	sw	s7,52(sp)
    9678:	30420f00 	andi	v0,v0,0xf00
    967c:	0c0008ee 	jal	23b8 <get_net_address>
    9680:	00029202 	srl	s2,v0,0x8
    9684:	3c030005 	lui	v1,0x5
    9688:	8c66a68c 	lw	a2,-22900(v1)
    968c:	322400f0 	andi	a0,s1,0xf0
    9690:	30c300f0 	andi	v1,a2,0xf0
    9694:	320500f0 	andi	a1,s0,0xf0
    9698:	3053000f 	andi	s3,v0,0xf
    969c:	3c020005 	lui	v0,0x5
    96a0:	8c47a688 	lw	a3,-22904(v0)
    96a4:	00031903 	sra	v1,v1,0x4
    96a8:	0004f102 	srl	s8,a0,0x4
    96ac:	0005a102 	srl	s4,a1,0x4
    96b0:	30c2000f 	andi	v0,a2,0xf
    96b4:	3236000f 	andi	s6,s1,0xf
    96b8:	12300032 	beq	s1,s0,9784 <Unset_Secure_Zone+0x148>
    96bc:	3215000f 	andi	s5,s0,0xf
    96c0:	12430036 	beq	s2,v1,979c <Unset_Secure_Zone+0x160>
    96c4:	00002821 	move	a1,zero
    96c8:	00001021 	move	v0,zero
    96cc:	3c170005 	lui	s7,0x5
    96d0:	8ef1a824 	lw	s1,-22492(s7)
    96d4:	00000000 	nop
    96d8:	1220001e 	beqz	s1,9754 <Unset_Secure_Zone+0x118>
    96dc:	00000000 	nop
    96e0:	1440000c 	bnez	v0,9714 <Unset_Secure_Zone+0xd8>
    96e4:	3c020001 	lui	v0,0x1
    96e8:	26820001 	addiu	v0,s4,1
    96ec:	12420058 	beq	s2,v0,9850 <Unset_Secure_Zone+0x214>
    96f0:	0275102b 	sltu	v0,s3,s5
    96f4:	26c20001 	addiu	v0,s6,1
    96f8:	1262004f 	beq	s3,v0,9838 <Unset_Secure_Zone+0x1fc>
    96fc:	00000000 	nop
    9700:	12540045 	beq	s2,s4,9818 <Unset_Secure_Zone+0x1dc>
    9704:	0275102b 	sltu	v0,s3,s5
    9708:	1275003f 	beq	s3,s5,9808 <Unset_Secure_Zone+0x1cc>
    970c:	00000000 	nop
    9710:	3c020001 	lui	v0,0x1
    9714:	3c102000 	lui	s0,0x2000
    9718:	2442a674 	addiu	v0,v0,-22924
    971c:	02202021 	move	a0,s1
    9720:	ae020000 	sw	v0,0(s0)
    9724:	0c000939 	jal	24e4 <itoh>
    9728:	afa50010 	sw	a1,16(sp)
    972c:	ae020000 	sw	v0,0(s0)
    9730:	8fa50010 	lw	a1,16(sp)
    9734:	3c020001 	lui	v0,0x1
    9738:	36030540 	ori	v1,s0,0x540
    973c:	2442a160 	addiu	v0,v0,-24224
    9740:	ae020000 	sw	v0,0(s0)
    9744:	ac710000 	sw	s1,0(v1)
    9748:	14a00025 	bnez	a1,97e0 <Unset_Secure_Zone+0x1a4>
    974c:	00000000 	nop
    9750:	aef1a824 	sw	s1,-22492(s7)
    9754:	8fbf003c 	lw	ra,60(sp)
    9758:	8fbe0038 	lw	s8,56(sp)
    975c:	8fb70034 	lw	s7,52(sp)
    9760:	8fb60030 	lw	s6,48(sp)
    9764:	8fb5002c 	lw	s5,44(sp)
    9768:	8fb40028 	lw	s4,40(sp)
    976c:	8fb30024 	lw	s3,36(sp)
    9770:	8fb20020 	lw	s2,32(sp)
    9774:	8fb1001c 	lw	s1,28(sp)
    9778:	8fb00018 	lw	s0,24(sp)
    977c:	03e00008 	jr	ra
    9780:	27bd0040 	addiu	sp,sp,64
    9784:	14d1ffce 	bne	a2,s1,96c0 <Unset_Secure_Zone+0x84>
    9788:	00000000 	nop
    978c:	12430037 	beq	s2,v1,986c <Unset_Secure_Zone+0x230>
    9790:	00002821 	move	a1,zero
    9794:	080025b3 	j	96cc <Unset_Secure_Zone+0x90>
    9798:	24020001 	li	v0,1
    979c:	1662ffca 	bne	s3,v0,96c8 <Unset_Secure_Zone+0x8c>
    97a0:	00000000 	nop
    97a4:	30e200f0 	andi	v0,a3,0xf0
    97a8:	00021103 	sra	v0,v0,0x4
    97ac:	1454ffc7 	bne	v0,s4,96cc <Unset_Secure_Zone+0x90>
    97b0:	00001021 	move	v0,zero
    97b4:	30e2000f 	andi	v0,a3,0xf
    97b8:	1455ffc3 	bne	v0,s5,96c8 <Unset_Secure_Zone+0x8c>
    97bc:	24040003 	li	a0,3
    97c0:	8fa50048 	lw	a1,72(sp)
    97c4:	00000000 	nop
    97c8:	00a03021 	move	a2,a1
    97cc:	0c00196b 	jal	65ac <Seek>
    97d0:	00003821 	move	a3,zero
    97d4:	24050001 	li	a1,1
    97d8:	080025b3 	j	96cc <Unset_Secure_Zone+0x90>
    97dc:	00001021 	move	v0,zero
    97e0:	0c0008ee 	jal	23b8 <get_net_address>
    97e4:	00000000 	nop
    97e8:	3c030005 	lui	v1,0x5
    97ec:	8c67a68c 	lw	a3,-22900(v1)
    97f0:	8fa60048 	lw	a2,72(sp)
    97f4:	00402821 	move	a1,v0
    97f8:	0c00196b 	jal	65ac <Seek>
    97fc:	2404000b 	li	a0,11
    9800:	080025d5 	j	9754 <Unset_Secure_Zone+0x118>
    9804:	aef1a824 	sw	s1,-22492(s7)
    9808:	1654ffc2 	bne	s2,s4,9714 <Unset_Secure_Zone+0xd8>
    980c:	3c020001 	lui	v0,0x1
    9810:	080025c5 	j	9714 <Unset_Secure_Zone+0xd8>
    9814:	2631ff40 	addiu	s1,s1,-192
    9818:	1440ffbb 	bnez	v0,9708 <Unset_Secure_Zone+0xcc>
    981c:	02d3102b 	sltu	v0,s6,s3
    9820:	1440ffb9 	bnez	v0,9708 <Unset_Secure_Zone+0xcc>
    9824:	00000000 	nop
    9828:	1675ffb9 	bne	s3,s5,9710 <Unset_Secure_Zone+0xd4>
    982c:	2631fff4 	addiu	s1,s1,-12
    9830:	08002602 	j	9808 <Unset_Secure_Zone+0x1cc>
    9834:	00000000 	nop
    9838:	165effb1 	bne	s2,s8,9700 <Unset_Secure_Zone+0xc4>
    983c:	00000000 	nop
    9840:	1654ffb1 	bne	s2,s4,9708 <Unset_Secure_Zone+0xcc>
    9844:	263100c0 	addiu	s1,s1,192
    9848:	08002606 	j	9818 <Unset_Secure_Zone+0x1dc>
    984c:	0275102b 	sltu	v0,s3,s5
    9850:	1440ffa9 	bnez	v0,96f8 <Unset_Secure_Zone+0xbc>
    9854:	26c20001 	addiu	v0,s6,1
    9858:	02d3102b 	sltu	v0,s6,s3
    985c:	1440ffa6 	bnez	v0,96f8 <Unset_Secure_Zone+0xbc>
    9860:	26c20001 	addiu	v0,s6,1
    9864:	080025be 	j	96f8 <Unset_Secure_Zone+0xbc>
    9868:	2631000c 	addiu	s1,s1,12
    986c:	1662ffc9 	bne	s3,v0,9794 <Unset_Secure_Zone+0x158>
    9870:	00000000 	nop
    9874:	165eff95 	bne	s2,s8,96cc <Unset_Secure_Zone+0x90>
    9878:	24020001 	li	v0,1
    987c:	1676ff93 	bne	s3,s6,96cc <Unset_Secure_Zone+0x90>
    9880:	24040003 	li	a0,3
    9884:	8fa50048 	lw	a1,72(sp)
    9888:	00000000 	nop
    988c:	00a03021 	move	a2,a1
    9890:	0c00196b 	jal	65ac <Seek>
    9894:	00003821 	move	a3,zero
    9898:	24050001 	li	a1,1
    989c:	080025b3 	j	96cc <Unset_Secure_Zone+0x90>
    98a0:	24020001 	li	v0,1

000098a4 <Set_Secure_Zone>:
    98a4:	27bdffc8 	addiu	sp,sp,-56
    98a8:	afbf0030 	sw	ra,48(sp)
    98ac:	afb7002c 	sw	s7,44(sp)
    98b0:	afb50024 	sw	s5,36(sp)
    98b4:	afb40020 	sw	s4,32(sp)
    98b8:	afb3001c 	sw	s3,28(sp)
    98bc:	00a0a021 	move	s4,a1
    98c0:	afb20018 	sw	s2,24(sp)
    98c4:	afb10014 	sw	s1,20(sp)
    98c8:	afb00010 	sw	s0,16(sp)
    98cc:	00808821 	move	s1,a0
    98d0:	00c0b821 	move	s7,a2
    98d4:	0c0008ee 	jal	23b8 <get_net_address>
    98d8:	afb60028 	sw	s6,40(sp)
    98dc:	30420f00 	andi	v0,v0,0xf00
    98e0:	0c0008ee 	jal	23b8 <get_net_address>
    98e4:	00028202 	srl	s0,v0,0x8
    98e8:	328300f0 	andi	v1,s4,0xf0
    98ec:	00039102 	srl	s2,v1,0x4
    98f0:	3053000f 	andi	s3,v0,0xf
    98f4:	12120036 	beq	s0,s2,99d0 <Set_Secure_Zone+0x12c>
    98f8:	3295000f 	andi	s5,s4,0xf
    98fc:	0250102b 	sltu	v0,s2,s0
    9900:	14400028 	bnez	v0,99a4 <Set_Secure_Zone+0x100>
    9904:	00000000 	nop
    9908:	02b3102b 	sltu	v0,s5,s3
    990c:	14400025 	bnez	v0,99a4 <Set_Secure_Zone+0x100>
    9910:	322200f0 	andi	v0,s1,0xf0
    9914:	00022102 	srl	a0,v0,0x4
    9918:	0204182b 	sltu	v1,s0,a0
    991c:	14600021 	bnez	v1,99a4 <Set_Secure_Zone+0x100>
    9920:	3225000f 	andi	a1,s1,0xf
    9924:	0265102b 	sltu	v0,s3,a1
    9928:	1440001e 	bnez	v0,99a4 <Set_Secure_Zone+0x100>
    992c:	3c020005 	lui	v0,0x5
    9930:	3c030005 	lui	v1,0x5
    9934:	ac51a688 	sw	s1,-22904(v0)
    9938:	1212002d 	beq	s0,s2,99f0 <Set_Secure_Zone+0x14c>
    993c:	ac74a68c 	sw	s4,-22900(v1)
    9940:	1204002d 	beq	s0,a0,99f8 <Set_Secure_Zone+0x154>
    9944:	0000b021 	move	s6,zero
    9948:	1275002d 	beq	s3,s5,9a00 <Set_Secure_Zone+0x15c>
    994c:	00000000 	nop
    9950:	1265002d 	beq	s3,a1,9a08 <Set_Secure_Zone+0x164>
    9954:	00000000 	nop
    9958:	3c020001 	lui	v0,0x1
    995c:	3c112000 	lui	s1,0x2000
    9960:	2442a674 	addiu	v0,v0,-22924
    9964:	02c02021 	move	a0,s6
    9968:	ae220000 	sw	v0,0(s1)
    996c:	0c000939 	jal	24e4 <itoh>
    9970:	00000000 	nop
    9974:	3c030001 	lui	v1,0x1
    9978:	2463a160 	addiu	v1,v1,-24224
    997c:	ae220000 	sw	v0,0(s1)
    9980:	ae230000 	sw	v1,0(s1)
    9984:	12c00007 	beqz	s6,99a4 <Set_Secure_Zone+0x100>
    9988:	3c020005 	lui	v0,0x5
    998c:	ac56a824 	sw	s6,-22492(v0)
    9990:	ae230000 	sw	v1,0(s1)
    9994:	16120003 	bne	s0,s2,99a4 <Set_Secure_Zone+0x100>
    9998:	00000000 	nop
    999c:	1275001c 	beq	s3,s5,9a10 <Set_Secure_Zone+0x16c>
    99a0:	00000000 	nop
    99a4:	8fbf0030 	lw	ra,48(sp)
    99a8:	8fb7002c 	lw	s7,44(sp)
    99ac:	8fb60028 	lw	s6,40(sp)
    99b0:	8fb50024 	lw	s5,36(sp)
    99b4:	8fb40020 	lw	s4,32(sp)
    99b8:	8fb3001c 	lw	s3,28(sp)
    99bc:	8fb20018 	lw	s2,24(sp)
    99c0:	8fb10014 	lw	s1,20(sp)
    99c4:	8fb00010 	lw	s0,16(sp)
    99c8:	03e00008 	jr	ra
    99cc:	27bd0038 	addiu	sp,sp,56
    99d0:	1675ffcd 	bne	s3,s5,9908 <Set_Secure_Zone+0x64>
    99d4:	24040003 	li	a0,3
    99d8:	02e02821 	move	a1,s7
    99dc:	02e03021 	move	a2,s7
    99e0:	0c00196b 	jal	65ac <Seek>
    99e4:	00003821 	move	a3,zero
    99e8:	08002643 	j	990c <Set_Secure_Zone+0x68>
    99ec:	02b3102b 	sltu	v0,s5,s3
    99f0:	1604ffd5 	bne	s0,a0,9948 <Set_Secure_Zone+0xa4>
    99f4:	24160003 	li	s6,3
    99f8:	1675ffd5 	bne	s3,s5,9950 <Set_Secure_Zone+0xac>
    99fc:	26d6000c 	addiu	s6,s6,12
    9a00:	08002654 	j	9950 <Set_Secure_Zone+0xac>
    9a04:	26d60030 	addiu	s6,s6,48
    9a08:	08002656 	j	9958 <Set_Secure_Zone+0xb4>
    9a0c:	26d600c0 	addiu	s6,s6,192
    9a10:	0c0008ee 	jal	23b8 <get_net_address>
    9a14:	00000000 	nop
    9a18:	00402821 	move	a1,v0
    9a1c:	02e03021 	move	a2,s7
    9a20:	02803821 	move	a3,s4
    9a24:	8fbf0030 	lw	ra,48(sp)
    9a28:	8fb7002c 	lw	s7,44(sp)
    9a2c:	8fb60028 	lw	s6,40(sp)
    9a30:	8fb50024 	lw	s5,36(sp)
    9a34:	8fb40020 	lw	s4,32(sp)
    9a38:	8fb3001c 	lw	s3,28(sp)
    9a3c:	8fb20018 	lw	s2,24(sp)
    9a40:	8fb10014 	lw	s1,20(sp)
    9a44:	8fb00010 	lw	s0,16(sp)
    9a48:	2404001d 	li	a0,29
    9a4c:	0800196b 	j	65ac <Seek>
    9a50:	27bd0038 	addiu	sp,sp,56
