
aes_slave3_debug.bin:     file format elf32-bigmips

Disassembly of section .text:

00000000 <entry>:
       0:	341dffff 	li	sp,0xffff
       4:	0c000752 	jal	1d48 <main>
       8:	00000000 	nop
       c:	00002021 	move	a0,zero
      10:	0000000c 	syscall
      14:	00000000 	nop
      18:	08000006 	j	18 <entry+0x18>
      1c:	00000000 	nop

00000020 <SystemCall>:
      20:	0000000c 	syscall
      24:	00000000 	nop
      28:	03e00008 	jr	ra
      2c:	00000000 	nop

00000030 <itoa>:
      30:	14800009 	bnez	a0,58 <itoa+0x28>
      34:	00802821 	move	a1,a0
      38:	3c020004 	lui	v0,0x4
      3c:	24444280 	addiu	a0,v0,17024
      40:	00802821 	move	a1,a0
      44:	24030030 	li	v1,48
      48:	a0434280 	sb	v1,17024(v0)
      4c:	00a01021 	move	v0,a1
      50:	03e00008 	jr	ra
      54:	a0800001 	sb	zero,1(a0)
      58:	3c03cccc 	lui	v1,0xcccc
      5c:	3463cccd 	ori	v1,v1,0xcccd
      60:	00830019 	multu	a0,v1
      64:	3c020004 	lui	v0,0x4
      68:	24464281 	addiu	a2,v0,17025
      6c:	3c080004 	lui	t0,0x4
      70:	24070001 	li	a3,1
      74:	00001810 	mfhi	v1
      78:	000318c2 	srl	v1,v1,0x3
      7c:	00031040 	sll	v0,v1,0x1
      80:	000320c0 	sll	a0,v1,0x3
      84:	00441021 	addu	v0,v0,a0
      88:	00a21023 	subu	v0,a1,v0
      8c:	24420030 	addiu	v0,v0,48
      90:	00602821 	move	a1,v1
      94:	10a00013 	beqz	a1,e4 <itoa+0xb4>
      98:	a1024280 	sb	v0,17024(t0)
      9c:	3c03cccc 	lui	v1,0xcccc
      a0:	3463cccd 	ori	v1,v1,0xcccd
      a4:	00a30019 	multu	a1,v1
      a8:	24e70001 	addiu	a3,a3,1
      ac:	00001810 	mfhi	v1
      b0:	000320c2 	srl	a0,v1,0x3
      b4:	00041040 	sll	v0,a0,0x1
      b8:	000418c0 	sll	v1,a0,0x3
      bc:	00431021 	addu	v0,v0,v1
      c0:	00a21023 	subu	v0,a1,v0
      c4:	24420030 	addiu	v0,v0,48
      c8:	a0c20000 	sb	v0,0(a2)
      cc:	2402000b 	li	v0,11
      d0:	10e2000d 	beq	a3,v0,108 <itoa+0xd8>
      d4:	24c60001 	addiu	a2,a2,1
      d8:	00802821 	move	a1,a0
      dc:	14a0fff0 	bnez	a1,a0 <itoa+0x70>
      e0:	3c03cccc 	lui	v1,0xcccc
      e4:	3c040004 	lui	a0,0x4
      e8:	24824274 	addiu	v0,a0,17012
      ec:	00e21021 	addu	v0,a3,v0
      f0:	24e3ffff 	addiu	v1,a3,-1
      f4:	04610008 	bgez	v1,118 <itoa+0xe8>
      f8:	a0400000 	sb	zero,0(v0)
      fc:	24854274 	addiu	a1,a0,17012
     100:	03e00008 	jr	ra
     104:	00a01021 	move	v0,a1
     108:	3c040004 	lui	a0,0x4
     10c:	24824274 	addiu	v0,a0,17012
     110:	2403000a 	li	v1,10
     114:	a040000b 	sb	zero,11(v0)
     118:	24824274 	addiu	v0,a0,17012
     11c:	00621821 	addu	v1,v1,v0
     120:	3c020004 	lui	v0,0x4
     124:	25054280 	addiu	a1,t0,17024
     128:	24464273 	addiu	a2,v0,17011
     12c:	90a20000 	lbu	v0,0(a1)
     130:	00000000 	nop
     134:	a0620000 	sb	v0,0(v1)
     138:	2463ffff 	addiu	v1,v1,-1
     13c:	1466fffb 	bne	v1,a2,12c <itoa+0xfc>
     140:	24a50001 	addiu	a1,a1,1
     144:	08000040 	j	100 <itoa+0xd0>
     148:	24854274 	addiu	a1,a0,17012

0000014c <itoh>:
     14c:	3c080004 	lui	t0,0x4
     150:	25034268 	addiu	v1,t0,17000
     154:	24050030 	li	a1,48
     158:	24020078 	li	v0,120
     15c:	a0620001 	sb	v0,1(v1)
     160:	a060000a 	sb	zero,10(v1)
     164:	1480000b 	bnez	a0,194 <itoh+0x48>
     168:	a1054268 	sb	a1,17000(t0)
     16c:	a0650009 	sb	a1,9(v1)
     170:	a0650002 	sb	a1,2(v1)
     174:	a0650003 	sb	a1,3(v1)
     178:	a0650004 	sb	a1,4(v1)
     17c:	a0650005 	sb	a1,5(v1)
     180:	a0650006 	sb	a1,6(v1)
     184:	a0650007 	sb	a1,7(v1)
     188:	a0650008 	sb	a1,8(v1)
     18c:	03e00008 	jr	ra
     190:	25024268 	addiu	v0,t0,17000
     194:	3c020004 	lui	v0,0x4
     198:	3c030004 	lui	v1,0x4
     19c:	24474271 	addiu	a3,v0,17009
     1a0:	0800006e 	j	1b8 <itoh+0x6c>
     1a4:	24634269 	addiu	v1,v1,17001
     1a8:	a0e60000 	sb	a2,0(a3)
     1ac:	24e7ffff 	addiu	a3,a3,-1
     1b0:	10e3fff6 	beq	a3,v1,18c <itoh+0x40>
     1b4:	00042102 	srl	a0,a0,0x4
     1b8:	3082000f 	andi	v0,a0,0xf
     1bc:	24460030 	addiu	a2,v0,48
     1c0:	24450057 	addiu	a1,v0,87
     1c4:	2c42000a 	sltiu	v0,v0,10
     1c8:	1440fff7 	bnez	v0,1a8 <itoh+0x5c>
     1cc:	00000000 	nop
     1d0:	0800006b 	j	1ac <itoh+0x60>
     1d4:	a0e50000 	sb	a1,0(a3)

000001d8 <abs>:
     1d8:	04800003 	bltz	a0,1e8 <abs+0x10>
     1dc:	00801021 	move	v0,a0
     1e0:	03e00008 	jr	ra
     1e4:	00000000 	nop
     1e8:	03e00008 	jr	ra
     1ec:	00041023 	negu	v0,a0

000001f0 <rand>:
     1f0:	30820001 	andi	v0,a0,0x1
     1f4:	00021023 	negu	v0,v0
     1f8:	3042b400 	andi	v0,v0,0xb400
     1fc:	00042043 	sra	a0,a0,0x1
     200:	00822026 	xor	a0,a0,v0
     204:	14c00002 	bnez	a2,210 <rand+0x20>
     208:	0086001a 	div	zero,a0,a2
     20c:	0007000d 	break	0x7
     210:	00001010 	mfhi	v0
     214:	03e00008 	jr	ra
     218:	00451021 	addu	v0,v0,a1

0000021c <add>:
     21c:	03e00008 	jr	ra
     220:	00851021 	addu	v0,a0,a1

00000224 <sub>:
     224:	03e00008 	jr	ra
     228:	00851023 	subu	v0,a0,a1

0000022c <memset>:
     22c:	18c00008 	blez	a2,250 <memset+0x24>
     230:	00801021 	move	v0,a0
     234:	30a500ff 	andi	a1,a1,0xff
     238:	00c43021 	addu	a2,a2,a0
     23c:	00801821 	move	v1,a0
     240:	a0650000 	sb	a1,0(v1)
     244:	24630001 	addiu	v1,v1,1
     248:	1466fffd 	bne	v1,a2,240 <memset+0x14>
     24c:	00000000 	nop
     250:	03e00008 	jr	ra
     254:	00000000 	nop

00000258 <fixetoa>:
     258:	0480004b 	bltz	a0,388 <fixetoa+0x130>
     25c:	3c0b0004 	lui	t3,0x4
     260:	10800042 	beqz	a0,36c <fixetoa+0x114>
     264:	3c020004 	lui	v0,0x4
     268:	3c0b0004 	lui	t3,0x4
     26c:	00802821 	move	a1,a0
     270:	00003021 	move	a2,zero
     274:	080000a6 	j	298 <fixetoa+0x40>
     278:	25674258 	addiu	a3,t3,16984
     27c:	10400084 	beqz	v0,490 <fixetoa+0x238>
     280:	24020030 	li	v0,48
     284:	a0e20000 	sb	v0,0(a3)
     288:	24c60001 	addiu	a2,a2,1
     28c:	2402000c 	li	v0,12
     290:	10c20015 	beq	a2,v0,2e8 <fixetoa+0x90>
     294:	24e70001 	addiu	a3,a3,1
     298:	00051fc3 	sra	v1,a1,0x1f
     29c:	10a0fff7 	beqz	a1,27c <fixetoa+0x24>
     2a0:	28c20005 	slti	v0,a2,5
     2a4:	3c026666 	lui	v0,0x6666
     2a8:	34426667 	ori	v0,v0,0x6667
     2ac:	00a20018 	mult	a1,v0
     2b0:	24c60001 	addiu	a2,a2,1
     2b4:	00001010 	mfhi	v0
     2b8:	00021083 	sra	v0,v0,0x2
     2bc:	00431023 	subu	v0,v0,v1
     2c0:	00021840 	sll	v1,v0,0x1
     2c4:	000220c0 	sll	a0,v0,0x3
     2c8:	00641821 	addu	v1,v1,a0
     2cc:	00a31823 	subu	v1,a1,v1
     2d0:	24630030 	addiu	v1,v1,48
     2d4:	00402821 	move	a1,v0
     2d8:	2402000c 	li	v0,12
     2dc:	a0e30000 	sb	v1,0(a3)
     2e0:	14c2ffed 	bne	a2,v0,298 <fixetoa+0x40>
     2e4:	24e70001 	addiu	a3,a3,1
     2e8:	3c090004 	lui	t1,0x4
     2ec:	25224248 	addiu	v0,t1,16968
     2f0:	2406000c 	li	a2,12
     2f4:	a040000d 	sb	zero,13(v0)
     2f8:	25674258 	addiu	a3,t3,16984
     2fc:	00002821 	move	a1,zero
     300:	25224248 	addiu	v0,t1,16968
     304:	90e40000 	lbu	a0,0(a3)
     308:	00c21821 	addu	v1,a2,v0
     30c:	24c6ffff 	addiu	a2,a2,-1
     310:	24a50001 	addiu	a1,a1,1
     314:	24e70001 	addiu	a3,a3,1
     318:	00c24021 	addu	t0,a2,v0
     31c:	04c00010 	bltz	a2,360 <fixetoa+0x108>
     320:	a0640000 	sb	a0,0(v1)
     324:	24020004 	li	v0,4
     328:	14a2fff6 	bne	a1,v0,304 <fixetoa+0xac>
     32c:	25224248 	addiu	v0,t1,16968
     330:	2402002e 	li	v0,46
     334:	a1020000 	sb	v0,0(t0)
     338:	24c6ffff 	addiu	a2,a2,-1
     33c:	25224248 	addiu	v0,t1,16968
     340:	90e40000 	lbu	a0,0(a3)
     344:	00c21821 	addu	v1,a2,v0
     348:	24c6ffff 	addiu	a2,a2,-1
     34c:	24a50001 	addiu	a1,a1,1
     350:	24e70001 	addiu	a3,a3,1
     354:	00c24021 	addu	t0,a2,v0
     358:	04c1fff2 	bgez	a2,324 <fixetoa+0xcc>
     35c:	a0640000 	sb	a0,0(v1)
     360:	25254248 	addiu	a1,t1,16968
     364:	03e00008 	jr	ra
     368:	00a01021 	move	v0,a1
     36c:	24444258 	addiu	a0,v0,16984
     370:	00802821 	move	a1,a0
     374:	24030030 	li	v1,48
     378:	a0434258 	sb	v1,16984(v0)
     37c:	00a01021 	move	v0,a1
     380:	03e00008 	jr	ra
     384:	a0800001 	sb	zero,1(a0)
     388:	3c026666 	lui	v0,0x6666
     38c:	00042823 	negu	a1,a0
     390:	344a6667 	ori	t2,v0,0x6667
     394:	00003021 	move	a2,zero
     398:	25674258 	addiu	a3,t3,16984
     39c:	24090030 	li	t1,48
     3a0:	080000f0 	j	3c0 <fixetoa+0x168>
     3a4:	2408000c 	li	t0,12
     3a8:	10400040 	beqz	v0,4ac <fixetoa+0x254>
     3ac:	00000000 	nop
     3b0:	24c60001 	addiu	a2,a2,1
     3b4:	a0e90000 	sb	t1,0(a3)
     3b8:	10c80012 	beq	a2,t0,404 <fixetoa+0x1ac>
     3bc:	24e70001 	addiu	a3,a3,1
     3c0:	00051fc3 	sra	v1,a1,0x1f
     3c4:	10a0fff8 	beqz	a1,3a8 <fixetoa+0x150>
     3c8:	28c20005 	slti	v0,a2,5
     3cc:	00aa0018 	mult	a1,t2
     3d0:	24c60001 	addiu	a2,a2,1
     3d4:	00001010 	mfhi	v0
     3d8:	00021083 	sra	v0,v0,0x2
     3dc:	00431023 	subu	v0,v0,v1
     3e0:	00021840 	sll	v1,v0,0x1
     3e4:	000220c0 	sll	a0,v0,0x3
     3e8:	00641821 	addu	v1,v1,a0
     3ec:	00a31823 	subu	v1,a1,v1
     3f0:	24630030 	addiu	v1,v1,48
     3f4:	a0e30000 	sb	v1,0(a3)
     3f8:	00402821 	move	a1,v0
     3fc:	14c8fff0 	bne	a2,t0,3c0 <fixetoa+0x168>
     400:	24e70001 	addiu	a3,a3,1
     404:	3c090004 	lui	t1,0x4
     408:	25224248 	addiu	v0,t1,16968
     40c:	a040000e 	sb	zero,14(v0)
     410:	2405000d 	li	a1,13
     414:	25674258 	addiu	a3,t3,16984
     418:	00003021 	move	a2,zero
     41c:	25224248 	addiu	v0,t1,16968
     420:	90e40000 	lbu	a0,0(a3)
     424:	00a21821 	addu	v1,a1,v0
     428:	24a5ffff 	addiu	a1,a1,-1
     42c:	24c60001 	addiu	a2,a2,1
     430:	24e70001 	addiu	a3,a3,1
     434:	00a24021 	addu	t0,a1,v0
     438:	04a00010 	bltz	a1,47c <fixetoa+0x224>
     43c:	a0640000 	sb	a0,0(v1)
     440:	24020004 	li	v0,4
     444:	14c2fff6 	bne	a2,v0,420 <fixetoa+0x1c8>
     448:	25224248 	addiu	v0,t1,16968
     44c:	2402002e 	li	v0,46
     450:	a1020000 	sb	v0,0(t0)
     454:	24a5ffff 	addiu	a1,a1,-1
     458:	25224248 	addiu	v0,t1,16968
     45c:	90e40000 	lbu	a0,0(a3)
     460:	00a21821 	addu	v1,a1,v0
     464:	24a5ffff 	addiu	a1,a1,-1
     468:	24c60001 	addiu	a2,a2,1
     46c:	24e70001 	addiu	a3,a3,1
     470:	00a24021 	addu	t0,a1,v0
     474:	04a1fff2 	bgez	a1,440 <fixetoa+0x1e8>
     478:	a0640000 	sb	a0,0(v1)
     47c:	25254248 	addiu	a1,t1,16968
     480:	2402002d 	li	v0,45
     484:	a1224248 	sb	v0,16968(t1)
     488:	03e00008 	jr	ra
     48c:	00a01021 	move	v0,a1
     490:	3c090004 	lui	t1,0x4
     494:	25224248 	addiu	v0,t1,16968
     498:	00c21021 	addu	v0,a2,v0
     49c:	04c1ff96 	bgez	a2,2f8 <fixetoa+0xa0>
     4a0:	a0400001 	sb	zero,1(v0)
     4a4:	080000d9 	j	364 <fixetoa+0x10c>
     4a8:	25254248 	addiu	a1,t1,16968
     4ac:	3c090004 	lui	t1,0x4
     4b0:	25224248 	addiu	v0,t1,16968
     4b4:	00c21021 	addu	v0,a2,v0
     4b8:	24c50001 	addiu	a1,a2,1
     4bc:	04a1ffd5 	bgez	a1,414 <fixetoa+0x1bc>
     4c0:	a0400002 	sb	zero,2(v0)
     4c4:	08000120 	j	480 <fixetoa+0x228>
     4c8:	25254248 	addiu	a1,t1,16968

000004cc <strcpy>:
     4cc:	00801821 	move	v1,a0
     4d0:	80a20000 	lb	v0,0(a1)
     4d4:	24a50001 	addiu	a1,a1,1
     4d8:	a0620000 	sb	v0,0(v1)
     4dc:	1440fffc 	bnez	v0,4d0 <strcpy+0x4>
     4e0:	24630001 	addiu	v1,v1,1
     4e4:	03e00008 	jr	ra
     4e8:	00801021 	move	v0,a0

000004ec <strlen>:
     4ec:	00801821 	move	v1,a0
     4f0:	80620000 	lb	v0,0(v1)
     4f4:	00000000 	nop
     4f8:	1440fffd 	bnez	v0,4f0 <strlen+0x4>
     4fc:	24630001 	addiu	v1,v1,1
     500:	00641023 	subu	v0,v1,a0
     504:	03e00008 	jr	ra
     508:	2442ffff 	addiu	v0,v0,-1

0000050c <xor_buf>:
     50c:	10c00009 	beqz	a2,534 <xor_buf+0x28>
     510:	00003821 	move	a3,zero
     514:	8ca20000 	lw	v0,0(a1)
     518:	8c830000 	lw	v1,0(a0)
     51c:	24e70001 	addiu	a3,a3,1
     520:	00431026 	xor	v0,v0,v1
     524:	aca20000 	sw	v0,0(a1)
     528:	24840004 	addiu	a0,a0,4
     52c:	14c7fff9 	bne	a2,a3,514 <xor_buf+0x8>
     530:	24a50004 	addiu	a1,a1,4
     534:	03e00008 	jr	ra
     538:	00000000 	nop

0000053c <SubWord>:
     53c:	00041a02 	srl	v1,a0,0x8
     540:	00043402 	srl	a2,a0,0x10
     544:	00044602 	srl	t0,a0,0x18
     548:	00042f02 	srl	a1,a0,0x1c
     54c:	3067000f 	andi	a3,v1,0xf
     550:	30c2000f 	andi	v0,a2,0xf
     554:	3108000f 	andi	t0,t0,0xf
     558:	306300f0 	andi	v1,v1,0xf0
     55c:	30c600f0 	andi	a2,a2,0xf0
     560:	00052900 	sll	a1,a1,0x4
     564:	00671821 	addu	v1,v1,a3
     568:	00c23021 	addu	a2,a2,v0
     56c:	00a82821 	addu	a1,a1,t0
     570:	308400ff 	andi	a0,a0,0xff
     574:	3c020004 	lui	v0,0x4
     578:	24423e48 	addiu	v0,v0,15944
     57c:	00042080 	sll	a0,a0,0x2
     580:	00031880 	sll	v1,v1,0x2
     584:	00063080 	sll	a2,a2,0x2
     588:	00052880 	sll	a1,a1,0x2
     58c:	00a22821 	addu	a1,a1,v0
     590:	00822021 	addu	a0,a0,v0
     594:	00621821 	addu	v1,v1,v0
     598:	00c23021 	addu	a2,a2,v0
     59c:	8c870000 	lw	a3,0(a0)
     5a0:	8c640000 	lw	a0,0(v1)
     5a4:	8cc20000 	lw	v0,0(a2)
     5a8:	8ca30000 	lw	v1,0(a1)
     5ac:	00042200 	sll	a0,a0,0x8
     5b0:	00031e00 	sll	v1,v1,0x18
     5b4:	00021400 	sll	v0,v0,0x10
     5b8:	00e43821 	addu	a3,a3,a0
     5bc:	00431021 	addu	v0,v0,v1
     5c0:	03e00008 	jr	ra
     5c4:	00e21021 	addu	v0,a3,v0

000005c8 <aes_key_setup>:
     5c8:	3c020000 	lui	v0,0x0
     5cc:	27bdff88 	addiu	sp,sp,-120
     5d0:	2447220c 	addiu	a3,v0,8716
     5d4:	afbf0070 	sw	ra,112(sp)
     5d8:	afb7006c 	sw	s7,108(sp)
     5dc:	afb60068 	sw	s6,104(sp)
     5e0:	afb50064 	sw	s5,100(sp)
     5e4:	afb40060 	sw	s4,96(sp)
     5e8:	afb3005c 	sw	s3,92(sp)
     5ec:	afb20058 	sw	s2,88(sp)
     5f0:	afb10054 	sw	s1,84(sp)
     5f4:	afb00050 	sw	s0,80(sp)
     5f8:	00805821 	move	t3,a0
     5fc:	00a05021 	move	t2,a1
     600:	27a80014 	addiu	t0,sp,20
     604:	24e90030 	addiu	t1,a3,48
     608:	8ce20000 	lw	v0,0(a3)
     60c:	8ce30004 	lw	v1,4(a3)
     610:	8ce40008 	lw	a0,8(a3)
     614:	8ce5000c 	lw	a1,12(a3)
     618:	24e70010 	addiu	a3,a3,16
     61c:	ad020000 	sw	v0,0(t0)
     620:	ad030004 	sw	v1,4(t0)
     624:	ad040008 	sw	a0,8(t0)
     628:	ad05000c 	sw	a1,12(t0)
     62c:	14e9fff6 	bne	a3,t1,608 <aes_key_setup+0x40>
     630:	25080010 	addiu	t0,t0,16
     634:	8ce20000 	lw	v0,0(a3)
     638:	8ce40008 	lw	a0,8(a3)
     63c:	8ce30004 	lw	v1,4(a3)
     640:	ad020000 	sw	v0,0(t0)
     644:	240200c0 	li	v0,192
     648:	ad030004 	sw	v1,4(t0)
     64c:	ad040008 	sw	a0,8(t0)
     650:	10c20010 	beq	a2,v0,694 <aes_key_setup+0xcc>
     654:	24020100 	li	v0,256
     658:	10c2005e 	beq	a2,v0,7d4 <aes_key_setup+0x20c>
     65c:	24020080 	li	v0,128
     660:	10c2005f 	beq	a2,v0,7e0 <aes_key_setup+0x218>
     664:	00000000 	nop
     668:	8fbf0070 	lw	ra,112(sp)
     66c:	8fb7006c 	lw	s7,108(sp)
     670:	8fb60068 	lw	s6,104(sp)
     674:	8fb50064 	lw	s5,100(sp)
     678:	8fb40060 	lw	s4,96(sp)
     67c:	8fb3005c 	lw	s3,92(sp)
     680:	8fb20058 	lw	s2,88(sp)
     684:	8fb10054 	lw	s1,84(sp)
     688:	8fb00050 	lw	s0,80(sp)
     68c:	03e00008 	jr	ra
     690:	27bd0078 	addiu	sp,sp,120
     694:	2409000c 	li	t1,12
     698:	24130006 	li	s3,6
     69c:	01603021 	move	a2,t3
     6a0:	01404021 	move	t0,t2
     6a4:	00003821 	move	a3,zero
     6a8:	8cc20000 	lw	v0,0(a2)
     6ac:	8cc30004 	lw	v1,4(a2)
     6b0:	8cc40008 	lw	a0,8(a2)
     6b4:	8cc5000c 	lw	a1,12(a2)
     6b8:	00031c00 	sll	v1,v1,0x10
     6bc:	00021600 	sll	v0,v0,0x18
     6c0:	00431025 	or	v0,v0,v1
     6c4:	00451025 	or	v0,v0,a1
     6c8:	00042200 	sll	a0,a0,0x8
     6cc:	24e70001 	addiu	a3,a3,1
     6d0:	00822025 	or	a0,a0,v0
     6d4:	00f3182a 	slt	v1,a3,s3
     6d8:	ad040000 	sw	a0,0(t0)
     6dc:	24c60010 	addiu	a2,a2,16
     6e0:	1460fff1 	bnez	v1,6a8 <aes_key_setup+0xe0>
     6e4:	25080004 	addiu	t0,t0,4
     6e8:	25220001 	addiu	v0,t1,1
     6ec:	0002a080 	sll	s4,v0,0x2
     6f0:	0274182a 	slt	v1,s3,s4
     6f4:	1060ffdc 	beqz	v1,668 <aes_key_setup+0xa0>
     6f8:	00131080 	sll	v0,s3,0x2
     6fc:	01428821 	addu	s1,t2,v0
     700:	01409021 	move	s2,t2
     704:	02608021 	move	s0,s3
     708:	27b70010 	addiu	s7,sp,16
     70c:	2a750007 	slti	s5,s3,7
     710:	080001d3 	j	74c <aes_key_setup+0x184>
     714:	24160004 	li	s6,4
     718:	16a00003 	bnez	s5,728 <aes_key_setup+0x160>
     71c:	00000000 	nop
     720:	10760026 	beq	v1,s6,7bc <aes_key_setup+0x1f4>
     724:	00000000 	nop
     728:	8e420000 	lw	v0,0(s2)
     72c:	8fa30010 	lw	v1,16(sp)
     730:	26100001 	addiu	s0,s0,1
     734:	00431026 	xor	v0,v0,v1
     738:	ae220000 	sw	v0,0(s1)
     73c:	0214102a 	slt	v0,s0,s4
     740:	26520004 	addiu	s2,s2,4
     744:	1040ffc8 	beqz	v0,668 <aes_key_setup+0xa0>
     748:	26310004 	addiu	s1,s1,4
     74c:	16600002 	bnez	s3,758 <aes_key_setup+0x190>
     750:	0213001a 	div	zero,s0,s3
     754:	0007000d 	break	0x7
     758:	8e22fffc 	lw	v0,-4(s1)
     75c:	00000000 	nop
     760:	afa20010 	sw	v0,16(sp)
     764:	00001810 	mfhi	v1
     768:	1460ffeb 	bnez	v1,718 <aes_key_setup+0x150>
     76c:	00000000 	nop
     770:	8fa20010 	lw	v0,16(sp)
     774:	8fa40010 	lw	a0,16(sp)
     778:	00021200 	sll	v0,v0,0x8
     77c:	00042602 	srl	a0,a0,0x18
     780:	0c00014f 	jal	53c <SubWord>
     784:	00442025 	or	a0,v0,a0
     788:	2603ffff 	addiu	v1,s0,-1
     78c:	16600002 	bnez	s3,798 <aes_key_setup+0x1d0>
     790:	0073001a 	div	zero,v1,s3
     794:	0007000d 	break	0x7
     798:	00001812 	mflo	v1
     79c:	00031880 	sll	v1,v1,0x2
     7a0:	00771821 	addu	v1,v1,s7
     7a4:	8c640004 	lw	a0,4(v1)
     7a8:	00000000 	nop
     7ac:	00441026 	xor	v0,v0,a0
     7b0:	afa20010 	sw	v0,16(sp)
     7b4:	080001ca 	j	728 <aes_key_setup+0x160>
     7b8:	00000000 	nop
     7bc:	8fa40010 	lw	a0,16(sp)
     7c0:	0c00014f 	jal	53c <SubWord>
     7c4:	00000000 	nop
     7c8:	afa20010 	sw	v0,16(sp)
     7cc:	080001ca 	j	728 <aes_key_setup+0x160>
     7d0:	00000000 	nop
     7d4:	2409000e 	li	t1,14
     7d8:	080001a7 	j	69c <aes_key_setup+0xd4>
     7dc:	24130008 	li	s3,8
     7e0:	2409000a 	li	t1,10
     7e4:	080001a7 	j	69c <aes_key_setup+0xd4>
     7e8:	24130004 	li	s3,4

000007ec <AddRoundKey>:
     7ec:	8ca20000 	lw	v0,0(a1)
     7f0:	8c870000 	lw	a3,0(a0)
     7f4:	8c880010 	lw	t0,16(a0)
     7f8:	8c890020 	lw	t1,32(a0)
     7fc:	8c8a0030 	lw	t2,48(a0)
     800:	00021c02 	srl	v1,v0,0x10
     804:	00023202 	srl	a2,v0,0x8
     808:	306300ff 	andi	v1,v1,0xff
     80c:	30c600ff 	andi	a2,a2,0xff
     810:	304b00ff 	andi	t3,v0,0xff
     814:	00021602 	srl	v0,v0,0x18
     818:	00e23826 	xor	a3,a3,v0
     81c:	01034026 	xor	t0,t0,v1
     820:	01264826 	xor	t1,t1,a2
     824:	014b5026 	xor	t2,t2,t3
     828:	ac880010 	sw	t0,16(a0)
     82c:	ac890020 	sw	t1,32(a0)
     830:	ac8a0030 	sw	t2,48(a0)
     834:	ac870000 	sw	a3,0(a0)
     838:	8ca60004 	lw	a2,4(a1)
     83c:	8c820004 	lw	v0,4(a0)
     840:	00061e02 	srl	v1,a2,0x18
     844:	00431026 	xor	v0,v0,v1
     848:	ac820004 	sw	v0,4(a0)
     84c:	248a0010 	addiu	t2,a0,16
     850:	8d430004 	lw	v1,4(t2)
     854:	00061402 	srl	v0,a2,0x10
     858:	304200ff 	andi	v0,v0,0xff
     85c:	00621826 	xor	v1,v1,v0
     860:	ad430004 	sw	v1,4(t2)
     864:	24890020 	addiu	t1,a0,32
     868:	8d230004 	lw	v1,4(t1)
     86c:	00061202 	srl	v0,a2,0x8
     870:	304200ff 	andi	v0,v0,0xff
     874:	00621826 	xor	v1,v1,v0
     878:	ad230004 	sw	v1,4(t1)
     87c:	24880030 	addiu	t0,a0,48
     880:	8d020004 	lw	v0,4(t0)
     884:	30c600ff 	andi	a2,a2,0xff
     888:	00461026 	xor	v0,v0,a2
     88c:	ad020004 	sw	v0,4(t0)
     890:	8ca70008 	lw	a3,8(a1)
     894:	8c820008 	lw	v0,8(a0)
     898:	00071e02 	srl	v1,a3,0x18
     89c:	00431026 	xor	v0,v0,v1
     8a0:	ac820008 	sw	v0,8(a0)
     8a4:	8d430008 	lw	v1,8(t2)
     8a8:	00071402 	srl	v0,a3,0x10
     8ac:	304200ff 	andi	v0,v0,0xff
     8b0:	00621826 	xor	v1,v1,v0
     8b4:	ad430008 	sw	v1,8(t2)
     8b8:	8d260008 	lw	a2,8(t1)
     8bc:	00071202 	srl	v0,a3,0x8
     8c0:	304200ff 	andi	v0,v0,0xff
     8c4:	00c23026 	xor	a2,a2,v0
     8c8:	ad260008 	sw	a2,8(t1)
     8cc:	8d020008 	lw	v0,8(t0)
     8d0:	30e700ff 	andi	a3,a3,0xff
     8d4:	00471026 	xor	v0,v0,a3
     8d8:	ad020008 	sw	v0,8(t0)
     8dc:	8ca6000c 	lw	a2,12(a1)
     8e0:	8c82000c 	lw	v0,12(a0)
     8e4:	00061e02 	srl	v1,a2,0x18
     8e8:	00431026 	xor	v0,v0,v1
     8ec:	ac82000c 	sw	v0,12(a0)
     8f0:	8d43000c 	lw	v1,12(t2)
     8f4:	00061402 	srl	v0,a2,0x10
     8f8:	304200ff 	andi	v0,v0,0xff
     8fc:	00621826 	xor	v1,v1,v0
     900:	ad43000c 	sw	v1,12(t2)
     904:	8d24000c 	lw	a0,12(t1)
     908:	00061202 	srl	v0,a2,0x8
     90c:	304200ff 	andi	v0,v0,0xff
     910:	00822026 	xor	a0,a0,v0
     914:	ad24000c 	sw	a0,12(t1)
     918:	8d02000c 	lw	v0,12(t0)
     91c:	30c600ff 	andi	a2,a2,0xff
     920:	00461026 	xor	v0,v0,a2
     924:	03e00008 	jr	ra
     928:	ad02000c 	sw	v0,12(t0)

0000092c <SubBytes>:
     92c:	8c880000 	lw	t0,0(a0)
     930:	8c890004 	lw	t1,4(a0)
     934:	8c8a0008 	lw	t2,8(a0)
     938:	8c8b000c 	lw	t3,12(a0)
     93c:	8c8c0010 	lw	t4,16(a0)
     940:	00081102 	srl	v0,t0,0x4
     944:	00091902 	srl	v1,t1,0x4
     948:	000a2902 	srl	a1,t2,0x4
     94c:	000b3102 	srl	a2,t3,0x4
     950:	000c3902 	srl	a3,t4,0x4
     954:	3108000f 	andi	t0,t0,0xf
     958:	3129000f 	andi	t1,t1,0xf
     95c:	314a000f 	andi	t2,t2,0xf
     960:	316b000f 	andi	t3,t3,0xf
     964:	00021100 	sll	v0,v0,0x4
     968:	00031900 	sll	v1,v1,0x4
     96c:	00052900 	sll	a1,a1,0x4
     970:	00063100 	sll	a2,a2,0x4
     974:	318c000f 	andi	t4,t4,0xf
     978:	00073900 	sll	a3,a3,0x4
     97c:	00481021 	addu	v0,v0,t0
     980:	00691821 	addu	v1,v1,t1
     984:	00aa2821 	addu	a1,a1,t2
     988:	00cb3021 	addu	a2,a2,t3
     98c:	00ec3821 	addu	a3,a3,t4
     990:	3c090004 	lui	t1,0x4
     994:	25293e48 	addiu	t1,t1,15944
     998:	00021080 	sll	v0,v0,0x2
     99c:	00031880 	sll	v1,v1,0x2
     9a0:	00052880 	sll	a1,a1,0x2
     9a4:	00063080 	sll	a2,a2,0x2
     9a8:	00073880 	sll	a3,a3,0x2
     9ac:	00491021 	addu	v0,v0,t1
     9b0:	00691821 	addu	v1,v1,t1
     9b4:	00a92821 	addu	a1,a1,t1
     9b8:	00c93021 	addu	a2,a2,t1
     9bc:	00e93821 	addu	a3,a3,t1
     9c0:	8c480000 	lw	t0,0(v0)
     9c4:	8c6a0000 	lw	t2,0(v1)
     9c8:	8ca20000 	lw	v0,0(a1)
     9cc:	8cc30000 	lw	v1,0(a2)
     9d0:	8ce50000 	lw	a1,0(a3)
     9d4:	ac8a0004 	sw	t2,4(a0)
     9d8:	ac820008 	sw	v0,8(a0)
     9dc:	ac83000c 	sw	v1,12(a0)
     9e0:	ac850010 	sw	a1,16(a0)
     9e4:	ac880000 	sw	t0,0(a0)
     9e8:	248a0010 	addiu	t2,a0,16
     9ec:	8d460004 	lw	a2,4(t2)
     9f0:	8d470008 	lw	a3,8(t2)
     9f4:	8d48000c 	lw	t0,12(t2)
     9f8:	00061102 	srl	v0,a2,0x4
     9fc:	00071902 	srl	v1,a3,0x4
     a00:	00082902 	srl	a1,t0,0x4
     a04:	30c6000f 	andi	a2,a2,0xf
     a08:	30e7000f 	andi	a3,a3,0xf
     a0c:	3108000f 	andi	t0,t0,0xf
     a10:	00021100 	sll	v0,v0,0x4
     a14:	00031900 	sll	v1,v1,0x4
     a18:	00052900 	sll	a1,a1,0x4
     a1c:	00461021 	addu	v0,v0,a2
     a20:	00671821 	addu	v1,v1,a3
     a24:	00a82821 	addu	a1,a1,t0
     a28:	00021080 	sll	v0,v0,0x2
     a2c:	00031880 	sll	v1,v1,0x2
     a30:	00052880 	sll	a1,a1,0x2
     a34:	00491021 	addu	v0,v0,t1
     a38:	00691821 	addu	v1,v1,t1
     a3c:	00a92821 	addu	a1,a1,t1
     a40:	8c460000 	lw	a2,0(v0)
     a44:	8c670000 	lw	a3,0(v1)
     a48:	8ca20000 	lw	v0,0(a1)
     a4c:	ad460004 	sw	a2,4(t2)
     a50:	ad42000c 	sw	v0,12(t2)
     a54:	ad470008 	sw	a3,8(t2)
     a58:	8c830020 	lw	v1,32(a0)
     a5c:	248a0020 	addiu	t2,a0,32
     a60:	00031102 	srl	v0,v1,0x4
     a64:	00021100 	sll	v0,v0,0x4
     a68:	3063000f 	andi	v1,v1,0xf
     a6c:	00431021 	addu	v0,v0,v1
     a70:	00021080 	sll	v0,v0,0x2
     a74:	00491021 	addu	v0,v0,t1
     a78:	8c430000 	lw	v1,0(v0)
     a7c:	248b0030 	addiu	t3,a0,48
     a80:	ac830020 	sw	v1,32(a0)
     a84:	8d460004 	lw	a2,4(t2)
     a88:	8d470008 	lw	a3,8(t2)
     a8c:	8d48000c 	lw	t0,12(t2)
     a90:	00061102 	srl	v0,a2,0x4
     a94:	00071902 	srl	v1,a3,0x4
     a98:	00082902 	srl	a1,t0,0x4
     a9c:	30c6000f 	andi	a2,a2,0xf
     aa0:	30e7000f 	andi	a3,a3,0xf
     aa4:	00021100 	sll	v0,v0,0x4
     aa8:	00031900 	sll	v1,v1,0x4
     aac:	3108000f 	andi	t0,t0,0xf
     ab0:	00052900 	sll	a1,a1,0x4
     ab4:	00461021 	addu	v0,v0,a2
     ab8:	00671821 	addu	v1,v1,a3
     abc:	00a82821 	addu	a1,a1,t0
     ac0:	00021080 	sll	v0,v0,0x2
     ac4:	00031880 	sll	v1,v1,0x2
     ac8:	00052880 	sll	a1,a1,0x2
     acc:	00491021 	addu	v0,v0,t1
     ad0:	00691821 	addu	v1,v1,t1
     ad4:	00a92821 	addu	a1,a1,t1
     ad8:	8c460000 	lw	a2,0(v0)
     adc:	8c670000 	lw	a3,0(v1)
     ae0:	8ca20000 	lw	v0,0(a1)
     ae4:	ad460004 	sw	a2,4(t2)
     ae8:	ad42000c 	sw	v0,12(t2)
     aec:	ad470008 	sw	a3,8(t2)
     af0:	8c830030 	lw	v1,48(a0)
     af4:	00000000 	nop
     af8:	00031102 	srl	v0,v1,0x4
     afc:	00021100 	sll	v0,v0,0x4
     b00:	3063000f 	andi	v1,v1,0xf
     b04:	00431021 	addu	v0,v0,v1
     b08:	00021080 	sll	v0,v0,0x2
     b0c:	00491021 	addu	v0,v0,t1
     b10:	8c430000 	lw	v1,0(v0)
     b14:	00000000 	nop
     b18:	ac830030 	sw	v1,48(a0)
     b1c:	8d650004 	lw	a1,4(t3)
     b20:	8d660008 	lw	a2,8(t3)
     b24:	8d67000c 	lw	a3,12(t3)
     b28:	00051102 	srl	v0,a1,0x4
     b2c:	00061902 	srl	v1,a2,0x4
     b30:	00072102 	srl	a0,a3,0x4
     b34:	30a5000f 	andi	a1,a1,0xf
     b38:	30c6000f 	andi	a2,a2,0xf
     b3c:	00021100 	sll	v0,v0,0x4
     b40:	00031900 	sll	v1,v1,0x4
     b44:	30e7000f 	andi	a3,a3,0xf
     b48:	00042100 	sll	a0,a0,0x4
     b4c:	00451021 	addu	v0,v0,a1
     b50:	00661821 	addu	v1,v1,a2
     b54:	00872021 	addu	a0,a0,a3
     b58:	00021080 	sll	v0,v0,0x2
     b5c:	00031880 	sll	v1,v1,0x2
     b60:	00042080 	sll	a0,a0,0x2
     b64:	00491021 	addu	v0,v0,t1
     b68:	00892021 	addu	a0,a0,t1
     b6c:	00691821 	addu	v1,v1,t1
     b70:	8c450000 	lw	a1,0(v0)
     b74:	8c660000 	lw	a2,0(v1)
     b78:	8c820000 	lw	v0,0(a0)
     b7c:	ad650004 	sw	a1,4(t3)
     b80:	ad62000c 	sw	v0,12(t3)
     b84:	03e00008 	jr	ra
     b88:	ad660008 	sw	a2,8(t3)

00000b8c <InvSubBytes>:
     b8c:	8c880000 	lw	t0,0(a0)
     b90:	8c890004 	lw	t1,4(a0)
     b94:	8c8a0008 	lw	t2,8(a0)
     b98:	8c8b000c 	lw	t3,12(a0)
     b9c:	8c8c0010 	lw	t4,16(a0)
     ba0:	00081102 	srl	v0,t0,0x4
     ba4:	00091902 	srl	v1,t1,0x4
     ba8:	000a2902 	srl	a1,t2,0x4
     bac:	000b3102 	srl	a2,t3,0x4
     bb0:	000c3902 	srl	a3,t4,0x4
     bb4:	3108000f 	andi	t0,t0,0xf
     bb8:	3129000f 	andi	t1,t1,0xf
     bbc:	314a000f 	andi	t2,t2,0xf
     bc0:	316b000f 	andi	t3,t3,0xf
     bc4:	00021100 	sll	v0,v0,0x4
     bc8:	00031900 	sll	v1,v1,0x4
     bcc:	00052900 	sll	a1,a1,0x4
     bd0:	00063100 	sll	a2,a2,0x4
     bd4:	318c000f 	andi	t4,t4,0xf
     bd8:	00073900 	sll	a3,a3,0x4
     bdc:	00481021 	addu	v0,v0,t0
     be0:	00691821 	addu	v1,v1,t1
     be4:	00aa2821 	addu	a1,a1,t2
     be8:	00cb3021 	addu	a2,a2,t3
     bec:	00ec3821 	addu	a3,a3,t4
     bf0:	3c090004 	lui	t1,0x4
     bf4:	25293a48 	addiu	t1,t1,14920
     bf8:	00021080 	sll	v0,v0,0x2
     bfc:	00031880 	sll	v1,v1,0x2
     c00:	00052880 	sll	a1,a1,0x2
     c04:	00063080 	sll	a2,a2,0x2
     c08:	00073880 	sll	a3,a3,0x2
     c0c:	00491021 	addu	v0,v0,t1
     c10:	00691821 	addu	v1,v1,t1
     c14:	00a92821 	addu	a1,a1,t1
     c18:	00c93021 	addu	a2,a2,t1
     c1c:	00e93821 	addu	a3,a3,t1
     c20:	8c480000 	lw	t0,0(v0)
     c24:	8c6a0000 	lw	t2,0(v1)
     c28:	8ca20000 	lw	v0,0(a1)
     c2c:	8cc30000 	lw	v1,0(a2)
     c30:	8ce50000 	lw	a1,0(a3)
     c34:	ac8a0004 	sw	t2,4(a0)
     c38:	ac820008 	sw	v0,8(a0)
     c3c:	ac83000c 	sw	v1,12(a0)
     c40:	ac850010 	sw	a1,16(a0)
     c44:	ac880000 	sw	t0,0(a0)
     c48:	248a0010 	addiu	t2,a0,16
     c4c:	8d460004 	lw	a2,4(t2)
     c50:	8d470008 	lw	a3,8(t2)
     c54:	8d48000c 	lw	t0,12(t2)
     c58:	00061102 	srl	v0,a2,0x4
     c5c:	00071902 	srl	v1,a3,0x4
     c60:	00082902 	srl	a1,t0,0x4
     c64:	30c6000f 	andi	a2,a2,0xf
     c68:	30e7000f 	andi	a3,a3,0xf
     c6c:	3108000f 	andi	t0,t0,0xf
     c70:	00021100 	sll	v0,v0,0x4
     c74:	00031900 	sll	v1,v1,0x4
     c78:	00052900 	sll	a1,a1,0x4
     c7c:	00461021 	addu	v0,v0,a2
     c80:	00671821 	addu	v1,v1,a3
     c84:	00a82821 	addu	a1,a1,t0
     c88:	00021080 	sll	v0,v0,0x2
     c8c:	00031880 	sll	v1,v1,0x2
     c90:	00052880 	sll	a1,a1,0x2
     c94:	00491021 	addu	v0,v0,t1
     c98:	00691821 	addu	v1,v1,t1
     c9c:	00a92821 	addu	a1,a1,t1
     ca0:	8c460000 	lw	a2,0(v0)
     ca4:	8c670000 	lw	a3,0(v1)
     ca8:	8ca20000 	lw	v0,0(a1)
     cac:	ad460004 	sw	a2,4(t2)
     cb0:	ad42000c 	sw	v0,12(t2)
     cb4:	ad470008 	sw	a3,8(t2)
     cb8:	8c830020 	lw	v1,32(a0)
     cbc:	248a0020 	addiu	t2,a0,32
     cc0:	00031102 	srl	v0,v1,0x4
     cc4:	00021100 	sll	v0,v0,0x4
     cc8:	3063000f 	andi	v1,v1,0xf
     ccc:	00431021 	addu	v0,v0,v1
     cd0:	00021080 	sll	v0,v0,0x2
     cd4:	00491021 	addu	v0,v0,t1
     cd8:	8c430000 	lw	v1,0(v0)
     cdc:	248b0030 	addiu	t3,a0,48
     ce0:	ac830020 	sw	v1,32(a0)
     ce4:	8d460004 	lw	a2,4(t2)
     ce8:	8d470008 	lw	a3,8(t2)
     cec:	8d48000c 	lw	t0,12(t2)
     cf0:	00061102 	srl	v0,a2,0x4
     cf4:	00071902 	srl	v1,a3,0x4
     cf8:	00082902 	srl	a1,t0,0x4
     cfc:	30c6000f 	andi	a2,a2,0xf
     d00:	30e7000f 	andi	a3,a3,0xf
     d04:	00021100 	sll	v0,v0,0x4
     d08:	00031900 	sll	v1,v1,0x4
     d0c:	3108000f 	andi	t0,t0,0xf
     d10:	00052900 	sll	a1,a1,0x4
     d14:	00461021 	addu	v0,v0,a2
     d18:	00671821 	addu	v1,v1,a3
     d1c:	00a82821 	addu	a1,a1,t0
     d20:	00021080 	sll	v0,v0,0x2
     d24:	00031880 	sll	v1,v1,0x2
     d28:	00052880 	sll	a1,a1,0x2
     d2c:	00491021 	addu	v0,v0,t1
     d30:	00691821 	addu	v1,v1,t1
     d34:	00a92821 	addu	a1,a1,t1
     d38:	8c460000 	lw	a2,0(v0)
     d3c:	8c670000 	lw	a3,0(v1)
     d40:	8ca20000 	lw	v0,0(a1)
     d44:	ad460004 	sw	a2,4(t2)
     d48:	ad42000c 	sw	v0,12(t2)
     d4c:	ad470008 	sw	a3,8(t2)
     d50:	8c830030 	lw	v1,48(a0)
     d54:	00000000 	nop
     d58:	00031102 	srl	v0,v1,0x4
     d5c:	00021100 	sll	v0,v0,0x4
     d60:	3063000f 	andi	v1,v1,0xf
     d64:	00431021 	addu	v0,v0,v1
     d68:	00021080 	sll	v0,v0,0x2
     d6c:	00491021 	addu	v0,v0,t1
     d70:	8c430000 	lw	v1,0(v0)
     d74:	00000000 	nop
     d78:	ac830030 	sw	v1,48(a0)
     d7c:	8d650004 	lw	a1,4(t3)
     d80:	8d660008 	lw	a2,8(t3)
     d84:	8d67000c 	lw	a3,12(t3)
     d88:	00051102 	srl	v0,a1,0x4
     d8c:	00061902 	srl	v1,a2,0x4
     d90:	00072102 	srl	a0,a3,0x4
     d94:	30a5000f 	andi	a1,a1,0xf
     d98:	30c6000f 	andi	a2,a2,0xf
     d9c:	00021100 	sll	v0,v0,0x4
     da0:	00031900 	sll	v1,v1,0x4
     da4:	30e7000f 	andi	a3,a3,0xf
     da8:	00042100 	sll	a0,a0,0x4
     dac:	00451021 	addu	v0,v0,a1
     db0:	00661821 	addu	v1,v1,a2
     db4:	00872021 	addu	a0,a0,a3
     db8:	00021080 	sll	v0,v0,0x2
     dbc:	00031880 	sll	v1,v1,0x2
     dc0:	00042080 	sll	a0,a0,0x2
     dc4:	00491021 	addu	v0,v0,t1
     dc8:	00892021 	addu	a0,a0,t1
     dcc:	00691821 	addu	v1,v1,t1
     dd0:	8c450000 	lw	a1,0(v0)
     dd4:	8c660000 	lw	a2,0(v1)
     dd8:	8c820000 	lw	v0,0(a0)
     ddc:	ad650004 	sw	a1,4(t3)
     de0:	ad62000c 	sw	v0,12(t3)
     de4:	03e00008 	jr	ra
     de8:	ad660008 	sw	a2,8(t3)

00000dec <ShiftRows>:
     dec:	24820010 	addiu	v0,a0,16
     df0:	8c430004 	lw	v1,4(v0)
     df4:	8c870010 	lw	a3,16(a0)
     df8:	ac830010 	sw	v1,16(a0)
     dfc:	8c450008 	lw	a1,8(v0)
     e00:	8c46000c 	lw	a2,12(v0)
     e04:	ac450004 	sw	a1,4(v0)
     e08:	ac47000c 	sw	a3,12(v0)
     e0c:	ac460008 	sw	a2,8(v0)
     e10:	24830020 	addiu	v1,a0,32
     e14:	8c620008 	lw	v0,8(v1)
     e18:	8c870020 	lw	a3,32(a0)
     e1c:	ac820020 	sw	v0,32(a0)
     e20:	8c650004 	lw	a1,4(v1)
     e24:	8c66000c 	lw	a2,12(v1)
     e28:	ac670008 	sw	a3,8(v1)
     e2c:	ac65000c 	sw	a1,12(v1)
     e30:	ac660004 	sw	a2,4(v1)
     e34:	24820030 	addiu	v0,a0,48
     e38:	8c43000c 	lw	v1,12(v0)
     e3c:	8c850030 	lw	a1,48(a0)
     e40:	ac830030 	sw	v1,48(a0)
     e44:	8c440008 	lw	a0,8(v0)
     e48:	8c430004 	lw	v1,4(v0)
     e4c:	ac44000c 	sw	a0,12(v0)
     e50:	ac450004 	sw	a1,4(v0)
     e54:	03e00008 	jr	ra
     e58:	ac430008 	sw	v1,8(v0)

00000e5c <InvShiftRows>:
     e5c:	24820010 	addiu	v0,a0,16
     e60:	8c460008 	lw	a2,8(v0)
     e64:	8c430004 	lw	v1,4(v0)
     e68:	8c47000c 	lw	a3,12(v0)
     e6c:	ac430008 	sw	v1,8(v0)
     e70:	ac46000c 	sw	a2,12(v0)
     e74:	8c850010 	lw	a1,16(a0)
     e78:	24830020 	addiu	v1,a0,32
     e7c:	ac450004 	sw	a1,4(v0)
     e80:	ac870010 	sw	a3,16(a0)
     e84:	8c62000c 	lw	v0,12(v1)
     e88:	8c650004 	lw	a1,4(v1)
     e8c:	ac620004 	sw	v0,4(v1)
     e90:	ac65000c 	sw	a1,12(v1)
     e94:	8c660008 	lw	a2,8(v1)
     e98:	8c850020 	lw	a1,32(a0)
     e9c:	24820030 	addiu	v0,a0,48
     ea0:	ac650008 	sw	a1,8(v1)
     ea4:	ac860020 	sw	a2,32(a0)
     ea8:	8c830030 	lw	v1,48(a0)
     eac:	8c450004 	lw	a1,4(v0)
     eb0:	8c46000c 	lw	a2,12(v0)
     eb4:	ac43000c 	sw	v1,12(v0)
     eb8:	ac850030 	sw	a1,48(a0)
     ebc:	8c430008 	lw	v1,8(v0)
     ec0:	ac460008 	sw	a2,8(v0)
     ec4:	03e00008 	jr	ra
     ec8:	ac430004 	sw	v1,4(v0)

00000ecc <MixColumns>:
     ecc:	27bdffe8 	addiu	sp,sp,-24
     ed0:	8c8f0030 	lw	t7,48(a0)
     ed4:	afb00000 	sw	s0,0(sp)
     ed8:	8c870000 	lw	a3,0(a0)
     edc:	8c900010 	lw	s0,16(a0)
     ee0:	8c8e0020 	lw	t6,32(a0)
     ee4:	000750c0 	sll	t2,a3,0x3
     ee8:	001048c0 	sll	t1,s0,0x3
     eec:	000e40c0 	sll	t0,t6,0x3
     ef0:	000f30c0 	sll	a2,t7,0x3
     ef4:	000f5940 	sll	t3,t7,0x5
     ef8:	00072940 	sll	a1,a3,0x5
     efc:	00101140 	sll	v0,s0,0x5
     f00:	000e1940 	sll	v1,t6,0x5
     f04:	3c0c0004 	lui	t4,0x4
     f08:	258c2248 	addiu	t4,t4,8776
     f0c:	00aa2823 	subu	a1,a1,t2
     f10:	00491023 	subu	v0,v0,t1
     f14:	00681823 	subu	v1,v1,t0
     f18:	01665823 	subu	t3,t3,a2
     f1c:	00ac2821 	addu	a1,a1,t4
     f20:	004c1021 	addu	v0,v0,t4
     f24:	006c1821 	addu	v1,v1,t4
     f28:	016c5821 	addu	t3,t3,t4
     f2c:	8ca80000 	lw	t0,0(a1)
     f30:	afb10004 	sw	s1,4(sp)
     f34:	8c510004 	lw	s1,4(v0)
     f38:	8c460000 	lw	a2,0(v0)
     f3c:	8c690004 	lw	t1,4(v1)
     f40:	8c6a0000 	lw	t2,0(v1)
     f44:	8d6d0004 	lw	t5,4(t3)
     f48:	8ca20004 	lw	v0,4(a1)
     f4c:	8d630000 	lw	v1,0(t3)
     f50:	014d5026 	xor	t2,t2,t5
     f54:	01c31826 	xor	v1,t6,v1
     f58:	01e94826 	xor	t1,t7,t1
     f5c:	01cf7026 	xor	t6,t6,t7
     f60:	01114026 	xor	t0,t0,s1
     f64:	02021026 	xor	v0,s0,v0
     f68:	00e63026 	xor	a2,a3,a2
     f6c:	00f03826 	xor	a3,a3,s0
     f70:	010e4026 	xor	t0,t0,t6
     f74:	00c93026 	xor	a2,a2,t1
     f78:	00ea3826 	xor	a3,a3,t2
     f7c:	00431026 	xor	v0,v0,v1
     f80:	afb40010 	sw	s4,16(sp)
     f84:	afb3000c 	sw	s3,12(sp)
     f88:	24940030 	addiu	s4,a0,48
     f8c:	24930020 	addiu	s3,a0,32
     f90:	afb20008 	sw	s2,8(sp)
     f94:	ac880000 	sw	t0,0(a0)
     f98:	24920010 	addiu	s2,a0,16
     f9c:	ac860010 	sw	a2,16(a0)
     fa0:	ac870020 	sw	a3,32(a0)
     fa4:	ac820030 	sw	v0,48(a0)
     fa8:	8e500004 	lw	s0,4(s2)
     fac:	8e8f0004 	lw	t7,4(s4)
     fb0:	8e6e0004 	lw	t6,4(s3)
     fb4:	8c860004 	lw	a2,4(a0)
     fb8:	001050c0 	sll	t2,s0,0x3
     fbc:	000658c0 	sll	t3,a2,0x3
     fc0:	000e48c0 	sll	t1,t6,0x3
     fc4:	000f40c0 	sll	t0,t7,0x3
     fc8:	000f3940 	sll	a3,t7,0x5
     fcc:	00062940 	sll	a1,a2,0x5
     fd0:	00101140 	sll	v0,s0,0x5
     fd4:	000e1940 	sll	v1,t6,0x5
     fd8:	00ab2823 	subu	a1,a1,t3
     fdc:	004a1023 	subu	v0,v0,t2
     fe0:	00691823 	subu	v1,v1,t1
     fe4:	00e83823 	subu	a3,a3,t0
     fe8:	00ac2821 	addu	a1,a1,t4
     fec:	004c1021 	addu	v0,v0,t4
     ff0:	006c1821 	addu	v1,v1,t4
     ff4:	00ec3821 	addu	a3,a3,t4
     ff8:	8ca90000 	lw	t1,0(a1)
     ffc:	8c510004 	lw	s1,4(v0)
    1000:	8c480000 	lw	t0,0(v0)
    1004:	8c6a0004 	lw	t2,4(v1)
    1008:	8c6b0000 	lw	t3,0(v1)
    100c:	8ced0004 	lw	t5,4(a3)
    1010:	8ca20004 	lw	v0,4(a1)
    1014:	8ce30000 	lw	v1,0(a3)
    1018:	016d5826 	xor	t3,t3,t5
    101c:	01c31826 	xor	v1,t6,v1
    1020:	01ea5026 	xor	t2,t7,t2
    1024:	01cf7026 	xor	t6,t6,t7
    1028:	01314826 	xor	t1,t1,s1
    102c:	02021026 	xor	v0,s0,v0
    1030:	00c84026 	xor	t0,a2,t0
    1034:	00d03026 	xor	a2,a2,s0
    1038:	012e4826 	xor	t1,t1,t6
    103c:	010a4026 	xor	t0,t0,t2
    1040:	00cb3026 	xor	a2,a2,t3
    1044:	00431026 	xor	v0,v0,v1
    1048:	ac890004 	sw	t1,4(a0)
    104c:	ae480004 	sw	t0,4(s2)
    1050:	ae660004 	sw	a2,4(s3)
    1054:	ae820004 	sw	v0,4(s4)
    1058:	8e4f0008 	lw	t7,8(s2)
    105c:	8c890008 	lw	t1,8(a0)
    1060:	000f10c0 	sll	v0,t7,0x3
    1064:	000918c0 	sll	v1,t1,0x3
    1068:	00095140 	sll	t2,t1,0x5
    106c:	000f4140 	sll	t0,t7,0x5
    1070:	01435023 	subu	t2,t2,v1
    1074:	01024023 	subu	t0,t0,v0
    1078:	8e6d0008 	lw	t5,8(s3)
    107c:	8e8b0008 	lw	t3,8(s4)
    1080:	014c5021 	addu	t2,t2,t4
    1084:	010c4021 	addu	t0,t0,t4
    1088:	8d450000 	lw	a1,0(t2)
    108c:	8d0e0004 	lw	t6,4(t0)
    1090:	000d10c0 	sll	v0,t5,0x3
    1094:	000b38c0 	sll	a3,t3,0x3
    1098:	000b3140 	sll	a2,t3,0x5
    109c:	000d1940 	sll	v1,t5,0x5
    10a0:	00ae2826 	xor	a1,a1,t6
    10a4:	00621823 	subu	v1,v1,v0
    10a8:	00c73023 	subu	a2,a2,a3
    10ac:	01ab1026 	xor	v0,t5,t3
    10b0:	006c1821 	addu	v1,v1,t4
    10b4:	00cc3021 	addu	a2,a2,t4
    10b8:	00a22826 	xor	a1,a1,v0
    10bc:	8d070000 	lw	a3,0(t0)
    10c0:	ac850008 	sw	a1,8(a0)
    10c4:	8c6e0004 	lw	t6,4(v1)
    10c8:	8c650000 	lw	a1,0(v1)
    10cc:	8cc80004 	lw	t0,4(a2)
    10d0:	8d420004 	lw	v0,4(t2)
    10d4:	8cc30000 	lw	v1,0(a2)
    10d8:	00a82826 	xor	a1,a1,t0
    10dc:	01a36826 	xor	t5,t5,v1
    10e0:	016e5826 	xor	t3,t3,t6
    10e4:	01e21026 	xor	v0,t7,v0
    10e8:	01273826 	xor	a3,t1,a3
    10ec:	012f4826 	xor	t1,t1,t7
    10f0:	00eb3826 	xor	a3,a3,t3
    10f4:	01254826 	xor	t1,t1,a1
    10f8:	004d1026 	xor	v0,v0,t5
    10fc:	ae470008 	sw	a3,8(s2)
    1100:	ae690008 	sw	t1,8(s3)
    1104:	ae820008 	sw	v0,8(s4)
    1108:	8e4f000c 	lw	t7,12(s2)
    110c:	8e6d000c 	lw	t5,12(s3)
    1110:	8e8e000c 	lw	t6,12(s4)
    1114:	8c86000c 	lw	a2,12(a0)
    1118:	000d48c0 	sll	t1,t5,0x3
    111c:	000658c0 	sll	t3,a2,0x3
    1120:	00062940 	sll	a1,a2,0x5
    1124:	000f50c0 	sll	t2,t7,0x3
    1128:	000d1940 	sll	v1,t5,0x5
    112c:	000e40c0 	sll	t0,t6,0x3
    1130:	000e3940 	sll	a3,t6,0x5
    1134:	000f1140 	sll	v0,t7,0x5
    1138:	00ab2823 	subu	a1,a1,t3
    113c:	004a1023 	subu	v0,v0,t2
    1140:	00691823 	subu	v1,v1,t1
    1144:	00e83823 	subu	a3,a3,t0
    1148:	004c1021 	addu	v0,v0,t4
    114c:	006c1821 	addu	v1,v1,t4
    1150:	00ac2821 	addu	a1,a1,t4
    1154:	00ec3821 	addu	a3,a3,t4
    1158:	8ca90000 	lw	t1,0(a1)
    115c:	8c500004 	lw	s0,4(v0)
    1160:	8c480000 	lw	t0,0(v0)
    1164:	8c6a0004 	lw	t2,4(v1)
    1168:	8c6b0000 	lw	t3,0(v1)
    116c:	8cec0004 	lw	t4,4(a3)
    1170:	8ca20004 	lw	v0,4(a1)
    1174:	8ce30000 	lw	v1,0(a3)
    1178:	01304826 	xor	t1,t1,s0
    117c:	01a31826 	xor	v1,t5,v1
    1180:	00c84026 	xor	t0,a2,t0
    1184:	016c5826 	xor	t3,t3,t4
    1188:	01e21026 	xor	v0,t7,v0
    118c:	01ca5026 	xor	t2,t6,t2
    1190:	00cf3026 	xor	a2,a2,t7
    1194:	01ae6826 	xor	t5,t5,t6
    1198:	012d4826 	xor	t1,t1,t5
    119c:	010a4026 	xor	t0,t0,t2
    11a0:	00cb3026 	xor	a2,a2,t3
    11a4:	00431026 	xor	v0,v0,v1
    11a8:	ac89000c 	sw	t1,12(a0)
    11ac:	ae48000c 	sw	t0,12(s2)
    11b0:	ae66000c 	sw	a2,12(s3)
    11b4:	ae82000c 	sw	v0,12(s4)
    11b8:	8fb40010 	lw	s4,16(sp)
    11bc:	8fb3000c 	lw	s3,12(sp)
    11c0:	8fb20008 	lw	s2,8(sp)
    11c4:	8fb10004 	lw	s1,4(sp)
    11c8:	8fb00000 	lw	s0,0(sp)
    11cc:	03e00008 	jr	ra
    11d0:	27bd0018 	addiu	sp,sp,24

000011d4 <InvMixColumns>:
    11d4:	8c870000 	lw	a3,0(a0)
    11d8:	8c880010 	lw	t0,16(a0)
    11dc:	8c890020 	lw	t1,32(a0)
    11e0:	8c8a0030 	lw	t2,48(a0)
    11e4:	00071140 	sll	v0,a3,0x5
    11e8:	00081940 	sll	v1,t0,0x5
    11ec:	00092940 	sll	a1,t1,0x5
    11f0:	000a3140 	sll	a2,t2,0x5
    11f4:	000738c0 	sll	a3,a3,0x3
    11f8:	000840c0 	sll	t0,t0,0x3
    11fc:	000948c0 	sll	t1,t1,0x3
    1200:	000a50c0 	sll	t2,t2,0x3
    1204:	3c0c0004 	lui	t4,0x4
    1208:	258c2248 	addiu	t4,t4,8776
    120c:	00471023 	subu	v0,v0,a3
    1210:	00681823 	subu	v1,v1,t0
    1214:	00a92823 	subu	a1,a1,t1
    1218:	00ca3023 	subu	a2,a2,t2
    121c:	27bdffe0 	addiu	sp,sp,-32
    1220:	004c1021 	addu	v0,v0,t4
    1224:	006c1821 	addu	v1,v1,t4
    1228:	00ac2821 	addu	a1,a1,t4
    122c:	00cc3021 	addu	a2,a2,t4
    1230:	8c4b0014 	lw	t3,20(v0)
    1234:	afb50014 	sw	s5,20(sp)
    1238:	afb40010 	sw	s4,16(sp)
    123c:	8c75000c 	lw	s5,12(v1)
    1240:	afb3000c 	sw	s3,12(sp)
    1244:	8cae0010 	lw	t6,16(a1)
    1248:	afb20008 	sw	s2,8(sp)
    124c:	8cd40008 	lw	s4,8(a2)
    1250:	afb10004 	sw	s1,4(sp)
    1254:	8c4a0008 	lw	t2,8(v0)
    1258:	afb00000 	sw	s0,0(sp)
    125c:	8c730014 	lw	s3,20(v1)
    1260:	8cad000c 	lw	t5,12(a1)
    1264:	8cd20010 	lw	s2,16(a2)
    1268:	8c480010 	lw	t0,16(v0)
    126c:	8c710008 	lw	s1,8(v1)
    1270:	8ca90014 	lw	t1,20(a1)
    1274:	8cd0000c 	lw	s0,12(a2)
    1278:	8c47000c 	lw	a3,12(v0)
    127c:	8c6f0010 	lw	t7,16(v1)
    1280:	8ca20008 	lw	v0,8(a1)
    1284:	8cc30014 	lw	v1,20(a2)
    1288:	01d47026 	xor	t6,t6,s4
    128c:	01b26826 	xor	t5,t5,s2
    1290:	01304826 	xor	t1,t1,s0
    1294:	00431026 	xor	v0,v0,v1
    1298:	01755826 	xor	t3,t3,s5
    129c:	01535026 	xor	t2,t2,s3
    12a0:	01114026 	xor	t0,t0,s1
    12a4:	00ef3826 	xor	a3,a3,t7
    12a8:	016e5826 	xor	t3,t3,t6
    12ac:	014d5026 	xor	t2,t2,t5
    12b0:	01094026 	xor	t0,t0,t1
    12b4:	00e23826 	xor	a3,a3,v0
    12b8:	afb7001c 	sw	s7,28(sp)
    12bc:	afb60018 	sw	s6,24(sp)
    12c0:	24970020 	addiu	s7,a0,32
    12c4:	24960010 	addiu	s6,a0,16
    12c8:	24980030 	addiu	t8,a0,48
    12cc:	ac8b0000 	sw	t3,0(a0)
    12d0:	ac8a0010 	sw	t2,16(a0)
    12d4:	ac880020 	sw	t0,32(a0)
    12d8:	ac870030 	sw	a3,48(a0)
    12dc:	8ec30004 	lw	v1,4(s6)
    12e0:	8ee50004 	lw	a1,4(s7)
    12e4:	8c820004 	lw	v0,4(a0)
    12e8:	8f060004 	lw	a2,4(t8)
    12ec:	00023940 	sll	a3,v0,0x5
    12f0:	00034140 	sll	t0,v1,0x5
    12f4:	00054940 	sll	t1,a1,0x5
    12f8:	00065140 	sll	t2,a2,0x5
    12fc:	000210c0 	sll	v0,v0,0x3
    1300:	000318c0 	sll	v1,v1,0x3
    1304:	000528c0 	sll	a1,a1,0x3
    1308:	000630c0 	sll	a2,a2,0x3
    130c:	00e23823 	subu	a3,a3,v0
    1310:	01034023 	subu	t0,t0,v1
    1314:	01254823 	subu	t1,t1,a1
    1318:	01465023 	subu	t2,t2,a2
    131c:	00ec3821 	addu	a3,a3,t4
    1320:	010c4021 	addu	t0,t0,t4
    1324:	012c4821 	addu	t1,t1,t4
    1328:	014c5021 	addu	t2,t2,t4
    132c:	8ce50014 	lw	a1,20(a3)
    1330:	8d0f000c 	lw	t7,12(t0)
    1334:	8d260010 	lw	a2,16(t1)
    1338:	8d4e0008 	lw	t6,8(t2)
    133c:	8ce30008 	lw	v1,8(a3)
    1340:	8d0d0014 	lw	t5,20(t0)
    1344:	8d22000c 	lw	v0,12(t1)
    1348:	8d4b0010 	lw	t3,16(t2)
    134c:	00ce3026 	xor	a2,a2,t6
    1350:	004b1026 	xor	v0,v0,t3
    1354:	00af2826 	xor	a1,a1,t7
    1358:	006d1826 	xor	v1,v1,t5
    135c:	00a62826 	xor	a1,a1,a2
    1360:	00621826 	xor	v1,v1,v0
    1364:	ac850004 	sw	a1,4(a0)
    1368:	8ce50010 	lw	a1,16(a3)
    136c:	aec30004 	sw	v1,4(s6)
    1370:	8d0e0008 	lw	t6,8(t0)
    1374:	8d260014 	lw	a2,20(t1)
    1378:	8d4d000c 	lw	t5,12(t2)
    137c:	8ce3000c 	lw	v1,12(a3)
    1380:	8d0b0010 	lw	t3,16(t0)
    1384:	8d220008 	lw	v0,8(t1)
    1388:	8d470014 	lw	a3,20(t2)
    138c:	00cd3026 	xor	a2,a2,t5
    1390:	00471026 	xor	v0,v0,a3
    1394:	00ae2826 	xor	a1,a1,t6
    1398:	006b1826 	xor	v1,v1,t3
    139c:	00a62826 	xor	a1,a1,a2
    13a0:	00621826 	xor	v1,v1,v0
    13a4:	aee50004 	sw	a1,4(s7)
    13a8:	af030004 	sw	v1,4(t8)
    13ac:	8ec80008 	lw	t0,8(s6)
    13b0:	8ee90008 	lw	t1,8(s7)
    13b4:	8c870008 	lw	a3,8(a0)
    13b8:	8f0a0008 	lw	t2,8(t8)
    13bc:	00071140 	sll	v0,a3,0x5
    13c0:	00081940 	sll	v1,t0,0x5
    13c4:	00092940 	sll	a1,t1,0x5
    13c8:	000a3140 	sll	a2,t2,0x5
    13cc:	000738c0 	sll	a3,a3,0x3
    13d0:	000840c0 	sll	t0,t0,0x3
    13d4:	000948c0 	sll	t1,t1,0x3
    13d8:	000a50c0 	sll	t2,t2,0x3
    13dc:	00471023 	subu	v0,v0,a3
    13e0:	00681823 	subu	v1,v1,t0
    13e4:	00a92823 	subu	a1,a1,t1
    13e8:	00ca3023 	subu	a2,a2,t2
    13ec:	004c1021 	addu	v0,v0,t4
    13f0:	006c1821 	addu	v1,v1,t4
    13f4:	00ac2821 	addu	a1,a1,t4
    13f8:	00cc3021 	addu	a2,a2,t4
    13fc:	8c4b0014 	lw	t3,20(v0)
    1400:	8c75000c 	lw	s5,12(v1)
    1404:	8cae0010 	lw	t6,16(a1)
    1408:	8cd40008 	lw	s4,8(a2)
    140c:	8c4a0008 	lw	t2,8(v0)
    1410:	8c730014 	lw	s3,20(v1)
    1414:	8cad000c 	lw	t5,12(a1)
    1418:	8cd20010 	lw	s2,16(a2)
    141c:	8c470010 	lw	a3,16(v0)
    1420:	8c710008 	lw	s1,8(v1)
    1424:	8ca90014 	lw	t1,20(a1)
    1428:	8cd0000c 	lw	s0,12(a2)
    142c:	8c48000c 	lw	t0,12(v0)
    1430:	8c6f0010 	lw	t7,16(v1)
    1434:	8ca20008 	lw	v0,8(a1)
    1438:	8cc30014 	lw	v1,20(a2)
    143c:	01d47026 	xor	t6,t6,s4
    1440:	01b26826 	xor	t5,t5,s2
    1444:	01304826 	xor	t1,t1,s0
    1448:	00431026 	xor	v0,v0,v1
    144c:	01755826 	xor	t3,t3,s5
    1450:	01535026 	xor	t2,t2,s3
    1454:	00f13826 	xor	a3,a3,s1
    1458:	010f4026 	xor	t0,t0,t7
    145c:	016e5826 	xor	t3,t3,t6
    1460:	014d5026 	xor	t2,t2,t5
    1464:	00e93826 	xor	a3,a3,t1
    1468:	01024026 	xor	t0,t0,v0
    146c:	ac8b0008 	sw	t3,8(a0)
    1470:	aeca0008 	sw	t2,8(s6)
    1474:	aee70008 	sw	a3,8(s7)
    1478:	af080008 	sw	t0,8(t8)
    147c:	8ec8000c 	lw	t0,12(s6)
    1480:	8ee9000c 	lw	t1,12(s7)
    1484:	8c87000c 	lw	a3,12(a0)
    1488:	8f0a000c 	lw	t2,12(t8)
    148c:	00071140 	sll	v0,a3,0x5
    1490:	00081940 	sll	v1,t0,0x5
    1494:	00092940 	sll	a1,t1,0x5
    1498:	000a3140 	sll	a2,t2,0x5
    149c:	000738c0 	sll	a3,a3,0x3
    14a0:	000840c0 	sll	t0,t0,0x3
    14a4:	000948c0 	sll	t1,t1,0x3
    14a8:	000a50c0 	sll	t2,t2,0x3
    14ac:	00471023 	subu	v0,v0,a3
    14b0:	00681823 	subu	v1,v1,t0
    14b4:	00a92823 	subu	a1,a1,t1
    14b8:	00ca3023 	subu	a2,a2,t2
    14bc:	004c1021 	addu	v0,v0,t4
    14c0:	006c1821 	addu	v1,v1,t4
    14c4:	00cc3021 	addu	a2,a2,t4
    14c8:	00ac2821 	addu	a1,a1,t4
    14cc:	8c4b0014 	lw	t3,20(v0)
    14d0:	8c74000c 	lw	s4,12(v1)
    14d4:	8cad0010 	lw	t5,16(a1)
    14d8:	8cd30008 	lw	s3,8(a2)
    14dc:	8c4a0008 	lw	t2,8(v0)
    14e0:	8c720014 	lw	s2,20(v1)
    14e4:	8cac000c 	lw	t4,12(a1)
    14e8:	8cd10010 	lw	s1,16(a2)
    14ec:	8c480010 	lw	t0,16(v0)
    14f0:	8c700008 	lw	s0,8(v1)
    14f4:	8ca90014 	lw	t1,20(a1)
    14f8:	8ccf000c 	lw	t7,12(a2)
    14fc:	8c47000c 	lw	a3,12(v0)
    1500:	8c6e0010 	lw	t6,16(v1)
    1504:	8ca20008 	lw	v0,8(a1)
    1508:	8cc30014 	lw	v1,20(a2)
    150c:	01745826 	xor	t3,t3,s4
    1510:	01b36826 	xor	t5,t5,s3
    1514:	01525026 	xor	t2,t2,s2
    1518:	01916026 	xor	t4,t4,s1
    151c:	01104026 	xor	t0,t0,s0
    1520:	012f4826 	xor	t1,t1,t7
    1524:	00ee3826 	xor	a3,a3,t6
    1528:	00431026 	xor	v0,v0,v1
    152c:	016d5826 	xor	t3,t3,t5
    1530:	014c5026 	xor	t2,t2,t4
    1534:	01094026 	xor	t0,t0,t1
    1538:	00e23826 	xor	a3,a3,v0
    153c:	ac8b000c 	sw	t3,12(a0)
    1540:	aeca000c 	sw	t2,12(s6)
    1544:	aee8000c 	sw	t0,12(s7)
    1548:	af07000c 	sw	a3,12(t8)
    154c:	8fb7001c 	lw	s7,28(sp)
    1550:	8fb60018 	lw	s6,24(sp)
    1554:	8fb50014 	lw	s5,20(sp)
    1558:	8fb40010 	lw	s4,16(sp)
    155c:	8fb3000c 	lw	s3,12(sp)
    1560:	8fb20008 	lw	s2,8(sp)
    1564:	8fb10004 	lw	s1,4(sp)
    1568:	8fb00000 	lw	s0,0(sp)
    156c:	03e00008 	jr	ra
    1570:	27bd0020 	addiu	sp,sp,32

00001574 <aes_decrypt>:
    1574:	27bdff98 	addiu	sp,sp,-104
    1578:	afbf0064 	sw	ra,100(sp)
    157c:	afb40060 	sw	s4,96(sp)
    1580:	afb3005c 	sw	s3,92(sp)
    1584:	afb20058 	sw	s2,88(sp)
    1588:	afb10054 	sw	s1,84(sp)
    158c:	afb00050 	sw	s0,80(sp)
    1590:	8c910030 	lw	s1,48(a0)
    1594:	8c920034 	lw	s2,52(a0)
    1598:	8c94003c 	lw	s4,60(a0)
    159c:	8c930038 	lw	s3,56(a0)
    15a0:	8c820000 	lw	v0,0(a0)
    15a4:	8c830004 	lw	v1,4(a0)
    15a8:	8c88000c 	lw	t0,12(a0)
    15ac:	8c890010 	lw	t1,16(a0)
    15b0:	8c8a0014 	lw	t2,20(a0)
    15b4:	8c8b0018 	lw	t3,24(a0)
    15b8:	8c8c001c 	lw	t4,28(a0)
    15bc:	8c8d0020 	lw	t5,32(a0)
    15c0:	8c8e0024 	lw	t6,36(a0)
    15c4:	8c8f0028 	lw	t7,40(a0)
    15c8:	8c90002c 	lw	s0,44(a0)
    15cc:	00e0c021 	move	t8,a3
    15d0:	8c870008 	lw	a3,8(a0)
    15d4:	2b040081 	slti	a0,t8,129
    15d8:	afa20010 	sw	v0,16(sp)
    15dc:	afa30020 	sw	v1,32(sp)
    15e0:	afa70030 	sw	a3,48(sp)
    15e4:	afa80040 	sw	t0,64(sp)
    15e8:	afa90014 	sw	t1,20(sp)
    15ec:	afaa0024 	sw	t2,36(sp)
    15f0:	afab0034 	sw	t3,52(sp)
    15f4:	afac0044 	sw	t4,68(sp)
    15f8:	afad0018 	sw	t5,24(sp)
    15fc:	afae0028 	sw	t6,40(sp)
    1600:	afaf0038 	sw	t7,56(sp)
    1604:	afb00048 	sw	s0,72(sp)
    1608:	afb1001c 	sw	s1,28(sp)
    160c:	afb2002c 	sw	s2,44(sp)
    1610:	afb3003c 	sw	s3,60(sp)
    1614:	afb4004c 	sw	s4,76(sp)
    1618:	00a09021 	move	s2,a1
    161c:	148000c2 	bnez	a0,1928 <aes_decrypt+0x3b4>
    1620:	00c08821 	move	s1,a2
    1624:	2b0200c1 	slti	v0,t8,193
    1628:	144000b4 	bnez	v0,18fc <aes_decrypt+0x388>
    162c:	27b00010 	addiu	s0,sp,16
    1630:	24c500e0 	addiu	a1,a2,224
    1634:	0c0001fb 	jal	7ec <AddRoundKey>
    1638:	02002021 	move	a0,s0
    163c:	3c050000 	lui	a1,0x0
    1640:	00003021 	move	a2,zero
    1644:	00003821 	move	a3,zero
    1648:	24a520f8 	addiu	a1,a1,8440
    164c:	0c000008 	jal	20 <SystemCall>
    1650:	24040004 	li	a0,4
    1654:	0c000397 	jal	e5c <InvShiftRows>
    1658:	02002021 	move	a0,s0
    165c:	0c0002e3 	jal	b8c <InvSubBytes>
    1660:	02002021 	move	a0,s0
    1664:	262500d0 	addiu	a1,s1,208
    1668:	0c0001fb 	jal	7ec <AddRoundKey>
    166c:	02002021 	move	a0,s0
    1670:	0c000475 	jal	11d4 <InvMixColumns>
    1674:	02002021 	move	a0,s0
    1678:	0c000397 	jal	e5c <InvShiftRows>
    167c:	02002021 	move	a0,s0
    1680:	0c0002e3 	jal	b8c <InvSubBytes>
    1684:	02002021 	move	a0,s0
    1688:	02002021 	move	a0,s0
    168c:	0c0001fb 	jal	7ec <AddRoundKey>
    1690:	262500c0 	addiu	a1,s1,192
    1694:	0c000475 	jal	11d4 <InvMixColumns>
    1698:	02002021 	move	a0,s0
    169c:	0c000397 	jal	e5c <InvShiftRows>
    16a0:	02002021 	move	a0,s0
    16a4:	0c0002e3 	jal	b8c <InvSubBytes>
    16a8:	02002021 	move	a0,s0
    16ac:	262500b0 	addiu	a1,s1,176
    16b0:	0c0001fb 	jal	7ec <AddRoundKey>
    16b4:	02002021 	move	a0,s0
    16b8:	0c000475 	jal	11d4 <InvMixColumns>
    16bc:	02002021 	move	a0,s0
    16c0:	0c000397 	jal	e5c <InvShiftRows>
    16c4:	02002021 	move	a0,s0
    16c8:	0c0002e3 	jal	b8c <InvSubBytes>
    16cc:	02002021 	move	a0,s0
    16d0:	02002021 	move	a0,s0
    16d4:	0c0001fb 	jal	7ec <AddRoundKey>
    16d8:	262500a0 	addiu	a1,s1,160
    16dc:	0c000475 	jal	11d4 <InvMixColumns>
    16e0:	02002021 	move	a0,s0
    16e4:	0c000397 	jal	e5c <InvShiftRows>
    16e8:	02002021 	move	a0,s0
    16ec:	0c0002e3 	jal	b8c <InvSubBytes>
    16f0:	02002021 	move	a0,s0
    16f4:	26250090 	addiu	a1,s1,144
    16f8:	0c0001fb 	jal	7ec <AddRoundKey>
    16fc:	02002021 	move	a0,s0
    1700:	0c000475 	jal	11d4 <InvMixColumns>
    1704:	02002021 	move	a0,s0
    1708:	0c000397 	jal	e5c <InvShiftRows>
    170c:	02002021 	move	a0,s0
    1710:	0c0002e3 	jal	b8c <InvSubBytes>
    1714:	02002021 	move	a0,s0
    1718:	26250080 	addiu	a1,s1,128
    171c:	0c0001fb 	jal	7ec <AddRoundKey>
    1720:	02002021 	move	a0,s0
    1724:	0c000475 	jal	11d4 <InvMixColumns>
    1728:	02002021 	move	a0,s0
    172c:	0c000397 	jal	e5c <InvShiftRows>
    1730:	02002021 	move	a0,s0
    1734:	0c0002e3 	jal	b8c <InvSubBytes>
    1738:	02002021 	move	a0,s0
    173c:	26250070 	addiu	a1,s1,112
    1740:	0c0001fb 	jal	7ec <AddRoundKey>
    1744:	02002021 	move	a0,s0
    1748:	0c000475 	jal	11d4 <InvMixColumns>
    174c:	02002021 	move	a0,s0
    1750:	0c000397 	jal	e5c <InvShiftRows>
    1754:	02002021 	move	a0,s0
    1758:	0c0002e3 	jal	b8c <InvSubBytes>
    175c:	02002021 	move	a0,s0
    1760:	26250060 	addiu	a1,s1,96
    1764:	0c0001fb 	jal	7ec <AddRoundKey>
    1768:	02002021 	move	a0,s0
    176c:	0c000475 	jal	11d4 <InvMixColumns>
    1770:	02002021 	move	a0,s0
    1774:	0c000397 	jal	e5c <InvShiftRows>
    1778:	02002021 	move	a0,s0
    177c:	0c0002e3 	jal	b8c <InvSubBytes>
    1780:	02002021 	move	a0,s0
    1784:	26250050 	addiu	a1,s1,80
    1788:	0c0001fb 	jal	7ec <AddRoundKey>
    178c:	02002021 	move	a0,s0
    1790:	0c000475 	jal	11d4 <InvMixColumns>
    1794:	02002021 	move	a0,s0
    1798:	0c000397 	jal	e5c <InvShiftRows>
    179c:	02002021 	move	a0,s0
    17a0:	0c0002e3 	jal	b8c <InvSubBytes>
    17a4:	02002021 	move	a0,s0
    17a8:	26250040 	addiu	a1,s1,64
    17ac:	0c0001fb 	jal	7ec <AddRoundKey>
    17b0:	02002021 	move	a0,s0
    17b4:	0c000475 	jal	11d4 <InvMixColumns>
    17b8:	02002021 	move	a0,s0
    17bc:	0c000397 	jal	e5c <InvShiftRows>
    17c0:	02002021 	move	a0,s0
    17c4:	0c0002e3 	jal	b8c <InvSubBytes>
    17c8:	02002021 	move	a0,s0
    17cc:	26250030 	addiu	a1,s1,48
    17d0:	0c0001fb 	jal	7ec <AddRoundKey>
    17d4:	02002021 	move	a0,s0
    17d8:	0c000475 	jal	11d4 <InvMixColumns>
    17dc:	02002021 	move	a0,s0
    17e0:	0c000397 	jal	e5c <InvShiftRows>
    17e4:	02002021 	move	a0,s0
    17e8:	0c0002e3 	jal	b8c <InvSubBytes>
    17ec:	02002021 	move	a0,s0
    17f0:	26250020 	addiu	a1,s1,32
    17f4:	0c0001fb 	jal	7ec <AddRoundKey>
    17f8:	02002021 	move	a0,s0
    17fc:	0c000475 	jal	11d4 <InvMixColumns>
    1800:	02002021 	move	a0,s0
    1804:	0c000397 	jal	e5c <InvShiftRows>
    1808:	02002021 	move	a0,s0
    180c:	0c0002e3 	jal	b8c <InvSubBytes>
    1810:	02002021 	move	a0,s0
    1814:	26250010 	addiu	a1,s1,16
    1818:	0c0001fb 	jal	7ec <AddRoundKey>
    181c:	02002021 	move	a0,s0
    1820:	0c000475 	jal	11d4 <InvMixColumns>
    1824:	02002021 	move	a0,s0
    1828:	0c000397 	jal	e5c <InvShiftRows>
    182c:	02002021 	move	a0,s0
    1830:	0c0002e3 	jal	b8c <InvSubBytes>
    1834:	02002021 	move	a0,s0
    1838:	02002021 	move	a0,s0
    183c:	0c0001fb 	jal	7ec <AddRoundKey>
    1840:	02202821 	move	a1,s1
    1844:	3c050000 	lui	a1,0x0
    1848:	24a5210c 	addiu	a1,a1,8460
    184c:	24040004 	li	a0,4
    1850:	00003021 	move	a2,zero
    1854:	0c000008 	jal	20 <SystemCall>
    1858:	00003821 	move	a3,zero
    185c:	8fb0002c 	lw	s0,44(sp)
    1860:	8fb1003c 	lw	s1,60(sp)
    1864:	8fa40020 	lw	a0,32(sp)
    1868:	8fa50030 	lw	a1,48(sp)
    186c:	8fa60040 	lw	a2,64(sp)
    1870:	8fa70014 	lw	a3,20(sp)
    1874:	8fa80024 	lw	t0,36(sp)
    1878:	8fa90034 	lw	t1,52(sp)
    187c:	8faa0044 	lw	t2,68(sp)
    1880:	8fab0018 	lw	t3,24(sp)
    1884:	8fac0028 	lw	t4,40(sp)
    1888:	8fad0038 	lw	t5,56(sp)
    188c:	8fae0048 	lw	t6,72(sp)
    1890:	8faf001c 	lw	t7,28(sp)
    1894:	8fa3004c 	lw	v1,76(sp)
    1898:	8fa20010 	lw	v0,16(sp)
    189c:	ae43003c 	sw	v1,60(s2)
    18a0:	ae420000 	sw	v0,0(s2)
    18a4:	ae440004 	sw	a0,4(s2)
    18a8:	ae450008 	sw	a1,8(s2)
    18ac:	ae46000c 	sw	a2,12(s2)
    18b0:	ae470010 	sw	a3,16(s2)
    18b4:	ae480014 	sw	t0,20(s2)
    18b8:	ae490018 	sw	t1,24(s2)
    18bc:	ae4a001c 	sw	t2,28(s2)
    18c0:	ae4b0020 	sw	t3,32(s2)
    18c4:	ae4c0024 	sw	t4,36(s2)
    18c8:	ae4d0028 	sw	t5,40(s2)
    18cc:	ae4e002c 	sw	t6,44(s2)
    18d0:	ae4f0030 	sw	t7,48(s2)
    18d4:	ae500034 	sw	s0,52(s2)
    18d8:	ae510038 	sw	s1,56(s2)
    18dc:	8fbf0064 	lw	ra,100(sp)
    18e0:	8fb40060 	lw	s4,96(sp)
    18e4:	8fb3005c 	lw	s3,92(sp)
    18e8:	8fb20058 	lw	s2,88(sp)
    18ec:	8fb10054 	lw	s1,84(sp)
    18f0:	8fb00050 	lw	s0,80(sp)
    18f4:	03e00008 	jr	ra
    18f8:	27bd0068 	addiu	sp,sp,104
    18fc:	02002021 	move	a0,s0
    1900:	0c0001fb 	jal	7ec <AddRoundKey>
    1904:	24c500c0 	addiu	a1,a2,192
    1908:	3c050000 	lui	a1,0x0
    190c:	24a520f8 	addiu	a1,a1,8440
    1910:	24040004 	li	a0,4
    1914:	00003021 	move	a2,zero
    1918:	0c000008 	jal	20 <SystemCall>
    191c:	00003821 	move	a3,zero
    1920:	080005a7 	j	169c <aes_decrypt+0x128>
    1924:	00000000 	nop
    1928:	27b00010 	addiu	s0,sp,16
    192c:	02002021 	move	a0,s0
    1930:	0c0001fb 	jal	7ec <AddRoundKey>
    1934:	24c500a0 	addiu	a1,a2,160
    1938:	3c050000 	lui	a1,0x0
    193c:	24a520f8 	addiu	a1,a1,8440
    1940:	24040004 	li	a0,4
    1944:	00003021 	move	a2,zero
    1948:	0c000008 	jal	20 <SystemCall>
    194c:	00003821 	move	a3,zero
    1950:	080005b9 	j	16e4 <aes_decrypt+0x170>
    1954:	00000000 	nop

00001958 <aes_encrypt>:
    1958:	27bdff88 	addiu	sp,sp,-120
    195c:	afbf0070 	sw	ra,112(sp)
    1960:	afb7006c 	sw	s7,108(sp)
    1964:	afb60068 	sw	s6,104(sp)
    1968:	afb50064 	sw	s5,100(sp)
    196c:	afb40060 	sw	s4,96(sp)
    1970:	afb3005c 	sw	s3,92(sp)
    1974:	afb20058 	sw	s2,88(sp)
    1978:	afb10054 	sw	s1,84(sp)
    197c:	afb00050 	sw	s0,80(sp)
    1980:	8c8e0024 	lw	t6,36(a0)
    1984:	8c8f0028 	lw	t7,40(a0)
    1988:	8c830004 	lw	v1,4(a0)
    198c:	8c88000c 	lw	t0,12(a0)
    1990:	8c890010 	lw	t1,16(a0)
    1994:	8c8a0014 	lw	t2,20(a0)
    1998:	8c8b0018 	lw	t3,24(a0)
    199c:	8c8c001c 	lw	t4,28(a0)
    19a0:	8c8d0020 	lw	t5,32(a0)
    19a4:	27b50010 	addiu	s5,sp,16
    19a8:	8c820000 	lw	v0,0(a0)
    19ac:	8c90002c 	lw	s0,44(a0)
    19b0:	00c0b821 	move	s7,a2
    19b4:	8c94003c 	lw	s4,60(a0)
    19b8:	8c860008 	lw	a2,8(a0)
    19bc:	8c910030 	lw	s1,48(a0)
    19c0:	8c920034 	lw	s2,52(a0)
    19c4:	8c930038 	lw	s3,56(a0)
    19c8:	00a0b021 	move	s6,a1
    19cc:	02a02021 	move	a0,s5
    19d0:	02e02821 	move	a1,s7
    19d4:	afa30020 	sw	v1,32(sp)
    19d8:	afa80040 	sw	t0,64(sp)
    19dc:	afa90014 	sw	t1,20(sp)
    19e0:	afaa0024 	sw	t2,36(sp)
    19e4:	afab0034 	sw	t3,52(sp)
    19e8:	afac0044 	sw	t4,68(sp)
    19ec:	afa20010 	sw	v0,16(sp)
    19f0:	afa60030 	sw	a2,48(sp)
    19f4:	afad0018 	sw	t5,24(sp)
    19f8:	afae0028 	sw	t6,40(sp)
    19fc:	afaf0038 	sw	t7,56(sp)
    1a00:	afb00048 	sw	s0,72(sp)
    1a04:	afb1001c 	sw	s1,28(sp)
    1a08:	00e08021 	move	s0,a3
    1a0c:	afb2002c 	sw	s2,44(sp)
    1a10:	afb3003c 	sw	s3,60(sp)
    1a14:	0c0001fb 	jal	7ec <AddRoundKey>
    1a18:	afb4004c 	sw	s4,76(sp)
    1a1c:	3c050000 	lui	a1,0x0
    1a20:	00003021 	move	a2,zero
    1a24:	00003821 	move	a3,zero
    1a28:	24a520f8 	addiu	a1,a1,8440
    1a2c:	0c000008 	jal	20 <SystemCall>
    1a30:	24040004 	li	a0,4
    1a34:	0c00024b 	jal	92c <SubBytes>
    1a38:	02a02021 	move	a0,s5
    1a3c:	0c00037b 	jal	dec <ShiftRows>
    1a40:	02a02021 	move	a0,s5
    1a44:	0c0003b3 	jal	ecc <MixColumns>
    1a48:	02a02021 	move	a0,s5
    1a4c:	26e50010 	addiu	a1,s7,16
    1a50:	0c0001fb 	jal	7ec <AddRoundKey>
    1a54:	02a02021 	move	a0,s5
    1a58:	0c00024b 	jal	92c <SubBytes>
    1a5c:	02a02021 	move	a0,s5
    1a60:	0c00037b 	jal	dec <ShiftRows>
    1a64:	02a02021 	move	a0,s5
    1a68:	0c0003b3 	jal	ecc <MixColumns>
    1a6c:	02a02021 	move	a0,s5
    1a70:	26e50020 	addiu	a1,s7,32
    1a74:	0c0001fb 	jal	7ec <AddRoundKey>
    1a78:	02a02021 	move	a0,s5
    1a7c:	0c00024b 	jal	92c <SubBytes>
    1a80:	02a02021 	move	a0,s5
    1a84:	0c00037b 	jal	dec <ShiftRows>
    1a88:	02a02021 	move	a0,s5
    1a8c:	0c0003b3 	jal	ecc <MixColumns>
    1a90:	02a02021 	move	a0,s5
    1a94:	26e50030 	addiu	a1,s7,48
    1a98:	0c0001fb 	jal	7ec <AddRoundKey>
    1a9c:	02a02021 	move	a0,s5
    1aa0:	0c00024b 	jal	92c <SubBytes>
    1aa4:	02a02021 	move	a0,s5
    1aa8:	0c00037b 	jal	dec <ShiftRows>
    1aac:	02a02021 	move	a0,s5
    1ab0:	0c0003b3 	jal	ecc <MixColumns>
    1ab4:	02a02021 	move	a0,s5
    1ab8:	26e50040 	addiu	a1,s7,64
    1abc:	0c0001fb 	jal	7ec <AddRoundKey>
    1ac0:	02a02021 	move	a0,s5
    1ac4:	0c00024b 	jal	92c <SubBytes>
    1ac8:	02a02021 	move	a0,s5
    1acc:	0c00037b 	jal	dec <ShiftRows>
    1ad0:	02a02021 	move	a0,s5
    1ad4:	0c0003b3 	jal	ecc <MixColumns>
    1ad8:	02a02021 	move	a0,s5
    1adc:	26e50050 	addiu	a1,s7,80
    1ae0:	0c0001fb 	jal	7ec <AddRoundKey>
    1ae4:	02a02021 	move	a0,s5
    1ae8:	0c00024b 	jal	92c <SubBytes>
    1aec:	02a02021 	move	a0,s5
    1af0:	0c00037b 	jal	dec <ShiftRows>
    1af4:	02a02021 	move	a0,s5
    1af8:	0c0003b3 	jal	ecc <MixColumns>
    1afc:	02a02021 	move	a0,s5
    1b00:	26e50060 	addiu	a1,s7,96
    1b04:	0c0001fb 	jal	7ec <AddRoundKey>
    1b08:	02a02021 	move	a0,s5
    1b0c:	0c00024b 	jal	92c <SubBytes>
    1b10:	02a02021 	move	a0,s5
    1b14:	0c00037b 	jal	dec <ShiftRows>
    1b18:	02a02021 	move	a0,s5
    1b1c:	0c0003b3 	jal	ecc <MixColumns>
    1b20:	02a02021 	move	a0,s5
    1b24:	26e50070 	addiu	a1,s7,112
    1b28:	0c0001fb 	jal	7ec <AddRoundKey>
    1b2c:	02a02021 	move	a0,s5
    1b30:	0c00024b 	jal	92c <SubBytes>
    1b34:	02a02021 	move	a0,s5
    1b38:	0c00037b 	jal	dec <ShiftRows>
    1b3c:	02a02021 	move	a0,s5
    1b40:	0c0003b3 	jal	ecc <MixColumns>
    1b44:	02a02021 	move	a0,s5
    1b48:	26e50080 	addiu	a1,s7,128
    1b4c:	0c0001fb 	jal	7ec <AddRoundKey>
    1b50:	02a02021 	move	a0,s5
    1b54:	0c00024b 	jal	92c <SubBytes>
    1b58:	02a02021 	move	a0,s5
    1b5c:	0c00037b 	jal	dec <ShiftRows>
    1b60:	02a02021 	move	a0,s5
    1b64:	0c0003b3 	jal	ecc <MixColumns>
    1b68:	02a02021 	move	a0,s5
    1b6c:	02a02021 	move	a0,s5
    1b70:	0c0001fb 	jal	7ec <AddRoundKey>
    1b74:	26e50090 	addiu	a1,s7,144
    1b78:	24020080 	li	v0,128
    1b7c:	12020060 	beq	s0,v0,1d00 <aes_encrypt+0x3a8>
    1b80:	00000000 	nop
    1b84:	0c00024b 	jal	92c <SubBytes>
    1b88:	02a02021 	move	a0,s5
    1b8c:	0c00037b 	jal	dec <ShiftRows>
    1b90:	02a02021 	move	a0,s5
    1b94:	0c0003b3 	jal	ecc <MixColumns>
    1b98:	02a02021 	move	a0,s5
    1b9c:	26e500a0 	addiu	a1,s7,160
    1ba0:	0c0001fb 	jal	7ec <AddRoundKey>
    1ba4:	02a02021 	move	a0,s5
    1ba8:	0c00024b 	jal	92c <SubBytes>
    1bac:	02a02021 	move	a0,s5
    1bb0:	0c00037b 	jal	dec <ShiftRows>
    1bb4:	02a02021 	move	a0,s5
    1bb8:	0c0003b3 	jal	ecc <MixColumns>
    1bbc:	02a02021 	move	a0,s5
    1bc0:	02a02021 	move	a0,s5
    1bc4:	0c0001fb 	jal	7ec <AddRoundKey>
    1bc8:	26e500b0 	addiu	a1,s7,176
    1bcc:	240200c0 	li	v0,192
    1bd0:	12020054 	beq	s0,v0,1d24 <aes_encrypt+0x3cc>
    1bd4:	00000000 	nop
    1bd8:	0c00024b 	jal	92c <SubBytes>
    1bdc:	02a02021 	move	a0,s5
    1be0:	0c00037b 	jal	dec <ShiftRows>
    1be4:	02a02021 	move	a0,s5
    1be8:	0c0003b3 	jal	ecc <MixColumns>
    1bec:	02a02021 	move	a0,s5
    1bf0:	26e500c0 	addiu	a1,s7,192
    1bf4:	0c0001fb 	jal	7ec <AddRoundKey>
    1bf8:	02a02021 	move	a0,s5
    1bfc:	0c00024b 	jal	92c <SubBytes>
    1c00:	02a02021 	move	a0,s5
    1c04:	0c00037b 	jal	dec <ShiftRows>
    1c08:	02a02021 	move	a0,s5
    1c0c:	0c0003b3 	jal	ecc <MixColumns>
    1c10:	02a02021 	move	a0,s5
    1c14:	26e500d0 	addiu	a1,s7,208
    1c18:	0c0001fb 	jal	7ec <AddRoundKey>
    1c1c:	02a02021 	move	a0,s5
    1c20:	0c00024b 	jal	92c <SubBytes>
    1c24:	02a02021 	move	a0,s5
    1c28:	0c00037b 	jal	dec <ShiftRows>
    1c2c:	02a02021 	move	a0,s5
    1c30:	02a02021 	move	a0,s5
    1c34:	0c0001fb 	jal	7ec <AddRoundKey>
    1c38:	26e500e0 	addiu	a1,s7,224
    1c3c:	3c050000 	lui	a1,0x0
    1c40:	24a5210c 	addiu	a1,a1,8460
    1c44:	24040004 	li	a0,4
    1c48:	00003021 	move	a2,zero
    1c4c:	0c000008 	jal	20 <SystemCall>
    1c50:	00003821 	move	a3,zero
    1c54:	8fb0002c 	lw	s0,44(sp)
    1c58:	8fb1003c 	lw	s1,60(sp)
    1c5c:	8fa40020 	lw	a0,32(sp)
    1c60:	8fa50030 	lw	a1,48(sp)
    1c64:	8fa60040 	lw	a2,64(sp)
    1c68:	8fa70014 	lw	a3,20(sp)
    1c6c:	8fa80024 	lw	t0,36(sp)
    1c70:	8fa90034 	lw	t1,52(sp)
    1c74:	8faa0044 	lw	t2,68(sp)
    1c78:	8fab0018 	lw	t3,24(sp)
    1c7c:	8fac0028 	lw	t4,40(sp)
    1c80:	8fad0038 	lw	t5,56(sp)
    1c84:	8fae0048 	lw	t6,72(sp)
    1c88:	8faf001c 	lw	t7,28(sp)
    1c8c:	8fa3004c 	lw	v1,76(sp)
    1c90:	8fa20010 	lw	v0,16(sp)
    1c94:	aec3003c 	sw	v1,60(s6)
    1c98:	aec20000 	sw	v0,0(s6)
    1c9c:	aec40004 	sw	a0,4(s6)
    1ca0:	aec50008 	sw	a1,8(s6)
    1ca4:	aec6000c 	sw	a2,12(s6)
    1ca8:	aec70010 	sw	a3,16(s6)
    1cac:	aec80014 	sw	t0,20(s6)
    1cb0:	aec90018 	sw	t1,24(s6)
    1cb4:	aeca001c 	sw	t2,28(s6)
    1cb8:	aecb0020 	sw	t3,32(s6)
    1cbc:	aecc0024 	sw	t4,36(s6)
    1cc0:	aecd0028 	sw	t5,40(s6)
    1cc4:	aece002c 	sw	t6,44(s6)
    1cc8:	aecf0030 	sw	t7,48(s6)
    1ccc:	aed00034 	sw	s0,52(s6)
    1cd0:	aed10038 	sw	s1,56(s6)
    1cd4:	8fbf0070 	lw	ra,112(sp)
    1cd8:	8fb7006c 	lw	s7,108(sp)
    1cdc:	8fb60068 	lw	s6,104(sp)
    1ce0:	8fb50064 	lw	s5,100(sp)
    1ce4:	8fb40060 	lw	s4,96(sp)
    1ce8:	8fb3005c 	lw	s3,92(sp)
    1cec:	8fb20058 	lw	s2,88(sp)
    1cf0:	8fb10054 	lw	s1,84(sp)
    1cf4:	8fb00050 	lw	s0,80(sp)
    1cf8:	03e00008 	jr	ra
    1cfc:	27bd0078 	addiu	sp,sp,120
    1d00:	0c00024b 	jal	92c <SubBytes>
    1d04:	02a02021 	move	a0,s5
    1d08:	0c00037b 	jal	dec <ShiftRows>
    1d0c:	02a02021 	move	a0,s5
    1d10:	02a02021 	move	a0,s5
    1d14:	0c0001fb 	jal	7ec <AddRoundKey>
    1d18:	26e500a0 	addiu	a1,s7,160
    1d1c:	08000710 	j	1c40 <aes_encrypt+0x2e8>
    1d20:	3c050000 	lui	a1,0x0
    1d24:	0c00024b 	jal	92c <SubBytes>
    1d28:	02a02021 	move	a0,s5
    1d2c:	0c00037b 	jal	dec <ShiftRows>
    1d30:	02a02021 	move	a0,s5
    1d34:	02a02021 	move	a0,s5
    1d38:	0c0001fb 	jal	7ec <AddRoundKey>
    1d3c:	26e500c0 	addiu	a1,s7,192
    1d40:	08000710 	j	1c40 <aes_encrypt+0x2e8>
    1d44:	3c050000 	lui	a1,0x0

00001d48 <main>:
    1d48:	27bdfc10 	addiu	sp,sp,-1008
    1d4c:	3c020000 	lui	v0,0x0
    1d50:	afb003c8 	sw	s0,968(sp)
    1d54:	2446218c 	addiu	a2,v0,8588
    1d58:	27b00050 	addiu	s0,sp,80
    1d5c:	afbf03ec 	sw	ra,1004(sp)
    1d60:	afbe03e8 	sw	s8,1000(sp)
    1d64:	afb703e4 	sw	s7,996(sp)
    1d68:	afb603e0 	sw	s6,992(sp)
    1d6c:	afb503dc 	sw	s5,988(sp)
    1d70:	afb403d8 	sw	s4,984(sp)
    1d74:	afb303d4 	sw	s3,980(sp)
    1d78:	afb203d0 	sw	s2,976(sp)
    1d7c:	afb103cc 	sw	s1,972(sp)
    1d80:	02003821 	move	a3,s0
    1d84:	24c80080 	addiu	t0,a2,128
    1d88:	8cc20000 	lw	v0,0(a2)
    1d8c:	8cc30004 	lw	v1,4(a2)
    1d90:	8cc40008 	lw	a0,8(a2)
    1d94:	8cc5000c 	lw	a1,12(a2)
    1d98:	24c60010 	addiu	a2,a2,16
    1d9c:	ace20000 	sw	v0,0(a3)
    1da0:	ace30004 	sw	v1,4(a3)
    1da4:	ace40008 	sw	a0,8(a3)
    1da8:	ace5000c 	sw	a1,12(a3)
    1dac:	14c8fff6 	bne	a2,t0,1d88 <main+0x40>
    1db0:	24e70010 	addiu	a3,a3,16
    1db4:	00002821 	move	a1,zero
    1db8:	00003021 	move	a2,zero
    1dbc:	00003821 	move	a3,zero
    1dc0:	0c000008 	jal	20 <SystemCall>
    1dc4:	24040003 	li	a0,3
    1dc8:	0c00000c 	jal	30 <itoa>
    1dcc:	00402021 	move	a0,v0
    1dd0:	00402821 	move	a1,v0
    1dd4:	24040004 	li	a0,4
    1dd8:	00003021 	move	a2,zero
    1ddc:	0c000008 	jal	20 <SystemCall>
    1de0:	00003821 	move	a3,zero
    1de4:	3c050000 	lui	a1,0x0
    1de8:	24a52124 	addiu	a1,a1,8484
    1dec:	24040004 	li	a0,4
    1df0:	00003021 	move	a2,zero
    1df4:	00003821 	move	a3,zero
    1df8:	0c000008 	jal	20 <SystemCall>
    1dfc:	27be00d0 	addiu	s8,sp,208
    1e00:	02002021 	move	a0,s0
    1e04:	03c02821 	move	a1,s8
    1e08:	0c000172 	jal	5c8 <aes_key_setup>
    1e0c:	24060100 	li	a2,256
    1e10:	3c020004 	lui	v0,0x4
    1e14:	2403ffff 	li	v1,-1
    1e18:	2450428c 	addiu	s0,v0,17036
    1e1c:	afa303c0 	sw	v1,960(sp)
    1e20:	3c170004 	lui	s7,0x4
    1e24:	24040002 	li	a0,2
    1e28:	02002821 	move	a1,s0
    1e2c:	00003021 	move	a2,zero
    1e30:	0c000008 	jal	20 <SystemCall>
    1e34:	00003821 	move	a3,zero
    1e38:	1040fffb 	beqz	v0,1e28 <main+0xe0>
    1e3c:	24040002 	li	a0,2
    1e40:	26e24290 	addiu	v0,s7,17040
    1e44:	8c510008 	lw	s1,8(v0)
    1e48:	8c550004 	lw	s5,4(v0)
    1e4c:	8ef44290 	lw	s4,17040(s7)
    1e50:	8fa303c0 	lw	v1,960(sp)
    1e54:	2402ffff 	li	v0,-1
    1e58:	afb40010 	sw	s4,16(sp)
    1e5c:	afb50014 	sw	s5,20(sp)
    1e60:	1062009c 	beq	v1,v0,20d4 <main+0x38c>
    1e64:	afb10018 	sw	s1,24(sp)
    1e68:	3c020000 	lui	v0,0x0
    1e6c:	24452144 	addiu	a1,v0,8516
    1e70:	00003021 	move	a2,zero
    1e74:	00003821 	move	a3,zero
    1e78:	0c000008 	jal	20 <SystemCall>
    1e7c:	24040004 	li	a0,4
    1e80:	0c00000c 	jal	30 <itoa>
    1e84:	02802021 	move	a0,s4
    1e88:	00402821 	move	a1,v0
    1e8c:	24040004 	li	a0,4
    1e90:	00003021 	move	a2,zero
    1e94:	0c000008 	jal	20 <SystemCall>
    1e98:	00003821 	move	a3,zero
    1e9c:	3c030000 	lui	v1,0x0
    1ea0:	24652150 	addiu	a1,v1,8528
    1ea4:	00003021 	move	a2,zero
    1ea8:	00003821 	move	a3,zero
    1eac:	0c000008 	jal	20 <SystemCall>
    1eb0:	24040004 	li	a0,4
    1eb4:	0c00000c 	jal	30 <itoa>
    1eb8:	02a02021 	move	a0,s5
    1ebc:	00402821 	move	a1,v0
    1ec0:	24040004 	li	a0,4
    1ec4:	00003021 	move	a2,zero
    1ec8:	0c000008 	jal	20 <SystemCall>
    1ecc:	00003821 	move	a3,zero
    1ed0:	24030002 	li	v1,2
    1ed4:	12830052 	beq	s4,v1,2020 <main+0x2d8>
    1ed8:	3c050000 	lui	a1,0x0
    1edc:	1aa0ffd1 	blez	s5,1e24 <main+0xdc>
    1ee0:	00008821 	move	s1,zero
    1ee4:	27b30010 	addiu	s3,sp,16
    1ee8:	27b201c0 	addiu	s2,sp,448
    1eec:	27b60200 	addiu	s6,sp,512
    1ef0:	24040002 	li	a0,2
    1ef4:	02002821 	move	a1,s0
    1ef8:	00003021 	move	a2,zero
    1efc:	0c000008 	jal	20 <SystemCall>
    1f00:	00003821 	move	a3,zero
    1f04:	1040fffb 	beqz	v0,1ef4 <main+0x1ac>
    1f08:	24040002 	li	a0,2
    1f0c:	3c020000 	lui	v0,0x0
    1f10:	24422188 	addiu	v0,v0,8584
    1f14:	8c480000 	lw	t0,0(v0)
    1f18:	26e64290 	addiu	a2,s7,17040
    1f1c:	02603821 	move	a3,s3
    1f20:	8cc20000 	lw	v0,0(a2)
    1f24:	8cc30004 	lw	v1,4(a2)
    1f28:	8cc40008 	lw	a0,8(a2)
    1f2c:	8cc5000c 	lw	a1,12(a2)
    1f30:	24c60010 	addiu	a2,a2,16
    1f34:	ace20000 	sw	v0,0(a3)
    1f38:	ace30004 	sw	v1,4(a3)
    1f3c:	ace40008 	sw	a0,8(a3)
    1f40:	ace5000c 	sw	a1,12(a3)
    1f44:	14c8fff6 	bne	a2,t0,1f20 <main+0x1d8>
    1f48:	24e70010 	addiu	a3,a3,16
    1f4c:	16800028 	bnez	s4,1ff0 <main+0x2a8>
    1f50:	3c050000 	lui	a1,0x0
    1f54:	3c050000 	lui	a1,0x0
    1f58:	24a52178 	addiu	a1,a1,8568
    1f5c:	00003821 	move	a3,zero
    1f60:	24040004 	li	a0,4
    1f64:	0c000008 	jal	20 <SystemCall>
    1f68:	00003021 	move	a2,zero
    1f6c:	02602021 	move	a0,s3
    1f70:	02402821 	move	a1,s2
    1f74:	03c03021 	move	a2,s8
    1f78:	0c000656 	jal	1958 <aes_encrypt>
    1f7c:	24070100 	li	a3,256
    1f80:	24020040 	li	v0,64
    1f84:	3c030004 	lui	v1,0x4
    1f88:	ac62428c 	sw	v0,17036(v1)
    1f8c:	02403021 	move	a2,s2
    1f90:	26e74290 	addiu	a3,s7,17040
    1f94:	8cc20000 	lw	v0,0(a2)
    1f98:	8cc30004 	lw	v1,4(a2)
    1f9c:	8cc40008 	lw	a0,8(a2)
    1fa0:	8cc5000c 	lw	a1,12(a2)
    1fa4:	24c60010 	addiu	a2,a2,16
    1fa8:	ace20000 	sw	v0,0(a3)
    1fac:	ace30004 	sw	v1,4(a3)
    1fb0:	ace40008 	sw	a0,8(a3)
    1fb4:	ace5000c 	sw	a1,12(a3)
    1fb8:	14d6fff6 	bne	a2,s6,1f94 <main+0x24c>
    1fbc:	24e70010 	addiu	a3,a3,16
    1fc0:	24040001 	li	a0,1
    1fc4:	02002821 	move	a1,s0
    1fc8:	00003021 	move	a2,zero
    1fcc:	0c000008 	jal	20 <SystemCall>
    1fd0:	00003821 	move	a3,zero
    1fd4:	1040fffb 	beqz	v0,1fc4 <main+0x27c>
    1fd8:	24040001 	li	a0,1
    1fdc:	26310001 	addiu	s1,s1,1
    1fe0:	16b1ffc3 	bne	s5,s1,1ef0 <main+0x1a8>
    1fe4:	24040002 	li	a0,2
    1fe8:	0800078b 	j	1e2c <main+0xe4>
    1fec:	02002821 	move	a1,s0
    1ff0:	24a52180 	addiu	a1,a1,8576
    1ff4:	00003821 	move	a3,zero
    1ff8:	24040004 	li	a0,4
    1ffc:	0c000008 	jal	20 <SystemCall>
    2000:	00003021 	move	a2,zero
    2004:	02602021 	move	a0,s3
    2008:	02402821 	move	a1,s2
    200c:	03c03021 	move	a2,s8
    2010:	0c00055d 	jal	1574 <aes_decrypt>
    2014:	24070100 	li	a3,256
    2018:	080007e1 	j	1f84 <main+0x23c>
    201c:	24020040 	li	v0,64
    2020:	24a52158 	addiu	a1,a1,8536
    2024:	00003021 	move	a2,zero
    2028:	00003821 	move	a3,zero
    202c:	0c000008 	jal	20 <SystemCall>
    2030:	24040004 	li	a0,4
    2034:	8fa403c0 	lw	a0,960(sp)
    2038:	0c00000c 	jal	30 <itoa>
    203c:	00000000 	nop
    2040:	00402821 	move	a1,v0
    2044:	24040004 	li	a0,4
    2048:	00003021 	move	a2,zero
    204c:	0c000008 	jal	20 <SystemCall>
    2050:	00003821 	move	a3,zero
    2054:	00002821 	move	a1,zero
    2058:	00003021 	move	a2,zero
    205c:	00003821 	move	a3,zero
    2060:	0c000008 	jal	20 <SystemCall>
    2064:	24040003 	li	a0,3
    2068:	0c00000c 	jal	30 <itoa>
    206c:	00402021 	move	a0,v0
    2070:	00402821 	move	a1,v0
    2074:	24040004 	li	a0,4
    2078:	00003021 	move	a2,zero
    207c:	0c000008 	jal	20 <SystemCall>
    2080:	00003821 	move	a3,zero
    2084:	00002021 	move	a0,zero
    2088:	00002821 	move	a1,zero
    208c:	00003021 	move	a2,zero
    2090:	0c000008 	jal	20 <SystemCall>
    2094:	00003821 	move	a3,zero
    2098:	1040fffb 	beqz	v0,2088 <main+0x340>
    209c:	00002021 	move	a0,zero
    20a0:	8fbf03ec 	lw	ra,1004(sp)
    20a4:	8fbe03e8 	lw	s8,1000(sp)
    20a8:	8fb703e4 	lw	s7,996(sp)
    20ac:	8fb603e0 	lw	s6,992(sp)
    20b0:	8fb503dc 	lw	s5,988(sp)
    20b4:	8fb403d8 	lw	s4,984(sp)
    20b8:	8fb303d4 	lw	s3,980(sp)
    20bc:	8fb203d0 	lw	s2,976(sp)
    20c0:	8fb103cc 	lw	s1,972(sp)
    20c4:	8fb003c8 	lw	s0,968(sp)
    20c8:	00001021 	move	v0,zero
    20cc:	03e00008 	jr	ra
    20d0:	27bd03f0 	addiu	sp,sp,1008
    20d4:	0c00000c 	jal	30 <itoa>
    20d8:	02202021 	move	a0,s1
    20dc:	00402821 	move	a1,v0
    20e0:	24040004 	li	a0,4
    20e4:	00003021 	move	a2,zero
    20e8:	0c000008 	jal	20 <SystemCall>
    20ec:	00003821 	move	a3,zero
    20f0:	0800079a 	j	1e68 <main+0x120>
    20f4:	afb103c0 	sw	s1,960(sp)
