
kernel_slave_debug.bin:     file format elf32-bigmips

Disassembly of section .text:

00000000 <entry>:
       0:	341dffff 	li	sp,0xffff
       4:	0c0000f8 	jal	3e0 <main>
       8:	00000000 	nop
       c:	08000003 	j	c <entry+0xc>
      10:	00000000 	nop
	...

0000003c <interrupt_service_routine_entry>:
      3c:	08000013 	j	4c <interrupt_service_routine>
      40:	00000000 	nop

00000044 <system_service_routine_entry>:
      44:	0800003d 	j	f4 <system_service_routine>
      48:	00000000 	nop

0000004c <interrupt_service_routine>:
      4c:	3c1b0005 	lui	k1,0x5
      50:	277b9078 	addiu	k1,k1,-28552
      54:	8f7b0000 	lw	k1,0(k1)
      58:	af620000 	sw	v0,0(k1)
      5c:	af630004 	sw	v1,4(k1)
      60:	af640008 	sw	a0,8(k1)
      64:	af65000c 	sw	a1,12(k1)
      68:	af660010 	sw	a2,16(k1)
      6c:	af670014 	sw	a3,20(k1)
      70:	af680018 	sw	t0,24(k1)
      74:	af69001c 	sw	t1,28(k1)
      78:	af6a0020 	sw	t2,32(k1)
      7c:	af6b0024 	sw	t3,36(k1)
      80:	af6c0028 	sw	t4,40(k1)
      84:	af6d002c 	sw	t5,44(k1)
      88:	af6e0030 	sw	t6,48(k1)
      8c:	af6f0034 	sw	t7,52(k1)
      90:	af700038 	sw	s0,56(k1)
      94:	af71003c 	sw	s1,60(k1)
      98:	af720040 	sw	s2,64(k1)
      9c:	af730044 	sw	s3,68(k1)
      a0:	af740048 	sw	s4,72(k1)
      a4:	af75004c 	sw	s5,76(k1)
      a8:	af760050 	sw	s6,80(k1)
      ac:	af770054 	sw	s7,84(k1)
      b0:	af780058 	sw	t8,88(k1)
      b4:	af79005c 	sw	t9,92(k1)
      b8:	af7d0064 	sw	sp,100(k1)
      bc:	af7e0068 	sw	s8,104(k1)
      c0:	af7f006c 	sw	ra,108(k1)
      c4:	0000d010 	mfhi	k0
      c8:	af7a0070 	sw	k0,112(k1)
      cc:	0000d012 	mflo	k0
      d0:	af7a0074 	sw	k0,116(k1)
      d4:	401a7000 	mfc0	k0,$14
      d8:	af7a0078 	sw	k0,120(k1)
      dc:	341dffff 	li	sp,0xffff
      e0:	3c052000 	lui	a1,0x2000
      e4:	8ca40020 	lw	a0,32(a1)
      e8:	8ca60010 	lw	a2,16(a1)
      ec:	0c000823 	jal	208c <OS_InterruptServiceRoutine>
      f0:	00862024 	and	a0,a0,a2

000000f4 <system_service_routine>:
      f4:	3c1b0005 	lui	k1,0x5
      f8:	277b9078 	addiu	k1,k1,-28552
      fc:	8f7b0000 	lw	k1,0(k1)
     100:	af640008 	sw	a0,8(k1)
     104:	af65000c 	sw	a1,12(k1)
     108:	af660010 	sw	a2,16(k1)
     10c:	af670014 	sw	a3,20(k1)
     110:	af7d0064 	sw	sp,100(k1)
     114:	af7f006c 	sw	ra,108(k1)
     118:	401a7000 	mfc0	k0,$14
     11c:	af7a0078 	sw	k0,120(k1)
     120:	341dffff 	li	sp,0xffff
     124:	0c000698 	jal	1a60 <Syscall>
     128:	00000000 	nop
     12c:	3c1a0005 	lui	k0,0x5
     130:	275a9084 	addiu	k0,k0,-28540
     134:	8f5a0000 	lw	k0,0(k0)
     138:	1340000d 	beqz	k0,170 <system_service_restore>
     13c:	00000000 	nop
     140:	3c040005 	lui	a0,0x5
     144:	24849078 	addiu	a0,a0,-28552
     148:	8c840000 	lw	a0,0(a0)
     14c:	0c000067 	jal	19c <ASM_SaveRemainingContext>
     150:	00000000 	nop
     154:	0c000357 	jal	d5c <Scheduler>
     158:	00000000 	nop
     15c:	3c040005 	lui	a0,0x5
     160:	24849078 	addiu	a0,a0,-28552
     164:	8c840000 	lw	a0,0(a0)
     168:	0c000074 	jal	1d0 <ASM_RunScheduledTask>
     16c:	00000000 	nop

00000170 <system_service_restore>:
     170:	3c1b0005 	lui	k1,0x5
     174:	277b9078 	addiu	k1,k1,-28552
     178:	8f7b0000 	lw	k1,0(k1)
     17c:	8f7d0064 	lw	sp,100(k1)
     180:	8f7f006c 	lw	ra,108(k1)
     184:	8f7a0078 	lw	k0,120(k1)
     188:	8f7b007c 	lw	k1,124(k1)
     18c:	24010001 	li	at,1
     190:	409b5000 	mtc0	k1,$10
     194:	03400008 	jr	k0
     198:	40816000 	mtc0	at,$12

0000019c <ASM_SaveRemainingContext>:
     19c:	ac820000 	sw	v0,0(a0)
     1a0:	ac830004 	sw	v1,4(a0)
     1a4:	ac900038 	sw	s0,56(a0)
     1a8:	ac91003c 	sw	s1,60(a0)
     1ac:	ac920040 	sw	s2,64(a0)
     1b0:	ac930044 	sw	s3,68(a0)
     1b4:	ac940048 	sw	s4,72(a0)
     1b8:	ac95004c 	sw	s5,76(a0)
     1bc:	ac960050 	sw	s6,80(a0)
     1c0:	ac970054 	sw	s7,84(a0)
     1c4:	ac9e0068 	sw	s8,104(a0)
     1c8:	03e00008 	jr	ra
     1cc:	00000000 	nop

000001d0 <ASM_RunScheduledTask>:
     1d0:	0080d821 	move	k1,a0
     1d4:	8f620000 	lw	v0,0(k1)
     1d8:	8f630004 	lw	v1,4(k1)
     1dc:	8f640008 	lw	a0,8(k1)
     1e0:	8f65000c 	lw	a1,12(k1)
     1e4:	8f660010 	lw	a2,16(k1)
     1e8:	8f670014 	lw	a3,20(k1)
     1ec:	8f680018 	lw	t0,24(k1)
     1f0:	8f69001c 	lw	t1,28(k1)
     1f4:	8f6a0020 	lw	t2,32(k1)
     1f8:	8f6b0024 	lw	t3,36(k1)
     1fc:	8f6c0028 	lw	t4,40(k1)
     200:	8f6d002c 	lw	t5,44(k1)
     204:	8f6e0030 	lw	t6,48(k1)
     208:	8f6f0034 	lw	t7,52(k1)
     20c:	8f700038 	lw	s0,56(k1)
     210:	8f71003c 	lw	s1,60(k1)
     214:	8f720040 	lw	s2,64(k1)
     218:	8f730044 	lw	s3,68(k1)
     21c:	8f740048 	lw	s4,72(k1)
     220:	8f75004c 	lw	s5,76(k1)
     224:	8f760050 	lw	s6,80(k1)
     228:	8f770054 	lw	s7,84(k1)
     22c:	8f780058 	lw	t8,88(k1)
     230:	8f79005c 	lw	t9,92(k1)
     234:	8f7d0064 	lw	sp,100(k1)
     238:	8f7e0068 	lw	s8,104(k1)
     23c:	8f7f006c 	lw	ra,108(k1)
     240:	8f7a0070 	lw	k0,112(k1)
     244:	03400011 	mthi	k0
     248:	8f7a0074 	lw	k0,116(k1)
     24c:	03400013 	mtlo	k0
     250:	8f7a0078 	lw	k0,120(k1)
     254:	8f7b007c 	lw	k1,124(k1)
     258:	24010001 	li	at,1
     25c:	409b5000 	mtc0	k1,$10
     260:	03400008 	jr	k0
     264:	40816000 	mtc0	at,$12

00000268 <ASM_SetInterruptEnable>:
     268:	40026000 	mfc0	v0,$12
     26c:	03e00008 	jr	ra
     270:	40846000 	mtc0	a0,$12

00000274 <read_inst>:
     274:	3c1b0005 	lui	k1,0x5
     278:	277b90f0 	addiu	k1,k1,-28432
     27c:	401a8000 	mfc0	k0,$16
     280:	af7a0000 	sw	k0,0(k1)
     284:	03e00008 	jr	ra
     288:	00000000 	nop

0000028c <write_local_msg_to_task>:
     28c:	8c83007c 	lw	v1,124(a0)
     290:	8c82000c 	lw	v0,12(a0)
     294:	00000000 	nop
     298:	00621825 	or	v1,v1,v0
     29c:	18a0000a 	blez	a1,2c8 <write_local_msg_to_task+0x3c>
     2a0:	ac650000 	sw	a1,0(v1)
     2a4:	24670004 	addiu	a3,v1,4
     2a8:	00004021 	move	t0,zero
     2ac:	8cc20000 	lw	v0,0(a2)
     2b0:	25080001 	addiu	t0,t0,1
     2b4:	0105182a 	slt	v1,t0,a1
     2b8:	ace20000 	sw	v0,0(a3)
     2bc:	24c60004 	addiu	a2,a2,4
     2c0:	1460fffa 	bnez	v1,2ac <write_local_msg_to_task+0x20>
     2c4:	24e70004 	addiu	a3,a3,4
     2c8:	8c8300a0 	lw	v1,160(a0)
     2cc:	24020001 	li	v0,1
     2d0:	ac820000 	sw	v0,0(a0)
     2d4:	03e00008 	jr	ra
     2d8:	ac600000 	sw	zero,0(v1)

000002dc <OS_InterruptMaskClear>:
     2dc:	3c032000 	lui	v1,0x2000
     2e0:	34630010 	ori	v1,v1,0x10
     2e4:	8c620000 	lw	v0,0(v1)
     2e8:	00042027 	nor	a0,zero,a0
     2ec:	00441024 	and	v0,v0,a0
     2f0:	ac620000 	sw	v0,0(v1)
     2f4:	03e00008 	jr	ra
     2f8:	00000000 	nop

000002fc <OS_InterruptMaskSet>:
     2fc:	3c032000 	lui	v1,0x2000
     300:	34630010 	ori	v1,v1,0x10
     304:	8c620000 	lw	v0,0(v1)
     308:	00000000 	nop
     30c:	00441025 	or	v0,v0,a0
     310:	ac620000 	sw	v0,0(v1)
     314:	03e00008 	jr	ra
     318:	00000000 	nop

0000031c <OS_Idle>:
     31c:	3c022000 	lui	v0,0x2000
     320:	34420090 	ori	v0,v0,0x90
     324:	24030001 	li	v1,1
     328:	ac430000 	sw	v1,0(v0)
     32c:	ac430000 	sw	v1,0(v0)
     330:	080000ca 	j	328 <OS_Idle+0xc>
     334:	00000000 	nop

00000338 <get_cluster_ID>:
     338:	27bdffe0 	addiu	sp,sp,-32
     33c:	afb00010 	sw	s0,16(sp)
     340:	00808021 	move	s0,a0
     344:	3c040000 	lui	a0,0x0
     348:	24847e0c 	addiu	a0,a0,32268
     34c:	afbf0018 	sw	ra,24(sp)
     350:	afb10014 	sw	s1,20(sp)
     354:	0c000901 	jal	2404 <puts>
     358:	00a08821 	move	s1,a1
     35c:	0c000973 	jal	25cc <itoh>
     360:	02002021 	move	a0,s0
     364:	0c000901 	jal	2404 <puts>
     368:	00402021 	move	a0,v0
     36c:	3c040000 	lui	a0,0x0
     370:	0c000901 	jal	2404 <puts>
     374:	24847e1c 	addiu	a0,a0,32284
     378:	0c000973 	jal	25cc <itoh>
     37c:	02202021 	move	a0,s1
     380:	0c000901 	jal	2404 <puts>
     384:	00402021 	move	a0,v0
     388:	3c040001 	lui	a0,0x1
     38c:	0c000901 	jal	2404 <puts>
     390:	24848594 	addiu	a0,a0,-31340
     394:	3c030005 	lui	v1,0x5
     398:	8c629010 	lw	v0,-28656(v1)
     39c:	3c040000 	lui	a0,0x0
     3a0:	24659010 	addiu	a1,v1,-28656
     3a4:	16020005 	bne	s0,v0,3bc <get_cluster_ID+0x84>
     3a8:	24847e24 	addiu	a0,a0,32292
     3ac:	8ca20004 	lw	v0,4(a1)
     3b0:	00000000 	nop
     3b4:	12220004 	beq	s1,v0,3c8 <get_cluster_ID+0x90>
     3b8:	00001821 	move	v1,zero
     3bc:	0c000901 	jal	2404 <puts>
     3c0:	00000000 	nop
     3c4:	2403ffff 	li	v1,-1
     3c8:	8fbf0018 	lw	ra,24(sp)
     3cc:	8fb10014 	lw	s1,20(sp)
     3d0:	8fb00010 	lw	s0,16(sp)
     3d4:	00601021 	move	v0,v1
     3d8:	03e00008 	jr	ra
     3dc:	27bd0020 	addiu	sp,sp,32

000003e0 <main>:
     3e0:	27bdffe0 	addiu	sp,sp,-32
     3e4:	afb00010 	sw	s0,16(sp)
     3e8:	3c102000 	lui	s0,0x2000
     3ec:	36030410 	ori	v1,s0,0x410
     3f0:	24020001 	li	v0,1
     3f4:	afbf0018 	sw	ra,24(sp)
     3f8:	afb10014 	sw	s1,20(sp)
     3fc:	00002021 	move	a0,zero
     400:	ac620000 	sw	v0,0(v1)
     404:	0c00009a 	jal	268 <ASM_SetInterruptEnable>
     408:	00000000 	nop
     40c:	36030140 	ori	v1,s0,0x140
     410:	36100300 	ori	s0,s0,0x300
     414:	8e060000 	lw	a2,0(s0)
     418:	3c050005 	lui	a1,0x5
     41c:	8c670000 	lw	a3,0(v1)
     420:	3c020000 	lui	v0,0x0
     424:	24a59190 	addiu	a1,a1,-28272
     428:	2442031c 	addiu	v0,v0,796
     42c:	3c030005 	lui	v1,0x5
     430:	00e02021 	move	a0,a3
     434:	ac669080 	sw	a2,-28544(v1)
     438:	aca20078 	sw	v0,120(a1)
     43c:	3c030005 	lui	v1,0x5
     440:	aca00080 	sw	zero,128(a1)
     444:	aca0007c 	sw	zero,124(a1)
     448:	3c110005 	lui	s1,0x5
     44c:	3c100005 	lui	s0,0x5
     450:	ae259078 	sw	a1,-28552(s1)
     454:	ae079074 	sw	a3,-28556(s0)
     458:	0c0008fa 	jal	23e8 <set_net_address>
     45c:	ac609070 	sw	zero,-28560(v1)
     460:	3c040000 	lui	a0,0x0
     464:	0c000901 	jal	2404 <puts>
     468:	24847e44 	addiu	a0,a0,32324
     46c:	8e049074 	lw	a0,-28556(s0)
     470:	0c000973 	jal	25cc <itoh>
     474:	00000000 	nop
     478:	0c000901 	jal	2404 <puts>
     47c:	00402021 	move	a0,v0
     480:	3c040001 	lui	a0,0x1
     484:	0c000901 	jal	2404 <puts>
     488:	24848594 	addiu	a0,a0,-31340
     48c:	0c000c13 	jal	304c <init_communication>
     490:	00000000 	nop
     494:	0c000c22 	jal	3088 <initFTStructs>
     498:	00000000 	nop
     49c:	0c000a76 	jal	29d8 <init_service_header_slots>
     4a0:	00000000 	nop
     4a4:	0c001121 	jal	4484 <init_task_location>
     4a8:	00000000 	nop
     4ac:	0c00110b 	jal	442c <init_TCBs>
     4b0:	00000000 	nop
     4b4:	0c00196e 	jal	65b8 <initialize_CM_FIFO>
     4b8:	00000000 	nop
     4bc:	0c0000b7 	jal	2dc <OS_InterruptMaskClear>
     4c0:	2404ffff 	li	a0,-1
     4c4:	0c0000bf 	jal	2fc <OS_InterruptMaskSet>
     4c8:	240400a9 	li	a0,169
     4cc:	8e249078 	lw	a0,-28552(s1)
     4d0:	0c000074 	jal	1d0 <ASM_RunScheduledTask>
     4d4:	00000000 	nop
     4d8:	8fbf0018 	lw	ra,24(sp)
     4dc:	8fb10014 	lw	s1,20(sp)
     4e0:	8fb00010 	lw	s0,16(sp)
     4e4:	00001021 	move	v0,zero
     4e8:	03e00008 	jr	ra
     4ec:	27bd0020 	addiu	sp,sp,32

000004f0 <send_task_allocated>:
     4f0:	27bdffe0 	addiu	sp,sp,-32
     4f4:	afb20018 	sw	s2,24(sp)
     4f8:	afb10014 	sw	s1,20(sp)
     4fc:	afbf001c 	sw	ra,28(sp)
     500:	00808821 	move	s1,a0
     504:	afb00010 	sw	s0,16(sp)
     508:	8e230080 	lw	v1,128(s1)
     50c:	8e260098 	lw	a2,152(s1)
     510:	00031103 	sra	v0,v1,0x4
     514:	3c040000 	lui	a0,0x0
     518:	304200f0 	andi	v0,v0,0xf0
     51c:	3063000f 	andi	v1,v1,0xf
     520:	24050001 	li	a1,1
     524:	24847e58 	addiu	a0,a0,32344
     528:	10c5000f 	beq	a2,a1,568 <send_task_allocated+0x78>
     52c:	00439025 	or	s2,v0,v1
     530:	0c0008fd 	jal	23f4 <get_net_address>
     534:	00000000 	nop
     538:	3042ffff 	andi	v0,v0,0xffff
     53c:	00122c00 	sll	a1,s2,0x10
     540:	8e260094 	lw	a2,148(s1)
     544:	02403821 	move	a3,s2
     548:	8fbf001c 	lw	ra,28(sp)
     54c:	8fb20018 	lw	s2,24(sp)
     550:	8fb10014 	lw	s1,20(sp)
     554:	8fb00010 	lw	s0,16(sp)
     558:	00a22825 	or	a1,a1,v0
     55c:	24040010 	li	a0,16
     560:	0800179c 	j	5e70 <Seek>
     564:	27bd0020 	addiu	sp,sp,32
     568:	0c000901 	jal	2404 <puts>
     56c:	00000000 	nop
     570:	0c000973 	jal	25cc <itoh>
     574:	02402021 	move	a0,s2
     578:	0c000901 	jal	2404 <puts>
     57c:	00402021 	move	a0,v0
     580:	3c040001 	lui	a0,0x1
     584:	0c000901 	jal	2404 <puts>
     588:	24848594 	addiu	a0,a0,-31340
     58c:	8e30009c 	lw	s0,156(s1)
     590:	00121400 	sll	v0,s2,0x10
     594:	00108600 	sll	s0,s0,0x18
     598:	0c0008fd 	jal	23f4 <get_net_address>
     59c:	02028025 	or	s0,s0,v0
     5a0:	3042ffff 	andi	v0,v0,0xffff
     5a4:	8e260094 	lw	a2,148(s1)
     5a8:	02022825 	or	a1,s0,v0
     5ac:	02403821 	move	a3,s2
     5b0:	8fbf001c 	lw	ra,28(sp)
     5b4:	8fb20018 	lw	s2,24(sp)
     5b8:	8fb10014 	lw	s1,20(sp)
     5bc:	8fb00010 	lw	s0,16(sp)
     5c0:	24040010 	li	a0,16
     5c4:	0800179c 	j	5e70 <Seek>
     5c8:	27bd0020 	addiu	sp,sp,32

000005cc <SeekInterruptHandler>:
     5cc:	3c032000 	lui	v1,0x2000
     5d0:	27bdffd0 	addiu	sp,sp,-48
     5d4:	34640554 	ori	a0,v1,0x554
     5d8:	afbf0028 	sw	ra,40(sp)
     5dc:	afb50024 	sw	s5,36(sp)
     5e0:	afb40020 	sw	s4,32(sp)
     5e4:	afb3001c 	sw	s3,28(sp)
     5e8:	afb20018 	sw	s2,24(sp)
     5ec:	afb10014 	sw	s1,20(sp)
     5f0:	afb00010 	sw	s0,16(sp)
     5f4:	34650500 	ori	a1,v1,0x500
     5f8:	ac800000 	sw	zero,0(a0)
     5fc:	24020001 	li	v0,1
     600:	8caa0000 	lw	t2,0(a1)
     604:	ac820000 	sw	v0,0(a0)
     608:	24020002 	li	v0,2
     60c:	8ca90000 	lw	t1,0(a1)
     610:	34670370 	ori	a3,v1,0x370
     614:	ac820000 	sw	v0,0(a0)
     618:	34660394 	ori	a2,v1,0x394
     61c:	34620380 	ori	v0,v1,0x380
     620:	34630390 	ori	v1,v1,0x390
     624:	8ca80000 	lw	t0,0(a1)
     628:	8cd10000 	lw	s1,0(a2)
     62c:	8c520000 	lw	s2,0(v0)
     630:	8c730000 	lw	s3,0(v1)
     634:	8ce70000 	lw	a3,0(a3)
     638:	00000000 	nop
     63c:	2ce2001f 	sltiu	v0,a3,31
     640:	1040000a 	beqz	v0,66c <SeekInterruptHandler+0xa0>
     644:	3c040001 	lui	a0,0x1
     648:	3c030001 	lui	v1,0x1
     64c:	00071080 	sll	v0,a3,0x2
     650:	2463824c 	addiu	v1,v1,-32180
     654:	00431021 	addu	v0,v0,v1
     658:	8c440000 	lw	a0,0(v0)
     65c:	00000000 	nop
     660:	00800008 	jr	a0
     664:	00000000 	nop
     668:	3c040001 	lui	a0,0x1
     66c:	0c000901 	jal	2404 <puts>
     670:	2484802c 	addiu	a0,a0,-32724
     674:	24150001 	li	s5,1
     678:	02a01021 	move	v0,s5
     67c:	8fbf0028 	lw	ra,40(sp)
     680:	8fb50024 	lw	s5,36(sp)
     684:	8fb40020 	lw	s4,32(sp)
     688:	8fb3001c 	lw	s3,28(sp)
     68c:	8fb20018 	lw	s2,24(sp)
     690:	8fb10014 	lw	s1,20(sp)
     694:	8fb00010 	lw	s0,16(sp)
     698:	03e00008 	jr	ra
     69c:	27bd0030 	addiu	sp,sp,48
     6a0:	0800019e 	j	678 <SeekInterruptHandler+0xac>
     6a4:	24150001 	li	s5,1
     6a8:	3c040000 	lui	a0,0x0
     6ac:	3270ffff 	andi	s0,s3,0xffff
     6b0:	0c000901 	jal	2404 <puts>
     6b4:	24847fe4 	addiu	a0,a0,32740
     6b8:	0c000973 	jal	25cc <itoh>
     6bc:	02002021 	move	a0,s0
     6c0:	00402021 	move	a0,v0
     6c4:	0c000901 	jal	2404 <puts>
     6c8:	3c110001 	lui	s1,0x1
     6cc:	0c000901 	jal	2404 <puts>
     6d0:	26248594 	addiu	a0,s1,-31340
     6d4:	02402821 	move	a1,s2
     6d8:	02003021 	move	a2,s0
     6dc:	00003821 	move	a3,zero
     6e0:	0c00179c 	jal	5e70 <Seek>
     6e4:	24040018 	li	a0,24
     6e8:	3c040001 	lui	a0,0x1
     6ec:	0c000901 	jal	2404 <puts>
     6f0:	24848008 	addiu	a0,a0,-32760
     6f4:	0c000973 	jal	25cc <itoh>
     6f8:	02002021 	move	a0,s0
     6fc:	0c000901 	jal	2404 <puts>
     700:	00402021 	move	a0,v0
     704:	0c000901 	jal	2404 <puts>
     708:	26248594 	addiu	a0,s1,-31340
     70c:	3c032000 	lui	v1,0x2000
     710:	34640410 	ori	a0,v1,0x410
     714:	24020001 	li	v0,1
     718:	34630268 	ori	v1,v1,0x268
     71c:	24150001 	li	s5,1
     720:	ac620000 	sw	v0,0(v1)
     724:	ac800000 	sw	zero,0(a0)
     728:	0800019f 	j	67c <SeekInterruptHandler+0xb0>
     72c:	02a01021 	move	v0,s5
     730:	3c040000 	lui	a0,0x0
     734:	0c000901 	jal	2404 <puts>
     738:	24847e84 	addiu	a0,a0,32388
     73c:	02402021 	move	a0,s2
     740:	02202821 	move	a1,s1
     744:	0c001e10 	jal	7840 <Unset_Secure_Zone>
     748:	02603021 	move	a2,s3
     74c:	0800019e 	j	678 <SeekInterruptHandler+0xac>
     750:	24150001 	li	s5,1
     754:	3c040000 	lui	a0,0x0
     758:	3c140001 	lui	s4,0x1
     75c:	0c000901 	jal	2404 <puts>
     760:	24847ea4 	addiu	a0,a0,32420
     764:	0c000901 	jal	2404 <puts>
     768:	26848594 	addiu	a0,s4,-31340
     76c:	3c040000 	lui	a0,0x0
     770:	0c000901 	jal	2404 <puts>
     774:	24847eb8 	addiu	a0,a0,32440
     778:	0c000973 	jal	25cc <itoh>
     77c:	02602021 	move	a0,s3
     780:	0c000901 	jal	2404 <puts>
     784:	00402021 	move	a0,v0
     788:	0c000901 	jal	2404 <puts>
     78c:	26848594 	addiu	a0,s4,-31340
     790:	3c040000 	lui	a0,0x0
     794:	0c000901 	jal	2404 <puts>
     798:	24847ec4 	addiu	a0,a0,32452
     79c:	0c000973 	jal	25cc <itoh>
     7a0:	02402021 	move	a0,s2
     7a4:	0c000901 	jal	2404 <puts>
     7a8:	00402021 	move	a0,v0
     7ac:	0c000901 	jal	2404 <puts>
     7b0:	26848594 	addiu	a0,s4,-31340
     7b4:	3c040000 	lui	a0,0x0
     7b8:	0c000901 	jal	2404 <puts>
     7bc:	24847ed0 	addiu	a0,a0,32464
     7c0:	0c000973 	jal	25cc <itoh>
     7c4:	02202021 	move	a0,s1
     7c8:	0c000901 	jal	2404 <puts>
     7cc:	00402021 	move	a0,v0
     7d0:	0c000901 	jal	2404 <puts>
     7d4:	26848594 	addiu	a0,s4,-31340
     7d8:	0c001003 	jal	400c <unblock_tasks_of_App>
     7dc:	02202021 	move	a0,s1
     7e0:	3c040000 	lui	a0,0x0
     7e4:	00408021 	move	s0,v0
     7e8:	0c000901 	jal	2404 <puts>
     7ec:	24847edc 	addiu	a0,a0,32476
     7f0:	0c000973 	jal	25cc <itoh>
     7f4:	02002021 	move	a0,s0
     7f8:	0c000901 	jal	2404 <puts>
     7fc:	00402021 	move	a0,v0
     800:	0c000901 	jal	2404 <puts>
     804:	26848594 	addiu	a0,s4,-31340
     808:	3c040000 	lui	a0,0x0
     80c:	0c000901 	jal	2404 <puts>
     810:	24847ef0 	addiu	a0,a0,32496
     814:	3c032000 	lui	v1,0x2000
     818:	34630300 	ori	v1,v1,0x300
     81c:	8c640000 	lw	a0,0(v1)
     820:	0c00092c 	jal	24b0 <itoa>
     824:	00000000 	nop
     828:	0c000901 	jal	2404 <puts>
     82c:	00402021 	move	a0,v0
     830:	0c000901 	jal	2404 <puts>
     834:	26848594 	addiu	a0,s4,-31340
     838:	0c0008fd 	jal	23f4 <get_net_address>
     83c:	00000000 	nop
     840:	00408021 	move	s0,v0
     844:	0c0008fd 	jal	23f4 <get_net_address>
     848:	32100f00 	andi	s0,s0,0xf00
     84c:	3c030005 	lui	v1,0x5
     850:	00108102 	srl	s0,s0,0x4
     854:	3042000f 	andi	v0,v0,0xf
     858:	8c64900c 	lw	a0,-28660(v1)
     85c:	02028021 	addu	s0,s0,v0
     860:	1604ff8f 	bne	s0,a0,6a0 <SeekInterruptHandler+0xd4>
     864:	00000000 	nop
     868:	3c040000 	lui	a0,0x0
     86c:	0c000901 	jal	2404 <puts>
     870:	24847ef8 	addiu	a0,a0,32504
     874:	0c000901 	jal	2404 <puts>
     878:	26848594 	addiu	a0,s4,-31340
     87c:	02602821 	move	a1,s3
     880:	02203821 	move	a3,s1
     884:	24040003 	li	a0,3
     888:	0c00179c 	jal	5e70 <Seek>
     88c:	02603021 	move	a2,s3
     890:	0800019e 	j	678 <SeekInterruptHandler+0xac>
     894:	24150001 	li	s5,1
     898:	0c0017e4 	jal	5f90 <GetFreeSlotSourceRouting>
     89c:	3c100005 	lui	s0,0x5
     8a0:	3c040000 	lui	a0,0x0
     8a4:	24847e70 	addiu	a0,a0,32368
     8a8:	0c000901 	jal	2404 <puts>
     8ac:	ae02907c 	sw	v0,-28548(s0)
     8b0:	0c000973 	jal	25cc <itoh>
     8b4:	02602021 	move	a0,s3
     8b8:	0c000901 	jal	2404 <puts>
     8bc:	00402021 	move	a0,v0
     8c0:	3c040001 	lui	a0,0x1
     8c4:	0c000901 	jal	2404 <puts>
     8c8:	24848594 	addiu	a0,a0,-31340
     8cc:	8e03907c 	lw	v1,-28548(s0)
     8d0:	3c120005 	lui	s2,0x5
     8d4:	00031100 	sll	v0,v1,0x4
     8d8:	00031880 	sll	v1,v1,0x2
     8dc:	00621821 	addu	v1,v1,v0
     8e0:	000320c0 	sll	a0,v1,0x3
     8e4:	3c020005 	lui	v0,0x5
     8e8:	2442b0fc 	addiu	v0,v0,-20228
     8ec:	00832023 	subu	a0,a0,v1
     8f0:	8e5090a8 	lw	s0,-28504(s2)
     8f4:	00822021 	addu	a0,a0,v0
     8f8:	00138c02 	srl	s1,s3,0x10
     8fc:	24020001 	li	v0,1
     900:	ac820080 	sw	v0,128(a0)
     904:	123000f7 	beq	s1,s0,ce4 <SeekInterruptHandler+0x718>
     908:	ac910084 	sw	s1,132(a0)
     90c:	0c0008fd 	jal	23f4 <get_net_address>
     910:	00108400 	sll	s0,s0,0x10
     914:	3042ffff 	andi	v0,v0,0xffff
     918:	02022825 	or	a1,s0,v0
     91c:	02203021 	move	a2,s1
     920:	24040005 	li	a0,5
     924:	0c00179c 	jal	5e70 <Seek>
     928:	00003821 	move	a3,zero
     92c:	8e4290a8 	lw	v0,-28504(s2)
     930:	24150001 	li	s5,1
     934:	24420001 	addiu	v0,v0,1
     938:	0800019e 	j	678 <SeekInterruptHandler+0xac>
     93c:	ae4290a8 	sw	v0,-28504(s2)
     940:	01402021 	move	a0,t2
     944:	01202821 	move	a1,t1
     948:	0c00180b 	jal	602c <ProcessTurns>
     94c:	01003021 	move	a2,t0
     950:	00022900 	sll	a1,v0,0x4
     954:	00021880 	sll	v1,v0,0x2
     958:	00651821 	addu	v1,v1,a1
     95c:	000320c0 	sll	a0,v1,0x3
     960:	3c110005 	lui	s1,0x5
     964:	00832023 	subu	a0,a0,v1
     968:	2631b0fc 	addiu	s1,s1,-20228
     96c:	00912021 	addu	a0,a0,s1
     970:	8c900084 	lw	s0,132(a0)
     974:	3c120005 	lui	s2,0x5
     978:	0c0008fd 	jal	23f4 <get_net_address>
     97c:	ae42907c 	sw	v0,-28548(s2)
     980:	3042ffff 	andi	v0,v0,0xffff
     984:	00108400 	sll	s0,s0,0x10
     988:	02022825 	or	a1,s0,v0
     98c:	00003021 	move	a2,zero
     990:	00003821 	move	a3,zero
     994:	0c00179c 	jal	5e70 <Seek>
     998:	24040003 	li	a0,3
     99c:	8e42907c 	lw	v0,-28548(s2)
     9a0:	00000000 	nop
     9a4:	00022100 	sll	a0,v0,0x4
     9a8:	00021080 	sll	v0,v0,0x2
     9ac:	00441021 	addu	v0,v0,a0
     9b0:	000218c0 	sll	v1,v0,0x3
     9b4:	00621823 	subu	v1,v1,v0
     9b8:	00711821 	addu	v1,v1,s1
     9bc:	8c640084 	lw	a0,132(v1)
     9c0:	0c000e75 	jal	39d4 <resend_messages>
     9c4:	24150001 	li	s5,1
     9c8:	8e43907c 	lw	v1,-28548(s2)
     9cc:	00000000 	nop
     9d0:	00032100 	sll	a0,v1,0x4
     9d4:	00031880 	sll	v1,v1,0x2
     9d8:	00641821 	addu	v1,v1,a0
     9dc:	000310c0 	sll	v0,v1,0x3
     9e0:	00431023 	subu	v0,v0,v1
     9e4:	00511021 	addu	v0,v0,s1
     9e8:	8c440084 	lw	a0,132(v0)
     9ec:	0c000f44 	jal	3d10 <resend_msg_request>
     9f0:	00000000 	nop
     9f4:	0800019f 	j	67c <SeekInterruptHandler+0xb0>
     9f8:	02a01021 	move	v0,s5
     9fc:	02402021 	move	a0,s2
     a00:	02202821 	move	a1,s1
     a04:	0c001f05 	jal	7c14 <Set_Secure_Zone>
     a08:	02603021 	move	a2,s3
     a0c:	0800019e 	j	678 <SeekInterruptHandler+0xac>
     a10:	24150001 	li	s5,1
     a14:	3c040000 	lui	a0,0x0
     a18:	24847f14 	addiu	a0,a0,32532
     a1c:	0c000901 	jal	2404 <puts>
     a20:	3c150001 	lui	s5,0x1
     a24:	0c000901 	jal	2404 <puts>
     a28:	26a48594 	addiu	a0,s5,-31340
     a2c:	0c0008fd 	jal	23f4 <get_net_address>
     a30:	3c140005 	lui	s4,0x5
     a34:	00408021 	move	s0,v0
     a38:	0c0008fd 	jal	23f4 <get_net_address>
     a3c:	32100f00 	andi	s0,s0,0xf00
     a40:	00108102 	srl	s0,s0,0x4
     a44:	3042000f 	andi	v0,v0,0xf
     a48:	8e83900c 	lw	v1,-28660(s4)
     a4c:	02028021 	addu	s0,s0,v0
     a50:	120300bc 	beq	s0,v1,d44 <SeekInterruptHandler+0x778>
     a54:	24040003 	li	a0,3
     a58:	3c030005 	lui	v1,0x5
     a5c:	8c62b08c 	lw	v0,-20340(v1)
     a60:	00000000 	nop
     a64:	00021203 	sra	v0,v0,0x8
     a68:	124200af 	beq	s2,v0,d28 <SeekInterruptHandler+0x75c>
     a6c:	3c022000 	lui	v0,0x2000
     a70:	0c001016 	jal	4058 <clear_all_memory_areas>
     a74:	02402021 	move	a0,s2
     a78:	8e82900c 	lw	v0,-28660(s4)
     a7c:	00000000 	nop
     a80:	122200a0 	beq	s1,v0,d04 <SeekInterruptHandler+0x738>
     a84:	3c040000 	lui	a0,0x0
     a88:	0c0008fd 	jal	23f4 <get_net_address>
     a8c:	00000000 	nop
     a90:	00111900 	sll	v1,s1,0x4
     a94:	30630f00 	andi	v1,v1,0xf00
     a98:	3224000f 	andi	a0,s1,0xf
     a9c:	00641821 	addu	v1,v1,a0
     aa0:	1462fef5 	bne	v1,v0,678 <SeekInterruptHandler+0xac>
     aa4:	24150001 	li	s5,1
     aa8:	0c0008fd 	jal	23f4 <get_net_address>
     aac:	00000000 	nop
     ab0:	00402821 	move	a1,v0
     ab4:	02603021 	move	a2,s3
     ab8:	02403821 	move	a3,s2
     abc:	0c00179c 	jal	5e70 <Seek>
     ac0:	2404000c 	li	a0,12
     ac4:	0800019f 	j	67c <SeekInterruptHandler+0xb0>
     ac8:	02a01021 	move	v0,s5
     acc:	3c022000 	lui	v0,0x2000
     ad0:	34420300 	ori	v0,v0,0x300
     ad4:	8c440000 	lw	a0,0(v0)
     ad8:	0c00092c 	jal	24b0 <itoa>
     adc:	3c140001 	lui	s4,0x1
     ae0:	0c000901 	jal	2404 <puts>
     ae4:	00402021 	move	a0,v0
     ae8:	0c000901 	jal	2404 <puts>
     aec:	26848594 	addiu	a0,s4,-31340
     af0:	3c040000 	lui	a0,0x0
     af4:	0c000901 	jal	2404 <puts>
     af8:	24847f64 	addiu	a0,a0,32612
     afc:	0c000901 	jal	2404 <puts>
     b00:	26848594 	addiu	a0,s4,-31340
     b04:	0c0010ac 	jal	42b0 <freeze_tasks_of_App>
     b08:	02402021 	move	a0,s2
     b0c:	02403021 	move	a2,s2
     b10:	24040003 	li	a0,3
     b14:	02602821 	move	a1,s3
     b18:	02203821 	move	a3,s1
     b1c:	0c00179c 	jal	5e70 <Seek>
     b20:	0040a821 	move	s5,v0
     b24:	00111100 	sll	v0,s1,0x4
     b28:	30420f00 	andi	v0,v0,0xf00
     b2c:	3223000f 	andi	v1,s1,0xf
     b30:	0c0008fd 	jal	23f4 <get_net_address>
     b34:	00438025 	or	s0,v0,v1
     b38:	12020058 	beq	s0,v0,c9c <SeekInterruptHandler+0x6d0>
     b3c:	00000000 	nop
     b40:	3c040000 	lui	a0,0x0
     b44:	0c000901 	jal	2404 <puts>
     b48:	24847fa0 	addiu	a0,a0,32672
     b4c:	0c000973 	jal	25cc <itoh>
     b50:	02a02021 	move	a0,s5
     b54:	0c000901 	jal	2404 <puts>
     b58:	00402021 	move	a0,v0
     b5c:	0c000901 	jal	2404 <puts>
     b60:	26848594 	addiu	a0,s4,-31340
     b64:	0800019f 	j	67c <SeekInterruptHandler+0xb0>
     b68:	02a01021 	move	v0,s5
     b6c:	3c040000 	lui	a0,0x0
     b70:	3c100001 	lui	s0,0x1
     b74:	0c000901 	jal	2404 <puts>
     b78:	24847fb0 	addiu	a0,a0,32688
     b7c:	0c000901 	jal	2404 <puts>
     b80:	26048594 	addiu	a0,s0,-31340
     b84:	0c00108d 	jal	4234 <unfreeze_tasks_of_App>
     b88:	02402021 	move	a0,s2
     b8c:	3c040000 	lui	a0,0x0
     b90:	0040a821 	move	s5,v0
     b94:	0c000901 	jal	2404 <puts>
     b98:	24847fd0 	addiu	a0,a0,32720
     b9c:	0c000973 	jal	25cc <itoh>
     ba0:	02a02021 	move	a0,s5
     ba4:	0c000901 	jal	2404 <puts>
     ba8:	00402021 	move	a0,v0
     bac:	0c000901 	jal	2404 <puts>
     bb0:	26048594 	addiu	a0,s0,-31340
     bb4:	0800019f 	j	67c <SeekInterruptHandler+0xb0>
     bb8:	02a01021 	move	v0,s5
     bbc:	0c0008fd 	jal	23f4 <get_net_address>
     bc0:	3235000f 	andi	s5,s1,0xf
     bc4:	30420f00 	andi	v0,v0,0xf00
     bc8:	0c0008fd 	jal	23f4 <get_net_address>
     bcc:	00028202 	srl	s0,v0,0x8
     bd0:	322300f0 	andi	v1,s1,0xf0
     bd4:	00031902 	srl	v1,v1,0x4
     bd8:	1203001e 	beq	s0,v1,c54 <SeekInterruptHandler+0x688>
     bdc:	3054000f 	andi	s4,v0,0xf
     be0:	0070102b 	sltu	v0,v1,s0
     be4:	1440feae 	bnez	v0,6a0 <SeekInterruptHandler+0xd4>
     be8:	00000000 	nop
     bec:	324200f0 	andi	v0,s2,0xf0
     bf0:	00021102 	srl	v0,v0,0x4
     bf4:	0202102b 	sltu	v0,s0,v0
     bf8:	1440fea9 	bnez	v0,6a0 <SeekInterruptHandler+0xd4>
     bfc:	02b4102b 	sltu	v0,s5,s4
     c00:	1440fea7 	bnez	v0,6a0 <SeekInterruptHandler+0xd4>
     c04:	3242000f 	andi	v0,s2,0xf
     c08:	0282102b 	sltu	v0,s4,v0
     c0c:	1440fe9a 	bnez	v0,678 <SeekInterruptHandler+0xac>
     c10:	24150001 	li	s5,1
     c14:	3c040000 	lui	a0,0x0
     c18:	3262ffff 	andi	v0,s3,0xffff
     c1c:	3c100005 	lui	s0,0x5
     c20:	24847f48 	addiu	a0,a0,32584
     c24:	0c000901 	jal	2404 <puts>
     c28:	ae02906c 	sw	v0,-28564(s0)
     c2c:	8e04906c 	lw	a0,-28564(s0)
     c30:	0c000973 	jal	25cc <itoh>
     c34:	24150001 	li	s5,1
     c38:	0c000901 	jal	2404 <puts>
     c3c:	00402021 	move	a0,v0
     c40:	3c040001 	lui	a0,0x1
     c44:	0c000901 	jal	2404 <puts>
     c48:	24848594 	addiu	a0,a0,-31340
     c4c:	0800019f 	j	67c <SeekInterruptHandler+0xb0>
     c50:	02a01021 	move	v0,s5
     c54:	1695ffe5 	bne	s4,s5,bec <SeekInterruptHandler+0x620>
     c58:	3c040000 	lui	a0,0x0
     c5c:	0c000901 	jal	2404 <puts>
     c60:	24847f40 	addiu	a0,a0,32576
     c64:	0c000973 	jal	25cc <itoh>
     c68:	02202021 	move	a0,s1
     c6c:	0c000901 	jal	2404 <puts>
     c70:	00402021 	move	a0,v0
     c74:	3c040001 	lui	a0,0x1
     c78:	0c000901 	jal	2404 <puts>
     c7c:	24848594 	addiu	a0,a0,-31340
     c80:	24040003 	li	a0,3
     c84:	02602821 	move	a1,s3
     c88:	02603021 	move	a2,s3
     c8c:	0c00179c 	jal	5e70 <Seek>
     c90:	00003821 	move	a3,zero
     c94:	080002fc 	j	bf0 <SeekInterruptHandler+0x624>
     c98:	324200f0 	andi	v0,s2,0xf0
     c9c:	3c040000 	lui	a0,0x0
     ca0:	0c000901 	jal	2404 <puts>
     ca4:	24847f84 	addiu	a0,a0,32644
     ca8:	0c000973 	jal	25cc <itoh>
     cac:	02002021 	move	a0,s0
     cb0:	0c000901 	jal	2404 <puts>
     cb4:	00402021 	move	a0,v0
     cb8:	0c000901 	jal	2404 <puts>
     cbc:	26848594 	addiu	a0,s4,-31340
     cc0:	0c0008fd 	jal	23f4 <get_net_address>
     cc4:	00000000 	nop
     cc8:	00402821 	move	a1,v0
     ccc:	02603021 	move	a2,s3
     cd0:	02003821 	move	a3,s0
     cd4:	0c00179c 	jal	5e70 <Seek>
     cd8:	2404001f 	li	a0,31
     cdc:	080002d1 	j	b44 <SeekInterruptHandler+0x578>
     ce0:	3c040000 	lui	a0,0x0
     ce4:	3c040000 	lui	a0,0x0
     ce8:	0c000901 	jal	2404 <puts>
     cec:	24847e78 	addiu	a0,a0,32376
     cf0:	8e5090a8 	lw	s0,-28504(s2)
     cf4:	00000000 	nop
     cf8:	26100001 	addiu	s0,s0,1
     cfc:	08000243 	j	90c <SeekInterruptHandler+0x340>
     d00:	ae5090a8 	sw	s0,-28504(s2)
     d04:	0c000901 	jal	2404 <puts>
     d08:	24847f30 	addiu	a0,a0,32560
     d0c:	0c000901 	jal	2404 <puts>
     d10:	26a48594 	addiu	a0,s5,-31340
     d14:	3c032000 	lui	v1,0x2000
     d18:	34630540 	ori	v1,v1,0x540
     d1c:	ac600000 	sw	zero,0(v1)
     d20:	080002a2 	j	a88 <SeekInterruptHandler+0x4bc>
     d24:	00000000 	nop
     d28:	34420540 	ori	v0,v0,0x540
     d2c:	ac400000 	sw	zero,0(v0)
     d30:	0c001789 	jal	5e24 <ClearAllSourceRouting>
     d34:	00000000 	nop
     d38:	3c030005 	lui	v1,0x5
     d3c:	0800029c 	j	a70 <SeekInterruptHandler+0x4a4>
     d40:	ac60910c 	sw	zero,-28404(v1)
     d44:	02602821 	move	a1,s3
     d48:	02603021 	move	a2,s3
     d4c:	0c00179c 	jal	5e70 <Seek>
     d50:	02203821 	move	a3,s1
     d54:	08000297 	j	a5c <SeekInterruptHandler+0x490>
     d58:	3c030005 	lui	v1,0x5

00000d5c <Scheduler>:
     d5c:	27bdffe0 	addiu	sp,sp,-32
     d60:	afb10014 	sw	s1,20(sp)
     d64:	afbf0018 	sw	ra,24(sp)
     d68:	afb00010 	sw	s0,16(sp)
     d6c:	3c022000 	lui	v0,0x2000
     d70:	3c110005 	lui	s1,0x5
     d74:	34450270 	ori	a1,v0,0x270
     d78:	8e269078 	lw	a2,-28552(s1)
     d7c:	34420300 	ori	v0,v0,0x300
     d80:	3c030004 	lui	v1,0x4
     d84:	8c500000 	lw	s0,0(v0)
     d88:	aca30000 	sw	v1,0(a1)
     d8c:	8cc40090 	lw	a0,144(a2)
     d90:	2402ffff 	li	v0,-1
     d94:	10820007 	beq	a0,v0,db4 <Scheduler+0x58>
     d98:	3c040001 	lui	a0,0x1
     d9c:	8cc500a0 	lw	a1,160(a2)
     da0:	00000000 	nop
     da4:	8ca30000 	lw	v1,0(a1)
     da8:	24020002 	li	v0,2
     dac:	1062002b 	beq	v1,v0,e5c <Scheduler+0x100>
     db0:	2484804c 	addiu	a0,a0,-32692
     db4:	0c00167d 	jal	59f4 <LST>
     db8:	02002021 	move	a0,s0
     dbc:	00401821 	move	v1,v0
     dc0:	3c022000 	lui	v0,0x2000
     dc4:	34440300 	ori	a0,v0,0x300
     dc8:	10600011 	beqz	v1,e10 <Scheduler+0xb4>
     dcc:	34450270 	ori	a1,v0,0x270
     dd0:	8c620024 	lw	v0,36(v1)
     dd4:	00000000 	nop
     dd8:	8c440080 	lw	a0,128(v0)
     ddc:	ae229078 	sw	v0,-28552(s1)
     de0:	aca40000 	sw	a0,0(a1)
     de4:	0c00157d 	jal	55f4 <get_time_slice>
     de8:	00000000 	nop
     dec:	3c032000 	lui	v1,0x2000
     df0:	34630060 	ori	v1,v1,0x60
     df4:	ac620000 	sw	v0,0(v1)
     df8:	8fbf0018 	lw	ra,24(sp)
     dfc:	8fb10014 	lw	s1,20(sp)
     e00:	8fb00010 	lw	s0,16(sp)
     e04:	24040008 	li	a0,8
     e08:	080000bf 	j	2fc <OS_InterruptMaskSet>
     e0c:	27bd0020 	addiu	sp,sp,32
     e10:	3c020005 	lui	v0,0x5
     e14:	8c840000 	lw	a0,0(a0)
     e18:	24429190 	addiu	v0,v0,-28272
     e1c:	ae229078 	sw	v0,-28552(s1)
     e20:	3c030005 	lui	v1,0x5
     e24:	3c020008 	lui	v0,0x8
     e28:	ac649080 	sw	a0,-28544(v1)
     e2c:	aca20000 	sw	v0,0(a1)
     e30:	0c00157d 	jal	55f4 <get_time_slice>
     e34:	00000000 	nop
     e38:	3c032000 	lui	v1,0x2000
     e3c:	34630060 	ori	v1,v1,0x60
     e40:	ac620000 	sw	v0,0(v1)
     e44:	8fbf0018 	lw	ra,24(sp)
     e48:	8fb10014 	lw	s1,20(sp)
     e4c:	8fb00010 	lw	s0,16(sp)
     e50:	24040008 	li	a0,8
     e54:	080000bf 	j	2fc <OS_InterruptMaskSet>
     e58:	27bd0020 	addiu	sp,sp,32
     e5c:	0c000901 	jal	2404 <puts>
     e60:	00000000 	nop
     e64:	8e249078 	lw	a0,-28552(s1)
     e68:	0c0013e4 	jal	4f90 <migrate_dynamic_memory>
     e6c:	00000000 	nop
     e70:	0800036d 	j	db4 <Scheduler+0x58>
     e74:	00000000 	nop

00000e78 <handle_packet>:
     e78:	3c030001 	lui	v1,0x1
     e7c:	246282e8 	addiu	v0,v1,-32024
     e80:	27bdff78 	addiu	sp,sp,-136
     e84:	886582e8 	lwl	a1,-32024(v1)
     e88:	88460004 	lwl	a2,4(v0)
     e8c:	88470008 	lwl	a3,8(v0)
     e90:	8848000c 	lwl	t0,12(v0)
     e94:	afb3006c 	sw	s3,108(sp)
     e98:	afbf0080 	sw	ra,128(sp)
     e9c:	afb7007c 	sw	s7,124(sp)
     ea0:	afb60078 	sw	s6,120(sp)
     ea4:	afb50074 	sw	s5,116(sp)
     ea8:	afb40070 	sw	s4,112(sp)
     eac:	afb20068 	sw	s2,104(sp)
     eb0:	afb10064 	sw	s1,100(sp)
     eb4:	afb00060 	sw	s0,96(sp)
     eb8:	98450003 	lwr	a1,3(v0)
     ebc:	9848000f 	lwr	t0,15(v0)
     ec0:	8c830084 	lw	v1,132(a0)
     ec4:	98460007 	lwr	a2,7(v0)
     ec8:	9847000b 	lwr	a3,11(v0)
     ecc:	24020210 	li	v0,528
     ed0:	00809821 	move	s3,a0
     ed4:	afa50020 	sw	a1,32(sp)
     ed8:	afa60024 	sw	a2,36(sp)
     edc:	afa70028 	sw	a3,40(sp)
     ee0:	106200b0 	beq	v1,v0,11a4 <handle_packet+0x32c>
     ee4:	afa8002c 	sw	t0,44(sp)
     ee8:	2c620211 	sltiu	v0,v1,529
     eec:	14400028 	bnez	v0,f90 <handle_packet+0x118>
     ef0:	24020025 	li	v0,37
     ef4:	24020231 	li	v0,561
     ef8:	1062013b 	beq	v1,v0,13e8 <handle_packet+0x570>
     efc:	2c620232 	sltiu	v0,v1,562
     f00:	144000a3 	bnez	v0,1190 <handle_packet+0x318>
     f04:	2c620220 	sltiu	v0,v1,544
     f08:	24020250 	li	v0,592
     f0c:	1062017d 	beq	v1,v0,1504 <handle_packet+0x68c>
     f10:	24020255 	li	v0,597
     f14:	1062021a 	beq	v1,v0,1780 <handle_packet+0x908>
     f18:	3c110001 	lui	s1,0x1
     f1c:	24020245 	li	v0,581
     f20:	146200b5 	bne	v1,v0,11f8 <handle_packet+0x380>
     f24:	00000000 	nop
     f28:	3c040001 	lui	a0,0x1
     f2c:	2484816c 	addiu	a0,a0,-32404
     f30:	0c000901 	jal	2404 <puts>
     f34:	3c120001 	lui	s2,0x1
     f38:	27b00030 	addiu	s0,sp,48
     f3c:	0c000901 	jal	2404 <puts>
     f40:	26448594 	addiu	a0,s2,-31340
     f44:	24050006 	li	a1,6
     f48:	0c000ab8 	jal	2ae0 <DMNI_read_data>
     f4c:	02002021 	move	a0,s0
     f50:	24050018 	li	a1,24
     f54:	27a60020 	addiu	a2,sp,32
     f58:	0c001ab8 	jal	6ae0 <siphash24>
     f5c:	02002021 	move	a0,s0
     f60:	3c040001 	lui	a0,0x1
     f64:	00608821 	move	s1,v1
     f68:	0c000901 	jal	2404 <puts>
     f6c:	24848188 	addiu	a0,a0,-32376
     f70:	0c000973 	jal	25cc <itoh>
     f74:	02202021 	move	a0,s1
     f78:	0c000901 	jal	2404 <puts>
     f7c:	00402021 	move	a0,v0
     f80:	0c000901 	jal	2404 <puts>
     f84:	26448594 	addiu	a0,s2,-31340
     f88:	0800046e 	j	11b8 <handle_packet+0x340>
     f8c:	0000a021 	move	s4,zero
     f90:	106200ed 	beq	v1,v0,1348 <handle_packet+0x4d0>
     f94:	2c620026 	sltiu	v0,v1,38
     f98:	14400093 	bnez	v0,11e8 <handle_packet+0x370>
     f9c:	24020010 	li	v0,16
     fa0:	24020040 	li	v0,64
     fa4:	1062019d 	beq	v1,v0,161c <handle_packet+0x7a4>
     fa8:	24020170 	li	v0,368
     fac:	10620214 	beq	v1,v0,1800 <handle_packet+0x988>
     fb0:	00000000 	nop
     fb4:	24020026 	li	v0,38
     fb8:	1462008f 	bne	v1,v0,11f8 <handle_packet+0x380>
     fbc:	00000000 	nop
     fc0:	3c040001 	lui	a0,0x1
     fc4:	0c000901 	jal	2404 <puts>
     fc8:	24848060 	addiu	a0,a0,-32672
     fcc:	3c040001 	lui	a0,0x1
     fd0:	0c000901 	jal	2404 <puts>
     fd4:	24848078 	addiu	a0,a0,-32648
     fd8:	8e640078 	lw	a0,120(s3)
     fdc:	0c000973 	jal	25cc <itoh>
     fe0:	3c110001 	lui	s1,0x1
     fe4:	0c000901 	jal	2404 <puts>
     fe8:	00402021 	move	a0,v0
     fec:	0c000901 	jal	2404 <puts>
     ff0:	26248594 	addiu	a0,s1,-31340
     ff4:	3c040001 	lui	a0,0x1
     ff8:	0c000901 	jal	2404 <puts>
     ffc:	24848080 	addiu	a0,a0,-32640
    1000:	8e640080 	lw	a0,128(s3)
    1004:	0c000973 	jal	25cc <itoh>
    1008:	00000000 	nop
    100c:	0c000901 	jal	2404 <puts>
    1010:	00402021 	move	a0,v0
    1014:	0c000901 	jal	2404 <puts>
    1018:	26248594 	addiu	a0,s1,-31340
    101c:	3c040001 	lui	a0,0x1
    1020:	0c000901 	jal	2404 <puts>
    1024:	24848088 	addiu	a0,a0,-32632
    1028:	8e640084 	lw	a0,132(s3)
    102c:	0c000973 	jal	25cc <itoh>
    1030:	00000000 	nop
    1034:	0c000901 	jal	2404 <puts>
    1038:	00402021 	move	a0,v0
    103c:	0c000901 	jal	2404 <puts>
    1040:	26248594 	addiu	a0,s1,-31340
    1044:	3c040001 	lui	a0,0x1
    1048:	0c000901 	jal	2404 <puts>
    104c:	24848094 	addiu	a0,a0,-32620
    1050:	8e640088 	lw	a0,136(s3)
    1054:	0c000973 	jal	25cc <itoh>
    1058:	00000000 	nop
    105c:	0c000901 	jal	2404 <puts>
    1060:	00402021 	move	a0,v0
    1064:	0c000901 	jal	2404 <puts>
    1068:	26248594 	addiu	a0,s1,-31340
    106c:	3c040001 	lui	a0,0x1
    1070:	0c000901 	jal	2404 <puts>
    1074:	248480a0 	addiu	a0,a0,-32608
    1078:	8e64008c 	lw	a0,140(s3)
    107c:	0c000973 	jal	25cc <itoh>
    1080:	00000000 	nop
    1084:	0c000901 	jal	2404 <puts>
    1088:	00402021 	move	a0,v0
    108c:	0c000901 	jal	2404 <puts>
    1090:	26248594 	addiu	a0,s1,-31340
    1094:	3c040001 	lui	a0,0x1
    1098:	0c000901 	jal	2404 <puts>
    109c:	248480ac 	addiu	a0,a0,-32596
    10a0:	8e640090 	lw	a0,144(s3)
    10a4:	0c000973 	jal	25cc <itoh>
    10a8:	00000000 	nop
    10ac:	0c000901 	jal	2404 <puts>
    10b0:	00402021 	move	a0,v0
    10b4:	0c000901 	jal	2404 <puts>
    10b8:	26248594 	addiu	a0,s1,-31340
    10bc:	3c040001 	lui	a0,0x1
    10c0:	0c000901 	jal	2404 <puts>
    10c4:	248480b4 	addiu	a0,a0,-32588
    10c8:	8e64009c 	lw	a0,156(s3)
    10cc:	0c000973 	jal	25cc <itoh>
    10d0:	00000000 	nop
    10d4:	0c000901 	jal	2404 <puts>
    10d8:	00402021 	move	a0,v0
    10dc:	0c000901 	jal	2404 <puts>
    10e0:	26248594 	addiu	a0,s1,-31340
    10e4:	8e640088 	lw	a0,136(s3)
    10e8:	0c000fe1 	jal	3f84 <searchTCB>
    10ec:	00000000 	nop
    10f0:	3c040001 	lui	a0,0x1
    10f4:	00408021 	move	s0,v0
    10f8:	0c000901 	jal	2404 <puts>
    10fc:	248480bc 	addiu	a0,a0,-32580
    1100:	8e0300a0 	lw	v1,160(s0)
    1104:	00000000 	nop
    1108:	8c640000 	lw	a0,0(v1)
    110c:	0c000973 	jal	25cc <itoh>
    1110:	00000000 	nop
    1114:	0c000901 	jal	2404 <puts>
    1118:	00402021 	move	a0,v0
    111c:	0c000901 	jal	2404 <puts>
    1120:	26248594 	addiu	a0,s1,-31340
    1124:	8e0400a0 	lw	a0,160(s0)
    1128:	24020004 	li	v0,4
    112c:	8c830000 	lw	v1,0(a0)
    1130:	00000000 	nop
    1134:	10620002 	beq	v1,v0,1140 <handle_packet+0x2c8>
    1138:	00000000 	nop
    113c:	ac800000 	sw	zero,0(a0)
    1140:	3c040001 	lui	a0,0x1
    1144:	0c000901 	jal	2404 <puts>
    1148:	248480d4 	addiu	a0,a0,-32556
    114c:	8e0300a0 	lw	v1,160(s0)
    1150:	00000000 	nop
    1154:	8c640000 	lw	a0,0(v1)
    1158:	0c000973 	jal	25cc <itoh>
    115c:	00000000 	nop
    1160:	0c000901 	jal	2404 <puts>
    1164:	00402021 	move	a0,v0
    1168:	0c000901 	jal	2404 <puts>
    116c:	26248594 	addiu	a0,s1,-31340
    1170:	8e030090 	lw	v1,144(s0)
    1174:	2402ffff 	li	v0,-1
    1178:	10620095 	beq	v1,v0,13d0 <handle_packet+0x558>
    117c:	3c020005 	lui	v0,0x5
    1180:	0c0013e4 	jal	4f90 <migrate_dynamic_memory>
    1184:	02002021 	move	a0,s0
    1188:	0800046e 	j	11b8 <handle_packet+0x340>
    118c:	24140001 	li	s4,1
    1190:	14400019 	bnez	v0,11f8 <handle_packet+0x380>
    1194:	00000000 	nop
    1198:	2c620228 	sltiu	v0,v1,552
    119c:	104000c0 	beqz	v0,14a0 <handle_packet+0x628>
    11a0:	24020230 	li	v0,560
    11a4:	3c020005 	lui	v0,0x5
    11a8:	8c45906c 	lw	a1,-28564(v0)
    11ac:	0c001517 	jal	545c <handle_migration>
    11b0:	02602021 	move	a0,s3
    11b4:	0040a021 	move	s4,v0
    11b8:	02801021 	move	v0,s4
    11bc:	8fbf0080 	lw	ra,128(sp)
    11c0:	8fb7007c 	lw	s7,124(sp)
    11c4:	8fb60078 	lw	s6,120(sp)
    11c8:	8fb50074 	lw	s5,116(sp)
    11cc:	8fb40070 	lw	s4,112(sp)
    11d0:	8fb3006c 	lw	s3,108(sp)
    11d4:	8fb20068 	lw	s2,104(sp)
    11d8:	8fb10064 	lw	s1,100(sp)
    11dc:	8fb00060 	lw	s0,96(sp)
    11e0:	03e00008 	jr	ra
    11e4:	27bd0088 	addiu	sp,sp,136
    11e8:	10620152 	beq	v1,v0,1734 <handle_packet+0x8bc>
    11ec:	24020020 	li	v0,32
    11f0:	10620055 	beq	v1,v0,1348 <handle_packet+0x4d0>
    11f4:	00000000 	nop
    11f8:	3c040001 	lui	a0,0x1
    11fc:	0c000901 	jal	2404 <puts>
    1200:	248481d4 	addiu	a0,a0,-32300
    1204:	8e640084 	lw	a0,132(s3)
    1208:	0c000973 	jal	25cc <itoh>
    120c:	3c100001 	lui	s0,0x1
    1210:	0c000901 	jal	2404 <puts>
    1214:	00402021 	move	a0,v0
    1218:	0c000901 	jal	2404 <puts>
    121c:	26048594 	addiu	a0,s0,-31340
    1220:	3c040001 	lui	a0,0x1
    1224:	0c000901 	jal	2404 <puts>
    1228:	248481ec 	addiu	a0,a0,-32276
    122c:	3c032000 	lui	v1,0x2000
    1230:	34630300 	ori	v1,v1,0x300
    1234:	8c640000 	lw	a0,0(v1)
    1238:	0c00092c 	jal	24b0 <itoa>
    123c:	0000a021 	move	s4,zero
    1240:	0c000901 	jal	2404 <puts>
    1244:	00402021 	move	a0,v0
    1248:	0c000901 	jal	2404 <puts>
    124c:	26048594 	addiu	a0,s0,-31340
    1250:	3c040001 	lui	a0,0x1
    1254:	0c000901 	jal	2404 <puts>
    1258:	24848078 	addiu	a0,a0,-32648
    125c:	8e64007c 	lw	a0,124(s3)
    1260:	0c000973 	jal	25cc <itoh>
    1264:	00000000 	nop
    1268:	0c000901 	jal	2404 <puts>
    126c:	00402021 	move	a0,v0
    1270:	0c000901 	jal	2404 <puts>
    1274:	26048594 	addiu	a0,s0,-31340
    1278:	3c040001 	lui	a0,0x1
    127c:	0c000901 	jal	2404 <puts>
    1280:	24848080 	addiu	a0,a0,-32640
    1284:	8e640080 	lw	a0,128(s3)
    1288:	0c000973 	jal	25cc <itoh>
    128c:	00000000 	nop
    1290:	0c000901 	jal	2404 <puts>
    1294:	00402021 	move	a0,v0
    1298:	0c000901 	jal	2404 <puts>
    129c:	26048594 	addiu	a0,s0,-31340
    12a0:	3c040001 	lui	a0,0x1
    12a4:	0c000901 	jal	2404 <puts>
    12a8:	24848088 	addiu	a0,a0,-32632
    12ac:	8e640084 	lw	a0,132(s3)
    12b0:	0c000973 	jal	25cc <itoh>
    12b4:	00000000 	nop
    12b8:	0c000901 	jal	2404 <puts>
    12bc:	00402021 	move	a0,v0
    12c0:	0c000901 	jal	2404 <puts>
    12c4:	26048594 	addiu	a0,s0,-31340
    12c8:	3c040001 	lui	a0,0x1
    12cc:	0c000901 	jal	2404 <puts>
    12d0:	24848094 	addiu	a0,a0,-32620
    12d4:	8e640088 	lw	a0,136(s3)
    12d8:	0c000973 	jal	25cc <itoh>
    12dc:	00000000 	nop
    12e0:	0c000901 	jal	2404 <puts>
    12e4:	00402021 	move	a0,v0
    12e8:	0c000901 	jal	2404 <puts>
    12ec:	26048594 	addiu	a0,s0,-31340
    12f0:	3c040001 	lui	a0,0x1
    12f4:	0c000901 	jal	2404 <puts>
    12f8:	248480a0 	addiu	a0,a0,-32608
    12fc:	8e64008c 	lw	a0,140(s3)
    1300:	0c000973 	jal	25cc <itoh>
    1304:	00000000 	nop
    1308:	0c000901 	jal	2404 <puts>
    130c:	00402021 	move	a0,v0
    1310:	0c000901 	jal	2404 <puts>
    1314:	26048594 	addiu	a0,s0,-31340
    1318:	3c040001 	lui	a0,0x1
    131c:	0c000901 	jal	2404 <puts>
    1320:	248480ac 	addiu	a0,a0,-32596
    1324:	8e640090 	lw	a0,144(s3)
    1328:	0c000973 	jal	25cc <itoh>
    132c:	00000000 	nop
    1330:	0c000901 	jal	2404 <puts>
    1334:	00402021 	move	a0,v0
    1338:	0c000901 	jal	2404 <puts>
    133c:	26048594 	addiu	a0,s0,-31340
    1340:	0800046f 	j	11bc <handle_packet+0x344>
    1344:	02801021 	move	v0,s4
    1348:	8e64008c 	lw	a0,140(s3)
    134c:	0c000fe1 	jal	3f84 <searchTCB>
    1350:	2411ffff 	li	s1,-1
    1354:	8c44007c 	lw	a0,124(v0)
    1358:	00408021 	move	s0,v0
    135c:	8c42000c 	lw	v0,12(v0)
    1360:	8e65009c 	lw	a1,156(s3)
    1364:	00822025 	or	a0,a0,v0
    1368:	ac850000 	sw	a1,0(a0)
    136c:	0c000ab8 	jal	2ae0 <DMNI_read_data>
    1370:	24840004 	addiu	a0,a0,4
    1374:	1051005e 	beq	v0,s1,14f0 <handle_packet+0x678>
    1378:	3c022000 	lui	v0,0x2000
    137c:	24020001 	li	v0,1
    1380:	8e0400a0 	lw	a0,160(s0)
    1384:	ae020000 	sw	v0,0(s0)
    1388:	8c830000 	lw	v1,0(a0)
    138c:	24020004 	li	v0,4
    1390:	10620002 	beq	v1,v0,139c <handle_packet+0x524>
    1394:	00000000 	nop
    1398:	ac800000 	sw	zero,0(a0)
    139c:	8e630084 	lw	v1,132(s3)
    13a0:	24020025 	li	v0,37
    13a4:	10620006 	beq	v1,v0,13c0 <handle_packet+0x548>
    13a8:	00000000 	nop
    13ac:	8e640090 	lw	a0,144(s3)
    13b0:	8e65008c 	lw	a1,140(s3)
    13b4:	8e660088 	lw	a2,136(s3)
    13b8:	0c000f7d 	jal	3df4 <remove_msg_request>
    13bc:	00000000 	nop
    13c0:	8e020090 	lw	v0,144(s0)
    13c4:	00000000 	nop
    13c8:	1451ff6d 	bne	v0,s1,1180 <handle_packet+0x308>
    13cc:	3c020005 	lui	v0,0x5
    13d0:	8c449078 	lw	a0,-28552(v0)
    13d4:	3c030005 	lui	v1,0x5
    13d8:	24639190 	addiu	v1,v1,-28272
    13dc:	00832023 	subu	a0,a0,v1
    13e0:	0800046e 	j	11b8 <handle_packet+0x340>
    13e4:	2c940001 	sltiu	s4,a0,1
    13e8:	8c840088 	lw	a0,136(a0)
    13ec:	0c000fe1 	jal	3f84 <searchTCB>
    13f0:	27b10018 	addiu	s1,sp,24
    13f4:	8e700088 	lw	s0,136(s3)
    13f8:	8e65009c 	lw	a1,156(s3)
    13fc:	0c000ab8 	jal	2ae0 <DMNI_read_data>
    1400:	02202021 	move	a0,s1
    1404:	8e63009c 	lw	v1,156(s3)
    1408:	00000000 	nop
    140c:	10600022 	beqz	v1,1498 <handle_packet+0x620>
    1410:	00101202 	srl	v0,s0,0x8
    1414:	0002a200 	sll	s4,v0,0x8
    1418:	00009021 	move	s2,zero
    141c:	00008021 	move	s0,zero
    1420:	3c170001 	lui	s7,0x1
    1424:	3c160001 	lui	s6,0x1
    1428:	3c150001 	lui	s5,0x1
    142c:	0c000901 	jal	2404 <puts>
    1430:	26c48138 	addiu	a0,s6,-32456
    1434:	0c00092c 	jal	24b0 <itoa>
    1438:	02002021 	move	a0,s0
    143c:	0c000901 	jal	2404 <puts>
    1440:	00402021 	move	a0,v0
    1444:	0c000901 	jal	2404 <puts>
    1448:	26a48124 	addiu	a0,s5,-32476
    144c:	8e240000 	lw	a0,0(s1)
    1450:	0c000973 	jal	25cc <itoh>
    1454:	00000000 	nop
    1458:	0c000901 	jal	2404 <puts>
    145c:	00402021 	move	a0,v0
    1460:	0c000901 	jal	2404 <puts>
    1464:	26e48594 	addiu	a0,s7,-31340
    1468:	8e250000 	lw	a1,0(s1)
    146c:	0c00113d 	jal	44f4 <change_task_location>
    1470:	02922025 	or	a0,s4,s2
    1474:	8e250000 	lw	a1,0(s1)
    1478:	0c000c29 	jal	30a4 <update_msg_request_migration>
    147c:	02002021 	move	a0,s0
    1480:	8e62009c 	lw	v0,156(s3)
    1484:	26500001 	addiu	s0,s2,1
    1488:	0202102b 	sltu	v0,s0,v0
    148c:	26310004 	addiu	s1,s1,4
    1490:	1440ffe6 	bnez	v0,142c <handle_packet+0x5b4>
    1494:	02009021 	move	s2,s0
    1498:	0800046e 	j	11b8 <handle_packet+0x340>
    149c:	0000a021 	move	s4,zero
    14a0:	1462ff55 	bne	v1,v0,11f8 <handle_packet+0x380>
    14a4:	00000000 	nop
    14a8:	8c840088 	lw	a0,136(a0)
    14ac:	0c000ff4 	jal	3fd0 <is_another_task_running>
    14b0:	00042202 	srl	a0,a0,0x8
    14b4:	1040ff40 	beqz	v0,11b8 <handle_packet+0x340>
    14b8:	0000a021 	move	s4,zero
    14bc:	8e640088 	lw	a0,136(s3)
    14c0:	8e65009c 	lw	a1,156(s3)
    14c4:	0c000d80 	jal	3600 <update_msg_request_table>
    14c8:	308400ff 	andi	a0,a0,0xff
    14cc:	8e640088 	lw	a0,136(s3)
    14d0:	0c00115f 	jal	457c <remove_task_location>
    14d4:	0000a021 	move	s4,zero
    14d8:	8e640088 	lw	a0,136(s3)
    14dc:	8e65009c 	lw	a1,156(s3)
    14e0:	0c00117c 	jal	45f0 <add_task_location>
    14e4:	00000000 	nop
    14e8:	0800046f 	j	11bc <handle_packet+0x344>
    14ec:	02801021 	move	v0,s4
    14f0:	34420530 	ori	v0,v0,0x530
    14f4:	0000a021 	move	s4,zero
    14f8:	ac400000 	sw	zero,0(v0)
    14fc:	0800046f 	j	11bc <handle_packet+0x344>
    1500:	02801021 	move	v0,s4
    1504:	8c840088 	lw	a0,136(a0)
    1508:	0c000fe1 	jal	3f84 <searchTCB>
    150c:	00000000 	nop
    1510:	10400111 	beqz	v0,1958 <handle_packet+0xae0>
    1514:	00409021 	move	s2,v0
    1518:	0000a821 	move	s5,zero
    151c:	3c040001 	lui	a0,0x1
    1520:	0c000901 	jal	2404 <puts>
    1524:	248480f0 	addiu	a0,a0,-32528
    1528:	8e440080 	lw	a0,128(s2)
    152c:	0c00092c 	jal	24b0 <itoa>
    1530:	00000000 	nop
    1534:	0c000901 	jal	2404 <puts>
    1538:	00402021 	move	a0,v0
    153c:	3c040001 	lui	a0,0x1
    1540:	0c000901 	jal	2404 <puts>
    1544:	24848128 	addiu	a0,a0,-32472
    1548:	3c032000 	lui	v1,0x2000
    154c:	34630300 	ori	v1,v1,0x300
    1550:	8c640000 	lw	a0,0(v1)
    1554:	0c00092c 	jal	24b0 <itoa>
    1558:	00000000 	nop
    155c:	0c000901 	jal	2404 <puts>
    1560:	00402021 	move	a0,v0
    1564:	3c040001 	lui	a0,0x1
    1568:	0c000901 	jal	2404 <puts>
    156c:	24848594 	addiu	a0,a0,-31340
    1570:	8e710088 	lw	s1,136(s3)
    1574:	8e6200a0 	lw	v0,160(s3)
    1578:	00000000 	nop
    157c:	ae420088 	sw	v0,136(s2)
    1580:	8e6300a8 	lw	v1,168(s3)
    1584:	00000000 	nop
    1588:	ae43008c 	sw	v1,140(s2)
    158c:	8e6200a4 	lw	v0,164(s3)
    1590:	00000000 	nop
    1594:	104000aa 	beqz	v0,1840 <handle_packet+0x9c8>
    1598:	24020001 	li	v0,1
    159c:	ae420098 	sw	v0,152(s2)
    15a0:	8e65009c 	lw	a1,156(s3)
    15a4:	27b00018 	addiu	s0,sp,24
    15a8:	0c000ab8 	jal	2ae0 <DMNI_read_data>
    15ac:	02002021 	move	a0,s0
    15b0:	8e440080 	lw	a0,128(s2)
    15b4:	0c00112d 	jal	44b4 <get_task_location>
    15b8:	00000000 	nop
    15bc:	2403ffff 	li	v1,-1
    15c0:	104300a1 	beq	v0,v1,1848 <handle_packet+0x9d0>
    15c4:	00000000 	nop
    15c8:	3c020005 	lui	v0,0x5
    15cc:	8c449078 	lw	a0,-28552(v0)
    15d0:	3c030005 	lui	v1,0x5
    15d4:	24639190 	addiu	v1,v1,-28272
    15d8:	00832023 	subu	a0,a0,v1
    15dc:	16a0fef6 	bnez	s5,11b8 <handle_packet+0x340>
    15e0:	2c940001 	sltiu	s4,a0,1
    15e4:	8e420084 	lw	v0,132(s2)
    15e8:	8e430088 	lw	v1,136(s2)
    15ec:	8e440098 	lw	a0,152(s2)
    15f0:	00431023 	subu	v0,v0,v1
    15f4:	24030001 	li	v1,1
    15f8:	108300ad 	beq	a0,v1,18b0 <handle_packet+0xa38>
    15fc:	ae420084 	sw	v0,132(s2)
    1600:	8e4200a0 	lw	v0,160(s2)
    1604:	00000000 	nop
    1608:	ac400000 	sw	zero,0(v0)
    160c:	0c00013c 	jal	4f0 <send_task_allocated>
    1610:	02402021 	move	a0,s2
    1614:	0800046f 	j	11bc <handle_packet+0x344>
    1618:	02801021 	move	v0,s4
    161c:	8c840088 	lw	a0,136(a0)
    1620:	0c000fe1 	jal	3f84 <searchTCB>
    1624:	00000000 	nop
    1628:	104000a9 	beqz	v0,18d0 <handle_packet+0xa58>
    162c:	00408021 	move	s0,v0
    1630:	00009021 	move	s2,zero
    1634:	3c040001 	lui	a0,0x1
    1638:	248480f0 	addiu	a0,a0,-32528
    163c:	0c000901 	jal	2404 <puts>
    1640:	ae000078 	sw	zero,120(s0)
    1644:	8e040080 	lw	a0,128(s0)
    1648:	0c00092c 	jal	24b0 <itoa>
    164c:	3c170001 	lui	s7,0x1
    1650:	0c000901 	jal	2404 <puts>
    1654:	00402021 	move	a0,v0
    1658:	3c040001 	lui	a0,0x1
    165c:	0c000901 	jal	2404 <puts>
    1660:	248480fc 	addiu	a0,a0,-32516
    1664:	3c032000 	lui	v1,0x2000
    1668:	34630300 	ori	v1,v1,0x300
    166c:	8c640000 	lw	a0,0(v1)
    1670:	0c00092c 	jal	24b0 <itoa>
    1674:	00000000 	nop
    1678:	0c000901 	jal	2404 <puts>
    167c:	00402021 	move	a0,v0
    1680:	0c000901 	jal	2404 <puts>
    1684:	26e48594 	addiu	a0,s7,-31340
    1688:	8e7100a4 	lw	s1,164(s3)
    168c:	8e0400a0 	lw	a0,160(s0)
    1690:	ae110084 	sw	s1,132(s0)
    1694:	8e62008c 	lw	v0,140(s3)
    1698:	2403ffff 	li	v1,-1
    169c:	ae020094 	sw	v0,148(s0)
    16a0:	24023fbe 	li	v0,16318
    16a4:	ae030090 	sw	v1,144(s0)
    16a8:	ac820014 	sw	v0,20(a0)
    16ac:	8e04007c 	lw	a0,124(s0)
    16b0:	0c000ab8 	jal	2ae0 <DMNI_read_data>
    16b4:	02202821 	move	a1,s1
    16b8:	3c030005 	lui	v1,0x5
    16bc:	8c649078 	lw	a0,-28552(v1)
    16c0:	3c020005 	lui	v0,0x5
    16c4:	24429190 	addiu	v0,v0,-28272
    16c8:	00822023 	subu	a0,a0,v0
    16cc:	24050001 	li	a1,1
    16d0:	ae05009c 	sw	a1,156(s0)
    16d4:	1640feb8 	bnez	s2,11b8 <handle_packet+0x340>
    16d8:	2c940001 	sltiu	s4,a0,1
    16dc:	8e020088 	lw	v0,136(s0)
    16e0:	8e030098 	lw	v1,152(s0)
    16e4:	02221023 	subu	v0,s1,v0
    16e8:	10650075 	beq	v1,a1,18c0 <handle_packet+0xa48>
    16ec:	ae020084 	sw	v0,132(s0)
    16f0:	8e0200a0 	lw	v0,160(s0)
    16f4:	00000000 	nop
    16f8:	ac400000 	sw	zero,0(v0)
    16fc:	0c00013c 	jal	4f0 <send_task_allocated>
    1700:	02002021 	move	a0,s0
    1704:	3c040001 	lui	a0,0x1
    1708:	0c000901 	jal	2404 <puts>
    170c:	2484810c 	addiu	a0,a0,-32500
    1710:	8e040080 	lw	a0,128(s0)
    1714:	0c00092c 	jal	24b0 <itoa>
    1718:	00000000 	nop
    171c:	0c000901 	jal	2404 <puts>
    1720:	00402021 	move	a0,v0
    1724:	0c000901 	jal	2404 <puts>
    1728:	26e48594 	addiu	a0,s7,-31340
    172c:	0800046f 	j	11bc <handle_packet+0x344>
    1730:	02801021 	move	v0,s4
    1734:	8c840088 	lw	a0,136(a0)
    1738:	8e65008c 	lw	a1,140(s3)
    173c:	0c000c69 	jal	31a4 <remove_PIPE>
    1740:	00000000 	nop
    1744:	1040006c 	beqz	v0,18f8 <handle_packet+0xa80>
    1748:	00408021 	move	s0,v0
    174c:	3c020005 	lui	v0,0x5
    1750:	8c449074 	lw	a0,-28556(v0)
    1754:	8e63009c 	lw	v1,156(s3)
    1758:	00000000 	nop
    175c:	1064004b 	beq	v1,a0,188c <handle_packet+0xa14>
    1760:	00000000 	nop
    1764:	8e640088 	lw	a0,136(s3)
    1768:	8e65008c 	lw	a1,140(s3)
    176c:	8e66009c 	lw	a2,156(s3)
    1770:	0c000e1d 	jal	3874 <send_message_delivery>
    1774:	26070008 	addiu	a3,s0,8
    1778:	0800046e 	j	11b8 <handle_packet+0x340>
    177c:	0000a021 	move	s4,zero
    1780:	3c040001 	lui	a0,0x1
    1784:	0c000901 	jal	2404 <puts>
    1788:	24848190 	addiu	a0,a0,-32368
    178c:	0c000901 	jal	2404 <puts>
    1790:	26248594 	addiu	a0,s1,-31340
    1794:	3c102000 	lui	s0,0x2000
    1798:	3c040001 	lui	a0,0x1
    179c:	36100300 	ori	s0,s0,0x300
    17a0:	0c000901 	jal	2404 <puts>
    17a4:	248481b4 	addiu	a0,a0,-32332
    17a8:	8e040000 	lw	a0,0(s0)
    17ac:	0c00092c 	jal	24b0 <itoa>
    17b0:	0000a021 	move	s4,zero
    17b4:	0c000901 	jal	2404 <puts>
    17b8:	00402021 	move	a0,v0
    17bc:	0c000901 	jal	2404 <puts>
    17c0:	26248594 	addiu	a0,s1,-31340
    17c4:	24050006 	li	a1,6
    17c8:	0c000ab8 	jal	2ae0 <DMNI_read_data>
    17cc:	27a40048 	addiu	a0,sp,72
    17d0:	3c040001 	lui	a0,0x1
    17d4:	0c000901 	jal	2404 <puts>
    17d8:	248481c0 	addiu	a0,a0,-32320
    17dc:	8e040000 	lw	a0,0(s0)
    17e0:	0c00092c 	jal	24b0 <itoa>
    17e4:	00000000 	nop
    17e8:	0c000901 	jal	2404 <puts>
    17ec:	00402021 	move	a0,v0
    17f0:	0c000901 	jal	2404 <puts>
    17f4:	26248594 	addiu	a0,s1,-31340
    17f8:	0800046f 	j	11bc <handle_packet+0x344>
    17fc:	02801021 	move	v0,s4
    1800:	8c820090 	lw	v0,144(a0)
    1804:	3c040001 	lui	a0,0x1
    1808:	3c100005 	lui	s0,0x5
    180c:	24848144 	addiu	a0,a0,-32444
    1810:	0c000901 	jal	2404 <puts>
    1814:	ae02906c 	sw	v0,-28564(s0)
    1818:	8e04906c 	lw	a0,-28564(s0)
    181c:	0c00092c 	jal	24b0 <itoa>
    1820:	0000a021 	move	s4,zero
    1824:	0c000901 	jal	2404 <puts>
    1828:	00402021 	move	a0,v0
    182c:	3c040001 	lui	a0,0x1
    1830:	0c000901 	jal	2404 <puts>
    1834:	24848594 	addiu	a0,a0,-31340
    1838:	0800046f 	j	11bc <handle_packet+0x344>
    183c:	02801021 	move	v0,s4
    1840:	08000568 	j	15a0 <handle_packet+0x728>
    1844:	ae400098 	sw	zero,152(s2)
    1848:	8e62009c 	lw	v0,156(s3)
    184c:	00000000 	nop
    1850:	1040ff5d 	beqz	v0,15c8 <handle_packet+0x750>
    1854:	00111202 	srl	v0,s1,0x8
    1858:	0002a200 	sll	s4,v0,0x8
    185c:	02008821 	move	s1,s0
    1860:	00008021 	move	s0,zero
    1864:	8e250000 	lw	a1,0(s1)
    1868:	0c00117c 	jal	45f0 <add_task_location>
    186c:	02142025 	or	a0,s0,s4
    1870:	8e62009c 	lw	v0,156(s3)
    1874:	26100001 	addiu	s0,s0,1
    1878:	0202102b 	sltu	v0,s0,v0
    187c:	1440fff9 	bnez	v0,1864 <handle_packet+0x9ec>
    1880:	26310004 	addiu	s1,s1,4
    1884:	08000573 	j	15cc <handle_packet+0x754>
    1888:	3c020005 	lui	v0,0x5
    188c:	8e64008c 	lw	a0,140(s3)
    1890:	0c000fe1 	jal	3f84 <searchTCB>
    1894:	0000a021 	move	s4,zero
    1898:	8e050008 	lw	a1,8(s0)
    189c:	00402021 	move	a0,v0
    18a0:	0c0000a3 	jal	28c <write_local_msg_to_task>
    18a4:	2606000c 	addiu	a2,s0,12
    18a8:	0800046f 	j	11bc <handle_packet+0x344>
    18ac:	02801021 	move	v0,s4
    18b0:	8e4300a0 	lw	v1,160(s2)
    18b4:	24020004 	li	v0,4
    18b8:	08000583 	j	160c <handle_packet+0x794>
    18bc:	ac620000 	sw	v0,0(v1)
    18c0:	8e0300a0 	lw	v1,160(s0)
    18c4:	24020004 	li	v0,4
    18c8:	080005bf 	j	16fc <handle_packet+0x884>
    18cc:	ac620000 	sw	v0,0(v1)
    18d0:	0c00109a 	jal	4268 <search_free_TCB>
    18d4:	00000000 	nop
    18d8:	00408021 	move	s0,v0
    18dc:	8e0400a0 	lw	a0,160(s0)
    18e0:	8e620088 	lw	v0,136(s3)
    18e4:	24030004 	li	v1,4
    18e8:	24120001 	li	s2,1
    18ec:	ae020080 	sw	v0,128(s0)
    18f0:	0800058d 	j	1634 <handle_packet+0x7bc>
    18f4:	ac830000 	sw	v1,0(a0)
    18f8:	8e640088 	lw	a0,136(s3)
    18fc:	0c00112d 	jal	44b4 <get_task_location>
    1900:	00000000 	nop
    1904:	00408021 	move	s0,v0
    1908:	2402ffff 	li	v0,-1
    190c:	1202000b 	beq	s0,v0,193c <handle_packet+0xac4>
    1910:	00000000 	nop
    1914:	3c020005 	lui	v0,0x5
    1918:	8c439074 	lw	v1,-28556(v0)
    191c:	00000000 	nop
    1920:	12030006 	beq	s0,v1,193c <handle_packet+0xac4>
    1924:	00000000 	nop
    1928:	8e63009c 	lw	v1,156(s3)
    192c:	8e620090 	lw	v0,144(s3)
    1930:	00000000 	nop
    1934:	10620012 	beq	v1,v0,1980 <handle_packet+0xb08>
    1938:	00000000 	nop
    193c:	8e640088 	lw	a0,136(s3)
    1940:	8e65008c 	lw	a1,140(s3)
    1944:	8e66009c 	lw	a2,156(s3)
    1948:	0c000e3a 	jal	38e8 <insert_message_request>
    194c:	0000a021 	move	s4,zero
    1950:	0800046f 	j	11bc <handle_packet+0x344>
    1954:	02801021 	move	v0,s4
    1958:	0c00109a 	jal	4268 <search_free_TCB>
    195c:	00000000 	nop
    1960:	00409021 	move	s2,v0
    1964:	8e4400a0 	lw	a0,160(s2)
    1968:	8e620088 	lw	v0,136(s3)
    196c:	24030004 	li	v1,4
    1970:	24150001 	li	s5,1
    1974:	ae420080 	sw	v0,128(s2)
    1978:	08000547 	j	151c <handle_packet+0x6a4>
    197c:	ac830000 	sw	v1,0(a0)
    1980:	8e640088 	lw	a0,136(s3)
    1984:	8e65008c 	lw	a1,140(s3)
    1988:	8e67009c 	lw	a3,156(s3)
    198c:	24020001 	li	v0,1
    1990:	02003021 	move	a2,s0
    1994:	0c000f1b 	jal	3c6c <send_message_request_>
    1998:	afa20010 	sw	v0,16(sp)
    199c:	8e640088 	lw	a0,136(s3)
    19a0:	0c000c40 	jal	3100 <search_PIPE_producer>
    19a4:	00000000 	nop
    19a8:	1440febb 	bnez	v0,1498 <handle_packet+0x620>
    19ac:	00000000 	nop
    19b0:	8e64009c 	lw	a0,156(s3)
    19b4:	8e650088 	lw	a1,136(s3)
    19b8:	0c001385 	jal	4e14 <send_update_task_location>
    19bc:	02003021 	move	a2,s0
    19c0:	0800046e 	j	11b8 <handle_packet+0x340>
    19c4:	0000a021 	move	s4,zero

000019c8 <Aplly_LSFR>:
    19c8:	27bdffd0 	addiu	sp,sp,-48
    19cc:	afb30024 	sw	s3,36(sp)
    19d0:	3c130005 	lui	s3,0x5
    19d4:	afa70014 	sw	a3,20(sp)
    19d8:	afa60010 	sw	a2,16(sp)
    19dc:	00a03821 	move	a3,a1
    19e0:	00803021 	move	a2,a0
    19e4:	26649178 	addiu	a0,s3,-28296
    19e8:	afbf0028 	sw	ra,40(sp)
    19ec:	afb20020 	sw	s2,32(sp)
    19f0:	afb1001c 	sw	s1,28(sp)
    19f4:	afb00018 	sw	s0,24(sp)
    19f8:	0c001dd9 	jal	7764 <GLFSR_init>
    19fc:	3c120005 	lui	s2,0x5
    1a00:	8fa3004c 	lw	v1,76(sp)
    1a04:	8fa20048 	lw	v0,72(sp)
    1a08:	8fa70044 	lw	a3,68(sp)
    1a0c:	8fa60040 	lw	a2,64(sp)
    1a10:	26449110 	addiu	a0,s2,-28400
    1a14:	afa30014 	sw	v1,20(sp)
    1a18:	afa20010 	sw	v0,16(sp)
    1a1c:	0c001dd9 	jal	7764 <GLFSR_init>
    1a20:	00008021 	move	s0,zero
    1a24:	24110080 	li	s1,128
    1a28:	0c001df7 	jal	77dc <GLFSR_next>
    1a2c:	26649178 	addiu	a0,s3,-28296
    1a30:	26100001 	addiu	s0,s0,1
    1a34:	0c001df7 	jal	77dc <GLFSR_next>
    1a38:	26449110 	addiu	a0,s2,-28400
    1a3c:	1611fffa 	bne	s0,s1,1a28 <Aplly_LSFR+0x60>
    1a40:	00001021 	move	v0,zero
    1a44:	8fbf0028 	lw	ra,40(sp)
    1a48:	8fb30024 	lw	s3,36(sp)
    1a4c:	8fb20020 	lw	s2,32(sp)
    1a50:	8fb1001c 	lw	s1,28(sp)
    1a54:	8fb00018 	lw	s0,24(sp)
    1a58:	03e00008 	jr	ra
    1a5c:	27bd0030 	addiu	sp,sp,48

00001a60 <Syscall>:
    1a60:	27bdffc8 	addiu	sp,sp,-56
    1a64:	afb1001c 	sw	s1,28(sp)
    1a68:	2c820008 	sltiu	v0,a0,8
    1a6c:	3c110005 	lui	s1,0x5
    1a70:	afb30024 	sw	s3,36(sp)
    1a74:	afbf0030 	sw	ra,48(sp)
    1a78:	afb5002c 	sw	s5,44(sp)
    1a7c:	afb40028 	sw	s4,40(sp)
    1a80:	afb20020 	sw	s2,32(sp)
    1a84:	afb00018 	sw	s0,24(sp)
    1a88:	00a09821 	move	s3,a1
    1a8c:	00c04021 	move	t0,a2
    1a90:	1040000f 	beqz	v0,1ad0 <Syscall+0x70>
    1a94:	ae209084 	sw	zero,-28540(s1)
    1a98:	3c030001 	lui	v1,0x1
    1a9c:	00041080 	sll	v0,a0,0x2
    1aa0:	246382c8 	addiu	v1,v1,-32056
    1aa4:	00431021 	addu	v0,v0,v1
    1aa8:	8c440000 	lw	a0,0(v0)
    1aac:	00000000 	nop
    1ab0:	00800008 	jr	a0
    1ab4:	00000000 	nop
    1ab8:	3c102000 	lui	s0,0x2000
    1abc:	36020250 	ori	v0,s0,0x250
    1ac0:	8c440000 	lw	a0,0(v0)
    1ac4:	24030001 	li	v1,1
    1ac8:	108000b4 	beqz	a0,1d9c <Syscall+0x33c>
    1acc:	ae239084 	sw	v1,-28540(s1)
    1ad0:	00002821 	move	a1,zero
    1ad4:	8fbf0030 	lw	ra,48(sp)
    1ad8:	8fb5002c 	lw	s5,44(sp)
    1adc:	8fb40028 	lw	s4,40(sp)
    1ae0:	8fb30024 	lw	s3,36(sp)
    1ae4:	8fb20020 	lw	s2,32(sp)
    1ae8:	8fb1001c 	lw	s1,28(sp)
    1aec:	8fb00018 	lw	s0,24(sp)
    1af0:	00a01021 	move	v0,a1
    1af4:	03e00008 	jr	ra
    1af8:	27bd0038 	addiu	sp,sp,56
    1afc:	3c022000 	lui	v0,0x2000
    1b00:	34420250 	ori	v0,v0,0x250
    1b04:	8c430000 	lw	v1,0(v0)
    1b08:	00000000 	nop
    1b0c:	1460fff0 	bnez	v1,1ad0 <Syscall+0x70>
    1b10:	3c100005 	lui	s0,0x5
    1b14:	8e029078 	lw	v0,-28552(s0)
    1b18:	3c030005 	lui	v1,0x5
    1b1c:	8c450080 	lw	a1,128(v0)
    1b20:	8c669074 	lw	a2,-28556(v1)
    1b24:	0c000ded 	jal	37b4 <send_io_request>
    1b28:	01002021 	move	a0,t0
    1b2c:	8e029078 	lw	v0,-28552(s0)
    1b30:	00000000 	nop
    1b34:	8c4300a0 	lw	v1,160(v0)
    1b38:	24040001 	li	a0,1
    1b3c:	00002821 	move	a1,zero
    1b40:	ac640000 	sw	a0,0(v1)
    1b44:	080006b5 	j	1ad4 <Syscall+0x74>
    1b48:	ae249084 	sw	a0,-28540(s1)
    1b4c:	3c022000 	lui	v0,0x2000
    1b50:	34420250 	ori	v0,v0,0x250
    1b54:	8c430000 	lw	v1,0(v0)
    1b58:	00000000 	nop
    1b5c:	1460ffdc 	bnez	v1,1ad0 <Syscall+0x70>
    1b60:	3c100005 	lui	s0,0x5
    1b64:	8e029078 	lw	v0,-28552(s0)
    1b68:	00c02821 	move	a1,a2
    1b6c:	8c46007c 	lw	a2,124(v0)
    1b70:	8c440080 	lw	a0,128(v0)
    1b74:	0c000e05 	jal	3814 <send_message_io>
    1b78:	02663025 	or	a2,s3,a2
    1b7c:	8e029078 	lw	v0,-28552(s0)
    1b80:	24040001 	li	a0,1
    1b84:	8c4300a0 	lw	v1,160(v0)
    1b88:	24050001 	li	a1,1
    1b8c:	ac640000 	sw	a0,0(v1)
    1b90:	080006b5 	j	1ad4 <Syscall+0x74>
    1b94:	ae249084 	sw	a0,-28540(s1)
    1b98:	3c022000 	lui	v0,0x2000
    1b9c:	34420250 	ori	v0,v0,0x250
    1ba0:	8c430000 	lw	v1,0(v0)
    1ba4:	00000000 	nop
    1ba8:	1460ffc9 	bnez	v1,1ad0 <Syscall+0x70>
    1bac:	3c020005 	lui	v0,0x5
    1bb0:	8c439078 	lw	v1,-28552(v0)
    1bb4:	00000000 	nop
    1bb8:	8c6400a0 	lw	a0,160(v1)
    1bbc:	0c00159b 	jal	566c <real_time_task>
    1bc0:	00000000 	nop
    1bc4:	24020001 	li	v0,1
    1bc8:	24050001 	li	a1,1
    1bcc:	080006b5 	j	1ad4 <Syscall+0x74>
    1bd0:	ae229084 	sw	v0,-28540(s1)
    1bd4:	3c022000 	lui	v0,0x2000
    1bd8:	34420300 	ori	v0,v0,0x300
    1bdc:	8c440000 	lw	a0,0(v0)
    1be0:	0c00092c 	jal	24b0 <itoa>
    1be4:	3c100001 	lui	s0,0x1
    1be8:	0c000901 	jal	2404 <puts>
    1bec:	00402021 	move	a0,v0
    1bf0:	3c120005 	lui	s2,0x5
    1bf4:	0c000901 	jal	2404 <puts>
    1bf8:	2604821c 	addiu	a0,s0,-32228
    1bfc:	8e449074 	lw	a0,-28556(s2)
    1c00:	3c110005 	lui	s1,0x5
    1c04:	0c00092c 	jal	24b0 <itoa>
    1c08:	00042202 	srl	a0,a0,0x8
    1c0c:	0c000901 	jal	2404 <puts>
    1c10:	00402021 	move	a0,v0
    1c14:	3c040001 	lui	a0,0x1
    1c18:	0c000901 	jal	2404 <puts>
    1c1c:	24848220 	addiu	a0,a0,-32224
    1c20:	92449077 	lbu	a0,-28553(s2)
    1c24:	0c00092c 	jal	24b0 <itoa>
    1c28:	00000000 	nop
    1c2c:	0c000901 	jal	2404 <puts>
    1c30:	00402021 	move	a0,v0
    1c34:	0c000901 	jal	2404 <puts>
    1c38:	2604821c 	addiu	a0,s0,-32228
    1c3c:	8e239078 	lw	v1,-28552(s1)
    1c40:	00000000 	nop
    1c44:	8c640080 	lw	a0,128(v1)
    1c48:	0c00092c 	jal	24b0 <itoa>
    1c4c:	00042203 	sra	a0,a0,0x8
    1c50:	0c000901 	jal	2404 <puts>
    1c54:	00402021 	move	a0,v0
    1c58:	0c000901 	jal	2404 <puts>
    1c5c:	2604821c 	addiu	a0,s0,-32228
    1c60:	8e239078 	lw	v1,-28552(s1)
    1c64:	00000000 	nop
    1c68:	90640083 	lbu	a0,131(v1)
    1c6c:	0c00092c 	jal	24b0 <itoa>
    1c70:	00000000 	nop
    1c74:	0c000901 	jal	2404 <puts>
    1c78:	00402021 	move	a0,v0
    1c7c:	0c000901 	jal	2404 <puts>
    1c80:	2604821c 	addiu	a0,s0,-32228
    1c84:	8e239078 	lw	v1,-28552(s1)
    1c88:	00000000 	nop
    1c8c:	8c64007c 	lw	a0,124(v1)
    1c90:	0c000901 	jal	2404 <puts>
    1c94:	02642025 	or	a0,s3,a0
    1c98:	3c040001 	lui	a0,0x1
    1c9c:	0c000901 	jal	2404 <puts>
    1ca0:	24848594 	addiu	a0,a0,-31340
    1ca4:	080006b5 	j	1ad4 <Syscall+0x74>
    1ca8:	00002821 	move	a1,zero
    1cac:	3c022000 	lui	v0,0x2000
    1cb0:	34420300 	ori	v0,v0,0x300
    1cb4:	8c450000 	lw	a1,0(v0)
    1cb8:	080006b5 	j	1ad4 <Syscall+0x74>
    1cbc:	00000000 	nop
    1cc0:	3c022000 	lui	v0,0x2000
    1cc4:	34420250 	ori	v0,v0,0x250
    1cc8:	8c430000 	lw	v1,0(v0)
    1ccc:	00000000 	nop
    1cd0:	1460ff80 	bnez	v1,1ad4 <Syscall+0x74>
    1cd4:	00002821 	move	a1,zero
    1cd8:	3c140005 	lui	s4,0x5
    1cdc:	8e829078 	lw	v0,-28552(s4)
    1ce0:	00000000 	nop
    1ce4:	8c520080 	lw	s2,128(v0)
    1ce8:	00000000 	nop
    1cec:	00121a03 	sra	v1,s2,0x8
    1cf0:	00031a00 	sll	v1,v1,0x8
    1cf4:	00c38025 	or	s0,a2,v1
    1cf8:	0c00112d 	jal	44b4 <get_task_location>
    1cfc:	02002021 	move	a0,s0
    1d00:	00403021 	move	a2,v0
    1d04:	2402ffff 	li	v0,-1
    1d08:	10c2009e 	beq	a2,v0,1f84 <Syscall+0x524>
    1d0c:	3c150005 	lui	s5,0x5
    1d10:	8ea79074 	lw	a3,-28556(s5)
    1d14:	00000000 	nop
    1d18:	10c70083 	beq	a2,a3,1f28 <Syscall+0x4c8>
    1d1c:	24020001 	li	v0,1
    1d20:	02002021 	move	a0,s0
    1d24:	02402821 	move	a1,s2
    1d28:	0c000f1b 	jal	3c6c <send_message_request_>
    1d2c:	afa20010 	sw	v0,16(sp)
    1d30:	8e829078 	lw	v0,-28552(s4)
    1d34:	080006cd 	j	1b34 <Syscall+0xd4>
    1d38:	00000000 	nop
    1d3c:	3c022000 	lui	v0,0x2000
    1d40:	34420250 	ori	v0,v0,0x250
    1d44:	8c430000 	lw	v1,0(v0)
    1d48:	00000000 	nop
    1d4c:	1460ff61 	bnez	v1,1ad4 <Syscall+0x74>
    1d50:	00002821 	move	a1,zero
    1d54:	3c100005 	lui	s0,0x5
    1d58:	8e039078 	lw	v1,-28552(s0)
    1d5c:	2415ffff 	li	s5,-1
    1d60:	8c740080 	lw	s4,128(v1)
    1d64:	00000000 	nop
    1d68:	00141203 	sra	v0,s4,0x8
    1d6c:	00021200 	sll	v0,v0,0x8
    1d70:	00c29025 	or	s2,a2,v0
    1d74:	0c00112d 	jal	44b4 <get_task_location>
    1d78:	02402021 	move	a0,s2
    1d7c:	1455004f 	bne	v0,s5,1ebc <Syscall+0x45c>
    1d80:	00002821 	move	a1,zero
    1d84:	8e029078 	lw	v0,-28552(s0)
    1d88:	00000000 	nop
    1d8c:	8c4300a0 	lw	v1,160(v0)
    1d90:	24020004 	li	v0,4
    1d94:	080006b5 	j	1ad4 <Syscall+0x74>
    1d98:	ac620000 	sw	v0,0(v1)
    1d9c:	3c040001 	lui	a0,0x1
    1da0:	3c110005 	lui	s1,0x5
    1da4:	0c000901 	jal	2404 <puts>
    1da8:	248480f0 	addiu	a0,a0,-32528
    1dac:	8e239078 	lw	v1,-28552(s1)
    1db0:	00000000 	nop
    1db4:	8c640080 	lw	a0,128(v1)
    1db8:	0c00092c 	jal	24b0 <itoa>
    1dbc:	3c130005 	lui	s3,0x5
    1dc0:	0c000901 	jal	2404 <puts>
    1dc4:	00402021 	move	a0,v0
    1dc8:	3c040001 	lui	a0,0x1
    1dcc:	0c000901 	jal	2404 <puts>
    1dd0:	248481f4 	addiu	a0,a0,-32268
    1dd4:	36030300 	ori	v1,s0,0x300
    1dd8:	8c640000 	lw	a0,0(v1)
    1ddc:	0c00092c 	jal	24b0 <itoa>
    1de0:	00000000 	nop
    1de4:	0c000901 	jal	2404 <puts>
    1de8:	00402021 	move	a0,v0
    1dec:	3c040001 	lui	a0,0x1
    1df0:	0c000901 	jal	2404 <puts>
    1df4:	24848594 	addiu	a0,a0,-31340
    1df8:	8e249078 	lw	a0,-28552(s1)
    1dfc:	00000000 	nop
    1e00:	8c830080 	lw	v1,128(a0)
    1e04:	8c900094 	lw	s0,148(a0)
    1e08:	00031103 	sra	v0,v1,0x4
    1e0c:	304200f0 	andi	v0,v0,0xf0
    1e10:	3063000f 	andi	v1,v1,0xf
    1e14:	0c0008fd 	jal	23f4 <get_net_address>
    1e18:	00439025 	or	s2,v0,v1
    1e1c:	8e239078 	lw	v1,-28552(s1)
    1e20:	3042ffff 	andi	v0,v0,0xffff
    1e24:	00108400 	sll	s0,s0,0x10
    1e28:	8c660094 	lw	a2,148(v1)
    1e2c:	02022825 	or	a1,s0,v0
    1e30:	24040006 	li	a0,6
    1e34:	0c00179c 	jal	5e70 <Seek>
    1e38:	02403821 	move	a3,s2
    1e3c:	8e239078 	lw	v1,-28552(s1)
    1e40:	8e70906c 	lw	s0,-28564(s3)
    1e44:	8c620094 	lw	v0,148(v1)
    1e48:	00000000 	nop
    1e4c:	1050000c 	beq	v0,s0,1e80 <Syscall+0x420>
    1e50:	00000000 	nop
    1e54:	0c0008fd 	jal	23f4 <get_net_address>
    1e58:	00000000 	nop
    1e5c:	3042ffff 	andi	v0,v0,0xffff
    1e60:	00102c00 	sll	a1,s0,0x10
    1e64:	8e66906c 	lw	a2,-28564(s3)
    1e68:	00a22825 	or	a1,a1,v0
    1e6c:	02403821 	move	a3,s2
    1e70:	0c00179c 	jal	5e70 <Seek>
    1e74:	24040015 	li	a0,21
    1e78:	8e239078 	lw	v1,-28552(s1)
    1e7c:	00000000 	nop
    1e80:	8c6400a0 	lw	a0,160(v1)
    1e84:	0c001654 	jal	5950 <clear_scheduling>
    1e88:	00000000 	nop
    1e8c:	8e229078 	lw	v0,-28552(s1)
    1e90:	00000000 	nop
    1e94:	8c440080 	lw	a0,128(v0)
    1e98:	0c000ff4 	jal	3fd0 <is_another_task_running>
    1e9c:	00042203 	sra	a0,a0,0x8
    1ea0:	8e239078 	lw	v1,-28552(s1)
    1ea4:	00000000 	nop
    1ea8:	8c640080 	lw	a0,128(v1)
    1eac:	0c000dd5 	jal	3754 <remove_last_msg_waiting_ack>
    1eb0:	00000000 	nop
    1eb4:	080006b5 	j	1ad4 <Syscall+0x74>
    1eb8:	24050001 	li	a1,1
    1ebc:	8e029078 	lw	v0,-28552(s0)
    1ec0:	02802021 	move	a0,s4
    1ec4:	8c43007c 	lw	v1,124(v0)
    1ec8:	02402821 	move	a1,s2
    1ecc:	0c000d69 	jal	35a4 <remove_message_request>
    1ed0:	02639825 	or	s3,s3,v1
    1ed4:	00408021 	move	s0,v0
    1ed8:	3c020005 	lui	v0,0x5
    1edc:	8c439074 	lw	v1,-28556(v0)
    1ee0:	00000000 	nop
    1ee4:	1203002d 	beq	s0,v1,1f9c <Syscall+0x53c>
    1ee8:	02802021 	move	a0,s4
    1eec:	02402821 	move	a1,s2
    1ef0:	0c000d01 	jal	3404 <add_PIPE>
    1ef4:	02603021 	move	a2,s3
    1ef8:	1040003c 	beqz	v0,1fec <Syscall+0x58c>
    1efc:	00401821 	move	v1,v0
    1f00:	1215001e 	beq	s0,s5,1f7c <Syscall+0x51c>
    1f04:	24020003 	li	v0,3
    1f08:	02402821 	move	a1,s2
    1f0c:	a062020c 	sb	v0,524(v1)
    1f10:	02802021 	move	a0,s4
    1f14:	02003021 	move	a2,s0
    1f18:	0c000e1d 	jal	3874 <send_message_delivery>
    1f1c:	02603821 	move	a3,s3
    1f20:	080006b5 	j	1ad4 <Syscall+0x74>
    1f24:	24050001 	li	a1,1
    1f28:	02002021 	move	a0,s0
    1f2c:	0c000c69 	jal	31a4 <remove_PIPE>
    1f30:	02402821 	move	a1,s2
    1f34:	10400031 	beqz	v0,1ffc <Syscall+0x59c>
    1f38:	00404021 	move	t0,v0
    1f3c:	8e839078 	lw	v1,-28552(s4)
    1f40:	8c490008 	lw	t1,8(v0)
    1f44:	8c62007c 	lw	v0,124(v1)
    1f48:	00000000 	nop
    1f4c:	02622025 	or	a0,s3,v0
    1f50:	1920000a 	blez	t1,1f7c <Syscall+0x51c>
    1f54:	ac890000 	sw	t1,0(a0)
    1f58:	24840004 	addiu	a0,a0,4
    1f5c:	00002821 	move	a1,zero
    1f60:	8d02000c 	lw	v0,12(t0)
    1f64:	24a50001 	addiu	a1,a1,1
    1f68:	00a9182a 	slt	v1,a1,t1
    1f6c:	ac820000 	sw	v0,0(a0)
    1f70:	25080004 	addiu	t0,t0,4
    1f74:	1460fffa 	bnez	v1,1f60 <Syscall+0x500>
    1f78:	24840004 	addiu	a0,a0,4
    1f7c:	080006b5 	j	1ad4 <Syscall+0x74>
    1f80:	24050001 	li	a1,1
    1f84:	8e829078 	lw	v0,-28552(s4)
    1f88:	00002821 	move	a1,zero
    1f8c:	8c4300a0 	lw	v1,160(v0)
    1f90:	24020004 	li	v0,4
    1f94:	080006b5 	j	1ad4 <Syscall+0x74>
    1f98:	ac620000 	sw	v0,0(v1)
    1f9c:	0c000fe1 	jal	3f84 <searchTCB>
    1fa0:	02402021 	move	a0,s2
    1fa4:	8e650000 	lw	a1,0(s3)
    1fa8:	00408021 	move	s0,v0
    1fac:	00402021 	move	a0,v0
    1fb0:	0c0000a3 	jal	28c <write_local_msg_to_task>
    1fb4:	26660004 	addiu	a2,s3,4
    1fb8:	8e020090 	lw	v0,144(s0)
    1fbc:	00000000 	nop
    1fc0:	1055ffee 	beq	v0,s5,1f7c <Syscall+0x51c>
    1fc4:	00000000 	nop
    1fc8:	3c040001 	lui	a0,0x1
    1fcc:	0c000901 	jal	2404 <puts>
    1fd0:	24848204 	addiu	a0,a0,-32252
    1fd4:	0c0013e4 	jal	4f90 <migrate_dynamic_memory>
    1fd8:	02002021 	move	a0,s0
    1fdc:	24020001 	li	v0,1
    1fe0:	24050001 	li	a1,1
    1fe4:	080006b5 	j	1ad4 <Syscall+0x74>
    1fe8:	ae229084 	sw	v0,-28540(s1)
    1fec:	24020001 	li	v0,1
    1ff0:	00002821 	move	a1,zero
    1ff4:	080006b5 	j	1ad4 <Syscall+0x74>
    1ff8:	ae229084 	sw	v0,-28540(s1)
    1ffc:	8ea69074 	lw	a2,-28556(s5)
    2000:	02002021 	move	a0,s0
    2004:	0c000e3a 	jal	38e8 <insert_message_request>
    2008:	02402821 	move	a1,s2
    200c:	8e829078 	lw	v0,-28552(s4)
    2010:	080006cd 	j	1b34 <Syscall+0xd4>
    2014:	00000000 	nop

00002018 <send_slack_time_report>:
    2018:	27bdffe8 	addiu	sp,sp,-24
    201c:	afbf0010 	sw	ra,16(sp)
    2020:	0c000a63 	jal	298c <get_service_header_slot>
    2024:	00000000 	nop
    2028:	3c030005 	lui	v1,0x5
    202c:	8c679070 	lw	a3,-28560(v1)
    2030:	00002821 	move	a1,zero
    2034:	00072100 	sll	a0,a3,0x4
    2038:	00073880 	sll	a3,a3,0x2
    203c:	00e43821 	addu	a3,a3,a0
    2040:	00071880 	sll	v1,a3,0x2
    2044:	00e33821 	addu	a3,a3,v1
    2048:	3c030a7c 	lui	v1,0xa7c
    204c:	00073902 	srl	a3,a3,0x4
    2050:	34635ac5 	ori	v1,v1,0x5ac5
    2054:	00e30019 	multu	a3,v1
    2058:	3c040005 	lui	a0,0x5
    205c:	8c83906c 	lw	v1,-28564(a0)
    2060:	24040260 	li	a0,608
    2064:	ac440084 	sw	a0,132(v0)
    2068:	ac43007c 	sw	v1,124(v0)
    206c:	00402021 	move	a0,v0
    2070:	00003021 	move	a2,zero
    2074:	00003810 	mfhi	a3
    2078:	000739c2 	srl	a3,a3,0x7
    207c:	ac4700a8 	sw	a3,168(v0)
    2080:	8fbf0010 	lw	ra,16(sp)
    2084:	08000b31 	j	2cc4 <send_packet>
    2088:	27bd0018 	addiu	sp,sp,24

0000208c <OS_InterruptServiceRoutine>:
    208c:	27bdff28 	addiu	sp,sp,-216
    2090:	afb300cc 	sw	s3,204(sp)
    2094:	3c130005 	lui	s3,0x5
    2098:	afb400d0 	sw	s4,208(sp)
    209c:	afb000c0 	sw	s0,192(sp)
    20a0:	3c140005 	lui	s4,0x5
    20a4:	3c102000 	lui	s0,0x2000
    20a8:	8e669078 	lw	a2,-28552(s3)
    20ac:	36030270 	ori	v1,s0,0x270
    20b0:	3c020001 	lui	v0,0x1
    20b4:	26859190 	addiu	a1,s4,-28272
    20b8:	afb100c4 	sw	s1,196(sp)
    20bc:	afbf00d4 	sw	ra,212(sp)
    20c0:	afb200c8 	sw	s2,200(sp)
    20c4:	00808821 	move	s1,a0
    20c8:	ac620000 	sw	v0,0(v1)
    20cc:	10c50056 	beq	a2,a1,2228 <OS_InterruptServiceRoutine+0x19c>
    20d0:	36020300 	ori	v0,s0,0x300
    20d4:	32220020 	andi	v0,s1,0x20
    20d8:	1440003c 	bnez	v0,21cc <OS_InterruptServiceRoutine+0x140>
    20dc:	32220001 	andi	v0,s1,0x1
    20e0:	14400027 	bnez	v0,2180 <OS_InterruptServiceRoutine+0xf4>
    20e4:	00008021 	move	s0,zero
    20e8:	32220002 	andi	v0,s1,0x2
    20ec:	1440002e 	bnez	v0,21a8 <OS_InterruptServiceRoutine+0x11c>
    20f0:	00000000 	nop
    20f4:	32220008 	andi	v0,s1,0x8
    20f8:	10400002 	beqz	v0,2104 <OS_InterruptServiceRoutine+0x78>
    20fc:	32220080 	andi	v0,s1,0x80
    2100:	24100001 	li	s0,1
    2104:	14400015 	bnez	v0,215c <OS_InterruptServiceRoutine+0xd0>
    2108:	00000000 	nop
    210c:	16000018 	bnez	s0,2170 <OS_InterruptServiceRoutine+0xe4>
    2110:	00000000 	nop
    2114:	8e639078 	lw	v1,-28552(s3)
    2118:	26829190 	addiu	v0,s4,-28272
    211c:	1062004b 	beq	v1,v0,224c <OS_InterruptServiceRoutine+0x1c0>
    2120:	3c022000 	lui	v0,0x2000
    2124:	8c630080 	lw	v1,128(v1)
    2128:	34420270 	ori	v0,v0,0x270
    212c:	ac430000 	sw	v1,0(v0)
    2130:	8e649078 	lw	a0,-28552(s3)
    2134:	0c000074 	jal	1d0 <ASM_RunScheduledTask>
    2138:	00000000 	nop
    213c:	8fbf00d4 	lw	ra,212(sp)
    2140:	8fb400d0 	lw	s4,208(sp)
    2144:	8fb300cc 	lw	s3,204(sp)
    2148:	8fb200c8 	lw	s2,200(sp)
    214c:	8fb100c4 	lw	s1,196(sp)
    2150:	8fb000c0 	lw	s0,192(sp)
    2154:	03e00008 	jr	ra
    2158:	27bd00d8 	addiu	sp,sp,216
    215c:	0c000173 	jal	5cc <SeekInterruptHandler>
    2160:	00000000 	nop
    2164:	00408021 	move	s0,v0
    2168:	1200ffea 	beqz	s0,2114 <OS_InterruptServiceRoutine+0x88>
    216c:	00000000 	nop
    2170:	0c000357 	jal	d5c <Scheduler>
    2174:	00000000 	nop
    2178:	0800084c 	j	2130 <OS_InterruptServiceRoutine+0xa4>
    217c:	00000000 	nop
    2180:	0c000bad 	jal	2eb4 <get_next_pending_service>
    2184:	00000000 	nop
    2188:	1040ffd7 	beqz	v0,20e8 <OS_InterruptServiceRoutine+0x5c>
    218c:	00000000 	nop
    2190:	0c00039e 	jal	e78 <handle_packet>
    2194:	00402021 	move	a0,v0
    2198:	00408021 	move	s0,v0
    219c:	32220002 	andi	v0,s1,0x2
    21a0:	1040ffd4 	beqz	v0,20f4 <OS_InterruptServiceRoutine+0x68>
    21a4:	00000000 	nop
    21a8:	0c000806 	jal	2018 <send_slack_time_report>
    21ac:	00000000 	nop
    21b0:	3c022000 	lui	v0,0x2000
    21b4:	3c030005 	lui	v1,0x5
    21b8:	34420364 	ori	v0,v0,0x364
    21bc:	ac609070 	sw	zero,-28560(v1)
    21c0:	ac400000 	sw	zero,0(v0)
    21c4:	0800083e 	j	20f8 <OS_InterruptServiceRoutine+0x6c>
    21c8:	32220008 	andi	v0,s1,0x8
    21cc:	27b20010 	addiu	s2,sp,16
    21d0:	0c000a8e 	jal	2a38 <read_packet>
    21d4:	02402021 	move	a0,s2
    21d8:	2403ffff 	li	v1,-1
    21dc:	10430025 	beq	v0,v1,2274 <OS_InterruptServiceRoutine+0x1e8>
    21e0:	36020530 	ori	v0,s0,0x530
    21e4:	36020250 	ori	v0,s0,0x250
    21e8:	8c430000 	lw	v1,0(v0)
    21ec:	00000000 	nop
    21f0:	10600009 	beqz	v1,2218 <OS_InterruptServiceRoutine+0x18c>
    21f4:	00000000 	nop
    21f8:	8fa30094 	lw	v1,148(sp)
    21fc:	24020010 	li	v0,16
    2200:	10620020 	beq	v1,v0,2284 <OS_InterruptServiceRoutine+0x1f8>
    2204:	00000000 	nop
    2208:	8fa30094 	lw	v1,148(sp)
    220c:	24020210 	li	v0,528
    2210:	1062001c 	beq	v1,v0,2284 <OS_InterruptServiceRoutine+0x1f8>
    2214:	00000000 	nop
    2218:	0c00039e 	jal	e78 <handle_packet>
    221c:	02402021 	move	a0,s2
    2220:	0800083a 	j	20e8 <OS_InterruptServiceRoutine+0x5c>
    2224:	00408021 	move	s0,v0
    2228:	3c030005 	lui	v1,0x5
    222c:	8c440000 	lw	a0,0(v0)
    2230:	3c050005 	lui	a1,0x5
    2234:	8c669080 	lw	a2,-28544(v1)
    2238:	8ca29070 	lw	v0,-28560(a1)
    223c:	00862023 	subu	a0,a0,a2
    2240:	00822021 	addu	a0,a0,v0
    2244:	08000835 	j	20d4 <OS_InterruptServiceRoutine+0x48>
    2248:	aca49070 	sw	a0,-28560(a1)
    224c:	3c042000 	lui	a0,0x2000
    2250:	34820300 	ori	v0,a0,0x300
    2254:	8c450000 	lw	a1,0(v0)
    2258:	34840270 	ori	a0,a0,0x270
    225c:	3c020005 	lui	v0,0x5
    2260:	3c030008 	lui	v1,0x8
    2264:	ac459080 	sw	a1,-28544(v0)
    2268:	ac830000 	sw	v1,0(a0)
    226c:	0800084c 	j	2130 <OS_InterruptServiceRoutine+0xa4>
    2270:	00000000 	nop
    2274:	00008021 	move	s0,zero
    2278:	ac400000 	sw	zero,0(v0)
    227c:	0800083b 	j	20ec <OS_InterruptServiceRoutine+0x60>
    2280:	32220002 	andi	v0,s1,0x2
    2284:	0c000bd1 	jal	2f44 <add_pending_service>
    2288:	02402021 	move	a0,s2
    228c:	0800083a 	j	20e8 <OS_InterruptServiceRoutine+0x5c>
    2290:	00008021 	move	s0,zero

00002294 <send_task_real_time_change>:
    2294:	27bdffe0 	addiu	sp,sp,-32
    2298:	afbf0018 	sw	ra,24(sp)
    229c:	afb10014 	sw	s1,20(sp)
    22a0:	afb00010 	sw	s0,16(sp)
    22a4:	0c000a63 	jal	298c <get_service_header_slot>
    22a8:	00808821 	move	s1,a0
    22ac:	0c000a63 	jal	298c <get_service_header_slot>
    22b0:	00000000 	nop
    22b4:	00408021 	move	s0,v0
    22b8:	3c020005 	lui	v0,0x5
    22bc:	8c43906c 	lw	v1,-28564(v0)
    22c0:	24020280 	li	v0,640
    22c4:	ae03007c 	sw	v1,124(s0)
    22c8:	ae020084 	sw	v0,132(s0)
    22cc:	8e230080 	lw	v1,128(s1)
    22d0:	3c040001 	lui	a0,0x1
    22d4:	ae030088 	sw	v1,136(s0)
    22d8:	8e2500a0 	lw	a1,160(s1)
    22dc:	24848224 	addiu	a0,a0,-32220
    22e0:	8ca20020 	lw	v0,32(a1)
    22e4:	0c000901 	jal	2404 <puts>
    22e8:	ae0200ac 	sw	v0,172(s0)
    22ec:	8e0400ac 	lw	a0,172(s0)
    22f0:	0c00092c 	jal	24b0 <itoa>
    22f4:	00000000 	nop
    22f8:	0c000901 	jal	2404 <puts>
    22fc:	00402021 	move	a0,v0
    2300:	3c040001 	lui	a0,0x1
    2304:	0c000901 	jal	2404 <puts>
    2308:	24848594 	addiu	a0,a0,-31340
    230c:	02002021 	move	a0,s0
    2310:	8fbf0018 	lw	ra,24(sp)
    2314:	8fb10014 	lw	s1,20(sp)
    2318:	8fb00010 	lw	s0,16(sp)
    231c:	00002821 	move	a1,zero
    2320:	00003021 	move	a2,zero
    2324:	08000b31 	j	2cc4 <send_packet>
    2328:	27bd0020 	addiu	sp,sp,32

0000232c <send_task_terminated>:
    232c:	27bdffe0 	addiu	sp,sp,-32
    2330:	afb00010 	sw	s0,16(sp)
    2334:	00808021 	move	s0,a0
    2338:	afbf0018 	sw	ra,24(sp)
    233c:	0c000a63 	jal	298c <get_service_header_slot>
    2340:	afb10014 	sw	s1,20(sp)
    2344:	8e030094 	lw	v1,148(s0)
    2348:	24040070 	li	a0,112
    234c:	ac440084 	sw	a0,132(v0)
    2350:	ac43007c 	sw	v1,124(v0)
    2354:	3c110005 	lui	s1,0x5
    2358:	8e030080 	lw	v1,128(s0)
    235c:	8e24906c 	lw	a0,-28564(s1)
    2360:	00002821 	move	a1,zero
    2364:	ac430088 	sw	v1,136(v0)
    2368:	ac44008c 	sw	a0,140(v0)
    236c:	00003021 	move	a2,zero
    2370:	0c000b31 	jal	2cc4 <send_packet>
    2374:	00402021 	move	a0,v0
    2378:	8e030094 	lw	v1,148(s0)
    237c:	8e22906c 	lw	v0,-28564(s1)
    2380:	00000000 	nop
    2384:	10620013 	beq	v1,v0,23d4 <send_task_terminated+0xa8>
    2388:	00000000 	nop
    238c:	0c000a63 	jal	298c <get_service_header_slot>
    2390:	00000000 	nop
    2394:	8e23906c 	lw	v1,-28564(s1)
    2398:	24040180 	li	a0,384
    239c:	ac440084 	sw	a0,132(v0)
    23a0:	ac43007c 	sw	v1,124(v0)
    23a4:	8e030080 	lw	v1,128(s0)
    23a8:	00402021 	move	a0,v0
    23ac:	ac430088 	sw	v1,136(v0)
    23b0:	8e060094 	lw	a2,148(s0)
    23b4:	00002821 	move	a1,zero
    23b8:	ac46008c 	sw	a2,140(v0)
    23bc:	8fbf0018 	lw	ra,24(sp)
    23c0:	8fb10014 	lw	s1,20(sp)
    23c4:	8fb00010 	lw	s0,16(sp)
    23c8:	00003021 	move	a2,zero
    23cc:	08000b31 	j	2cc4 <send_packet>
    23d0:	27bd0020 	addiu	sp,sp,32
    23d4:	8fbf0018 	lw	ra,24(sp)
    23d8:	8fb10014 	lw	s1,20(sp)
    23dc:	8fb00010 	lw	s0,16(sp)
    23e0:	03e00008 	jr	ra
    23e4:	27bd0020 	addiu	sp,sp,32

000023e8 <set_net_address>:
    23e8:	3c020005 	lui	v0,0x5
    23ec:	03e00008 	jr	ra
    23f0:	ac449074 	sw	a0,-28556(v0)

000023f4 <get_net_address>:
    23f4:	3c030005 	lui	v1,0x5
    23f8:	8c629074 	lw	v0,-28556(v1)
    23fc:	03e00008 	jr	ra
    2400:	00000000 	nop

00002404 <puts>:
    2404:	8c820000 	lw	v0,0(a0)
    2408:	3c032000 	lui	v1,0x2000
    240c:	ac620000 	sw	v0,0(v1)
    2410:	00802821 	move	a1,a0
    2414:	80840000 	lb	a0,0(a0)
    2418:	00000000 	nop
    241c:	10800022 	beqz	a0,24a8 <puts+0xa4>
    2420:	00000000 	nop
    2424:	80a20001 	lb	v0,1(a1)
    2428:	00000000 	nop
    242c:	1040001e 	beqz	v0,24a8 <puts+0xa4>
    2430:	00000000 	nop
    2434:	80a20002 	lb	v0,2(a1)
    2438:	00000000 	nop
    243c:	1040001a 	beqz	v0,24a8 <puts+0xa4>
    2440:	00000000 	nop
    2444:	80a20003 	lb	v0,3(a1)
    2448:	00000000 	nop
    244c:	10400016 	beqz	v0,24a8 <puts+0xa4>
    2450:	3c042000 	lui	a0,0x2000
    2454:	08000923 	j	248c <puts+0x88>
    2458:	24a50004 	addiu	a1,a1,4
    245c:	80a20001 	lb	v0,1(a1)
    2460:	00000000 	nop
    2464:	10400010 	beqz	v0,24a8 <puts+0xa4>
    2468:	00000000 	nop
    246c:	80a20002 	lb	v0,2(a1)
    2470:	00000000 	nop
    2474:	1040000c 	beqz	v0,24a8 <puts+0xa4>
    2478:	00000000 	nop
    247c:	80a20003 	lb	v0,3(a1)
    2480:	00000000 	nop
    2484:	10400008 	beqz	v0,24a8 <puts+0xa4>
    2488:	24a50004 	addiu	a1,a1,4
    248c:	8ca20000 	lw	v0,0(a1)
    2490:	00000000 	nop
    2494:	ac820000 	sw	v0,0(a0)
    2498:	80a30000 	lb	v1,0(a1)
    249c:	00000000 	nop
    24a0:	1460ffee 	bnez	v1,245c <puts+0x58>
    24a4:	00000000 	nop
    24a8:	03e00008 	jr	ra
    24ac:	00001021 	move	v0,zero

000024b0 <itoa>:
    24b0:	14800009 	bnez	a0,24d8 <itoa+0x28>
    24b4:	00802821 	move	a1,a0
    24b8:	3c020005 	lui	v0,0x5
    24bc:	244490e4 	addiu	a0,v0,-28444
    24c0:	00802821 	move	a1,a0
    24c4:	24030030 	li	v1,48
    24c8:	a04390e4 	sb	v1,-28444(v0)
    24cc:	00a01021 	move	v0,a1
    24d0:	03e00008 	jr	ra
    24d4:	a0800001 	sb	zero,1(a0)
    24d8:	3c03cccc 	lui	v1,0xcccc
    24dc:	3463cccd 	ori	v1,v1,0xcccd
    24e0:	00830019 	multu	a0,v1
    24e4:	3c020005 	lui	v0,0x5
    24e8:	244690e5 	addiu	a2,v0,-28443
    24ec:	3c080005 	lui	t0,0x5
    24f0:	24070001 	li	a3,1
    24f4:	00001810 	mfhi	v1
    24f8:	000318c2 	srl	v1,v1,0x3
    24fc:	00031040 	sll	v0,v1,0x1
    2500:	000320c0 	sll	a0,v1,0x3
    2504:	00441021 	addu	v0,v0,a0
    2508:	00a21023 	subu	v0,a1,v0
    250c:	24420030 	addiu	v0,v0,48
    2510:	00602821 	move	a1,v1
    2514:	10a00013 	beqz	a1,2564 <itoa+0xb4>
    2518:	a10290e4 	sb	v0,-28444(t0)
    251c:	3c03cccc 	lui	v1,0xcccc
    2520:	3463cccd 	ori	v1,v1,0xcccd
    2524:	00a30019 	multu	a1,v1
    2528:	24e70001 	addiu	a3,a3,1
    252c:	00001810 	mfhi	v1
    2530:	000320c2 	srl	a0,v1,0x3
    2534:	00041040 	sll	v0,a0,0x1
    2538:	000418c0 	sll	v1,a0,0x3
    253c:	00431021 	addu	v0,v0,v1
    2540:	00a21023 	subu	v0,a1,v0
    2544:	24420030 	addiu	v0,v0,48
    2548:	a0c20000 	sb	v0,0(a2)
    254c:	2402000b 	li	v0,11
    2550:	10e2000d 	beq	a3,v0,2588 <itoa+0xd8>
    2554:	24c60001 	addiu	a2,a2,1
    2558:	00802821 	move	a1,a0
    255c:	14a0fff0 	bnez	a1,2520 <itoa+0x70>
    2560:	3c03cccc 	lui	v1,0xcccc
    2564:	3c040005 	lui	a0,0x5
    2568:	248290d8 	addiu	v0,a0,-28456
    256c:	00e21021 	addu	v0,a3,v0
    2570:	24e3ffff 	addiu	v1,a3,-1
    2574:	04610008 	bgez	v1,2598 <itoa+0xe8>
    2578:	a0400000 	sb	zero,0(v0)
    257c:	248590d8 	addiu	a1,a0,-28456
    2580:	03e00008 	jr	ra
    2584:	00a01021 	move	v0,a1
    2588:	3c040005 	lui	a0,0x5
    258c:	248290d8 	addiu	v0,a0,-28456
    2590:	2403000a 	li	v1,10
    2594:	a040000b 	sb	zero,11(v0)
    2598:	248290d8 	addiu	v0,a0,-28456
    259c:	00621821 	addu	v1,v1,v0
    25a0:	3c020005 	lui	v0,0x5
    25a4:	250590e4 	addiu	a1,t0,-28444
    25a8:	244690d7 	addiu	a2,v0,-28457
    25ac:	90a20000 	lbu	v0,0(a1)
    25b0:	00000000 	nop
    25b4:	a0620000 	sb	v0,0(v1)
    25b8:	2463ffff 	addiu	v1,v1,-1
    25bc:	1466fffb 	bne	v1,a2,25ac <itoa+0xfc>
    25c0:	24a50001 	addiu	a1,a1,1
    25c4:	08000960 	j	2580 <itoa+0xd0>
    25c8:	248590d8 	addiu	a1,a0,-28456

000025cc <itoh>:
    25cc:	3c080005 	lui	t0,0x5
    25d0:	250390cc 	addiu	v1,t0,-28468
    25d4:	24050030 	li	a1,48
    25d8:	24020078 	li	v0,120
    25dc:	a0620001 	sb	v0,1(v1)
    25e0:	a060000a 	sb	zero,10(v1)
    25e4:	1480000b 	bnez	a0,2614 <itoh+0x48>
    25e8:	a10590cc 	sb	a1,-28468(t0)
    25ec:	a0650009 	sb	a1,9(v1)
    25f0:	a0650002 	sb	a1,2(v1)
    25f4:	a0650003 	sb	a1,3(v1)
    25f8:	a0650004 	sb	a1,4(v1)
    25fc:	a0650005 	sb	a1,5(v1)
    2600:	a0650006 	sb	a1,6(v1)
    2604:	a0650007 	sb	a1,7(v1)
    2608:	a0650008 	sb	a1,8(v1)
    260c:	03e00008 	jr	ra
    2610:	250290cc 	addiu	v0,t0,-28468
    2614:	3c020005 	lui	v0,0x5
    2618:	3c030005 	lui	v1,0x5
    261c:	244790d5 	addiu	a3,v0,-28459
    2620:	0800098e 	j	2638 <itoh+0x6c>
    2624:	246390cd 	addiu	v1,v1,-28467
    2628:	a0e60000 	sb	a2,0(a3)
    262c:	24e7ffff 	addiu	a3,a3,-1
    2630:	10e3fff6 	beq	a3,v1,260c <itoh+0x40>
    2634:	00042102 	srl	a0,a0,0x4
    2638:	3082000f 	andi	v0,a0,0xf
    263c:	24460030 	addiu	a2,v0,48
    2640:	24450057 	addiu	a1,v0,87
    2644:	2c42000a 	sltiu	v0,v0,10
    2648:	1440fff7 	bnez	v0,2628 <itoh+0x5c>
    264c:	00000000 	nop
    2650:	0800098b 	j	262c <itoh+0x60>
    2654:	a0e50000 	sb	a1,0(a3)

00002658 <abs>:
    2658:	04800003 	bltz	a0,2668 <abs+0x10>
    265c:	00801021 	move	v0,a0
    2660:	03e00008 	jr	ra
    2664:	00000000 	nop
    2668:	03e00008 	jr	ra
    266c:	00041023 	negu	v0,a0

00002670 <rand>:
    2670:	30820001 	andi	v0,a0,0x1
    2674:	00021023 	negu	v0,v0
    2678:	3042b400 	andi	v0,v0,0xb400
    267c:	00042043 	sra	a0,a0,0x1
    2680:	00822026 	xor	a0,a0,v0
    2684:	14c00002 	bnez	a2,2690 <rand+0x20>
    2688:	0086001a 	div	zero,a0,a2
    268c:	0007000d 	break	0x7
    2690:	00001010 	mfhi	v0
    2694:	03e00008 	jr	ra
    2698:	00451021 	addu	v0,v0,a1

0000269c <add>:
    269c:	03e00008 	jr	ra
    26a0:	00851021 	addu	v0,a0,a1

000026a4 <sub>:
    26a4:	03e00008 	jr	ra
    26a8:	00851023 	subu	v0,a0,a1

000026ac <memset>:
    26ac:	18c00008 	blez	a2,26d0 <memset+0x24>
    26b0:	00801021 	move	v0,a0
    26b4:	30a500ff 	andi	a1,a1,0xff
    26b8:	00c43021 	addu	a2,a2,a0
    26bc:	00801821 	move	v1,a0
    26c0:	a0650000 	sb	a1,0(v1)
    26c4:	24630001 	addiu	v1,v1,1
    26c8:	1466fffd 	bne	v1,a2,26c0 <memset+0x14>
    26cc:	00000000 	nop
    26d0:	03e00008 	jr	ra
    26d4:	00000000 	nop

000026d8 <fixetoa>:
    26d8:	0480004b 	bltz	a0,2808 <fixetoa+0x130>
    26dc:	3c0b0005 	lui	t3,0x5
    26e0:	10800042 	beqz	a0,27ec <fixetoa+0x114>
    26e4:	3c020005 	lui	v0,0x5
    26e8:	3c0b0005 	lui	t3,0x5
    26ec:	00802821 	move	a1,a0
    26f0:	00003021 	move	a2,zero
    26f4:	080009c6 	j	2718 <fixetoa+0x40>
    26f8:	256790bc 	addiu	a3,t3,-28484
    26fc:	10400084 	beqz	v0,2910 <fixetoa+0x238>
    2700:	24020030 	li	v0,48
    2704:	a0e20000 	sb	v0,0(a3)
    2708:	24c60001 	addiu	a2,a2,1
    270c:	2402000c 	li	v0,12
    2710:	10c20015 	beq	a2,v0,2768 <fixetoa+0x90>
    2714:	24e70001 	addiu	a3,a3,1
    2718:	00051fc3 	sra	v1,a1,0x1f
    271c:	10a0fff7 	beqz	a1,26fc <fixetoa+0x24>
    2720:	28c20005 	slti	v0,a2,5
    2724:	3c026666 	lui	v0,0x6666
    2728:	34426667 	ori	v0,v0,0x6667
    272c:	00a20018 	mult	a1,v0
    2730:	24c60001 	addiu	a2,a2,1
    2734:	00001010 	mfhi	v0
    2738:	00021083 	sra	v0,v0,0x2
    273c:	00431023 	subu	v0,v0,v1
    2740:	00021840 	sll	v1,v0,0x1
    2744:	000220c0 	sll	a0,v0,0x3
    2748:	00641821 	addu	v1,v1,a0
    274c:	00a31823 	subu	v1,a1,v1
    2750:	24630030 	addiu	v1,v1,48
    2754:	00402821 	move	a1,v0
    2758:	2402000c 	li	v0,12
    275c:	a0e30000 	sb	v1,0(a3)
    2760:	14c2ffed 	bne	a2,v0,2718 <fixetoa+0x40>
    2764:	24e70001 	addiu	a3,a3,1
    2768:	3c090005 	lui	t1,0x5
    276c:	252290ac 	addiu	v0,t1,-28500
    2770:	2406000c 	li	a2,12
    2774:	a040000d 	sb	zero,13(v0)
    2778:	256790bc 	addiu	a3,t3,-28484
    277c:	00002821 	move	a1,zero
    2780:	252290ac 	addiu	v0,t1,-28500
    2784:	90e40000 	lbu	a0,0(a3)
    2788:	00c21821 	addu	v1,a2,v0
    278c:	24c6ffff 	addiu	a2,a2,-1
    2790:	24a50001 	addiu	a1,a1,1
    2794:	24e70001 	addiu	a3,a3,1
    2798:	00c24021 	addu	t0,a2,v0
    279c:	04c00010 	bltz	a2,27e0 <fixetoa+0x108>
    27a0:	a0640000 	sb	a0,0(v1)
    27a4:	24020004 	li	v0,4
    27a8:	14a2fff6 	bne	a1,v0,2784 <fixetoa+0xac>
    27ac:	252290ac 	addiu	v0,t1,-28500
    27b0:	2402002e 	li	v0,46
    27b4:	a1020000 	sb	v0,0(t0)
    27b8:	24c6ffff 	addiu	a2,a2,-1
    27bc:	252290ac 	addiu	v0,t1,-28500
    27c0:	90e40000 	lbu	a0,0(a3)
    27c4:	00c21821 	addu	v1,a2,v0
    27c8:	24c6ffff 	addiu	a2,a2,-1
    27cc:	24a50001 	addiu	a1,a1,1
    27d0:	24e70001 	addiu	a3,a3,1
    27d4:	00c24021 	addu	t0,a2,v0
    27d8:	04c1fff2 	bgez	a2,27a4 <fixetoa+0xcc>
    27dc:	a0640000 	sb	a0,0(v1)
    27e0:	252590ac 	addiu	a1,t1,-28500
    27e4:	03e00008 	jr	ra
    27e8:	00a01021 	move	v0,a1
    27ec:	244490bc 	addiu	a0,v0,-28484
    27f0:	00802821 	move	a1,a0
    27f4:	24030030 	li	v1,48
    27f8:	a04390bc 	sb	v1,-28484(v0)
    27fc:	00a01021 	move	v0,a1
    2800:	03e00008 	jr	ra
    2804:	a0800001 	sb	zero,1(a0)
    2808:	3c026666 	lui	v0,0x6666
    280c:	00042823 	negu	a1,a0
    2810:	344a6667 	ori	t2,v0,0x6667
    2814:	00003021 	move	a2,zero
    2818:	256790bc 	addiu	a3,t3,-28484
    281c:	24090030 	li	t1,48
    2820:	08000a10 	j	2840 <fixetoa+0x168>
    2824:	2408000c 	li	t0,12
    2828:	10400040 	beqz	v0,292c <fixetoa+0x254>
    282c:	00000000 	nop
    2830:	24c60001 	addiu	a2,a2,1
    2834:	a0e90000 	sb	t1,0(a3)
    2838:	10c80012 	beq	a2,t0,2884 <fixetoa+0x1ac>
    283c:	24e70001 	addiu	a3,a3,1
    2840:	00051fc3 	sra	v1,a1,0x1f
    2844:	10a0fff8 	beqz	a1,2828 <fixetoa+0x150>
    2848:	28c20005 	slti	v0,a2,5
    284c:	00aa0018 	mult	a1,t2
    2850:	24c60001 	addiu	a2,a2,1
    2854:	00001010 	mfhi	v0
    2858:	00021083 	sra	v0,v0,0x2
    285c:	00431023 	subu	v0,v0,v1
    2860:	00021840 	sll	v1,v0,0x1
    2864:	000220c0 	sll	a0,v0,0x3
    2868:	00641821 	addu	v1,v1,a0
    286c:	00a31823 	subu	v1,a1,v1
    2870:	24630030 	addiu	v1,v1,48
    2874:	a0e30000 	sb	v1,0(a3)
    2878:	00402821 	move	a1,v0
    287c:	14c8fff0 	bne	a2,t0,2840 <fixetoa+0x168>
    2880:	24e70001 	addiu	a3,a3,1
    2884:	3c090005 	lui	t1,0x5
    2888:	252290ac 	addiu	v0,t1,-28500
    288c:	a040000e 	sb	zero,14(v0)
    2890:	2405000d 	li	a1,13
    2894:	256790bc 	addiu	a3,t3,-28484
    2898:	00003021 	move	a2,zero
    289c:	252290ac 	addiu	v0,t1,-28500
    28a0:	90e40000 	lbu	a0,0(a3)
    28a4:	00a21821 	addu	v1,a1,v0
    28a8:	24a5ffff 	addiu	a1,a1,-1
    28ac:	24c60001 	addiu	a2,a2,1
    28b0:	24e70001 	addiu	a3,a3,1
    28b4:	00a24021 	addu	t0,a1,v0
    28b8:	04a00010 	bltz	a1,28fc <fixetoa+0x224>
    28bc:	a0640000 	sb	a0,0(v1)
    28c0:	24020004 	li	v0,4
    28c4:	14c2fff6 	bne	a2,v0,28a0 <fixetoa+0x1c8>
    28c8:	252290ac 	addiu	v0,t1,-28500
    28cc:	2402002e 	li	v0,46
    28d0:	a1020000 	sb	v0,0(t0)
    28d4:	24a5ffff 	addiu	a1,a1,-1
    28d8:	252290ac 	addiu	v0,t1,-28500
    28dc:	90e40000 	lbu	a0,0(a3)
    28e0:	00a21821 	addu	v1,a1,v0
    28e4:	24a5ffff 	addiu	a1,a1,-1
    28e8:	24c60001 	addiu	a2,a2,1
    28ec:	24e70001 	addiu	a3,a3,1
    28f0:	00a24021 	addu	t0,a1,v0
    28f4:	04a1fff2 	bgez	a1,28c0 <fixetoa+0x1e8>
    28f8:	a0640000 	sb	a0,0(v1)
    28fc:	252590ac 	addiu	a1,t1,-28500
    2900:	2402002d 	li	v0,45
    2904:	a12290ac 	sb	v0,-28500(t1)
    2908:	03e00008 	jr	ra
    290c:	00a01021 	move	v0,a1
    2910:	3c090005 	lui	t1,0x5
    2914:	252290ac 	addiu	v0,t1,-28500
    2918:	00c21021 	addu	v0,a2,v0
    291c:	04c1ff96 	bgez	a2,2778 <fixetoa+0xa0>
    2920:	a0400001 	sb	zero,1(v0)
    2924:	080009f9 	j	27e4 <fixetoa+0x10c>
    2928:	252590ac 	addiu	a1,t1,-28500
    292c:	3c090005 	lui	t1,0x5
    2930:	252290ac 	addiu	v0,t1,-28500
    2934:	00c21021 	addu	v0,a2,v0
    2938:	24c50001 	addiu	a1,a2,1
    293c:	04a1ffd5 	bgez	a1,2894 <fixetoa+0x1bc>
    2940:	a0400002 	sb	zero,2(v0)
    2944:	08000a40 	j	2900 <fixetoa+0x228>
    2948:	252590ac 	addiu	a1,t1,-28500

0000294c <strcpy>:
    294c:	00801821 	move	v1,a0
    2950:	80a20000 	lb	v0,0(a1)
    2954:	24a50001 	addiu	a1,a1,1
    2958:	a0620000 	sb	v0,0(v1)
    295c:	1440fffc 	bnez	v0,2950 <strcpy+0x4>
    2960:	24630001 	addiu	v1,v1,1
    2964:	03e00008 	jr	ra
    2968:	00801021 	move	v0,a0

0000296c <strlen>:
    296c:	00801821 	move	v1,a0
    2970:	80620000 	lb	v0,0(v1)
    2974:	00000000 	nop
    2978:	1440fffd 	bnez	v0,2970 <strlen+0x4>
    297c:	24630001 	addiu	v1,v1,1
    2980:	00641023 	subu	v0,v1,a0
    2984:	03e00008 	jr	ra
    2988:	2442ffff 	addiu	v0,v0,-1

0000298c <get_service_header_slot>:
    298c:	3c020005 	lui	v0,0x5
    2990:	244494ec 	addiu	a0,v0,-27412
    2994:	8c8200b0 	lw	v0,176(a0)
    2998:	3c030005 	lui	v1,0x5
    299c:	24639438 	addiu	v1,v1,-27592
    29a0:	10400007 	beqz	v0,29c0 <get_service_header_slot+0x34>
    29a4:	00802821 	move	a1,a0
    29a8:	24030001 	li	v1,1
    29ac:	3c020005 	lui	v0,0x5
    29b0:	ac4394e8 	sw	v1,-27416(v0)
    29b4:	00a01021 	move	v0,a1
    29b8:	03e00008 	jr	ra
    29bc:	ac8000b0 	sw	zero,176(a0)
    29c0:	24020001 	li	v0,1
    29c4:	00602821 	move	a1,v1
    29c8:	ac8200b0 	sw	v0,176(a0)
    29cc:	00a01021 	move	v0,a1
    29d0:	03e00008 	jr	ra
    29d4:	ac6000b0 	sw	zero,176(v1)

000029d8 <init_service_header_slots>:
    29d8:	24020001 	li	v0,1
    29dc:	3c030005 	lui	v1,0x5
    29e0:	3c040005 	lui	a0,0x5
    29e4:	ac6294e8 	sw	v0,-27416(v1)
    29e8:	03e00008 	jr	ra
    29ec:	ac82959c 	sw	v0,-27236(a0)

000029f0 <DMNI_send_data>:
    29f0:	3c062000 	lui	a2,0x2000
    29f4:	00804021 	move	t0,a0
    29f8:	00a03821 	move	a3,a1
    29fc:	34c30250 	ori	v1,a2,0x250
    2a00:	8c620000 	lw	v0,0(v1)
    2a04:	00000000 	nop
    2a08:	1440fffd 	bnez	v0,2a00 <DMNI_send_data+0x10>
    2a0c:	34c20200 	ori	v0,a2,0x200
    2a10:	ac470000 	sw	a3,0(v0)
    2a14:	34c50230 	ori	a1,a2,0x230
    2a18:	34c30220 	ori	v1,a2,0x220
    2a1c:	34c40210 	ori	a0,a2,0x210
    2a20:	24020001 	li	v0,1
    2a24:	ac600000 	sw	zero,0(v1)
    2a28:	ac880000 	sw	t0,0(a0)
    2a2c:	aca20000 	sw	v0,0(a1)
    2a30:	03e00008 	jr	ra
    2a34:	00000000 	nop

00002a38 <read_packet>:
    2a38:	3c022000 	lui	v0,0x2000
    2a3c:	24050001 	li	a1,1
    2a40:	34460200 	ori	a2,v0,0x200
    2a44:	34470220 	ori	a3,v0,0x220
    2a48:	24880078 	addiu	t0,a0,120
    2a4c:	34430210 	ori	v1,v0,0x210
    2a50:	27bdffe8 	addiu	sp,sp,-24
    2a54:	00806021 	move	t4,a0
    2a58:	344b0530 	ori	t3,v0,0x530
    2a5c:	34440230 	ori	a0,v0,0x230
    2a60:	344a0260 	ori	t2,v0,0x260
    2a64:	2402000d 	li	v0,13
    2a68:	afbf0010 	sw	ra,16(sp)
    2a6c:	24090001 	li	t1,1
    2a70:	acc20000 	sw	v0,0(a2)
    2a74:	ace50000 	sw	a1,0(a3)
    2a78:	ac680000 	sw	t0,0(v1)
    2a7c:	ac850000 	sw	a1,0(a0)
    2a80:	8d420000 	lw	v0,0(t2)
    2a84:	00000000 	nop
    2a88:	10400011 	beqz	v0,2ad0 <read_packet+0x98>
    2a8c:	24020001 	li	v0,1
    2a90:	8d620000 	lw	v0,0(t3)
    2a94:	00000000 	nop
    2a98:	1449fff9 	bne	v0,t1,2a80 <read_packet+0x48>
    2a9c:	00000000 	nop
    2aa0:	8d840078 	lw	a0,120(t4)
    2aa4:	0c000973 	jal	25cc <itoh>
    2aa8:	00000000 	nop
    2aac:	0c000901 	jal	2404 <puts>
    2ab0:	00402021 	move	a0,v0
    2ab4:	3c040001 	lui	a0,0x1
    2ab8:	0c000901 	jal	2404 <puts>
    2abc:	248482f8 	addiu	a0,a0,-32008
    2ac0:	8fbf0010 	lw	ra,16(sp)
    2ac4:	2402ffff 	li	v0,-1
    2ac8:	03e00008 	jr	ra
    2acc:	27bd0018 	addiu	sp,sp,24
    2ad0:	8fbf0010 	lw	ra,16(sp)
    2ad4:	00000000 	nop
    2ad8:	03e00008 	jr	ra
    2adc:	27bd0018 	addiu	sp,sp,24

00002ae0 <DMNI_read_data>:
    2ae0:	3c022000 	lui	v0,0x2000
    2ae4:	24090001 	li	t1,1
    2ae8:	27bdffe8 	addiu	sp,sp,-24
    2aec:	34430200 	ori	v1,v0,0x200
    2af0:	34460220 	ori	a2,v0,0x220
    2af4:	34470210 	ori	a3,v0,0x210
    2af8:	34480230 	ori	t0,v0,0x230
    2afc:	afbf0010 	sw	ra,16(sp)
    2b00:	344c0530 	ori	t4,v0,0x530
    2b04:	ac650000 	sw	a1,0(v1)
    2b08:	344b0260 	ori	t3,v0,0x260
    2b0c:	acc90000 	sw	t1,0(a2)
    2b10:	240a0001 	li	t2,1
    2b14:	ace40000 	sw	a0,0(a3)
    2b18:	ad090000 	sw	t1,0(t0)
    2b1c:	8d620000 	lw	v0,0(t3)
    2b20:	00000000 	nop
    2b24:	1040000b 	beqz	v0,2b54 <DMNI_read_data+0x74>
    2b28:	24020001 	li	v0,1
    2b2c:	8d820000 	lw	v0,0(t4)
    2b30:	00000000 	nop
    2b34:	144afff9 	bne	v0,t2,2b1c <DMNI_read_data+0x3c>
    2b38:	3c040001 	lui	a0,0x1
    2b3c:	0c000901 	jal	2404 <puts>
    2b40:	24848314 	addiu	a0,a0,-31980
    2b44:	8fbf0010 	lw	ra,16(sp)
    2b48:	2402ffff 	li	v0,-1
    2b4c:	03e00008 	jr	ra
    2b50:	27bd0018 	addiu	sp,sp,24
    2b54:	8fbf0010 	lw	ra,16(sp)
    2b58:	00000000 	nop
    2b5c:	03e00008 	jr	ra
    2b60:	27bd0018 	addiu	sp,sp,24

00002b64 <send_packet_io>:
    2b64:	27bdffd8 	addiu	sp,sp,-40
    2b68:	afb3001c 	sw	s3,28(sp)
    2b6c:	afb20018 	sw	s2,24(sp)
    2b70:	afb00010 	sw	s0,16(sp)
    2b74:	afbf0020 	sw	ra,32(sp)
    2b78:	afb10014 	sw	s1,20(sp)
    2b7c:	3c030005 	lui	v1,0x5
    2b80:	8c62902c 	lw	v0,-28628(v1)
    2b84:	00808021 	move	s0,a0
    2b88:	00a09821 	move	s3,a1
    2b8c:	10470006 	beq	v0,a3,2ba8 <send_packet_io+0x44>
    2b90:	00c09021 	move	s2,a2
    2b94:	3c040001 	lui	a0,0x1
    2b98:	0c000901 	jal	2404 <puts>
    2b9c:	24848330 	addiu	a0,a0,-31952
    2ba0:	08000ae8 	j	2ba0 <send_packet_io+0x3c>
    2ba4:	00000000 	nop
    2ba8:	2464902c 	addiu	a0,v1,-28628
    2bac:	8c82001c 	lw	v0,28(a0)
    2bb0:	00000000 	nop
    2bb4:	1440003b 	bnez	v0,2ca4 <send_packet_io+0x140>
    2bb8:	00000000 	nop
    2bbc:	8c820004 	lw	v0,4(a0)
    2bc0:	8c830008 	lw	v1,8(a0)
    2bc4:	00021200 	sll	v0,v0,0x8
    2bc8:	00431025 	or	v0,v0,v1
    2bcc:	ae02007c 	sw	v0,124(s0)
    2bd0:	8c91000c 	lw	s1,12(a0)
    2bd4:	2402ffff 	li	v0,-1
    2bd8:	1222ffee 	beq	s1,v0,2b94 <send_packet_io+0x30>
    2bdc:	2642000b 	addiu	v0,s2,11
    2be0:	ae020080 	sw	v0,128(s0)
    2be4:	0c0008fd 	jal	23f4 <get_net_address>
    2be8:	ae000098 	sw	zero,152(s0)
    2bec:	30433f00 	andi	v1,v0,0x3f00
    2bf0:	3044003f 	andi	a0,v0,0x3f
    2bf4:	00031882 	srl	v1,v1,0x2
    2bf8:	00641825 	or	v1,v1,a0
    2bfc:	8e05007c 	lw	a1,124(s0)
    2c00:	00031c00 	sll	v1,v1,0x10
    2c04:	00651825 	or	v1,v1,a1
    2c08:	00112700 	sll	a0,s1,0x1c
    2c0c:	00832025 	or	a0,a0,v1
    2c10:	3c072000 	lui	a3,0x2000
    2c14:	ae04007c 	sw	a0,124(s0)
    2c18:	ae020090 	sw	v0,144(s0)
    2c1c:	ae040078 	sw	a0,120(s0)
    2c20:	34e30250 	ori	v1,a3,0x250
    2c24:	8c620000 	lw	v0,0(v1)
    2c28:	00000000 	nop
    2c2c:	1440fffd 	bnez	v0,2c24 <send_packet_io+0xc0>
    2c30:	34e20300 	ori	v0,a3,0x300
    2c34:	8c430000 	lw	v1,0(v0)
    2c38:	34e40200 	ori	a0,a3,0x200
    2c3c:	26050078 	addiu	a1,s0,120
    2c40:	34e60210 	ori	a2,a3,0x210
    2c44:	2402000d 	li	v0,13
    2c48:	ae030094 	sw	v1,148(s0)
    2c4c:	ac820000 	sw	v0,0(a0)
    2c50:	acc50000 	sw	a1,0(a2)
    2c54:	12400004 	beqz	s2,2c68 <send_packet_io+0x104>
    2c58:	34e30215 	ori	v1,a3,0x215
    2c5c:	34e20205 	ori	v0,a3,0x205
    2c60:	ac520000 	sw	s2,0(v0)
    2c64:	ac730000 	sw	s3,0(v1)
    2c68:	34e20230 	ori	v0,a3,0x230
    2c6c:	34e30220 	ori	v1,a3,0x220
    2c70:	24070001 	li	a3,1
    2c74:	ac600000 	sw	zero,0(v1)
    2c78:	ac470000 	sw	a3,0(v0)
    2c7c:	02002021 	move	a0,s0
    2c80:	02602821 	move	a1,s3
    2c84:	02403021 	move	a2,s2
    2c88:	8fbf0020 	lw	ra,32(sp)
    2c8c:	8fb3001c 	lw	s3,28(sp)
    2c90:	8fb20018 	lw	s2,24(sp)
    2c94:	8fb10014 	lw	s1,20(sp)
    2c98:	8fb00010 	lw	s0,16(sp)
    2c9c:	08001999 	j	6664 <insert_CM_FIFO>
    2ca0:	27bd0028 	addiu	sp,sp,40
    2ca4:	8c820010 	lw	v0,16(a0)
    2ca8:	8c830014 	lw	v1,20(a0)
    2cac:	00021200 	sll	v0,v0,0x8
    2cb0:	00431025 	or	v0,v0,v1
    2cb4:	ae02007c 	sw	v0,124(s0)
    2cb8:	8c910018 	lw	s1,24(a0)
    2cbc:	08000af6 	j	2bd8 <send_packet_io+0x74>
    2cc0:	2402ffff 	li	v0,-1

00002cc4 <send_packet>:
    2cc4:	27bdffe0 	addiu	sp,sp,-32
    2cc8:	24c2000b 	addiu	v0,a2,11
    2ccc:	afbf001c 	sw	ra,28(sp)
    2cd0:	afb20018 	sw	s2,24(sp)
    2cd4:	afb10014 	sw	s1,20(sp)
    2cd8:	afb00010 	sw	s0,16(sp)
    2cdc:	00808021 	move	s0,a0
    2ce0:	ac820080 	sw	v0,128(a0)
    2ce4:	ac800098 	sw	zero,152(a0)
    2ce8:	00c08821 	move	s1,a2
    2cec:	0c0008fd 	jal	23f4 <get_net_address>
    2cf0:	00a09021 	move	s2,a1
    2cf4:	9604007e 	lhu	a0,126(s0)
    2cf8:	0c00175d 	jal	5d74 <SearchSourceRoutingDestination>
    2cfc:	ae020090 	sw	v0,144(s0)
    2d00:	00404021 	move	t0,v0
    2d04:	2402ffff 	li	v0,-1
    2d08:	1102004a 	beq	t0,v0,2e34 <send_packet+0x170>
    2d0c:	00081900 	sll	v1,t0,0x4
    2d10:	00081080 	sll	v0,t0,0x2
    2d14:	00431021 	addu	v0,v0,v1
    2d18:	000220c0 	sll	a0,v0,0x3
    2d1c:	00822023 	subu	a0,a0,v0
    2d20:	3c020005 	lui	v0,0x5
    2d24:	8e050090 	lw	a1,144(s0)
    2d28:	2442b0fc 	addiu	v0,v0,-20228
    2d2c:	00823821 	addu	a3,a0,v0
    2d30:	8ce60088 	lw	a2,136(a3)
    2d34:	30a33f00 	andi	v1,a1,0x3f00
    2d38:	00031882 	srl	v1,v1,0x2
    2d3c:	30a5003f 	andi	a1,a1,0x3f
    2d40:	2402001f 	li	v0,31
    2d44:	8e04007c 	lw	a0,124(s0)
    2d48:	00651825 	or	v1,v1,a1
    2d4c:	00461023 	subu	v0,v0,a2
    2d50:	00021080 	sll	v0,v0,0x2
    2d54:	00031c00 	sll	v1,v1,0x10
    2d58:	00641825 	or	v1,v1,a0
    2d5c:	00501021 	addu	v0,v0,s0
    2d60:	10c0000d 	beqz	a2,2d98 <send_packet+0xd4>
    2d64:	ac430000 	sw	v1,0(v0)
    2d68:	00e02021 	move	a0,a3
    2d6c:	00002821 	move	a1,zero
    2d70:	00001021 	move	v0,zero
    2d74:	00461023 	subu	v0,v0,a2
    2d78:	8c830000 	lw	v1,0(a0)
    2d7c:	00021080 	sll	v0,v0,0x2
    2d80:	00501021 	addu	v0,v0,s0
    2d84:	24a50001 	addiu	a1,a1,1
    2d88:	ac430080 	sw	v1,128(v0)
    2d8c:	24840004 	addiu	a0,a0,4
    2d90:	14c5fff8 	bne	a2,a1,2d74 <send_packet+0xb0>
    2d94:	00a01021 	move	v0,a1
    2d98:	24040001 	li	a0,1
    2d9c:	3c062000 	lui	a2,0x2000
    2da0:	34c20250 	ori	v0,a2,0x250
    2da4:	8c430000 	lw	v1,0(v0)
    2da8:	00000000 	nop
    2dac:	1460fffd 	bnez	v1,2da4 <send_packet+0xe0>
    2db0:	00000000 	nop
    2db4:	34c20300 	ori	v0,a2,0x300
    2db8:	8c430000 	lw	v1,0(v0)
    2dbc:	24020001 	li	v0,1
    2dc0:	10820028 	beq	a0,v0,2e64 <send_packet+0x1a0>
    2dc4:	ae030094 	sw	v1,148(s0)
    2dc8:	34c50210 	ori	a1,a2,0x210
    2dcc:	34c30200 	ori	v1,a2,0x200
    2dd0:	26040078 	addiu	a0,s0,120
    2dd4:	2402000d 	li	v0,13
    2dd8:	ac620000 	sw	v0,0(v1)
    2ddc:	aca40000 	sw	a0,0(a1)
    2de0:	12200005 	beqz	s1,2df8 <send_packet+0x134>
    2de4:	3c022000 	lui	v0,0x2000
    2de8:	34430215 	ori	v1,v0,0x215
    2dec:	34420205 	ori	v0,v0,0x205
    2df0:	ac510000 	sw	s1,0(v0)
    2df4:	ac720000 	sw	s2,0(v1)
    2df8:	3c022000 	lui	v0,0x2000
    2dfc:	34470230 	ori	a3,v0,0x230
    2e00:	24030001 	li	v1,1
    2e04:	34420220 	ori	v0,v0,0x220
    2e08:	ac400000 	sw	zero,0(v0)
    2e0c:	ace30000 	sw	v1,0(a3)
    2e10:	02002021 	move	a0,s0
    2e14:	02402821 	move	a1,s2
    2e18:	02203021 	move	a2,s1
    2e1c:	8fbf001c 	lw	ra,28(sp)
    2e20:	8fb20018 	lw	s2,24(sp)
    2e24:	8fb10014 	lw	s1,20(sp)
    2e28:	8fb00010 	lw	s0,16(sp)
    2e2c:	08001999 	j	6664 <insert_CM_FIFO>
    2e30:	27bd0020 	addiu	sp,sp,32
    2e34:	8e020090 	lw	v0,144(s0)
    2e38:	8e04007c 	lw	a0,124(s0)
    2e3c:	30433f00 	andi	v1,v0,0x3f00
    2e40:	00031882 	srl	v1,v1,0x2
    2e44:	3042003f 	andi	v0,v0,0x3f
    2e48:	00621825 	or	v1,v1,v0
    2e4c:	00031c00 	sll	v1,v1,0x10
    2e50:	00641825 	or	v1,v1,a0
    2e54:	00002021 	move	a0,zero
    2e58:	ae03007c 	sw	v1,124(s0)
    2e5c:	08000b67 	j	2d9c <send_packet+0xd8>
    2e60:	ae030078 	sw	v1,120(s0)
    2e64:	00081100 	sll	v0,t0,0x4
    2e68:	00081880 	sll	v1,t0,0x2
    2e6c:	00621821 	addu	v1,v1,v0
    2e70:	000320c0 	sll	a0,v1,0x3
    2e74:	3c020005 	lui	v0,0x5
    2e78:	00832023 	subu	a0,a0,v1
    2e7c:	2442b0fc 	addiu	v0,v0,-20228
    2e80:	00822021 	addu	a0,a0,v0
    2e84:	8c850088 	lw	a1,136(a0)
    2e88:	2402001f 	li	v0,31
    2e8c:	00451023 	subu	v0,v0,a1
    2e90:	00021080 	sll	v0,v0,0x2
    2e94:	02021021 	addu	v0,s0,v0
    2e98:	34c40210 	ori	a0,a2,0x210
    2e9c:	24a5000c 	addiu	a1,a1,12
    2ea0:	34c30200 	ori	v1,a2,0x200
    2ea4:	ac650000 	sw	a1,0(v1)
    2ea8:	ac820000 	sw	v0,0(a0)
    2eac:	08000b78 	j	2de0 <send_packet+0x11c>
    2eb0:	00000000 	nop

00002eb4 <get_next_pending_service>:
    2eb4:	3c050005 	lui	a1,0x5
    2eb8:	8ca490f4 	lw	a0,-28428(a1)
    2ebc:	3c020005 	lui	v0,0x5
    2ec0:	00041880 	sll	v1,a0,0x2
    2ec4:	8c4690f8 	lw	a2,-28424(v0)
    2ec8:	00041100 	sll	v0,a0,0x4
    2ecc:	00431023 	subu	v0,v0,v1
    2ed0:	00441023 	subu	v0,v0,a0
    2ed4:	3c030005 	lui	v1,0x5
    2ed8:	00021100 	sll	v0,v0,0x4
    2edc:	246395a0 	addiu	v1,v1,-27232
    2ee0:	3c080005 	lui	t0,0x5
    2ee4:	10860011 	beq	a0,a2,2f2c <get_next_pending_service+0x78>
    2ee8:	00433821 	addu	a3,v0,v1
    2eec:	3c080005 	lui	t0,0x5
    2ef0:	24020013 	li	v0,19
    2ef4:	1082000b 	beq	a0,v0,2f24 <get_next_pending_service+0x70>
    2ef8:	24830001 	addiu	v1,a0,1
    2efc:	aca390f4 	sw	v1,-28428(a1)
    2f00:	8ca290f4 	lw	v0,-28428(a1)
    2f04:	00000000 	nop
    2f08:	14c20004 	bne	a2,v0,2f1c <get_next_pending_service+0x68>
    2f0c:	a10090fc 	sb	zero,-28420(t0)
    2f10:	3c022000 	lui	v0,0x2000
    2f14:	34420400 	ori	v0,v0,0x400
    2f18:	ac400000 	sw	zero,0(v0)
    2f1c:	03e00008 	jr	ra
    2f20:	00e01021 	move	v0,a3
    2f24:	08000bc0 	j	2f00 <get_next_pending_service+0x4c>
    2f28:	aca090f4 	sw	zero,-28428(a1)
    2f2c:	910290fc 	lbu	v0,-28420(t0)
    2f30:	00000000 	nop
    2f34:	1440ffee 	bnez	v0,2ef0 <get_next_pending_service+0x3c>
    2f38:	00000000 	nop
    2f3c:	08000bc7 	j	2f1c <get_next_pending_service+0x68>
    2f40:	00003821 	move	a3,zero

00002f44 <add_pending_service>:
    2f44:	27bdffe8 	addiu	sp,sp,-24
    2f48:	afbf0010 	sw	ra,16(sp)
    2f4c:	3c0a0005 	lui	t2,0x5
    2f50:	3c020005 	lui	v0,0x5
    2f54:	8c4390f4 	lw	v1,-28428(v0)
    2f58:	8d4590f8 	lw	a1,-28424(t2)
    2f5c:	00000000 	nop
    2f60:	10650026 	beq	v1,a1,2ffc <add_pending_service+0xb8>
    2f64:	3c090005 	lui	t1,0x5
    2f68:	00051080 	sll	v0,a1,0x2
    2f6c:	00051900 	sll	v1,a1,0x4
    2f70:	00621823 	subu	v1,v1,v0
    2f74:	00651823 	subu	v1,v1,a1
    2f78:	3c020005 	lui	v0,0x5
    2f7c:	00031900 	sll	v1,v1,0x4
    2f80:	244295a0 	addiu	v0,v0,-27232
    2f84:	00803021 	move	a2,a0
    2f88:	00623821 	addu	a3,v1,v0
    2f8c:	248800b0 	addiu	t0,a0,176
    2f90:	8cc20000 	lw	v0,0(a2)
    2f94:	8cc30004 	lw	v1,4(a2)
    2f98:	8cc40008 	lw	a0,8(a2)
    2f9c:	8cc5000c 	lw	a1,12(a2)
    2fa0:	24c60010 	addiu	a2,a2,16
    2fa4:	ace20000 	sw	v0,0(a3)
    2fa8:	ace30004 	sw	v1,4(a3)
    2fac:	ace40008 	sw	a0,8(a3)
    2fb0:	ace5000c 	sw	a1,12(a3)
    2fb4:	14c8fff6 	bne	a2,t0,2f90 <add_pending_service+0x4c>
    2fb8:	24e70010 	addiu	a3,a3,16
    2fbc:	8d4390f8 	lw	v1,-28424(t2)
    2fc0:	24020013 	li	v0,19
    2fc4:	10620016 	beq	v1,v0,3020 <add_pending_service+0xdc>
    2fc8:	3c040005 	lui	a0,0x5
    2fcc:	24620001 	addiu	v0,v1,1
    2fd0:	ac8290f8 	sw	v0,-28424(a0)
    2fd4:	24020001 	li	v0,1
    2fd8:	a12290fc 	sb	v0,-28420(t1)
    2fdc:	3c022000 	lui	v0,0x2000
    2fe0:	34420400 	ori	v0,v0,0x400
    2fe4:	24030001 	li	v1,1
    2fe8:	ac430000 	sw	v1,0(v0)
    2fec:	8fbf0010 	lw	ra,16(sp)
    2ff0:	24020001 	li	v0,1
    2ff4:	03e00008 	jr	ra
    2ff8:	27bd0018 	addiu	sp,sp,24
    2ffc:	912390fc 	lbu	v1,-28420(t1)
    3000:	24020001 	li	v0,1
    3004:	1462ffd9 	bne	v1,v0,2f6c <add_pending_service+0x28>
    3008:	00051080 	sll	v0,a1,0x2
    300c:	3c040001 	lui	a0,0x1
    3010:	0c000901 	jal	2404 <puts>
    3014:	2484834c 	addiu	a0,a0,-31924
    3018:	08000c06 	j	3018 <add_pending_service+0xd4>
    301c:	00000000 	nop
    3020:	24020001 	li	v0,1
    3024:	a12290fc 	sb	v0,-28420(t1)
    3028:	3c022000 	lui	v0,0x2000
    302c:	34420400 	ori	v0,v0,0x400
    3030:	24030001 	li	v1,1
    3034:	ac8090f8 	sw	zero,-28424(a0)
    3038:	ac430000 	sw	v1,0(v0)
    303c:	8fbf0010 	lw	ra,16(sp)
    3040:	24020001 	li	v0,1
    3044:	03e00008 	jr	ra
    3048:	27bd0018 	addiu	sp,sp,24

0000304c <init_communication>:
    304c:	3c040005 	lui	a0,0x5
    3050:	3c020005 	lui	v0,0x5
    3054:	2442a360 	addiu	v0,v0,-23712
    3058:	2403ffff 	li	v1,-1
    305c:	2485b000 	addiu	a1,a0,-20480
    3060:	aca30008 	sw	v1,8(a1)
    3064:	a0400c70 	sb	zero,3184(v0)
    3068:	ac83b000 	sw	v1,-20480(a0)
    306c:	a040020c 	sb	zero,524(v0)
    3070:	a0400420 	sb	zero,1056(v0)
    3074:	a0400634 	sb	zero,1588(v0)
    3078:	a0400848 	sb	zero,2120(v0)
    307c:	a0400a5c 	sb	zero,2652(v0)
    3080:	03e00008 	jr	ra
    3084:	aca30004 	sw	v1,4(a1)

00003088 <initFTStructs>:
    3088:	3c030005 	lui	v1,0x5
    308c:	2462afd8 	addiu	v0,v1,-20520
    3090:	a060afd8 	sb	zero,-20520(v1)
    3094:	ac400024 	sw	zero,36(v0)
    3098:	ac400010 	sw	zero,16(v0)
    309c:	03e00008 	jr	ra
    30a0:	a0400014 	sb	zero,20(v0)

000030a4 <update_msg_request_migration>:
    30a4:	3c020005 	lui	v0,0x5
    30a8:	8043afd8 	lb	v1,-20520(v0)
    30ac:	00000000 	nop
    30b0:	10600005 	beqz	v1,30c8 <update_msg_request_migration+0x24>
    30b4:	2446afd8 	addiu	a2,v0,-20520
    30b8:	8cc20008 	lw	v0,8(a2)
    30bc:	00000000 	nop
    30c0:	1044000d 	beq	v0,a0,30f8 <update_msg_request_migration+0x54>
    30c4:	00000000 	nop
    30c8:	80c20014 	lb	v0,20(a2)
    30cc:	00000000 	nop
    30d0:	10400005 	beqz	v0,30e8 <update_msg_request_migration+0x44>
    30d4:	00000000 	nop
    30d8:	8cc2001c 	lw	v0,28(a2)
    30dc:	00000000 	nop
    30e0:	10440003 	beq	v0,a0,30f0 <update_msg_request_migration+0x4c>
    30e4:	00000000 	nop
    30e8:	03e00008 	jr	ra
    30ec:	00000000 	nop
    30f0:	03e00008 	jr	ra
    30f4:	acc50018 	sw	a1,24(a2)
    30f8:	08000c32 	j	30c8 <update_msg_request_migration+0x24>
    30fc:	acc50004 	sw	a1,4(a2)

00003100 <search_PIPE_producer>:
    3100:	3c020005 	lui	v0,0x5
    3104:	3c030005 	lui	v1,0x5
    3108:	2445a56c 	addiu	a1,v0,-23188
    310c:	2463b1e4 	addiu	v1,v1,-19996
    3110:	00003821 	move	a3,zero
    3114:	08000c4a 	j	3128 <search_PIPE_producer+0x28>
    3118:	24060002 	li	a2,2
    311c:	24a50214 	addiu	a1,a1,532
    3120:	10a3000c 	beq	a1,v1,3154 <search_PIPE_producer+0x54>
    3124:	00000000 	nop
    3128:	80a20000 	lb	v0,0(a1)
    312c:	00000000 	nop
    3130:	1446fffa 	bne	v0,a2,311c <search_PIPE_producer+0x1c>
    3134:	00000000 	nop
    3138:	8ca2fdf4 	lw	v0,-524(a1)
    313c:	00000000 	nop
    3140:	1444fff6 	bne	v0,a0,311c <search_PIPE_producer+0x1c>
    3144:	00000000 	nop
    3148:	24a50214 	addiu	a1,a1,532
    314c:	14a3fff6 	bne	a1,v1,3128 <search_PIPE_producer+0x28>
    3150:	24e70001 	addiu	a3,a3,1
    3154:	03e00008 	jr	ra
    3158:	00e01021 	move	v0,a3

0000315c <PIPE_msg_number>:
    315c:	3c020005 	lui	v0,0x5
    3160:	3c030005 	lui	v1,0x5
    3164:	2444a56c 	addiu	a0,v0,-23188
    3168:	2463b1e4 	addiu	v1,v1,-19996
    316c:	00002821 	move	a1,zero
    3170:	24060002 	li	a2,2
    3174:	80820000 	lb	v0,0(a0)
    3178:	00000000 	nop
    317c:	10460005 	beq	v0,a2,3194 <PIPE_msg_number+0x38>
    3180:	24840214 	addiu	a0,a0,532
    3184:	1483fffb 	bne	a0,v1,3174 <PIPE_msg_number+0x18>
    3188:	00000000 	nop
    318c:	03e00008 	jr	ra
    3190:	00a01021 	move	v0,a1
    3194:	1483fff7 	bne	a0,v1,3174 <PIPE_msg_number+0x18>
    3198:	24a50001 	addiu	a1,a1,1
    319c:	08000c63 	j	318c <PIPE_msg_number+0x30>
    31a0:	00000000 	nop

000031a4 <remove_PIPE>:
    31a4:	3c080005 	lui	t0,0x5
    31a8:	8d039000 	lw	v1,-28672(t0)
    31ac:	24020006 	li	v0,6
    31b0:	14620004 	bne	v1,v0,31c4 <remove_PIPE+0x20>
    31b4:	3c090005 	lui	t1,0x5
    31b8:	00003021 	move	a2,zero
    31bc:	03e00008 	jr	ra
    31c0:	00c01021 	move	v0,a2
    31c4:	3c020005 	lui	v0,0x5
    31c8:	2447afd8 	addiu	a3,v0,-20520
    31cc:	2523a360 	addiu	v1,t1,-23712
    31d0:	08000c79 	j	31e4 <remove_PIPE+0x40>
    31d4:	24060003 	li	a2,3
    31d8:	24630214 	addiu	v1,v1,532
    31dc:	10670013 	beq	v1,a3,322c <remove_PIPE+0x88>
    31e0:	3c020005 	lui	v0,0x5
    31e4:	8062020c 	lb	v0,524(v1)
    31e8:	00000000 	nop
    31ec:	1446fffa 	bne	v0,a2,31d8 <remove_PIPE+0x34>
    31f0:	00000000 	nop
    31f4:	8c620000 	lw	v0,0(v1)
    31f8:	00000000 	nop
    31fc:	1482fff6 	bne	a0,v0,31d8 <remove_PIPE+0x34>
    3200:	00000000 	nop
    3204:	8c620004 	lw	v0,4(v1)
    3208:	00000000 	nop
    320c:	14a2fff3 	bne	a1,v0,31dc <remove_PIPE+0x38>
    3210:	24630214 	addiu	v1,v1,532
    3214:	2463fdec 	addiu	v1,v1,-532
    3218:	8d029000 	lw	v0,-28672(t0)
    321c:	a060020c 	sb	zero,524(v1)
    3220:	24420001 	addiu	v0,v0,1
    3224:	ad029000 	sw	v0,-28672(t0)
    3228:	3c020005 	lui	v0,0x5
    322c:	2523a360 	addiu	v1,t1,-23712
    3230:	2447afd8 	addiu	a3,v0,-20520
    3234:	00004821 	move	t1,zero
    3238:	240affff 	li	t2,-1
    323c:	08000c94 	j	3250 <remove_PIPE+0xac>
    3240:	24060002 	li	a2,2
    3244:	24630214 	addiu	v1,v1,532
    3248:	10670015 	beq	v1,a3,32a0 <remove_PIPE+0xfc>
    324c:	00000000 	nop
    3250:	8062020c 	lb	v0,524(v1)
    3254:	00000000 	nop
    3258:	1446fffa 	bne	v0,a2,3244 <remove_PIPE+0xa0>
    325c:	00000000 	nop
    3260:	8c620000 	lw	v0,0(v1)
    3264:	00000000 	nop
    3268:	1482fff6 	bne	a0,v0,3244 <remove_PIPE+0xa0>
    326c:	00000000 	nop
    3270:	8c620004 	lw	v0,4(v1)
    3274:	00000000 	nop
    3278:	14a2fff2 	bne	a1,v0,3244 <remove_PIPE+0xa0>
    327c:	00000000 	nop
    3280:	8c680210 	lw	t0,528(v1)
    3284:	00000000 	nop
    3288:	010a102b 	sltu	v0,t0,t2
    328c:	1040ffed 	beqz	v0,3244 <remove_PIPE+0xa0>
    3290:	00000000 	nop
    3294:	01005021 	move	t2,t0
    3298:	08000c91 	j	3244 <remove_PIPE+0xa0>
    329c:	00604821 	move	t1,v1
    32a0:	1120ffc6 	beqz	t1,31bc <remove_PIPE+0x18>
    32a4:	01203021 	move	a2,t1
    32a8:	30a2ffff 	andi	v0,a1,0xffff
    32ac:	00042400 	sll	a0,a0,0x10
    32b0:	00822025 	or	a0,a0,v0
    32b4:	3c022000 	lui	v0,0x2000
    32b8:	24030003 	li	v1,3
    32bc:	34420285 	ori	v0,v0,0x285
    32c0:	a123020c 	sb	v1,524(t1)
    32c4:	ac440000 	sw	a0,0(v0)
    32c8:	03e00008 	jr	ra
    32cc:	00c01021 	move	v0,a2

000032d0 <remove_PIPE_by_producer>:
    32d0:	3c070005 	lui	a3,0x5
    32d4:	8ce39000 	lw	v1,-28672(a3)
    32d8:	24020006 	li	v0,6
    32dc:	14620004 	bne	v1,v0,32f0 <remove_PIPE_by_producer+0x20>
    32e0:	3c080005 	lui	t0,0x5
    32e4:	00001821 	move	v1,zero
    32e8:	03e00008 	jr	ra
    32ec:	00601021 	move	v0,v1
    32f0:	3c020005 	lui	v0,0x5
    32f4:	2446afd8 	addiu	a2,v0,-20520
    32f8:	2503a360 	addiu	v1,t0,-23712
    32fc:	08000cc4 	j	3310 <remove_PIPE_by_producer+0x40>
    3300:	24050003 	li	a1,3
    3304:	24630214 	addiu	v1,v1,532
    3308:	1066000f 	beq	v1,a2,3348 <remove_PIPE_by_producer+0x78>
    330c:	3c020005 	lui	v0,0x5
    3310:	8062020c 	lb	v0,524(v1)
    3314:	00000000 	nop
    3318:	1445fffa 	bne	v0,a1,3304 <remove_PIPE_by_producer+0x34>
    331c:	00000000 	nop
    3320:	8c620000 	lw	v0,0(v1)
    3324:	00000000 	nop
    3328:	1482fff7 	bne	a0,v0,3308 <remove_PIPE_by_producer+0x38>
    332c:	24630214 	addiu	v1,v1,532
    3330:	2463fdec 	addiu	v1,v1,-532
    3334:	8ce29000 	lw	v0,-28672(a3)
    3338:	a060020c 	sb	zero,524(v1)
    333c:	24420001 	addiu	v0,v0,1
    3340:	ace29000 	sw	v0,-28672(a3)
    3344:	3c020005 	lui	v0,0x5
    3348:	2503a360 	addiu	v1,t0,-23712
    334c:	2447afd8 	addiu	a3,v0,-20520
    3350:	00004021 	move	t0,zero
    3354:	2409ffff 	li	t1,-1
    3358:	08000cdb 	j	336c <remove_PIPE_by_producer+0x9c>
    335c:	24060002 	li	a2,2
    3360:	24630214 	addiu	v1,v1,532
    3364:	10670011 	beq	v1,a3,33ac <remove_PIPE_by_producer+0xdc>
    3368:	00000000 	nop
    336c:	8062020c 	lb	v0,524(v1)
    3370:	00000000 	nop
    3374:	1446fffa 	bne	v0,a2,3360 <remove_PIPE_by_producer+0x90>
    3378:	00000000 	nop
    337c:	8c620000 	lw	v0,0(v1)
    3380:	00000000 	nop
    3384:	1444fff6 	bne	v0,a0,3360 <remove_PIPE_by_producer+0x90>
    3388:	00000000 	nop
    338c:	8c650210 	lw	a1,528(v1)
    3390:	00000000 	nop
    3394:	00a9102b 	sltu	v0,a1,t1
    3398:	1040fff1 	beqz	v0,3360 <remove_PIPE_by_producer+0x90>
    339c:	00000000 	nop
    33a0:	00a04821 	move	t1,a1
    33a4:	08000cd8 	j	3360 <remove_PIPE_by_producer+0x90>
    33a8:	00604021 	move	t0,v1
    33ac:	1100ffce 	beqz	t0,32e8 <remove_PIPE_by_producer+0x18>
    33b0:	01001821 	move	v1,t0
    33b4:	24020003 	li	v0,3
    33b8:	a102020c 	sb	v0,524(t0)
    33bc:	03e00008 	jr	ra
    33c0:	00601021 	move	v0,v1

000033c4 <get_PIPE_free_position>:
    33c4:	3c020005 	lui	v0,0x5
    33c8:	3c030005 	lui	v1,0x5
    33cc:	2445a56c 	addiu	a1,v0,-23188
    33d0:	2463a360 	addiu	v1,v1,-23712
    33d4:	00002021 	move	a0,zero
    33d8:	24060006 	li	a2,6
    33dc:	80a20000 	lb	v0,0(a1)
    33e0:	24840001 	addiu	a0,a0,1
    33e4:	10400005 	beqz	v0,33fc <get_PIPE_free_position+0x38>
    33e8:	24a50214 	addiu	a1,a1,532
    33ec:	1486fffb 	bne	a0,a2,33dc <get_PIPE_free_position+0x18>
    33f0:	24630214 	addiu	v1,v1,532
    33f4:	03e00008 	jr	ra
    33f8:	00001021 	move	v0,zero
    33fc:	03e00008 	jr	ra
    3400:	00601021 	move	v0,v1

00003404 <add_PIPE>:
    3404:	27bdffd8 	addiu	sp,sp,-40
    3408:	afb00010 	sw	s0,16(sp)
    340c:	3c100005 	lui	s0,0x5
    3410:	8e029000 	lw	v0,-28672(s0)
    3414:	afb3001c 	sw	s3,28(sp)
    3418:	afb20018 	sw	s2,24(sp)
    341c:	afb10014 	sw	s1,20(sp)
    3420:	afbf0024 	sw	ra,36(sp)
    3424:	afb40020 	sw	s4,32(sp)
    3428:	00809021 	move	s2,a0
    342c:	00a09821 	move	s3,a1
    3430:	1440000b 	bnez	v0,3460 <add_PIPE+0x5c>
    3434:	00c08821 	move	s1,a2
    3438:	00003821 	move	a3,zero
    343c:	8fbf0024 	lw	ra,36(sp)
    3440:	8fb40020 	lw	s4,32(sp)
    3444:	8fb3001c 	lw	s3,28(sp)
    3448:	8fb20018 	lw	s2,24(sp)
    344c:	8fb10014 	lw	s1,20(sp)
    3450:	8fb00010 	lw	s0,16(sp)
    3454:	00e01021 	move	v0,a3
    3458:	03e00008 	jr	ra
    345c:	27bd0028 	addiu	sp,sp,40
    3460:	3c020005 	lui	v0,0x5
    3464:	3c030005 	lui	v1,0x5
    3468:	2444a56c 	addiu	a0,v0,-23188
    346c:	2463b1e4 	addiu	v1,v1,-19996
    3470:	0000a021 	move	s4,zero
    3474:	00003821 	move	a3,zero
    3478:	08000d23 	j	348c <add_PIPE+0x88>
    347c:	24060002 	li	a2,2
    3480:	24840214 	addiu	a0,a0,532
    3484:	10830014 	beq	a0,v1,34d8 <add_PIPE+0xd4>
    3488:	24020006 	li	v0,6
    348c:	80820000 	lb	v0,0(a0)
    3490:	00000000 	nop
    3494:	1446fffa 	bne	v0,a2,3480 <add_PIPE+0x7c>
    3498:	00000000 	nop
    349c:	8c82fdf4 	lw	v0,-524(a0)
    34a0:	00000000 	nop
    34a4:	1642fff6 	bne	s2,v0,3480 <add_PIPE+0x7c>
    34a8:	24e50001 	addiu	a1,a3,1
    34ac:	8c82fdf8 	lw	v0,-520(a0)
    34b0:	00000000 	nop
    34b4:	1662fff2 	bne	s3,v0,3480 <add_PIPE+0x7c>
    34b8:	30a700ff 	andi	a3,a1,0xff
    34bc:	8c850004 	lw	a1,4(a0)
    34c0:	00000000 	nop
    34c4:	0285102b 	sltu	v0,s4,a1
    34c8:	1040ffed 	beqz	v0,3480 <add_PIPE+0x7c>
    34cc:	00000000 	nop
    34d0:	08000d20 	j	3480 <add_PIPE+0x7c>
    34d4:	00a0a021 	move	s4,a1
    34d8:	10e2ffd8 	beq	a3,v0,343c <add_PIPE+0x38>
    34dc:	00003821 	move	a3,zero
    34e0:	0c000cf1 	jal	33c4 <get_PIPE_free_position>
    34e4:	00000000 	nop
    34e8:	1040ffd4 	beqz	v0,343c <add_PIPE+0x38>
    34ec:	00403821 	move	a3,v0
    34f0:	ac520000 	sw	s2,0(v0)
    34f4:	ac530004 	sw	s3,4(v0)
    34f8:	8e220000 	lw	v0,0(s1)
    34fc:	26840001 	addiu	a0,s4,1
    3500:	24030002 	li	v1,2
    3504:	ace20008 	sw	v0,8(a3)
    3508:	a0e3020c 	sb	v1,524(a3)
    350c:	ace40210 	sw	a0,528(a3)
    3510:	8e280000 	lw	t0,0(s1)
    3514:	00000000 	nop
    3518:	1900000a 	blez	t0,3544 <add_PIPE+0x140>
    351c:	00e02021 	move	a0,a3
    3520:	26260004 	addiu	a2,s1,4
    3524:	00002821 	move	a1,zero
    3528:	8cc20000 	lw	v0,0(a2)
    352c:	24a50001 	addiu	a1,a1,1
    3530:	00a8182a 	slt	v1,a1,t0
    3534:	ac82000c 	sw	v0,12(a0)
    3538:	24c60004 	addiu	a2,a2,4
    353c:	1460fffa 	bnez	v1,3528 <add_PIPE+0x124>
    3540:	24840004 	addiu	a0,a0,4
    3544:	8e039000 	lw	v1,-28672(s0)
    3548:	3262ffff 	andi	v0,s3,0xffff
    354c:	00122400 	sll	a0,s2,0x10
    3550:	00822025 	or	a0,a0,v0
    3554:	3c022000 	lui	v0,0x2000
    3558:	2463ffff 	addiu	v1,v1,-1
    355c:	34420280 	ori	v0,v0,0x280
    3560:	ae039000 	sw	v1,-28672(s0)
    3564:	ac440000 	sw	a0,0(v0)
    3568:	08000d0f 	j	343c <add_PIPE+0x38>
    356c:	00000000 	nop

00003570 <search_message_request>:
    3570:	3c060005 	lui	a2,0x5
    3574:	24c2b000 	addiu	v0,a2,-20480
    3578:	8c430004 	lw	v1,4(v0)
    357c:	00000000 	nop
    3580:	10640003 	beq	v1,a0,3590 <search_message_request+0x20>
    3584:	00001021 	move	v0,zero
    3588:	03e00008 	jr	ra
    358c:	00000000 	nop
    3590:	8cc2b000 	lw	v0,-20480(a2)
    3594:	00000000 	nop
    3598:	00451026 	xor	v0,v0,a1
    359c:	03e00008 	jr	ra
    35a0:	2c420001 	sltiu	v0,v0,1

000035a4 <remove_message_request>:
    35a4:	3c060005 	lui	a2,0x5
    35a8:	24c7b000 	addiu	a3,a2,-20480
    35ac:	8ce20004 	lw	v0,4(a3)
    35b0:	00000000 	nop
    35b4:	14440008 	bne	v0,a0,35d8 <remove_message_request+0x34>
    35b8:	2403ffff 	li	v1,-1
    35bc:	8cc3b000 	lw	v1,-20480(a2)
    35c0:	00022400 	sll	a0,v0,0x10
    35c4:	3062ffff 	andi	v0,v1,0xffff
    35c8:	00822025 	or	a0,a0,v0
    35cc:	10650004 	beq	v1,a1,35e0 <remove_message_request+0x3c>
    35d0:	2408ffff 	li	t0,-1
    35d4:	2403ffff 	li	v1,-1
    35d8:	03e00008 	jr	ra
    35dc:	00601021 	move	v0,v1
    35e0:	8ce30008 	lw	v1,8(a3)
    35e4:	3c022000 	lui	v0,0x2000
    35e8:	34420295 	ori	v0,v0,0x295
    35ec:	ac440000 	sw	a0,0(v0)
    35f0:	00601021 	move	v0,v1
    35f4:	acc8b000 	sw	t0,-20480(a2)
    35f8:	03e00008 	jr	ra
    35fc:	ace80004 	sw	t0,4(a3)

00003600 <update_msg_request_table>:
    3600:	3c070005 	lui	a3,0x5
    3604:	24e6afd8 	addiu	a2,a3,-20520
    3608:	8cc20008 	lw	v0,8(a2)
    360c:	00000000 	nop
    3610:	10440007 	beq	v0,a0,3630 <update_msg_request_table+0x30>
    3614:	00001821 	move	v1,zero
    3618:	8cc2001c 	lw	v0,28(a2)
    361c:	00000000 	nop
    3620:	10440003 	beq	v0,a0,3630 <update_msg_request_table+0x30>
    3624:	24030001 	li	v1,1
    3628:	03e00008 	jr	ra
    362c:	00000000 	nop
    3630:	00031100 	sll	v0,v1,0x4
    3634:	00031880 	sll	v1,v1,0x2
    3638:	00621821 	addu	v1,v1,v0
    363c:	24e4afd8 	addiu	a0,a3,-20520
    3640:	00641821 	addu	v1,v1,a0
    3644:	24020001 	li	v0,1
    3648:	03e00008 	jr	ra
    364c:	ac650004 	sw	a1,4(v1)

00003650 <remove_prod_requested_msgs>:
    3650:	3c060005 	lui	a2,0x5
    3654:	24c7b000 	addiu	a3,a2,-20480
    3658:	8ce30004 	lw	v1,4(a3)
    365c:	00000000 	nop
    3660:	14640014 	bne	v1,a0,36b4 <remove_prod_requested_msgs+0x64>
    3664:	2408ffff 	li	t0,-1
    3668:	8cc3b000 	lw	v1,-20480(a2)
    366c:	24090003 	li	t1,3
    3670:	aca30000 	sw	v1,0(a1)
    3674:	8ce20004 	lw	v0,4(a3)
    3678:	00000000 	nop
    367c:	aca20004 	sw	v0,4(a1)
    3680:	8ce30008 	lw	v1,8(a3)
    3684:	3c022000 	lui	v0,0x2000
    3688:	aca30008 	sw	v1,8(a1)
    368c:	8cc4b000 	lw	a0,-20480(a2)
    3690:	94e30006 	lhu	v1,6(a3)
    3694:	00042400 	sll	a0,a0,0x10
    3698:	00832025 	or	a0,a0,v1
    369c:	34420295 	ori	v0,v0,0x295
    36a0:	ac440000 	sw	a0,0(v0)
    36a4:	ace80004 	sw	t0,4(a3)
    36a8:	acc8b000 	sw	t0,-20480(a2)
    36ac:	03e00008 	jr	ra
    36b0:	01201021 	move	v0,t1
    36b4:	8cc2b000 	lw	v0,-20480(a2)
    36b8:	00000000 	nop
    36bc:	1482fffb 	bne	a0,v0,36ac <remove_prod_requested_msgs+0x5c>
    36c0:	00004821 	move	t1,zero
    36c4:	08000d9a 	j	3668 <remove_prod_requested_msgs+0x18>
    36c8:	00000000 	nop

000036cc <remove_cons_requested_msgs>:
    36cc:	3c020005 	lui	v0,0x5
    36d0:	3c030005 	lui	v1,0x5
    36d4:	2446afd8 	addiu	a2,v0,-20520
    36d8:	2468b000 	addiu	t0,v1,-20480
    36dc:	00003821 	move	a3,zero
    36e0:	80c30000 	lb	v1,0(a2)
    36e4:	00000000 	nop
    36e8:	10600005 	beqz	v1,3700 <remove_cons_requested_msgs+0x34>
    36ec:	00000000 	nop
    36f0:	8cc2000c 	lw	v0,12(a2)
    36f4:	00000000 	nop
    36f8:	10440006 	beq	v0,a0,3714 <remove_cons_requested_msgs+0x48>
    36fc:	00000000 	nop
    3700:	24c60014 	addiu	a2,a2,20
    3704:	14c8fff6 	bne	a2,t0,36e0 <remove_cons_requested_msgs+0x14>
    3708:	00e01021 	move	v0,a3
    370c:	03e00008 	jr	ra
    3710:	00000000 	nop
    3714:	aca30000 	sw	v1,0(a1)
    3718:	8cc20004 	lw	v0,4(a2)
    371c:	24e70005 	addiu	a3,a3,5
    3720:	aca20004 	sw	v0,4(a1)
    3724:	8cc30008 	lw	v1,8(a2)
    3728:	00000000 	nop
    372c:	aca30008 	sw	v1,8(a1)
    3730:	8cc2000c 	lw	v0,12(a2)
    3734:	00000000 	nop
    3738:	aca2000c 	sw	v0,12(a1)
    373c:	8cc30010 	lw	v1,16(a2)
    3740:	00000000 	nop
    3744:	aca30010 	sw	v1,16(a1)
    3748:	24a50014 	addiu	a1,a1,20
    374c:	08000dc0 	j	3700 <remove_cons_requested_msgs+0x34>
    3750:	a0c00000 	sb	zero,0(a2)

00003754 <remove_last_msg_waiting_ack>:
    3754:	3c020005 	lui	v0,0x5
    3758:	3c030005 	lui	v1,0x5
    375c:	2445a360 	addiu	a1,v0,-23712
    3760:	2463afd8 	addiu	v1,v1,-20520
    3764:	00003021 	move	a2,zero
    3768:	08000ddf 	j	377c <remove_last_msg_waiting_ack+0x28>
    376c:	24070003 	li	a3,3
    3770:	24a50214 	addiu	a1,a1,532
    3774:	10a3000d 	beq	a1,v1,37ac <remove_last_msg_waiting_ack+0x58>
    3778:	00000000 	nop
    377c:	8ca20000 	lw	v0,0(a1)
    3780:	00000000 	nop
    3784:	1444fffa 	bne	v0,a0,3770 <remove_last_msg_waiting_ack+0x1c>
    3788:	00000000 	nop
    378c:	80a2020c 	lb	v0,524(a1)
    3790:	00000000 	nop
    3794:	1447fff6 	bne	v0,a3,3770 <remove_last_msg_waiting_ack+0x1c>
    3798:	24c60001 	addiu	a2,a2,1
    379c:	a0a0020c 	sb	zero,524(a1)
    37a0:	24a50214 	addiu	a1,a1,532
    37a4:	14a3fff5 	bne	a1,v1,377c <remove_last_msg_waiting_ack+0x28>
    37a8:	00000000 	nop
    37ac:	03e00008 	jr	ra
    37b0:	00c01021 	move	v0,a2

000037b4 <send_io_request>:
    37b4:	27bdffe0 	addiu	sp,sp,-32
    37b8:	afbf001c 	sw	ra,28(sp)
    37bc:	afb20018 	sw	s2,24(sp)
    37c0:	afb10014 	sw	s1,20(sp)
    37c4:	00809021 	move	s2,a0
    37c8:	00a08821 	move	s1,a1
    37cc:	afb00010 	sw	s0,16(sp)
    37d0:	0c000a63 	jal	298c <get_service_header_slot>
    37d4:	00c08021 	move	s0,a2
    37d8:	24030015 	li	v1,21
    37dc:	ac430084 	sw	v1,132(v0)
    37e0:	ac50009c 	sw	s0,156(v0)
    37e4:	ac51008c 	sw	s1,140(v0)
    37e8:	ac520088 	sw	s2,136(v0)
    37ec:	02403821 	move	a3,s2
    37f0:	8fbf001c 	lw	ra,28(sp)
    37f4:	8fb20018 	lw	s2,24(sp)
    37f8:	8fb10014 	lw	s1,20(sp)
    37fc:	8fb00010 	lw	s0,16(sp)
    3800:	00402021 	move	a0,v0
    3804:	00002821 	move	a1,zero
    3808:	00003021 	move	a2,zero
    380c:	08000ad9 	j	2b64 <send_packet_io>
    3810:	27bd0020 	addiu	sp,sp,32

00003814 <send_message_io>:
    3814:	27bdffe0 	addiu	sp,sp,-32
    3818:	afbf001c 	sw	ra,28(sp)
    381c:	afb20018 	sw	s2,24(sp)
    3820:	afb10014 	sw	s1,20(sp)
    3824:	00a09021 	move	s2,a1
    3828:	00c08821 	move	s1,a2
    382c:	afb00010 	sw	s0,16(sp)
    3830:	0c000a63 	jal	298c <get_service_header_slot>
    3834:	00808021 	move	s0,a0
    3838:	24030025 	li	v1,37
    383c:	ac430084 	sw	v1,132(v0)
    3840:	ac500088 	sw	s0,136(v0)
    3844:	ac52008c 	sw	s2,140(v0)
    3848:	8e260000 	lw	a2,0(s1)
    384c:	26250004 	addiu	a1,s1,4
    3850:	ac46009c 	sw	a2,156(v0)
    3854:	02403821 	move	a3,s2
    3858:	8fbf001c 	lw	ra,28(sp)
    385c:	8fb20018 	lw	s2,24(sp)
    3860:	8fb10014 	lw	s1,20(sp)
    3864:	8fb00010 	lw	s0,16(sp)
    3868:	00402021 	move	a0,v0
    386c:	08000ad9 	j	2b64 <send_packet_io>
    3870:	27bd0020 	addiu	sp,sp,32

00003874 <send_message_delivery>:
    3874:	27bdffd8 	addiu	sp,sp,-40
    3878:	afb10014 	sw	s1,20(sp)
    387c:	00a08821 	move	s1,a1
    3880:	afbf0020 	sw	ra,32(sp)
    3884:	afb3001c 	sw	s3,28(sp)
    3888:	afb20018 	sw	s2,24(sp)
    388c:	00e09821 	move	s3,a3
    3890:	00809021 	move	s2,a0
    3894:	0c000a63 	jal	298c <get_service_header_slot>
    3898:	afb00010 	sw	s0,16(sp)
    389c:	02202021 	move	a0,s1
    38a0:	0c00112d 	jal	44b4 <get_task_location>
    38a4:	00408021 	move	s0,v0
    38a8:	ae02007c 	sw	v0,124(s0)
    38ac:	24020020 	li	v0,32
    38b0:	ae020084 	sw	v0,132(s0)
    38b4:	ae120088 	sw	s2,136(s0)
    38b8:	ae11008c 	sw	s1,140(s0)
    38bc:	8e660000 	lw	a2,0(s3)
    38c0:	02002021 	move	a0,s0
    38c4:	ae06009c 	sw	a2,156(s0)
    38c8:	26650004 	addiu	a1,s3,4
    38cc:	8fbf0020 	lw	ra,32(sp)
    38d0:	8fb3001c 	lw	s3,28(sp)
    38d4:	8fb20018 	lw	s2,24(sp)
    38d8:	8fb10014 	lw	s1,20(sp)
    38dc:	8fb00010 	lw	s0,16(sp)
    38e0:	08000b31 	j	2cc4 <send_packet>
    38e4:	27bd0028 	addiu	sp,sp,40

000038e8 <insert_message_request>:
    38e8:	3c080005 	lui	t0,0x5
    38ec:	00041c00 	sll	v1,a0,0x10
    38f0:	30a2ffff 	andi	v0,a1,0xffff
    38f4:	8d07b000 	lw	a3,-20480(t0)
    38f8:	27bdffe8 	addiu	sp,sp,-24
    38fc:	00804821 	move	t1,a0
    3900:	00621825 	or	v1,v1,v0
    3904:	3c040001 	lui	a0,0x1
    3908:	2402ffff 	li	v0,-1
    390c:	afbf0010 	sw	ra,16(sp)
    3910:	250bb000 	addiu	t3,t0,-20480
    3914:	240a0001 	li	t2,1
    3918:	10e20008 	beq	a3,v0,393c <insert_message_request+0x54>
    391c:	24848370 	addiu	a0,a0,-31888
    3920:	0c000901 	jal	2404 <puts>
    3924:	00000000 	nop
    3928:	00005021 	move	t2,zero
    392c:	8fbf0010 	lw	ra,16(sp)
    3930:	01401021 	move	v0,t2
    3934:	03e00008 	jr	ra
    3938:	27bd0018 	addiu	sp,sp,24
    393c:	3c022000 	lui	v0,0x2000
    3940:	34420290 	ori	v0,v0,0x290
    3944:	ad660008 	sw	a2,8(t3)
    3948:	ac430000 	sw	v1,0(v0)
    394c:	8fbf0010 	lw	ra,16(sp)
    3950:	01401021 	move	v0,t2
    3954:	27bd0018 	addiu	sp,sp,24
    3958:	ad05b000 	sw	a1,-20480(t0)
    395c:	03e00008 	jr	ra
    3960:	ad690004 	sw	t1,4(t3)

00003964 <print_pipe_status>:
    3964:	00042600 	sll	a0,a0,0x18
    3968:	00042603 	sra	a0,a0,0x18
    396c:	24020001 	li	v0,1
    3970:	1082000a 	beq	a0,v0,399c <print_pipe_status+0x38>
    3974:	28820002 	slti	v0,a0,2
    3978:	1440000e 	bnez	v0,39b4 <print_pipe_status+0x50>
    397c:	24020002 	li	v0,2
    3980:	10820009 	beq	a0,v0,39a8 <print_pipe_status+0x44>
    3984:	24020003 	li	v0,3
    3988:	1082000f 	beq	a0,v0,39c8 <print_pipe_status+0x64>
    398c:	00000000 	nop
    3990:	3c040001 	lui	a0,0x1
    3994:	08000901 	j	2404 <puts>
    3998:	2484839c 	addiu	a0,a0,-31844
    399c:	3c040001 	lui	a0,0x1
    39a0:	08000901 	j	2404 <puts>
    39a4:	24848398 	addiu	a0,a0,-31848
    39a8:	3c040001 	lui	a0,0x1
    39ac:	08000901 	j	2404 <puts>
    39b0:	24848394 	addiu	a0,a0,-31852
    39b4:	1480fff6 	bnez	a0,3990 <print_pipe_status+0x2c>
    39b8:	00000000 	nop
    39bc:	3c040000 	lui	a0,0x0
    39c0:	08000901 	j	2404 <puts>
    39c4:	24847f2c 	addiu	a0,a0,32556
    39c8:	3c040001 	lui	a0,0x1
    39cc:	08000901 	j	2404 <puts>
    39d0:	24848390 	addiu	a0,a0,-31856

000039d4 <resend_messages>:
    39d4:	27bdffc8 	addiu	sp,sp,-56
    39d8:	3c020005 	lui	v0,0x5
    39dc:	afbe0030 	sw	s8,48(sp)
    39e0:	245ea360 	addiu	s8,v0,-23712
    39e4:	3c020005 	lui	v0,0x5
    39e8:	afb7002c 	sw	s7,44(sp)
    39ec:	afb60028 	sw	s6,40(sp)
    39f0:	afb50024 	sw	s5,36(sp)
    39f4:	afb40020 	sw	s4,32(sp)
    39f8:	afb3001c 	sw	s3,28(sp)
    39fc:	afb20018 	sw	s2,24(sp)
    3a00:	afb00010 	sw	s0,16(sp)
    3a04:	0080b821 	move	s7,a0
    3a08:	2450a364 	addiu	s0,v0,-23708
    3a0c:	00009021 	move	s2,zero
    3a10:	24160003 	li	s6,3
    3a14:	24150006 	li	s5,6
    3a18:	27d40008 	addiu	s4,s8,8
    3a1c:	00009821 	move	s3,zero
    3a20:	afbf0034 	sw	ra,52(sp)
    3a24:	08000e8e 	j	3a38 <resend_messages+0x64>
    3a28:	afb10014 	sw	s1,20(sp)
    3a2c:	26730214 	addiu	s3,s3,532
    3a30:	12550016 	beq	s2,s5,3a8c <resend_messages+0xb8>
    3a34:	26940214 	addiu	s4,s4,532
    3a38:	8e040000 	lw	a0,0(s0)
    3a3c:	0c00112d 	jal	44b4 <get_task_location>
    3a40:	26520001 	addiu	s2,s2,1
    3a44:	82040208 	lb	a0,520(s0)
    3a48:	0c000e59 	jal	3964 <print_pipe_status>
    3a4c:	00408821 	move	s1,v0
    3a50:	82020208 	lb	v0,520(s0)
    3a54:	00000000 	nop
    3a58:	1456fff4 	bne	v0,s6,3a2c <resend_messages+0x58>
    3a5c:	26100214 	addiu	s0,s0,532
    3a60:	1637fff3 	bne	s1,s7,3a30 <resend_messages+0x5c>
    3a64:	26730214 	addiu	s3,s3,532
    3a68:	2673fdec 	addiu	s3,s3,-532
    3a6c:	027e1021 	addu	v0,s3,s8
    3a70:	8c450004 	lw	a1,4(v0)
    3a74:	8c440000 	lw	a0,0(v0)
    3a78:	02e03021 	move	a2,s7
    3a7c:	0c000e1d 	jal	3874 <send_message_delivery>
    3a80:	02803821 	move	a3,s4
    3a84:	08000ea4 	j	3a90 <resend_messages+0xbc>
    3a88:	24020001 	li	v0,1
    3a8c:	00001021 	move	v0,zero
    3a90:	8fbf0034 	lw	ra,52(sp)
    3a94:	8fbe0030 	lw	s8,48(sp)
    3a98:	8fb7002c 	lw	s7,44(sp)
    3a9c:	8fb60028 	lw	s6,40(sp)
    3aa0:	8fb50024 	lw	s5,36(sp)
    3aa4:	8fb40020 	lw	s4,32(sp)
    3aa8:	8fb3001c 	lw	s3,28(sp)
    3aac:	8fb20018 	lw	s2,24(sp)
    3ab0:	8fb10014 	lw	s1,20(sp)
    3ab4:	8fb00010 	lw	s0,16(sp)
    3ab8:	03e00008 	jr	ra
    3abc:	27bd0038 	addiu	sp,sp,56

00003ac0 <print_msg_req>:
    3ac0:	27bdffd0 	addiu	sp,sp,-48
    3ac4:	3c020005 	lui	v0,0x5
    3ac8:	3c030005 	lui	v1,0x5
    3acc:	afb50024 	sw	s5,36(sp)
    3ad0:	afb40020 	sw	s4,32(sp)
    3ad4:	afb3001c 	sw	s3,28(sp)
    3ad8:	afb20018 	sw	s2,24(sp)
    3adc:	afb10014 	sw	s1,20(sp)
    3ae0:	afb00010 	sw	s0,16(sp)
    3ae4:	afbf0028 	sw	ra,40(sp)
    3ae8:	2450afd8 	addiu	s0,v0,-20520
    3aec:	2472b000 	addiu	s2,v1,-20480
    3af0:	24150002 	li	s5,2
    3af4:	3c130001 	lui	s3,0x1
    3af8:	3c110000 	lui	s1,0x0
    3afc:	3c140001 	lui	s4,0x1
    3b00:	82020000 	lb	v0,0(s0)
    3b04:	00000000 	nop
    3b08:	10400004 	beqz	v0,3b1c <print_msg_req+0x5c>
    3b0c:	26247f2c 	addiu	a0,s1,32556
    3b10:	10550002 	beq	v0,s5,3b1c <print_msg_req+0x5c>
    3b14:	26648394 	addiu	a0,s3,-31852
    3b18:	268483a0 	addiu	a0,s4,-31840
    3b1c:	0c000901 	jal	2404 <puts>
    3b20:	26100014 	addiu	s0,s0,20
    3b24:	1612fff6 	bne	s0,s2,3b00 <print_msg_req+0x40>
    3b28:	00000000 	nop
    3b2c:	3c040001 	lui	a0,0x1
    3b30:	8fbf0028 	lw	ra,40(sp)
    3b34:	8fb50024 	lw	s5,36(sp)
    3b38:	8fb40020 	lw	s4,32(sp)
    3b3c:	8fb3001c 	lw	s3,28(sp)
    3b40:	8fb20018 	lw	s2,24(sp)
    3b44:	8fb10014 	lw	s1,20(sp)
    3b48:	8fb00010 	lw	s0,16(sp)
    3b4c:	24848594 	addiu	a0,a0,-31340
    3b50:	08000901 	j	2404 <puts>
    3b54:	27bd0030 	addiu	sp,sp,48

00003b58 <add_msg_request_migration>:
    3b58:	3c080005 	lui	t0,0x5
    3b5c:	8102afd8 	lb	v0,-20520(t0)
    3b60:	27bdffe8 	addiu	sp,sp,-24
    3b64:	afbf0010 	sw	ra,16(sp)
    3b68:	2509afd8 	addiu	t1,t0,-20520
    3b6c:	00001821 	move	v1,zero
    3b70:	1040000d 	beqz	v0,3ba8 <add_msg_request_migration+0x50>
    3b74:	00805021 	move	t2,a0
    3b78:	81220014 	lb	v0,20(t1)
    3b7c:	3c040001 	lui	a0,0x1
    3b80:	10400008 	beqz	v0,3ba4 <add_msg_request_migration+0x4c>
    3b84:	248483a4 	addiu	a0,a0,-31836
    3b88:	0c000901 	jal	2404 <puts>
    3b8c:	00000000 	nop
    3b90:	00002021 	move	a0,zero
    3b94:	8fbf0010 	lw	ra,16(sp)
    3b98:	00801021 	move	v0,a0
    3b9c:	03e00008 	jr	ra
    3ba0:	27bd0018 	addiu	sp,sp,24
    3ba4:	24030001 	li	v1,1
    3ba8:	00032100 	sll	a0,v1,0x4
    3bac:	00031880 	sll	v1,v1,0x2
    3bb0:	00641821 	addu	v1,v1,a0
    3bb4:	2502afd8 	addiu	v0,t0,-20520
    3bb8:	00621821 	addu	v1,v1,v0
    3bbc:	8fa20028 	lw	v0,40(sp)
    3bc0:	24040001 	li	a0,1
    3bc4:	ac620010 	sw	v0,16(v1)
    3bc8:	a06a0000 	sb	t2,0(v1)
    3bcc:	ac650004 	sw	a1,4(v1)
    3bd0:	ac66000c 	sw	a2,12(v1)
    3bd4:	08000ee5 	j	3b94 <add_msg_request_migration+0x3c>
    3bd8:	ac670008 	sw	a3,8(v1)

00003bdc <add_msg_request>:
    3bdc:	27bdffe8 	addiu	sp,sp,-24
    3be0:	3c070005 	lui	a3,0x5
    3be4:	afbf0010 	sw	ra,16(sp)
    3be8:	80e2afd8 	lb	v0,-20520(a3)
    3bec:	24e8afd8 	addiu	t0,a3,-20520
    3bf0:	00001821 	move	v1,zero
    3bf4:	1040000d 	beqz	v0,3c2c <add_msg_request+0x50>
    3bf8:	00804821 	move	t1,a0
    3bfc:	81020014 	lb	v0,20(t0)
    3c00:	3c040001 	lui	a0,0x1
    3c04:	10400008 	beqz	v0,3c28 <add_msg_request+0x4c>
    3c08:	248483a4 	addiu	a0,a0,-31836
    3c0c:	0c000901 	jal	2404 <puts>
    3c10:	00000000 	nop
    3c14:	00001021 	move	v0,zero
    3c18:	8fbf0010 	lw	ra,16(sp)
    3c1c:	00000000 	nop
    3c20:	03e00008 	jr	ra
    3c24:	27bd0018 	addiu	sp,sp,24
    3c28:	24030001 	li	v1,1
    3c2c:	00032100 	sll	a0,v1,0x4
    3c30:	00031880 	sll	v1,v1,0x2
    3c34:	00641821 	addu	v1,v1,a0
    3c38:	24e2afd8 	addiu	v0,a3,-20520
    3c3c:	00621821 	addu	v1,v1,v0
    3c40:	24040002 	li	a0,2
    3c44:	3c022000 	lui	v0,0x2000
    3c48:	34420300 	ori	v0,v0,0x300
    3c4c:	a0640000 	sb	a0,0(v1)
    3c50:	ac690004 	sw	t1,4(v1)
    3c54:	ac65000c 	sw	a1,12(v1)
    3c58:	ac660008 	sw	a2,8(v1)
    3c5c:	8c440000 	lw	a0,0(v0)
    3c60:	24020001 	li	v0,1
    3c64:	08000f06 	j	3c18 <add_msg_request+0x3c>
    3c68:	ac640010 	sw	a0,16(v1)

00003c6c <send_message_request_>:
    3c6c:	27bdffd8 	addiu	sp,sp,-40
    3c70:	afb00010 	sw	s0,16(sp)
    3c74:	00808021 	move	s0,a0
    3c78:	afbf0024 	sw	ra,36(sp)
    3c7c:	afb40020 	sw	s4,32(sp)
    3c80:	afb3001c 	sw	s3,28(sp)
    3c84:	afb20018 	sw	s2,24(sp)
    3c88:	afb10014 	sw	s1,20(sp)
    3c8c:	00e09021 	move	s2,a3
    3c90:	8fb30038 	lw	s3,56(sp)
    3c94:	0c000a63 	jal	298c <get_service_header_slot>
    3c98:	00a08821 	move	s1,a1
    3c9c:	02002021 	move	a0,s0
    3ca0:	0c00112d 	jal	44b4 <get_task_location>
    3ca4:	0040a021 	move	s4,v0
    3ca8:	00402021 	move	a0,v0
    3cac:	24030010 	li	v1,16
    3cb0:	ae82007c 	sw	v0,124(s4)
    3cb4:	24020001 	li	v0,1
    3cb8:	02202821 	move	a1,s1
    3cbc:	02003021 	move	a2,s0
    3cc0:	ae830084 	sw	v1,132(s4)
    3cc4:	ae92009c 	sw	s2,156(s4)
    3cc8:	ae900088 	sw	s0,136(s4)
    3ccc:	1262000c 	beq	s3,v0,3d00 <send_message_request_+0x94>
    3cd0:	ae91008c 	sw	s1,140(s4)
    3cd4:	02802021 	move	a0,s4
    3cd8:	8fbf0024 	lw	ra,36(sp)
    3cdc:	8fb40020 	lw	s4,32(sp)
    3ce0:	8fb3001c 	lw	s3,28(sp)
    3ce4:	8fb20018 	lw	s2,24(sp)
    3ce8:	8fb10014 	lw	s1,20(sp)
    3cec:	8fb00010 	lw	s0,16(sp)
    3cf0:	00002821 	move	a1,zero
    3cf4:	00003021 	move	a2,zero
    3cf8:	08000b31 	j	2cc4 <send_packet>
    3cfc:	27bd0028 	addiu	sp,sp,40
    3d00:	0c000ef7 	jal	3bdc <add_msg_request>
    3d04:	00000000 	nop
    3d08:	08000f36 	j	3cd8 <send_message_request_+0x6c>
    3d0c:	02802021 	move	a0,s4

00003d10 <resend_msg_request>:
    3d10:	27bdffc0 	addiu	sp,sp,-64
    3d14:	3c020005 	lui	v0,0x5
    3d18:	3c032000 	lui	v1,0x2000
    3d1c:	afb30024 	sw	s3,36(sp)
    3d20:	2453afd8 	addiu	s3,v0,-20520
    3d24:	3c020005 	lui	v0,0x5
    3d28:	afb70034 	sw	s7,52(sp)
    3d2c:	afb60030 	sw	s6,48(sp)
    3d30:	afb5002c 	sw	s5,44(sp)
    3d34:	afb40028 	sw	s4,40(sp)
    3d38:	34770300 	ori	s7,v1,0x300
    3d3c:	afbf0038 	sw	ra,56(sp)
    3d40:	afb20020 	sw	s2,32(sp)
    3d44:	afb1001c 	sw	s1,28(sp)
    3d48:	afb00018 	sw	s0,24(sp)
    3d4c:	0080b021 	move	s6,a0
    3d50:	2455b000 	addiu	s5,v0,-20480
    3d54:	00001821 	move	v1,zero
    3d58:	24140002 	li	s4,2
    3d5c:	82620000 	lb	v0,0(s3)
    3d60:	00000000 	nop
    3d64:	1054000f 	beq	v0,s4,3da4 <resend_msg_request+0x94>
    3d68:	00000000 	nop
    3d6c:	26730014 	addiu	s3,s3,20
    3d70:	1675fffa 	bne	s3,s5,3d5c <resend_msg_request+0x4c>
    3d74:	00601021 	move	v0,v1
    3d78:	8fbf0038 	lw	ra,56(sp)
    3d7c:	8fb70034 	lw	s7,52(sp)
    3d80:	8fb60030 	lw	s6,48(sp)
    3d84:	8fb5002c 	lw	s5,44(sp)
    3d88:	8fb40028 	lw	s4,40(sp)
    3d8c:	8fb30024 	lw	s3,36(sp)
    3d90:	8fb20020 	lw	s2,32(sp)
    3d94:	8fb1001c 	lw	s1,28(sp)
    3d98:	8fb00018 	lw	s0,24(sp)
    3d9c:	03e00008 	jr	ra
    3da0:	27bd0040 	addiu	sp,sp,64
    3da4:	8e620004 	lw	v0,4(s3)
    3da8:	00000000 	nop
    3dac:	1456ffef 	bne	v0,s6,3d6c <resend_msg_request+0x5c>
    3db0:	00000000 	nop
    3db4:	8e700008 	lw	s0,8(s3)
    3db8:	8e72000c 	lw	s2,12(s3)
    3dbc:	0c00112d 	jal	44b4 <get_task_location>
    3dc0:	02002021 	move	a0,s0
    3dc4:	0c0008fd 	jal	23f4 <get_net_address>
    3dc8:	00408821 	move	s1,v0
    3dcc:	00403821 	move	a3,v0
    3dd0:	02002021 	move	a0,s0
    3dd4:	02402821 	move	a1,s2
    3dd8:	02203021 	move	a2,s1
    3ddc:	0c000f1b 	jal	3c6c <send_message_request_>
    3de0:	afa00010 	sw	zero,16(sp)
    3de4:	8ee20000 	lw	v0,0(s7)
    3de8:	24030001 	li	v1,1
    3dec:	08000f5b 	j	3d6c <resend_msg_request+0x5c>
    3df0:	ae620010 	sw	v0,16(s3)

00003df4 <remove_msg_request>:
    3df4:	27bdffd8 	addiu	sp,sp,-40
    3df8:	afb3001c 	sw	s3,28(sp)
    3dfc:	afb20018 	sw	s2,24(sp)
    3e00:	afb10014 	sw	s1,20(sp)
    3e04:	afbf0020 	sw	ra,32(sp)
    3e08:	afb00010 	sw	s0,16(sp)
    3e0c:	3c070005 	lui	a3,0x5
    3e10:	80e3afd8 	lb	v1,-20520(a3)
    3e14:	24020002 	li	v0,2
    3e18:	00808821 	move	s1,a0
    3e1c:	00a09021 	move	s2,a1
    3e20:	10620035 	beq	v1,v0,3ef8 <remove_msg_request+0x104>
    3e24:	00c09821 	move	s3,a2
    3e28:	24e4afd8 	addiu	a0,a3,-20520
    3e2c:	80830014 	lb	v1,20(a0)
    3e30:	24020002 	li	v0,2
    3e34:	1062003f 	beq	v1,v0,3f34 <remove_msg_request+0x140>
    3e38:	00000000 	nop
    3e3c:	3c040001 	lui	a0,0x1
    3e40:	0c000901 	jal	2404 <puts>
    3e44:	248483c4 	addiu	a0,a0,-31804
    3e48:	3c032000 	lui	v1,0x2000
    3e4c:	34630300 	ori	v1,v1,0x300
    3e50:	8c640000 	lw	a0,0(v1)
    3e54:	0c00092c 	jal	24b0 <itoa>
    3e58:	3c100001 	lui	s0,0x1
    3e5c:	0c000901 	jal	2404 <puts>
    3e60:	00402021 	move	a0,v0
    3e64:	0c000901 	jal	2404 <puts>
    3e68:	26048594 	addiu	a0,s0,-31340
    3e6c:	3c040001 	lui	a0,0x1
    3e70:	0c000901 	jal	2404 <puts>
    3e74:	248483f0 	addiu	a0,a0,-31760
    3e78:	0c000973 	jal	25cc <itoh>
    3e7c:	02202021 	move	a0,s1
    3e80:	0c000901 	jal	2404 <puts>
    3e84:	00402021 	move	a0,v0
    3e88:	0c000901 	jal	2404 <puts>
    3e8c:	26048594 	addiu	a0,s0,-31340
    3e90:	3c040001 	lui	a0,0x1
    3e94:	0c000901 	jal	2404 <puts>
    3e98:	248483f8 	addiu	a0,a0,-31752
    3e9c:	0c000973 	jal	25cc <itoh>
    3ea0:	02402021 	move	a0,s2
    3ea4:	0c000901 	jal	2404 <puts>
    3ea8:	00402021 	move	a0,v0
    3eac:	0c000901 	jal	2404 <puts>
    3eb0:	26048594 	addiu	a0,s0,-31340
    3eb4:	3c040001 	lui	a0,0x1
    3eb8:	0c000901 	jal	2404 <puts>
    3ebc:	24848404 	addiu	a0,a0,-31740
    3ec0:	0c000973 	jal	25cc <itoh>
    3ec4:	02602021 	move	a0,s3
    3ec8:	0c000901 	jal	2404 <puts>
    3ecc:	00402021 	move	a0,v0
    3ed0:	0c000901 	jal	2404 <puts>
    3ed4:	26048594 	addiu	a0,s0,-31340
    3ed8:	00001021 	move	v0,zero
    3edc:	8fbf0020 	lw	ra,32(sp)
    3ee0:	8fb3001c 	lw	s3,28(sp)
    3ee4:	8fb20018 	lw	s2,24(sp)
    3ee8:	8fb10014 	lw	s1,20(sp)
    3eec:	8fb00010 	lw	s0,16(sp)
    3ef0:	03e00008 	jr	ra
    3ef4:	27bd0028 	addiu	sp,sp,40
    3ef8:	24e3afd8 	addiu	v1,a3,-20520
    3efc:	8c620004 	lw	v0,4(v1)
    3f00:	00000000 	nop
    3f04:	1482ffc8 	bne	a0,v0,3e28 <remove_msg_request+0x34>
    3f08:	00000000 	nop
    3f0c:	8c620008 	lw	v0,8(v1)
    3f10:	00000000 	nop
    3f14:	14c2ffc5 	bne	a2,v0,3e2c <remove_msg_request+0x38>
    3f18:	24e4afd8 	addiu	a0,a3,-20520
    3f1c:	8c62000c 	lw	v0,12(v1)
    3f20:	00000000 	nop
    3f24:	14a2ffc1 	bne	a1,v0,3e2c <remove_msg_request+0x38>
    3f28:	00001821 	move	v1,zero
    3f2c:	08000fda 	j	3f68 <remove_msg_request+0x174>
    3f30:	00031100 	sll	v0,v1,0x4
    3f34:	8c820018 	lw	v0,24(a0)
    3f38:	00000000 	nop
    3f3c:	1622ffbf 	bne	s1,v0,3e3c <remove_msg_request+0x48>
    3f40:	00000000 	nop
    3f44:	8c82001c 	lw	v0,28(a0)
    3f48:	00000000 	nop
    3f4c:	1662ffbb 	bne	s3,v0,3e3c <remove_msg_request+0x48>
    3f50:	00000000 	nop
    3f54:	8c820020 	lw	v0,32(a0)
    3f58:	00000000 	nop
    3f5c:	1642ffb7 	bne	s2,v0,3e3c <remove_msg_request+0x48>
    3f60:	24030001 	li	v1,1
    3f64:	00031100 	sll	v0,v1,0x4
    3f68:	00031880 	sll	v1,v1,0x2
    3f6c:	00621821 	addu	v1,v1,v0
    3f70:	24e4afd8 	addiu	a0,a3,-20520
    3f74:	00641821 	addu	v1,v1,a0
    3f78:	24020001 	li	v0,1
    3f7c:	08000fb7 	j	3edc <remove_msg_request+0xe8>
    3f80:	a0600000 	sb	zero,0(v1)

00003f84 <searchTCB>:
    3f84:	3c020005 	lui	v0,0x5
    3f88:	2442b00c 	addiu	v0,v0,-20468
    3f8c:	8c430080 	lw	v1,128(v0)
    3f90:	00000000 	nop
    3f94:	14640003 	bne	v1,a0,3fa4 <searchTCB+0x20>
    3f98:	00000000 	nop
    3f9c:	03e00008 	jr	ra
    3fa0:	00000000 	nop
    3fa4:	03e00008 	jr	ra
    3fa8:	00001021 	move	v0,zero

00003fac <get_tcb_index_ptr>:
    3fac:	00041140 	sll	v0,a0,0x5
    3fb0:	000418c0 	sll	v1,a0,0x3
    3fb4:	00621821 	addu	v1,v1,v0
    3fb8:	00641821 	addu	v1,v1,a0
    3fbc:	3c020005 	lui	v0,0x5
    3fc0:	00031880 	sll	v1,v1,0x2
    3fc4:	2442b00c 	addiu	v0,v0,-20468
    3fc8:	03e00008 	jr	ra
    3fcc:	00621021 	addu	v0,v1,v0

00003fd0 <is_another_task_running>:
    3fd0:	3c020005 	lui	v0,0x5
    3fd4:	2446b00c 	addiu	a2,v0,-20468
    3fd8:	8cc300a0 	lw	v1,160(a2)
    3fdc:	2402ffff 	li	v0,-1
    3fe0:	8c650000 	lw	a1,0(v1)
    3fe4:	00000000 	nop
    3fe8:	10a20006 	beq	a1,v0,4004 <is_another_task_running+0x34>
    3fec:	00001821 	move	v1,zero
    3ff0:	8cc20080 	lw	v0,128(a2)
    3ff4:	00000000 	nop
    3ff8:	00021203 	sra	v0,v0,0x8
    3ffc:	00441026 	xor	v0,v0,a0
    4000:	2c430001 	sltiu	v1,v0,1
    4004:	03e00008 	jr	ra
    4008:	00601021 	move	v0,v1

0000400c <unblock_tasks_of_App>:
    400c:	3c020005 	lui	v0,0x5
    4010:	2446b00c 	addiu	a2,v0,-20468
    4014:	8cc500a0 	lw	a1,160(a2)
    4018:	24020004 	li	v0,4
    401c:	8ca30000 	lw	v1,0(a1)
    4020:	00000000 	nop
    4024:	10620004 	beq	v1,v0,4038 <unblock_tasks_of_App+0x2c>
    4028:	00000000 	nop
    402c:	00001821 	move	v1,zero
    4030:	03e00008 	jr	ra
    4034:	00601021 	move	v0,v1
    4038:	8cc20080 	lw	v0,128(a2)
    403c:	00000000 	nop
    4040:	00021203 	sra	v0,v0,0x8
    4044:	1444fff9 	bne	v0,a0,402c <unblock_tasks_of_App+0x20>
    4048:	24030001 	li	v1,1
    404c:	00601021 	move	v0,v1
    4050:	03e00008 	jr	ra
    4054:	aca00000 	sw	zero,0(a1)

00004058 <clear_all_memory_areas>:
    4058:	3c080005 	lui	t0,0x5
    405c:	2505b00c 	addiu	a1,t0,-20468
    4060:	8ca200a0 	lw	v0,160(a1)
    4064:	00000000 	nop
    4068:	8c430000 	lw	v1,0(v0)
    406c:	2402ffff 	li	v0,-1
    4070:	10620003 	beq	v1,v0,4080 <clear_all_memory_areas+0x28>
    4074:	00000000 	nop
    4078:	03e00008 	jr	ra
    407c:	00000000 	nop
    4080:	8ca20080 	lw	v0,128(a1)
    4084:	00000000 	nop
    4088:	00021203 	sra	v0,v0,0x8
    408c:	1444003f 	bne	v0,a0,418c <clear_all_memory_areas+0x134>
    4090:	00000000 	nop
    4094:	8ca30064 	lw	v1,100(a1)
    4098:	3c050001 	lui	a1,0x1
    409c:	00a32023 	subu	a0,a1,v1
    40a0:	30820003 	andi	v0,a0,0x3
    40a4:	10400007 	beqz	v0,40c4 <clear_all_memory_areas+0x6c>
    40a8:	34a20001 	ori	v0,a1,0x1
    40ac:	0800102e 	j	40b8 <clear_all_memory_areas+0x60>
    40b0:	00432023 	subu	a0,v0,v1
    40b4:	00602021 	move	a0,v1
    40b8:	30820003 	andi	v0,a0,0x3
    40bc:	1440fffd 	bnez	v0,40b4 <clear_all_memory_areas+0x5c>
    40c0:	24830001 	addiu	v1,a0,1
    40c4:	2505b00c 	addiu	a1,t0,-20468
    40c8:	8ca3008c 	lw	v1,140(a1)
    40cc:	8ca20088 	lw	v0,136(a1)
    40d0:	00043882 	srl	a3,a0,0x2
    40d4:	00431021 	addu	v0,v0,v1
    40d8:	8ca4007c 	lw	a0,124(a1)
    40dc:	8ca30084 	lw	v1,132(a1)
    40e0:	1040000c 	beqz	v0,4114 <clear_all_memory_areas+0xbc>
    40e4:	00031080 	sll	v0,v1,0x2
    40e8:	00a03021 	move	a2,a1
    40ec:	00822021 	addu	a0,a0,v0
    40f0:	00002821 	move	a1,zero
    40f4:	ac800000 	sw	zero,0(a0)
    40f8:	8cc2008c 	lw	v0,140(a2)
    40fc:	8cc30088 	lw	v1,136(a2)
    4100:	24a50001 	addiu	a1,a1,1
    4104:	00431021 	addu	v0,v0,v1
    4108:	00a2102b 	sltu	v0,a1,v0
    410c:	1440fff9 	bnez	v0,40f4 <clear_all_memory_areas+0x9c>
    4110:	24840004 	addiu	a0,a0,4
    4114:	2502b00c 	addiu	v0,t0,-20468
    4118:	8c430064 	lw	v1,100(v0)
    411c:	8c42007c 	lw	v0,124(v0)
    4120:	10e00006 	beqz	a3,413c <clear_all_memory_areas+0xe4>
    4124:	00431021 	addu	v0,v0,v1
    4128:	00001821 	move	v1,zero
    412c:	24630001 	addiu	v1,v1,1
    4130:	ac400000 	sw	zero,0(v0)
    4134:	14e3fffd 	bne	a3,v1,412c <clear_all_memory_areas+0xd4>
    4138:	24420004 	addiu	v0,v0,4
    413c:	2504b00c 	addiu	a0,t0,-20468
    4140:	8c820084 	lw	v0,132(a0)
    4144:	8c83007c 	lw	v1,124(a0)
    4148:	1040000a 	beqz	v0,4174 <clear_all_memory_areas+0x11c>
    414c:	3c020005 	lui	v0,0x5
    4150:	00802821 	move	a1,a0
    4154:	00002021 	move	a0,zero
    4158:	ac600000 	sw	zero,0(v1)
    415c:	8ca20084 	lw	v0,132(a1)
    4160:	24840001 	addiu	a0,a0,1
    4164:	0082102b 	sltu	v0,a0,v0
    4168:	1440fffb 	bnez	v0,4158 <clear_all_memory_areas+0x100>
    416c:	24630004 	addiu	v1,v1,4
    4170:	3c020005 	lui	v0,0x5
    4174:	2503b00c 	addiu	v1,t0,-20468
    4178:	2442b084 	addiu	v0,v0,-20348
    417c:	ac600000 	sw	zero,0(v1)
    4180:	24630004 	addiu	v1,v1,4
    4184:	1462fffd 	bne	v1,v0,417c <clear_all_memory_areas+0x124>
    4188:	00000000 	nop
    418c:	03e00008 	jr	ra
    4190:	00000000 	nop

00004194 <freeze_tasks_of_cluster>:
    4194:	3c020005 	lui	v0,0x5
    4198:	2442b00c 	addiu	v0,v0,-20468
    419c:	8c430094 	lw	v1,148(v0)
    41a0:	00000000 	nop
    41a4:	14640007 	bne	v1,a0,41c4 <freeze_tasks_of_cluster+0x30>
    41a8:	00002821 	move	a1,zero
    41ac:	8c4200a0 	lw	v0,160(v0)
    41b0:	24030004 	li	v1,4
    41b4:	8c440000 	lw	a0,0(v0)
    41b8:	24050001 	li	a1,1
    41bc:	ac430000 	sw	v1,0(v0)
    41c0:	ac440028 	sw	a0,40(v0)
    41c4:	03e00008 	jr	ra
    41c8:	00a01021 	move	v0,a1

000041cc <unfreeze_tasks_of_cluster>:
    41cc:	3c020005 	lui	v0,0x5
    41d0:	2447b00c 	addiu	a3,v0,-20468
    41d4:	8ce30080 	lw	v1,128(a3)
    41d8:	2402ffff 	li	v0,-1
    41dc:	10620009 	beq	v1,v0,4204 <unfreeze_tasks_of_cluster+0x38>
    41e0:	00804021 	move	t0,a0
    41e4:	8ce300a0 	lw	v1,160(a3)
    41e8:	24040001 	li	a0,1
    41ec:	8c620028 	lw	v0,40(v1)
    41f0:	00000000 	nop
    41f4:	ac620000 	sw	v0,0(v1)
    41f8:	00801021 	move	v0,a0
    41fc:	03e00008 	jr	ra
    4200:	ace50094 	sw	a1,148(a3)
    4204:	8ce200a0 	lw	v0,160(a3)
    4208:	24030004 	li	v1,4
    420c:	8c440000 	lw	a0,0(v0)
    4210:	00000000 	nop
    4214:	1083fff3 	beq	a0,v1,41e4 <unfreeze_tasks_of_cluster+0x18>
    4218:	00000000 	nop
    421c:	8ce20094 	lw	v0,148(a3)
    4220:	00000000 	nop
    4224:	1048ffef 	beq	v0,t0,41e4 <unfreeze_tasks_of_cluster+0x18>
    4228:	00002021 	move	a0,zero
    422c:	03e00008 	jr	ra
    4230:	00801021 	move	v0,a0

00004234 <unfreeze_tasks_of_App>:
    4234:	3c030005 	lui	v1,0x5
    4238:	2463b00c 	addiu	v1,v1,-20468
    423c:	8c620080 	lw	v0,128(v1)
    4240:	00000000 	nop
    4244:	00021203 	sra	v0,v0,0x8
    4248:	14440005 	bne	v0,a0,4260 <unfreeze_tasks_of_App+0x2c>
    424c:	00002821 	move	a1,zero
    4250:	8c6300a0 	lw	v1,160(v1)
    4254:	24020002 	li	v0,2
    4258:	24050001 	li	a1,1
    425c:	ac620000 	sw	v0,0(v1)
    4260:	03e00008 	jr	ra
    4264:	00a01021 	move	v0,a1

00004268 <search_free_TCB>:
    4268:	27bdffe8 	addiu	sp,sp,-24
    426c:	3c050005 	lui	a1,0x5
    4270:	afbf0010 	sw	ra,16(sp)
    4274:	24a2b00c 	addiu	v0,a1,-20468
    4278:	8c4300a0 	lw	v1,160(v0)
    427c:	2402ffff 	li	v0,-1
    4280:	8c640000 	lw	a0,0(v1)
    4284:	00000000 	nop
    4288:	10820005 	beq	a0,v0,42a0 <search_free_TCB+0x38>
    428c:	3c040001 	lui	a0,0x1
    4290:	0c000901 	jal	2404 <puts>
    4294:	24848410 	addiu	a0,a0,-31728
    4298:	080010a6 	j	4298 <search_free_TCB+0x30>
    429c:	00000000 	nop
    42a0:	8fbf0010 	lw	ra,16(sp)
    42a4:	24a2b00c 	addiu	v0,a1,-20468
    42a8:	03e00008 	jr	ra
    42ac:	27bd0018 	addiu	sp,sp,24

000042b0 <freeze_tasks_of_App>:
    42b0:	27bdffe0 	addiu	sp,sp,-32
    42b4:	3c020005 	lui	v0,0x5
    42b8:	afb20018 	sw	s2,24(sp)
    42bc:	afb10014 	sw	s1,20(sp)
    42c0:	afb00010 	sw	s0,16(sp)
    42c4:	2451b00c 	addiu	s1,v0,-20468
    42c8:	afbf001c 	sw	ra,28(sp)
    42cc:	8e230080 	lw	v1,128(s1)
    42d0:	3c120001 	lui	s2,0x1
    42d4:	00038203 	sra	s0,v1,0x8
    42d8:	12040007 	beq	s0,a0,42f8 <freeze_tasks_of_App+0x48>
    42dc:	00001021 	move	v0,zero
    42e0:	8fbf001c 	lw	ra,28(sp)
    42e4:	8fb20018 	lw	s2,24(sp)
    42e8:	8fb10014 	lw	s1,20(sp)
    42ec:	8fb00010 	lw	s0,16(sp)
    42f0:	03e00008 	jr	ra
    42f4:	27bd0020 	addiu	sp,sp,32
    42f8:	8e2300a0 	lw	v1,160(s1)
    42fc:	24020004 	li	v0,4
    4300:	8c650000 	lw	a1,0(v1)
    4304:	3c040001 	lui	a0,0x1
    4308:	ac650028 	sw	a1,40(v1)
    430c:	ac620000 	sw	v0,0(v1)
    4310:	0c000901 	jal	2404 <puts>
    4314:	24848428 	addiu	a0,a0,-31704
    4318:	0c000973 	jal	25cc <itoh>
    431c:	02002021 	move	a0,s0
    4320:	0c000901 	jal	2404 <puts>
    4324:	00402021 	move	a0,v0
    4328:	0c000901 	jal	2404 <puts>
    432c:	26448594 	addiu	a0,s2,-31340
    4330:	3c040001 	lui	a0,0x1
    4334:	0c000901 	jal	2404 <puts>
    4338:	24848434 	addiu	a0,a0,-31692
    433c:	8e2300a0 	lw	v1,160(s1)
    4340:	00000000 	nop
    4344:	8c640000 	lw	a0,0(v1)
    4348:	0c000973 	jal	25cc <itoh>
    434c:	00000000 	nop
    4350:	0c000901 	jal	2404 <puts>
    4354:	00402021 	move	a0,v0
    4358:	0c000901 	jal	2404 <puts>
    435c:	26448594 	addiu	a0,s2,-31340
    4360:	3c040001 	lui	a0,0x1
    4364:	0c000901 	jal	2404 <puts>
    4368:	24848440 	addiu	a0,a0,-31680
    436c:	8e2300a0 	lw	v1,160(s1)
    4370:	00000000 	nop
    4374:	8c640028 	lw	a0,40(v1)
    4378:	0c000973 	jal	25cc <itoh>
    437c:	00000000 	nop
    4380:	0c000901 	jal	2404 <puts>
    4384:	00402021 	move	a0,v0
    4388:	0c000901 	jal	2404 <puts>
    438c:	26448594 	addiu	a0,s2,-31340
    4390:	8fbf001c 	lw	ra,28(sp)
    4394:	8fb20018 	lw	s2,24(sp)
    4398:	8fb10014 	lw	s1,20(sp)
    439c:	8fb00010 	lw	s0,16(sp)
    43a0:	24020001 	li	v0,1
    43a4:	03e00008 	jr	ra
    43a8:	27bd0020 	addiu	sp,sp,32

000043ac <print_task>:
    43ac:	27bdffe0 	addiu	sp,sp,-32
    43b0:	afb00010 	sw	s0,16(sp)
    43b4:	3c040001 	lui	a0,0x1
    43b8:	3c100005 	lui	s0,0x5
    43bc:	2610b00c 	addiu	s0,s0,-20468
    43c0:	24848450 	addiu	a0,a0,-31664
    43c4:	afbf0018 	sw	ra,24(sp)
    43c8:	0c000901 	jal	2404 <puts>
    43cc:	afb10014 	sw	s1,20(sp)
    43d0:	8e040080 	lw	a0,128(s0)
    43d4:	0c00092c 	jal	24b0 <itoa>
    43d8:	3c110001 	lui	s1,0x1
    43dc:	0c000901 	jal	2404 <puts>
    43e0:	00402021 	move	a0,v0
    43e4:	0c000901 	jal	2404 <puts>
    43e8:	26248594 	addiu	a0,s1,-31340
    43ec:	3c040001 	lui	a0,0x1
    43f0:	0c000901 	jal	2404 <puts>
    43f4:	24848460 	addiu	a0,a0,-31648
    43f8:	8e0300a0 	lw	v1,160(s0)
    43fc:	00000000 	nop
    4400:	8c640000 	lw	a0,0(v1)
    4404:	0c00092c 	jal	24b0 <itoa>
    4408:	00000000 	nop
    440c:	0c000901 	jal	2404 <puts>
    4410:	00402021 	move	a0,v0
    4414:	26248594 	addiu	a0,s1,-31340
    4418:	8fbf0018 	lw	ra,24(sp)
    441c:	8fb10014 	lw	s1,20(sp)
    4420:	8fb00010 	lw	s0,16(sp)
    4424:	08000901 	j	2404 <puts>
    4428:	27bd0020 	addiu	sp,sp,32

0000442c <init_TCBs>:
    442c:	27bdffe8 	addiu	sp,sp,-24
    4430:	afb00010 	sw	s0,16(sp)
    4434:	3c100005 	lui	s0,0x5
    4438:	2610b00c 	addiu	s0,s0,-20468
    443c:	2403ffff 	li	v1,-1
    4440:	3c020001 	lui	v0,0x1
    4444:	3c040005 	lui	a0,0x5
    4448:	afbf0014 	sw	ra,20(sp)
    444c:	2484b0ac 	addiu	a0,a0,-20308
    4450:	ae02007c 	sw	v0,124(s0)
    4454:	ae030090 	sw	v1,144(s0)
    4458:	ae030080 	sw	v1,128(s0)
    445c:	ae000078 	sw	zero,120(s0)
    4460:	0c001581 	jal	5604 <init_scheduling_ptr>
    4464:	00002821 	move	a1,zero
    4468:	8e0400a0 	lw	a0,160(s0)
    446c:	00000000 	nop
    4470:	ac900024 	sw	s0,36(a0)
    4474:	8fbf0014 	lw	ra,20(sp)
    4478:	8fb00010 	lw	s0,16(sp)
    447c:	08001654 	j	5950 <clear_scheduling>
    4480:	27bd0018 	addiu	sp,sp,24

00004484 <init_task_location>:
    4484:	3c020005 	lui	v0,0x5
    4488:	3c030005 	lui	v1,0x5
    448c:	2442b0b0 	addiu	v0,v0,-20304
    4490:	2463b0d0 	addiu	v1,v1,-20272
    4494:	2404ffff 	li	a0,-1
    4498:	ac440000 	sw	a0,0(v0)
    449c:	ac440004 	sw	a0,4(v0)
    44a0:	24420008 	addiu	v0,v0,8
    44a4:	1443fffc 	bne	v0,v1,4498 <init_task_location+0x14>
    44a8:	00000000 	nop
    44ac:	03e00008 	jr	ra
    44b0:	00000000 	nop

000044b4 <get_task_location>:
    44b4:	3c020005 	lui	v0,0x5
    44b8:	2445b0b0 	addiu	a1,v0,-20304
    44bc:	00001821 	move	v1,zero
    44c0:	24070004 	li	a3,4
    44c4:	24a60004 	addiu	a2,a1,4
    44c8:	8ca20000 	lw	v0,0(a1)
    44cc:	24630001 	addiu	v1,v1,1
    44d0:	10440005 	beq	v0,a0,44e8 <get_task_location+0x34>
    44d4:	24a50008 	addiu	a1,a1,8
    44d8:	1467fffb 	bne	v1,a3,44c8 <get_task_location+0x14>
    44dc:	24c60008 	addiu	a2,a2,8
    44e0:	03e00008 	jr	ra
    44e4:	2402ffff 	li	v0,-1
    44e8:	8cc20000 	lw	v0,0(a2)
    44ec:	03e00008 	jr	ra
    44f0:	00000000 	nop

000044f4 <change_task_location>:
    44f4:	3c020005 	lui	v0,0x5
    44f8:	2446b0b0 	addiu	a2,v0,-20304
    44fc:	00001821 	move	v1,zero
    4500:	24080004 	li	t0,4
    4504:	24c70004 	addiu	a3,a2,4
    4508:	8cc20000 	lw	v0,0(a2)
    450c:	24630001 	addiu	v1,v1,1
    4510:	10440005 	beq	v0,a0,4528 <change_task_location+0x34>
    4514:	24c60008 	addiu	a2,a2,8
    4518:	1468fffb 	bne	v1,t0,4508 <change_task_location+0x14>
    451c:	24e70008 	addiu	a3,a3,8
    4520:	03e00008 	jr	ra
    4524:	00000000 	nop
    4528:	03e00008 	jr	ra
    452c:	ace50000 	sw	a1,0(a3)

00004530 <clear_app_tasks_locations>:
    4530:	3c020005 	lui	v0,0x5
    4534:	3c030005 	lui	v1,0x5
    4538:	2446b0b0 	addiu	a2,v0,-20304
    453c:	2463b0d0 	addiu	v1,v1,-20272
    4540:	2407ffff 	li	a3,-1
    4544:	8cc20000 	lw	v0,0(a2)
    4548:	00000000 	nop
    454c:	10470003 	beq	v0,a3,455c <clear_app_tasks_locations+0x2c>
    4550:	00022a03 	sra	a1,v0,0x8
    4554:	10a40006 	beq	a1,a0,4570 <clear_app_tasks_locations+0x40>
    4558:	00000000 	nop
    455c:	24c60008 	addiu	a2,a2,8
    4560:	14c3fff8 	bne	a2,v1,4544 <clear_app_tasks_locations+0x14>
    4564:	00000000 	nop
    4568:	03e00008 	jr	ra
    456c:	00000000 	nop
    4570:	acc70000 	sw	a3,0(a2)
    4574:	08001157 	j	455c <clear_app_tasks_locations+0x2c>
    4578:	acc70004 	sw	a3,4(a2)

0000457c <remove_task_location>:
    457c:	27bdffe8 	addiu	sp,sp,-24
    4580:	3c070005 	lui	a3,0x5
    4584:	afbf0010 	sw	ra,16(sp)
    4588:	00001821 	move	v1,zero
    458c:	24e5b0b0 	addiu	a1,a3,-20304
    4590:	24060004 	li	a2,4
    4594:	8ca20000 	lw	v0,0(a1)
    4598:	00000000 	nop
    459c:	10440009 	beq	v0,a0,45c4 <remove_task_location+0x48>
    45a0:	24a50008 	addiu	a1,a1,8
    45a4:	24630001 	addiu	v1,v1,1
    45a8:	1466fffa 	bne	v1,a2,4594 <remove_task_location+0x18>
    45ac:	00000000 	nop
    45b0:	3c040001 	lui	a0,0x1
    45b4:	0c000901 	jal	2404 <puts>
    45b8:	2484846c 	addiu	a0,a0,-31636
    45bc:	0800116f 	j	45bc <remove_task_location+0x40>
    45c0:	00000000 	nop
    45c4:	24e2b0b0 	addiu	v0,a3,-20304
    45c8:	000318c0 	sll	v1,v1,0x3
    45cc:	00621821 	addu	v1,v1,v0
    45d0:	2404ffff 	li	a0,-1
    45d4:	8c620004 	lw	v0,4(v1)
    45d8:	ac640000 	sw	a0,0(v1)
    45dc:	ac640004 	sw	a0,4(v1)
    45e0:	8fbf0010 	lw	ra,16(sp)
    45e4:	00000000 	nop
    45e8:	03e00008 	jr	ra
    45ec:	27bd0018 	addiu	sp,sp,24

000045f0 <add_task_location>:
    45f0:	27bdffc8 	addiu	sp,sp,-56
    45f4:	3c020005 	lui	v0,0x5
    45f8:	afb00010 	sw	s0,16(sp)
    45fc:	2450b0b0 	addiu	s0,v0,-20304
    4600:	afbe0030 	sw	s8,48(sp)
    4604:	afb7002c 	sw	s7,44(sp)
    4608:	afb60028 	sw	s6,40(sp)
    460c:	afb50024 	sw	s5,36(sp)
    4610:	afb40020 	sw	s4,32(sp)
    4614:	afb3001c 	sw	s3,28(sp)
    4618:	afb20018 	sw	s2,24(sp)
    461c:	afb10014 	sw	s1,20(sp)
    4620:	afbf0034 	sw	ra,52(sp)
    4624:	00809821 	move	s3,a0
    4628:	00a0a021 	move	s4,a1
    462c:	00008821 	move	s1,zero
    4630:	3c150001 	lui	s5,0x1
    4634:	3c160001 	lui	s6,0x1
    4638:	2417ffff 	li	s7,-1
    463c:	02009021 	move	s2,s0
    4640:	241e0004 	li	s8,4
    4644:	3c020001 	lui	v0,0x1
    4648:	0c000901 	jal	2404 <puts>
    464c:	24448490 	addiu	a0,v0,-31600
    4650:	8e040000 	lw	a0,0(s0)
    4654:	0c000973 	jal	25cc <itoh>
    4658:	26310001 	addiu	s1,s1,1
    465c:	0c000901 	jal	2404 <puts>
    4660:	00402021 	move	a0,v0
    4664:	3c020001 	lui	v0,0x1
    4668:	0c000901 	jal	2404 <puts>
    466c:	2444849c 	addiu	a0,v0,-31588
    4670:	8e040004 	lw	a0,4(s0)
    4674:	0c000973 	jal	25cc <itoh>
    4678:	00000000 	nop
    467c:	0c000901 	jal	2404 <puts>
    4680:	00402021 	move	a0,v0
    4684:	3c020001 	lui	v0,0x1
    4688:	0c000901 	jal	2404 <puts>
    468c:	24448594 	addiu	a0,v0,-31340
    4690:	8e030000 	lw	v1,0(s0)
    4694:	00000000 	nop
    4698:	10770008 	beq	v1,s7,46bc <add_task_location+0xcc>
    469c:	26100008 	addiu	s0,s0,8
    46a0:	163effe8 	bne	s1,s8,4644 <add_task_location+0x54>
    46a4:	26520008 	addiu	s2,s2,8
    46a8:	3c040001 	lui	a0,0x1
    46ac:	0c000901 	jal	2404 <puts>
    46b0:	248484c4 	addiu	a0,a0,-31548
    46b4:	080011ad 	j	46b4 <add_task_location+0xc4>
    46b8:	00000000 	nop
    46bc:	3c040001 	lui	a0,0x1
    46c0:	ae540004 	sw	s4,4(s2)
    46c4:	ae530000 	sw	s3,0(s2)
    46c8:	0c000901 	jal	2404 <puts>
    46cc:	248484a4 	addiu	a0,a0,-31580
    46d0:	0c00092c 	jal	24b0 <itoa>
    46d4:	02602021 	move	a0,s3
    46d8:	0c000901 	jal	2404 <puts>
    46dc:	00402021 	move	a0,v0
    46e0:	0c000901 	jal	2404 <puts>
    46e4:	26a4849c 	addiu	a0,s5,-31588
    46e8:	0c000973 	jal	25cc <itoh>
    46ec:	02802021 	move	a0,s4
    46f0:	0c000901 	jal	2404 <puts>
    46f4:	00402021 	move	a0,v0
    46f8:	26c48594 	addiu	a0,s6,-31340
    46fc:	8fbf0034 	lw	ra,52(sp)
    4700:	8fbe0030 	lw	s8,48(sp)
    4704:	8fb7002c 	lw	s7,44(sp)
    4708:	8fb60028 	lw	s6,40(sp)
    470c:	8fb50024 	lw	s5,36(sp)
    4710:	8fb40020 	lw	s4,32(sp)
    4714:	8fb3001c 	lw	s3,28(sp)
    4718:	8fb20018 	lw	s2,24(sp)
    471c:	8fb10014 	lw	s1,20(sp)
    4720:	8fb00010 	lw	s0,16(sp)
    4724:	08000901 	j	2404 <puts>
    4728:	27bd0038 	addiu	sp,sp,56

0000472c <handle_migration_stack>:
    472c:	27bdffe8 	addiu	sp,sp,-24
    4730:	afbf0010 	sw	ra,16(sp)
    4734:	8c82009c 	lw	v0,156(a0)
    4738:	00000000 	nop
    473c:	10400006 	beqz	v0,4758 <handle_migration_stack+0x2c>
    4740:	00a01821 	move	v1,a1
    4744:	8c85009c 	lw	a1,156(a0)
    4748:	8c620064 	lw	v0,100(v1)
    474c:	8c64007c 	lw	a0,124(v1)
    4750:	0c000ab8 	jal	2ae0 <DMNI_read_data>
    4754:	00822021 	addu	a0,a0,v0
    4758:	3c040001 	lui	a0,0x1
    475c:	8fbf0010 	lw	ra,16(sp)
    4760:	248484e4 	addiu	a0,a0,-31516
    4764:	08000901 	j	2404 <puts>
    4768:	27bd0018 	addiu	sp,sp,24

0000476c <handle_migration_TCB>:
    476c:	27bdff68 	addiu	sp,sp,-152
    4770:	afb1008c 	sw	s1,140(sp)
    4774:	afb00088 	sw	s0,136(sp)
    4778:	afbf0090 	sw	ra,144(sp)
    477c:	8c8200a4 	lw	v0,164(a0)
    4780:	8ca3007c 	lw	v1,124(a1)
    4784:	00a08021 	move	s0,a1
    4788:	00431021 	addu	v0,v0,v1
    478c:	ae020078 	sw	v0,120(s0)
    4790:	8ca500a0 	lw	a1,160(a1)
    4794:	8c83008c 	lw	v1,140(a0)
    4798:	27b10010 	addiu	s1,sp,16
    479c:	aca30028 	sw	v1,40(a1)
    47a0:	02202021 	move	a0,s1
    47a4:	0c000ab8 	jal	2ae0 <DMNI_read_data>
    47a8:	2405001e 	li	a1,30
    47ac:	00002821 	move	a1,zero
    47b0:	2406001b 	li	a2,27
    47b4:	00051080 	sll	v0,a1,0x2
    47b8:	00511821 	addu	v1,v0,s1
    47bc:	10a6000b 	beq	a1,a2,47ec <handle_migration_TCB+0x80>
    47c0:	00502021 	addu	a0,v0,s0
    47c4:	8c630000 	lw	v1,0(v1)
    47c8:	24a50001 	addiu	a1,a1,1
    47cc:	28a2001e 	slti	v0,a1,30
    47d0:	1440fff8 	bnez	v0,47b4 <handle_migration_TCB+0x48>
    47d4:	ac830000 	sw	v1,0(a0)
    47d8:	8fbf0090 	lw	ra,144(sp)
    47dc:	8fb1008c 	lw	s1,140(sp)
    47e0:	8fb00088 	lw	s0,136(sp)
    47e4:	03e00008 	jr	ra
    47e8:	27bd0098 	addiu	sp,sp,152
    47ec:	8fa2007c 	lw	v0,124(sp)
    47f0:	8e03007c 	lw	v1,124(s0)
    47f4:	2405001c 	li	a1,28
    47f8:	00431021 	addu	v0,v0,v1
    47fc:	080011ed 	j	47b4 <handle_migration_TCB+0x48>
    4800:	ae02006c 	sw	v0,108(s0)

00004804 <handle_migration_code>:
    4804:	00a03021 	move	a2,a1
    4808:	8ca500a0 	lw	a1,160(a1)
    480c:	24020003 	li	v0,3
    4810:	aca20000 	sw	v0,0(a1)
    4814:	8c850088 	lw	a1,136(a0)
    4818:	00801821 	move	v1,a0
    481c:	acc50080 	sw	a1,128(a2)
    4820:	8c62008c 	lw	v0,140(v1)
    4824:	8cc4007c 	lw	a0,124(a2)
    4828:	acc20094 	sw	v0,148(a2)
    482c:	8c6500a4 	lw	a1,164(v1)
    4830:	08000ab8 	j	2ae0 <DMNI_read_data>
    4834:	acc50084 	sw	a1,132(a2)

00004838 <handle_migration_PIPE>:
    4838:	27bdfde0 	addiu	sp,sp,-544
    483c:	afbf021c 	sw	ra,540(sp)
    4840:	afb00218 	sw	s0,536(sp)
    4844:	8c82009c 	lw	v0,156(a0)
    4848:	00808021 	move	s0,a0
    484c:	00402821 	move	a1,v0
    4850:	27a40014 	addiu	a0,sp,20
    4854:	0c000ab8 	jal	2ae0 <DMNI_read_data>
    4858:	afa20010 	sw	v0,16(sp)
    485c:	8e040088 	lw	a0,136(s0)
    4860:	8e05008c 	lw	a1,140(s0)
    4864:	0c000d01 	jal	3404 <add_PIPE>
    4868:	27a60010 	addiu	a2,sp,16
    486c:	8fbf021c 	lw	ra,540(sp)
    4870:	8fb00218 	lw	s0,536(sp)
    4874:	03e00008 	jr	ra
    4878:	27bd0220 	addiu	sp,sp,544

0000487c <handle_consumer_migration_request_msg>:
    487c:	27bdffb8 	addiu	sp,sp,-72
    4880:	afbf0044 	sw	ra,68(sp)
    4884:	afbe0040 	sw	s8,64(sp)
    4888:	afb50034 	sw	s5,52(sp)
    488c:	afb10024 	sw	s1,36(sp)
    4890:	afb00020 	sw	s0,32(sp)
    4894:	afb7003c 	sw	s7,60(sp)
    4898:	afb60038 	sw	s6,56(sp)
    489c:	afb40030 	sw	s4,48(sp)
    48a0:	afb3002c 	sw	s3,44(sp)
    48a4:	afb20028 	sw	s2,40(sp)
    48a8:	8c8200a8 	lw	v0,168(a0)
    48ac:	03a0f021 	move	s8,sp
    48b0:	00021080 	sll	v0,v0,0x2
    48b4:	2442000e 	addiu	v0,v0,14
    48b8:	000210c2 	srl	v0,v0,0x3
    48bc:	afdd0018 	sw	sp,24(s8)
    48c0:	000210c0 	sll	v0,v0,0x3
    48c4:	03a2e823 	subu	sp,sp,v0
    48c8:	8c8300a8 	lw	v1,168(a0)
    48cc:	27b10018 	addiu	s1,sp,24
    48d0:	00808021 	move	s0,a0
    48d4:	afc5004c 	sw	a1,76(s8)
    48d8:	02202021 	move	a0,s1
    48dc:	0c000ab8 	jal	2ae0 <DMNI_read_data>
    48e0:	00602821 	move	a1,v1
    48e4:	8e0300a8 	lw	v1,168(s0)
    48e8:	3c02cccc 	lui	v0,0xcccc
    48ec:	3442cccd 	ori	v0,v0,0xcccd
    48f0:	00620019 	multu	v1,v0
    48f4:	3c040001 	lui	a0,0x1
    48f8:	248484f8 	addiu	a0,a0,-31496
    48fc:	00001810 	mfhi	v1
    4900:	0c000901 	jal	2404 <puts>
    4904:	0003a882 	srl	s5,v1,0x2
    4908:	3c040001 	lui	a0,0x1
    490c:	0c000901 	jal	2404 <puts>
    4910:	24848520 	addiu	a0,a0,-31456
    4914:	0c000973 	jal	25cc <itoh>
    4918:	02a02021 	move	a0,s5
    491c:	0c000901 	jal	2404 <puts>
    4920:	00402021 	move	a0,v0
    4924:	3c020001 	lui	v0,0x1
    4928:	0c000901 	jal	2404 <puts>
    492c:	24448594 	addiu	a0,v0,-31340
    4930:	12a00010 	beqz	s5,4974 <handle_consumer_migration_request_msg+0xf8>
    4934:	02208021 	move	s0,s1
    4938:	00009021 	move	s2,zero
    493c:	3c030001 	lui	v1,0x1
    4940:	24648534 	addiu	a0,v1,-31436
    4944:	8fc3004c 	lw	v1,76(s8)
    4948:	8e170000 	lw	s7,0(s0)
    494c:	8c620080 	lw	v0,128(v1)
    4950:	8e140004 	lw	s4,4(s0)
    4954:	8e160008 	lw	s6,8(s0)
    4958:	8e11000c 	lw	s1,12(s0)
    495c:	26520001 	addiu	s2,s2,1
    4960:	8e130010 	lw	s3,16(s0)
    4964:	12220014 	beq	s1,v0,49b8 <handle_consumer_migration_request_msg+0x13c>
    4968:	26100014 	addiu	s0,s0,20
    496c:	1655fff4 	bne	s2,s5,4940 <handle_consumer_migration_request_msg+0xc4>
    4970:	3c030001 	lui	v1,0x1
    4974:	3c040001 	lui	a0,0x1
    4978:	0c000901 	jal	2404 <puts>
    497c:	2484854c 	addiu	a0,a0,-31412
    4980:	8fdd0018 	lw	sp,24(s8)
    4984:	03c0e821 	move	sp,s8
    4988:	8fbf0044 	lw	ra,68(sp)
    498c:	8fbe0040 	lw	s8,64(sp)
    4990:	8fb7003c 	lw	s7,60(sp)
    4994:	8fb60038 	lw	s6,56(sp)
    4998:	8fb50034 	lw	s5,52(sp)
    499c:	8fb40030 	lw	s4,48(sp)
    49a0:	8fb3002c 	lw	s3,44(sp)
    49a4:	8fb20028 	lw	s2,40(sp)
    49a8:	8fb10024 	lw	s1,36(sp)
    49ac:	8fb00020 	lw	s0,32(sp)
    49b0:	03e00008 	jr	ra
    49b4:	27bd0048 	addiu	sp,sp,72
    49b8:	0c000901 	jal	2404 <puts>
    49bc:	00000000 	nop
    49c0:	0c00092c 	jal	24b0 <itoa>
    49c4:	02802021 	move	a0,s4
    49c8:	0c000901 	jal	2404 <puts>
    49cc:	00402021 	move	a0,v0
    49d0:	3c020001 	lui	v0,0x1
    49d4:	0c000901 	jal	2404 <puts>
    49d8:	24448544 	addiu	a0,v0,-31420
    49dc:	0c00092c 	jal	24b0 <itoa>
    49e0:	02602021 	move	a0,s3
    49e4:	0c000901 	jal	2404 <puts>
    49e8:	00402021 	move	a0,v0
    49ec:	3c030001 	lui	v1,0x1
    49f0:	0c000901 	jal	2404 <puts>
    49f4:	24648594 	addiu	a0,v1,-31340
    49f8:	afb30010 	sw	s3,16(sp)
    49fc:	02e02021 	move	a0,s7
    4a00:	02802821 	move	a1,s4
    4a04:	02203021 	move	a2,s1
    4a08:	0c000ed6 	jal	3b58 <add_msg_request_migration>
    4a0c:	02c03821 	move	a3,s6
    4a10:	1655ffcb 	bne	s2,s5,4940 <handle_consumer_migration_request_msg+0xc4>
    4a14:	3c030001 	lui	v1,0x1
    4a18:	0800125e 	j	4978 <handle_consumer_migration_request_msg+0xfc>
    4a1c:	3c040001 	lui	a0,0x1

00004a20 <handle_producer_migration_request_msg>:
    4a20:	27bdffc0 	addiu	sp,sp,-64
    4a24:	afbf003c 	sw	ra,60(sp)
    4a28:	afbe0038 	sw	s8,56(sp)
    4a2c:	afb70034 	sw	s7,52(sp)
    4a30:	afb30024 	sw	s3,36(sp)
    4a34:	afb1001c 	sw	s1,28(sp)
    4a38:	afb00018 	sw	s0,24(sp)
    4a3c:	afb60030 	sw	s6,48(sp)
    4a40:	afb5002c 	sw	s5,44(sp)
    4a44:	afb40028 	sw	s4,40(sp)
    4a48:	afb20020 	sw	s2,32(sp)
    4a4c:	8c8200a8 	lw	v0,168(a0)
    4a50:	03a0f021 	move	s8,sp
    4a54:	00021080 	sll	v0,v0,0x2
    4a58:	2442000e 	addiu	v0,v0,14
    4a5c:	000210c2 	srl	v0,v0,0x3
    4a60:	afdd0010 	sw	sp,16(s8)
    4a64:	000210c0 	sll	v0,v0,0x3
    4a68:	03a2e823 	subu	sp,sp,v0
    4a6c:	8c8300a8 	lw	v1,168(a0)
    4a70:	27b10010 	addiu	s1,sp,16
    4a74:	00808021 	move	s0,a0
    4a78:	00a0b821 	move	s7,a1
    4a7c:	02202021 	move	a0,s1
    4a80:	0c000ab8 	jal	2ae0 <DMNI_read_data>
    4a84:	00602821 	move	a1,v1
    4a88:	8e0300a8 	lw	v1,168(s0)
    4a8c:	3c02aaaa 	lui	v0,0xaaaa
    4a90:	3442aaab 	ori	v0,v0,0xaaab
    4a94:	00620019 	multu	v1,v0
    4a98:	3c040001 	lui	a0,0x1
    4a9c:	24848570 	addiu	a0,a0,-31376
    4aa0:	00001810 	mfhi	v1
    4aa4:	0c000901 	jal	2404 <puts>
    4aa8:	00039842 	srl	s3,v1,0x1
    4aac:	3c040001 	lui	a0,0x1
    4ab0:	0c000901 	jal	2404 <puts>
    4ab4:	24848520 	addiu	a0,a0,-31456
    4ab8:	0c00092c 	jal	24b0 <itoa>
    4abc:	02602021 	move	a0,s3
    4ac0:	0c000901 	jal	2404 <puts>
    4ac4:	00402021 	move	a0,v0
    4ac8:	3c020001 	lui	v0,0x1
    4acc:	0c000901 	jal	2404 <puts>
    4ad0:	24448594 	addiu	a0,v0,-31340
    4ad4:	1260000d 	beqz	s3,4b0c <handle_producer_migration_request_msg+0xec>
    4ad8:	02208021 	move	s0,s1
    4adc:	00009021 	move	s2,zero
    4ae0:	3c160001 	lui	s6,0x1
    4ae4:	8e140000 	lw	s4,0(s0)
    4ae8:	8ee20080 	lw	v0,128(s7)
    4aec:	8e110004 	lw	s1,4(s0)
    4af0:	26c48598 	addiu	a0,s6,-31336
    4af4:	8e150008 	lw	s5,8(s0)
    4af8:	26520001 	addiu	s2,s2,1
    4afc:	12220014 	beq	s1,v0,4b50 <handle_producer_migration_request_msg+0x130>
    4b00:	2610000c 	addiu	s0,s0,12
    4b04:	1653fff7 	bne	s2,s3,4ae4 <handle_producer_migration_request_msg+0xc4>
    4b08:	00000000 	nop
    4b0c:	3c040001 	lui	a0,0x1
    4b10:	0c000901 	jal	2404 <puts>
    4b14:	248485b0 	addiu	a0,a0,-31312
    4b18:	8fdd0010 	lw	sp,16(s8)
    4b1c:	03c0e821 	move	sp,s8
    4b20:	8fbf003c 	lw	ra,60(sp)
    4b24:	8fbe0038 	lw	s8,56(sp)
    4b28:	8fb70034 	lw	s7,52(sp)
    4b2c:	8fb60030 	lw	s6,48(sp)
    4b30:	8fb5002c 	lw	s5,44(sp)
    4b34:	8fb40028 	lw	s4,40(sp)
    4b38:	8fb30024 	lw	s3,36(sp)
    4b3c:	8fb20020 	lw	s2,32(sp)
    4b40:	8fb1001c 	lw	s1,28(sp)
    4b44:	8fb00018 	lw	s0,24(sp)
    4b48:	03e00008 	jr	ra
    4b4c:	27bd0040 	addiu	sp,sp,64
    4b50:	0c000901 	jal	2404 <puts>
    4b54:	00000000 	nop
    4b58:	0c00092c 	jal	24b0 <itoa>
    4b5c:	02802021 	move	a0,s4
    4b60:	0c000901 	jal	2404 <puts>
    4b64:	00402021 	move	a0,v0
    4b68:	3c020001 	lui	v0,0x1
    4b6c:	0c000901 	jal	2404 <puts>
    4b70:	244485a4 	addiu	a0,v0,-31324
    4b74:	0c00092c 	jal	24b0 <itoa>
    4b78:	02202021 	move	a0,s1
    4b7c:	0c000901 	jal	2404 <puts>
    4b80:	00402021 	move	a0,v0
    4b84:	3c020001 	lui	v0,0x1
    4b88:	0c000901 	jal	2404 <puts>
    4b8c:	24448594 	addiu	a0,v0,-31340
    4b90:	02202021 	move	a0,s1
    4b94:	02802821 	move	a1,s4
    4b98:	0c000e3a 	jal	38e8 <insert_message_request>
    4b9c:	02a03021 	move	a2,s5
    4ba0:	1653ffd0 	bne	s2,s3,4ae4 <handle_producer_migration_request_msg+0xc4>
    4ba4:	3c040001 	lui	a0,0x1
    4ba8:	080012c4 	j	4b10 <handle_producer_migration_request_msg+0xf0>
    4bac:	00000000 	nop

00004bb0 <print_locations>:
    4bb0:	27bdffd0 	addiu	sp,sp,-48
    4bb4:	afb50024 	sw	s5,36(sp)
    4bb8:	afb40020 	sw	s4,32(sp)
    4bbc:	afb3001c 	sw	s3,28(sp)
    4bc0:	afb20018 	sw	s2,24(sp)
    4bc4:	afb10014 	sw	s1,20(sp)
    4bc8:	afbf0028 	sw	ra,40(sp)
    4bcc:	afb00010 	sw	s0,16(sp)
    4bd0:	00008821 	move	s1,zero
    4bd4:	3c150001 	lui	s5,0x1
    4bd8:	3c140001 	lui	s4,0x1
    4bdc:	3c130001 	lui	s3,0x1
    4be0:	24120002 	li	s2,2
    4be4:	0c00112d 	jal	44b4 <get_task_location>
    4be8:	02202021 	move	a0,s1
    4bec:	26a485d4 	addiu	a0,s5,-31276
    4bf0:	0c000901 	jal	2404 <puts>
    4bf4:	00408021 	move	s0,v0
    4bf8:	0c00092c 	jal	24b0 <itoa>
    4bfc:	02202021 	move	a0,s1
    4c00:	0c000901 	jal	2404 <puts>
    4c04:	00402021 	move	a0,v0
    4c08:	0c000901 	jal	2404 <puts>
    4c0c:	268485dc 	addiu	a0,s4,-31268
    4c10:	0c000973 	jal	25cc <itoh>
    4c14:	02002021 	move	a0,s0
    4c18:	0c000901 	jal	2404 <puts>
    4c1c:	00402021 	move	a0,v0
    4c20:	26310001 	addiu	s1,s1,1
    4c24:	0c000901 	jal	2404 <puts>
    4c28:	26648594 	addiu	a0,s3,-31340
    4c2c:	1632ffed 	bne	s1,s2,4be4 <print_locations+0x34>
    4c30:	00000000 	nop
    4c34:	8fbf0028 	lw	ra,40(sp)
    4c38:	8fb50024 	lw	s5,36(sp)
    4c3c:	8fb40020 	lw	s4,32(sp)
    4c40:	8fb3001c 	lw	s3,28(sp)
    4c44:	8fb20018 	lw	s2,24(sp)
    4c48:	8fb10014 	lw	s1,20(sp)
    4c4c:	8fb00010 	lw	s0,16(sp)
    4c50:	03e00008 	jr	ra
    4c54:	27bd0030 	addiu	sp,sp,48

00004c58 <handle_migration_task_location>:
    4c58:	27bdffc0 	addiu	sp,sp,-64
    4c5c:	afb1001c 	sw	s1,28(sp)
    4c60:	27b10010 	addiu	s1,sp,16
    4c64:	afb00018 	sw	s0,24(sp)
    4c68:	02202021 	move	a0,s1
    4c6c:	00a08021 	move	s0,a1
    4c70:	24050002 	li	a1,2
    4c74:	afbf003c 	sw	ra,60(sp)
    4c78:	afbe0038 	sw	s8,56(sp)
    4c7c:	afb70034 	sw	s7,52(sp)
    4c80:	afb60030 	sw	s6,48(sp)
    4c84:	afb5002c 	sw	s5,44(sp)
    4c88:	afb40028 	sw	s4,40(sp)
    4c8c:	afb30024 	sw	s3,36(sp)
    4c90:	0c000ab8 	jal	2ae0 <DMNI_read_data>
    4c94:	afb20020 	sw	s2,32(sp)
    4c98:	8e030080 	lw	v1,128(s0)
    4c9c:	3c040001 	lui	a0,0x1
    4ca0:	248485ec 	addiu	a0,a0,-31252
    4ca4:	3074ff00 	andi	s4,v1,0xff00
    4ca8:	0c000901 	jal	2404 <puts>
    4cac:	02209821 	move	s3,s1
    4cb0:	00009021 	move	s2,zero
    4cb4:	3c150001 	lui	s5,0x1
    4cb8:	3c1e0001 	lui	s8,0x1
    4cbc:	2416ffff 	li	s6,-1
    4cc0:	24170002 	li	s7,2
    4cc4:	3c020001 	lui	v0,0x1
    4cc8:	02928025 	or	s0,s4,s2
    4ccc:	2444860c 	addiu	a0,v0,-31220
    4cd0:	8e710000 	lw	s1,0(s3)
    4cd4:	0c000901 	jal	2404 <puts>
    4cd8:	26520001 	addiu	s2,s2,1
    4cdc:	0c00092c 	jal	24b0 <itoa>
    4ce0:	02002021 	move	a0,s0
    4ce4:	0c000901 	jal	2404 <puts>
    4ce8:	00402021 	move	a0,v0
    4cec:	3c030001 	lui	v1,0x1
    4cf0:	0c000901 	jal	2404 <puts>
    4cf4:	2464861c 	addiu	a0,v1,-31204
    4cf8:	0c000973 	jal	25cc <itoh>
    4cfc:	02202021 	move	a0,s1
    4d00:	0c000901 	jal	2404 <puts>
    4d04:	00402021 	move	a0,v0
    4d08:	0c000901 	jal	2404 <puts>
    4d0c:	26a48594 	addiu	a0,s5,-31340
    4d10:	0c000901 	jal	2404 <puts>
    4d14:	27c48620 	addiu	a0,s8,-31200
    4d18:	0c00112d 	jal	44b4 <get_task_location>
    4d1c:	02002021 	move	a0,s0
    4d20:	0c000973 	jal	25cc <itoh>
    4d24:	00402021 	move	a0,v0
    4d28:	0c000901 	jal	2404 <puts>
    4d2c:	00402021 	move	a0,v0
    4d30:	0c000901 	jal	2404 <puts>
    4d34:	26a48594 	addiu	a0,s5,-31340
    4d38:	26730004 	addiu	s3,s3,4
    4d3c:	12360006 	beq	s1,s6,4d58 <handle_migration_task_location+0x100>
    4d40:	02002021 	move	a0,s0
    4d44:	0c00112d 	jal	44b4 <get_task_location>
    4d48:	00000000 	nop
    4d4c:	3c030001 	lui	v1,0x1
    4d50:	10560012 	beq	v0,s6,4d9c <handle_migration_task_location+0x144>
    4d54:	2464863c 	addiu	a0,v1,-31172
    4d58:	1657ffdb 	bne	s2,s7,4cc8 <handle_migration_task_location+0x70>
    4d5c:	3c020001 	lui	v0,0x1
    4d60:	3c040001 	lui	a0,0x1
    4d64:	0c000901 	jal	2404 <puts>
    4d68:	24848648 	addiu	a0,a0,-31160
    4d6c:	8fbf003c 	lw	ra,60(sp)
    4d70:	8fbe0038 	lw	s8,56(sp)
    4d74:	8fb70034 	lw	s7,52(sp)
    4d78:	8fb60030 	lw	s6,48(sp)
    4d7c:	8fb5002c 	lw	s5,44(sp)
    4d80:	8fb40028 	lw	s4,40(sp)
    4d84:	8fb30024 	lw	s3,36(sp)
    4d88:	8fb20020 	lw	s2,32(sp)
    4d8c:	8fb1001c 	lw	s1,28(sp)
    4d90:	8fb00018 	lw	s0,24(sp)
    4d94:	03e00008 	jr	ra
    4d98:	27bd0040 	addiu	sp,sp,64
    4d9c:	0c000901 	jal	2404 <puts>
    4da0:	00000000 	nop
    4da4:	02002021 	move	a0,s0
    4da8:	0c00117c 	jal	45f0 <add_task_location>
    4dac:	02202821 	move	a1,s1
    4db0:	08001356 	j	4d58 <handle_migration_task_location+0x100>
    4db4:	00000000 	nop

00004db8 <migrate_CODE>:
    4db8:	27bdffe8 	addiu	sp,sp,-24
    4dbc:	afb00010 	sw	s0,16(sp)
    4dc0:	afbf0014 	sw	ra,20(sp)
    4dc4:	0c000a63 	jal	298c <get_service_header_slot>
    4dc8:	00808021 	move	s0,a0
    4dcc:	8e030090 	lw	v1,144(s0)
    4dd0:	24040220 	li	a0,544
    4dd4:	ac440084 	sw	a0,132(v0)
    4dd8:	ac43007c 	sw	v1,124(v0)
    4ddc:	8e050094 	lw	a1,148(s0)
    4de0:	00402021 	move	a0,v0
    4de4:	ac45008c 	sw	a1,140(v0)
    4de8:	8e030080 	lw	v1,128(s0)
    4dec:	00000000 	nop
    4df0:	ac430088 	sw	v1,136(v0)
    4df4:	8e060084 	lw	a2,132(s0)
    4df8:	00000000 	nop
    4dfc:	ac4600a4 	sw	a2,164(v0)
    4e00:	8e05007c 	lw	a1,124(s0)
    4e04:	8fbf0014 	lw	ra,20(sp)
    4e08:	8fb00010 	lw	s0,16(sp)
    4e0c:	08000b31 	j	2cc4 <send_packet>
    4e10:	27bd0018 	addiu	sp,sp,24

00004e14 <send_update_task_location>:
    4e14:	27bdffd8 	addiu	sp,sp,-40
    4e18:	afbf0020 	sw	ra,32(sp)
    4e1c:	afb3001c 	sw	s3,28(sp)
    4e20:	afb20018 	sw	s2,24(sp)
    4e24:	00c09821 	move	s3,a2
    4e28:	00a09021 	move	s2,a1
    4e2c:	afb10014 	sw	s1,20(sp)
    4e30:	afb00010 	sw	s0,16(sp)
    4e34:	0c000a63 	jal	298c <get_service_header_slot>
    4e38:	00808821 	move	s1,a0
    4e3c:	00402021 	move	a0,v0
    4e40:	0c000973 	jal	25cc <itoh>
    4e44:	00408021 	move	s0,v0
    4e48:	0c000901 	jal	2404 <puts>
    4e4c:	00402021 	move	a0,v0
    4e50:	3c040001 	lui	a0,0x1
    4e54:	0c000901 	jal	2404 <puts>
    4e58:	24848594 	addiu	a0,a0,-31340
    4e5c:	24020230 	li	v0,560
    4e60:	ae11007c 	sw	s1,124(s0)
    4e64:	ae020084 	sw	v0,132(s0)
    4e68:	ae120088 	sw	s2,136(s0)
    4e6c:	ae13009c 	sw	s3,156(s0)
    4e70:	02002021 	move	a0,s0
    4e74:	8fbf0020 	lw	ra,32(sp)
    4e78:	8fb3001c 	lw	s3,28(sp)
    4e7c:	8fb20018 	lw	s2,24(sp)
    4e80:	8fb10014 	lw	s1,20(sp)
    4e84:	8fb00010 	lw	s0,16(sp)
    4e88:	00002821 	move	a1,zero
    4e8c:	00003021 	move	a2,zero
    4e90:	08000b31 	j	2cc4 <send_packet>
    4e94:	27bd0028 	addiu	sp,sp,40

00004e98 <send_task_migrated>:
    4e98:	27bdffe0 	addiu	sp,sp,-32
    4e9c:	afbf001c 	sw	ra,28(sp)
    4ea0:	afb20018 	sw	s2,24(sp)
    4ea4:	afb10014 	sw	s1,20(sp)
    4ea8:	00a09021 	move	s2,a1
    4eac:	00808821 	move	s1,a0
    4eb0:	afb00010 	sw	s0,16(sp)
    4eb4:	0c000a63 	jal	298c <get_service_header_slot>
    4eb8:	00c08021 	move	s0,a2
    4ebc:	24030235 	li	v1,565
    4ec0:	ac50007c 	sw	s0,124(v0)
    4ec4:	ac430084 	sw	v1,132(v0)
    4ec8:	ac510088 	sw	s1,136(v0)
    4ecc:	ac52009c 	sw	s2,156(v0)
    4ed0:	8fbf001c 	lw	ra,28(sp)
    4ed4:	8fb20018 	lw	s2,24(sp)
    4ed8:	8fb10014 	lw	s1,20(sp)
    4edc:	8fb00010 	lw	s0,16(sp)
    4ee0:	00402021 	move	a0,v0
    4ee4:	00002821 	move	a1,zero
    4ee8:	00003021 	move	a2,zero
    4eec:	08000b31 	j	2cc4 <send_packet>
    4ef0:	27bd0020 	addiu	sp,sp,32

00004ef4 <handle_migration_DATA_BSS>:
    4ef4:	27bdffe0 	addiu	sp,sp,-32
    4ef8:	afb20018 	sw	s2,24(sp)
    4efc:	afb10014 	sw	s1,20(sp)
    4f00:	afb00010 	sw	s0,16(sp)
    4f04:	afbf001c 	sw	ra,28(sp)
    4f08:	8c8200a0 	lw	v0,160(a0)
    4f0c:	00a08021 	move	s0,a1
    4f10:	aca20088 	sw	v0,136(a1)
    4f14:	8c8300a8 	lw	v1,168(a0)
    4f18:	00808821 	move	s1,a0
    4f1c:	00621021 	addu	v0,v1,v0
    4f20:	00c09021 	move	s2,a2
    4f24:	00402821 	move	a1,v0
    4f28:	10400006 	beqz	v0,4f44 <handle_migration_DATA_BSS+0x50>
    4f2c:	ae03008c 	sw	v1,140(s0)
    4f30:	8e040084 	lw	a0,132(s0)
    4f34:	8e02007c 	lw	v0,124(s0)
    4f38:	00042080 	sll	a0,a0,0x2
    4f3c:	0c000ab8 	jal	2ae0 <DMNI_read_data>
    4f40:	00822021 	addu	a0,a0,v0
    4f44:	8e0400a0 	lw	a0,160(s0)
    4f48:	24020004 	li	v0,4
    4f4c:	ac820000 	sw	v0,0(a0)
    4f50:	2403ffff 	li	v1,-1
    4f54:	24023fbe 	li	v0,16318
    4f58:	ae030090 	sw	v1,144(s0)
    4f5c:	ac820014 	sw	v0,20(a0)
    4f60:	8e040080 	lw	a0,128(s0)
    4f64:	8e250090 	lw	a1,144(s1)
    4f68:	0c0013a6 	jal	4e98 <send_task_migrated>
    4f6c:	02403021 	move	a2,s2
    4f70:	3c040001 	lui	a0,0x1
    4f74:	8fbf001c 	lw	ra,28(sp)
    4f78:	8fb20018 	lw	s2,24(sp)
    4f7c:	8fb10014 	lw	s1,20(sp)
    4f80:	8fb00010 	lw	s0,16(sp)
    4f84:	24848664 	addiu	a0,a0,-31132
    4f88:	08000901 	j	2404 <puts>
    4f8c:	27bd0020 	addiu	sp,sp,32

00004f90 <migrate_dynamic_memory>:
    4f90:	27bdff30 	addiu	sp,sp,-208
    4f94:	afb200b0 	sw	s2,176(sp)
    4f98:	afbf00cc 	sw	ra,204(sp)
    4f9c:	afbe00c8 	sw	s8,200(sp)
    4fa0:	afb700c4 	sw	s7,196(sp)
    4fa4:	afb600c0 	sw	s6,192(sp)
    4fa8:	afb500bc 	sw	s5,188(sp)
    4fac:	afb400b8 	sw	s4,184(sp)
    4fb0:	afb300b4 	sw	s3,180(sp)
    4fb4:	afb100ac 	sw	s1,172(sp)
    4fb8:	afb000a8 	sw	s0,168(sp)
    4fbc:	8c820064 	lw	v0,100(a0)
    4fc0:	00809021 	move	s2,a0
    4fc4:	3c040001 	lui	a0,0x1
    4fc8:	00823023 	subu	a2,a0,v0
    4fcc:	afa200a4 	sw	v0,164(sp)
    4fd0:	30c30003 	andi	v1,a2,0x3
    4fd4:	2402ffff 	li	v0,-1
    4fd8:	8e560090 	lw	s6,144(s2)
    4fdc:	10600009 	beqz	v1,5004 <migrate_dynamic_memory+0x74>
    4fe0:	ae420090 	sw	v0,144(s2)
    4fe4:	8fa300a4 	lw	v1,164(sp)
    4fe8:	34820001 	ori	v0,a0,0x1
    4fec:	080013fe 	j	4ff8 <migrate_dynamic_memory+0x68>
    4ff0:	00433023 	subu	a2,v0,v1
    4ff4:	00603021 	move	a2,v1
    4ff8:	30c20003 	andi	v0,a2,0x3
    4ffc:	1440fffd 	bnez	v0,4ff4 <migrate_dynamic_memory+0x64>
    5000:	24c30001 	addiu	v1,a2,1
    5004:	00063082 	srl	a2,a2,0x2
    5008:	0c000a63 	jal	298c <get_service_header_slot>
    500c:	afa600a0 	sw	a2,160(sp)
    5010:	00403821 	move	a3,v0
    5014:	24020221 	li	v0,545
    5018:	ace20084 	sw	v0,132(a3)
    501c:	acf6007c 	sw	s6,124(a3)
    5020:	8e420080 	lw	v0,128(s2)
    5024:	00003021 	move	a2,zero
    5028:	ace20088 	sw	v0,136(a3)
    502c:	8e4400a0 	lw	a0,160(s2)
    5030:	27b30010 	addiu	s3,sp,16
    5034:	8c830028 	lw	v1,40(a0)
    5038:	00000000 	nop
    503c:	ace3008c 	sw	v1,140(a3)
    5040:	8e420078 	lw	v0,120(s2)
    5044:	8e43007c 	lw	v1,124(s2)
    5048:	00000000 	nop
    504c:	00431023 	subu	v0,v0,v1
    5050:	ace200a4 	sw	v0,164(a3)
    5054:	00061880 	sll	v1,a2,0x2
    5058:	2402001b 	li	v0,27
    505c:	00722021 	addu	a0,v1,s2
    5060:	10c2008b 	beq	a2,v0,5290 <migrate_dynamic_memory+0x300>
    5064:	00732821 	addu	a1,v1,s3
    5068:	8c830000 	lw	v1,0(a0)
    506c:	24c60001 	addiu	a2,a2,1
    5070:	28c2001e 	slti	v0,a2,30
    5074:	aca30014 	sw	v1,20(a1)
    5078:	1440fff7 	bnez	v0,5058 <migrate_dynamic_memory+0xc8>
    507c:	00061880 	sll	v1,a2,0x2
    5080:	00e02021 	move	a0,a3
    5084:	27a50024 	addiu	a1,sp,36
    5088:	0c000b31 	jal	2cc4 <send_packet>
    508c:	2406001e 	li	a2,30
    5090:	0c000a63 	jal	298c <get_service_header_slot>
    5094:	0000a021 	move	s4,zero
    5098:	ac56007c 	sw	s6,124(v0)
    509c:	8e430080 	lw	v1,128(s2)
    50a0:	0040a821 	move	s5,v0
    50a4:	24020222 	li	v0,546
    50a8:	00602021 	move	a0,v1
    50ac:	aea30088 	sw	v1,136(s5)
    50b0:	aea20084 	sw	v0,132(s5)
    50b4:	0c00115f 	jal	457c <remove_task_location>
    50b8:	3077ff00 	andi	s7,v1,0xff00
    50bc:	8e440080 	lw	a0,128(s2)
    50c0:	0c00117c 	jal	45f0 <add_task_location>
    50c4:	02c02821 	move	a1,s6
    50c8:	241e0002 	li	s8,2
    50cc:	02608821 	move	s1,s3
    50d0:	02f48025 	or	s0,s7,s4
    50d4:	0c00112d 	jal	44b4 <get_task_location>
    50d8:	02002021 	move	a0,s0
    50dc:	ae220000 	sw	v0,0(s1)
    50e0:	8e220000 	lw	v0,0(s1)
    50e4:	2403ffff 	li	v1,-1
    50e8:	26940001 	addiu	s4,s4,1
    50ec:	26310004 	addiu	s1,s1,4
    50f0:	10430003 	beq	v0,v1,5100 <migrate_dynamic_memory+0x170>
    50f4:	02002021 	move	a0,s0
    50f8:	0c00115f 	jal	457c <remove_task_location>
    50fc:	00000000 	nop
    5100:	169efff3 	bne	s4,s8,50d0 <migrate_dynamic_memory+0x140>
    5104:	02a02021 	move	a0,s5
    5108:	02602821 	move	a1,s3
    510c:	0c000b31 	jal	2cc4 <send_packet>
    5110:	24060002 	li	a2,2
    5114:	27b10018 	addiu	s1,sp,24
    5118:	8e440080 	lw	a0,128(s2)
    511c:	0c000d94 	jal	3650 <remove_prod_requested_msgs>
    5120:	02202821 	move	a1,s1
    5124:	14400061 	bnez	v0,52ac <migrate_dynamic_memory+0x31c>
    5128:	00408021 	move	s0,v0
    512c:	8e440080 	lw	a0,128(s2)
    5130:	02202821 	move	a1,s1
    5134:	0c000db3 	jal	36cc <remove_cons_requested_msgs>
    5138:	02c03021 	move	a2,s6
    513c:	1440006d 	bnez	v0,52f4 <migrate_dynamic_memory+0x364>
    5140:	00408021 	move	s0,v0
    5144:	0c000a63 	jal	298c <get_service_header_slot>
    5148:	00000000 	nop
    514c:	24030225 	li	v1,549
    5150:	ac430084 	sw	v1,132(v0)
    5154:	ac56007c 	sw	s6,124(v0)
    5158:	8fa400a0 	lw	a0,160(sp)
    515c:	8e430080 	lw	v1,128(s2)
    5160:	ac44009c 	sw	a0,156(v0)
    5164:	ac430088 	sw	v1,136(v0)
    5168:	00402021 	move	a0,v0
    516c:	8e45007c 	lw	a1,124(s2)
    5170:	8fa200a4 	lw	v0,164(sp)
    5174:	8fa600a0 	lw	a2,160(sp)
    5178:	0c000b31 	jal	2cc4 <send_packet>
    517c:	00452821 	addu	a1,v0,a1
    5180:	8e440080 	lw	a0,128(s2)
    5184:	0c000cb4 	jal	32d0 <remove_PIPE_by_producer>
    5188:	00000000 	nop
    518c:	10400019 	beqz	v0,51f4 <migrate_dynamic_memory+0x264>
    5190:	00408021 	move	s0,v0
    5194:	24110227 	li	s1,551
    5198:	0c000a63 	jal	298c <get_service_header_slot>
    519c:	00000000 	nop
    51a0:	ac56007c 	sw	s6,124(v0)
    51a4:	ac510084 	sw	s1,132(v0)
    51a8:	8e430080 	lw	v1,128(s2)
    51ac:	2605000c 	addiu	a1,s0,12
    51b0:	ac430088 	sw	v1,136(v0)
    51b4:	8e060000 	lw	a2,0(s0)
    51b8:	00402021 	move	a0,v0
    51bc:	ac460088 	sw	a2,136(v0)
    51c0:	8e030004 	lw	v1,4(s0)
    51c4:	00000000 	nop
    51c8:	ac43008c 	sw	v1,140(v0)
    51cc:	8e070008 	lw	a3,8(s0)
    51d0:	00000000 	nop
    51d4:	00e03021 	move	a2,a3
    51d8:	0c000b31 	jal	2cc4 <send_packet>
    51dc:	ac47009c 	sw	a3,156(v0)
    51e0:	8e440080 	lw	a0,128(s2)
    51e4:	0c000cb4 	jal	32d0 <remove_PIPE_by_producer>
    51e8:	00000000 	nop
    51ec:	1440ffea 	bnez	v0,5198 <migrate_dynamic_memory+0x208>
    51f0:	00408021 	move	s0,v0
    51f4:	0c000a63 	jal	298c <get_service_header_slot>
    51f8:	00000000 	nop
    51fc:	24030226 	li	v1,550
    5200:	ac56007c 	sw	s6,124(v0)
    5204:	ac430084 	sw	v1,132(v0)
    5208:	8e450080 	lw	a1,128(s2)
    520c:	00402021 	move	a0,v0
    5210:	ac450088 	sw	a1,136(v0)
    5214:	8e430088 	lw	v1,136(s2)
    5218:	00000000 	nop
    521c:	ac4300a0 	sw	v1,160(v0)
    5220:	8e46008c 	lw	a2,140(s2)
    5224:	00000000 	nop
    5228:	ac4600a8 	sw	a2,168(v0)
    522c:	8e450084 	lw	a1,132(s2)
    5230:	8e42007c 	lw	v0,124(s2)
    5234:	00052880 	sll	a1,a1,0x2
    5238:	00a22821 	addu	a1,a1,v0
    523c:	0c000b31 	jal	2cc4 <send_packet>
    5240:	00663021 	addu	a2,v1,a2
    5244:	8e4400a0 	lw	a0,160(s2)
    5248:	0c001654 	jal	5950 <clear_scheduling>
    524c:	00000000 	nop
    5250:	2402ffff 	li	v0,-1
    5254:	ae420090 	sw	v0,144(s2)
    5258:	ae400078 	sw	zero,120(s2)
    525c:	ae420080 	sw	v0,128(s2)
    5260:	8fbf00cc 	lw	ra,204(sp)
    5264:	8fbe00c8 	lw	s8,200(sp)
    5268:	8fb700c4 	lw	s7,196(sp)
    526c:	8fb600c0 	lw	s6,192(sp)
    5270:	8fb500bc 	lw	s5,188(sp)
    5274:	8fb400b8 	lw	s4,184(sp)
    5278:	8fb300b4 	lw	s3,180(sp)
    527c:	8fb200b0 	lw	s2,176(sp)
    5280:	8fb100ac 	lw	s1,172(sp)
    5284:	8fb000a8 	lw	s0,168(sp)
    5288:	03e00008 	jr	ra
    528c:	27bd00d0 	addiu	sp,sp,208
    5290:	8e42006c 	lw	v0,108(s2)
    5294:	8e43007c 	lw	v1,124(s2)
    5298:	2406001c 	li	a2,28
    529c:	00431023 	subu	v0,v0,v1
    52a0:	afa20090 	sw	v0,144(sp)
    52a4:	08001416 	j	5058 <migrate_dynamic_memory+0xc8>
    52a8:	00061880 	sll	v1,a2,0x2
    52ac:	0c000a63 	jal	298c <get_service_header_slot>
    52b0:	00000000 	nop
    52b4:	24030223 	li	v1,547
    52b8:	ac430084 	sw	v1,132(v0)
    52bc:	ac56007c 	sw	s6,124(v0)
    52c0:	8e430080 	lw	v1,128(s2)
    52c4:	00402021 	move	a0,v0
    52c8:	ac5000a8 	sw	s0,168(v0)
    52cc:	02003021 	move	a2,s0
    52d0:	ac430088 	sw	v1,136(v0)
    52d4:	0c000b31 	jal	2cc4 <send_packet>
    52d8:	02202821 	move	a1,s1
    52dc:	8e440080 	lw	a0,128(s2)
    52e0:	02202821 	move	a1,s1
    52e4:	0c000db3 	jal	36cc <remove_cons_requested_msgs>
    52e8:	02c03021 	move	a2,s6
    52ec:	1040ff95 	beqz	v0,5144 <migrate_dynamic_memory+0x1b4>
    52f0:	00408021 	move	s0,v0
    52f4:	0c000a63 	jal	298c <get_service_header_slot>
    52f8:	00000000 	nop
    52fc:	24030224 	li	v1,548
    5300:	ac430084 	sw	v1,132(v0)
    5304:	ac56007c 	sw	s6,124(v0)
    5308:	8e430080 	lw	v1,128(s2)
    530c:	00402021 	move	a0,v0
    5310:	ac430088 	sw	v1,136(v0)
    5314:	ac5000a8 	sw	s0,168(v0)
    5318:	02202821 	move	a1,s1
    531c:	0c000b31 	jal	2cc4 <send_packet>
    5320:	02003021 	move	a2,s0
    5324:	08001451 	j	5144 <migrate_dynamic_memory+0x1b4>
    5328:	00000000 	nop

0000532c <handle_task_migration>:
    532c:	27bdffe0 	addiu	sp,sp,-32
    5330:	afb00010 	sw	s0,16(sp)
    5334:	00808021 	move	s0,a0
    5338:	3c040001 	lui	a0,0x1
    533c:	2484867c 	addiu	a0,a0,-31108
    5340:	afbf001c 	sw	ra,28(sp)
    5344:	afb20018 	sw	s2,24(sp)
    5348:	afb10014 	sw	s1,20(sp)
    534c:	0c000901 	jal	2404 <puts>
    5350:	00a08821 	move	s1,a1
    5354:	8e040088 	lw	a0,136(s0)
    5358:	0c00092c 	jal	24b0 <itoa>
    535c:	3c120001 	lui	s2,0x1
    5360:	0c000901 	jal	2404 <puts>
    5364:	00402021 	move	a0,v0
    5368:	3c040001 	lui	a0,0x1
    536c:	0c000901 	jal	2404 <puts>
    5370:	248486ac 	addiu	a0,a0,-31060
    5374:	8e04009c 	lw	a0,156(s0)
    5378:	0c000973 	jal	25cc <itoh>
    537c:	00000000 	nop
    5380:	0c000901 	jal	2404 <puts>
    5384:	00402021 	move	a0,v0
    5388:	0c000901 	jal	2404 <puts>
    538c:	26448594 	addiu	a0,s2,-31340
    5390:	3c040001 	lui	a0,0x1
    5394:	12200005 	beqz	s1,53ac <handle_task_migration+0x80>
    5398:	248486ec 	addiu	a0,a0,-30996
    539c:	8e230090 	lw	v1,144(s1)
    53a0:	2402ffff 	li	v0,-1
    53a4:	1062000d 	beq	v1,v0,53dc <handle_task_migration+0xb0>
    53a8:	00000000 	nop
    53ac:	0c000901 	jal	2404 <puts>
    53b0:	00000000 	nop
    53b4:	3c040001 	lui	a0,0x1
    53b8:	0c000901 	jal	2404 <puts>
    53bc:	24848728 	addiu	a0,a0,-30936
    53c0:	00001021 	move	v0,zero
    53c4:	8fbf001c 	lw	ra,28(sp)
    53c8:	8fb20018 	lw	s2,24(sp)
    53cc:	8fb10014 	lw	s1,20(sp)
    53d0:	8fb00010 	lw	s0,16(sp)
    53d4:	03e00008 	jr	ra
    53d8:	27bd0020 	addiu	sp,sp,32
    53dc:	8e02009c 	lw	v0,156(s0)
    53e0:	02202021 	move	a0,s1
    53e4:	0c00136e 	jal	4db8 <migrate_CODE>
    53e8:	ae220090 	sw	v0,144(s1)
    53ec:	3c040001 	lui	a0,0x1
    53f0:	0c000901 	jal	2404 <puts>
    53f4:	248486c4 	addiu	a0,a0,-31036
    53f8:	8e2300a0 	lw	v1,160(s1)
    53fc:	00000000 	nop
    5400:	8c640000 	lw	a0,0(v1)
    5404:	0c00092c 	jal	24b0 <itoa>
    5408:	00000000 	nop
    540c:	0c000901 	jal	2404 <puts>
    5410:	00402021 	move	a0,v0
    5414:	0c000901 	jal	2404 <puts>
    5418:	26448594 	addiu	a0,s2,-31340
    541c:	8e2300a0 	lw	v1,160(s1)
    5420:	3c040001 	lui	a0,0x1
    5424:	8c630000 	lw	v1,0(v1)
    5428:	00000000 	nop
    542c:	2c620003 	sltiu	v0,v1,3
    5430:	14400004 	bnez	v0,5444 <handle_task_migration+0x118>
    5434:	248486d4 	addiu	a0,a0,-31020
    5438:	24020004 	li	v0,4
    543c:	1462ffdd 	bne	v1,v0,53b4 <handle_task_migration+0x88>
    5440:	00000000 	nop
    5444:	0c000901 	jal	2404 <puts>
    5448:	00000000 	nop
    544c:	0c0013e4 	jal	4f90 <migrate_dynamic_memory>
    5450:	02202021 	move	a0,s1
    5454:	080014f1 	j	53c4 <handle_task_migration+0x98>
    5458:	24020001 	li	v0,1

0000545c <handle_migration>:
    545c:	27bdffe0 	addiu	sp,sp,-32
    5460:	afb20018 	sw	s2,24(sp)
    5464:	afb00010 	sw	s0,16(sp)
    5468:	afbf001c 	sw	ra,28(sp)
    546c:	afb10014 	sw	s1,20(sp)
    5470:	8c830084 	lw	v1,132(a0)
    5474:	24020220 	li	v0,544
    5478:	00808021 	move	s0,a0
    547c:	10620028 	beq	v1,v0,5520 <handle_migration+0xc4>
    5480:	00a09021 	move	s2,a1
    5484:	8c840088 	lw	a0,136(a0)
    5488:	0c000fe1 	jal	3f84 <searchTCB>
    548c:	00000000 	nop
    5490:	00408821 	move	s1,v0
    5494:	3c040001 	lui	a0,0x1
    5498:	0c000901 	jal	2404 <puts>
    549c:	24848748 	addiu	a0,a0,-30904
    54a0:	8e040084 	lw	a0,132(s0)
    54a4:	0c000973 	jal	25cc <itoh>
    54a8:	00000000 	nop
    54ac:	0c000901 	jal	2404 <puts>
    54b0:	00402021 	move	a0,v0
    54b4:	3c040001 	lui	a0,0x1
    54b8:	0c000901 	jal	2404 <puts>
    54bc:	24848594 	addiu	a0,a0,-31340
    54c0:	8e030084 	lw	v1,132(s0)
    54c4:	00000000 	nop
    54c8:	2463fdf0 	addiu	v1,v1,-528
    54cc:	2c620018 	sltiu	v0,v1,24
    54d0:	1040000a 	beqz	v0,54fc <handle_migration+0xa0>
    54d4:	3c040001 	lui	a0,0x1
    54d8:	00031080 	sll	v0,v1,0x2
    54dc:	3c030001 	lui	v1,0x1
    54e0:	2463877c 	addiu	v1,v1,-30852
    54e4:	00431021 	addu	v0,v0,v1
    54e8:	8c440000 	lw	a0,0(v0)
    54ec:	00000000 	nop
    54f0:	00800008 	jr	a0
    54f4:	00000000 	nop
    54f8:	3c040001 	lui	a0,0x1
    54fc:	0c000901 	jal	2404 <puts>
    5500:	24848754 	addiu	a0,a0,-30892
    5504:	00001021 	move	v0,zero
    5508:	8fbf001c 	lw	ra,28(sp)
    550c:	8fb20018 	lw	s2,24(sp)
    5510:	8fb10014 	lw	s1,20(sp)
    5514:	8fb00010 	lw	s0,16(sp)
    5518:	03e00008 	jr	ra
    551c:	27bd0020 	addiu	sp,sp,32
    5520:	0c00109a 	jal	4268 <search_free_TCB>
    5524:	00000000 	nop
    5528:	08001525 	j	5494 <handle_migration+0x38>
    552c:	00408821 	move	s1,v0
    5530:	02002021 	move	a0,s0
    5534:	02202821 	move	a1,s1
    5538:	8fbf001c 	lw	ra,28(sp)
    553c:	8fb20018 	lw	s2,24(sp)
    5540:	8fb10014 	lw	s1,20(sp)
    5544:	8fb00010 	lw	s0,16(sp)
    5548:	080014cb 	j	532c <handle_task_migration>
    554c:	27bd0020 	addiu	sp,sp,32
    5550:	02002021 	move	a0,s0
    5554:	0c00120e 	jal	4838 <handle_migration_PIPE>
    5558:	02202821 	move	a1,s1
    555c:	08001542 	j	5508 <handle_migration+0xac>
    5560:	00001021 	move	v0,zero
    5564:	02002021 	move	a0,s0
    5568:	02202821 	move	a1,s1
    556c:	0c0013bd 	jal	4ef4 <handle_migration_DATA_BSS>
    5570:	02403021 	move	a2,s2
    5574:	08001542 	j	5508 <handle_migration+0xac>
    5578:	24020001 	li	v0,1
    557c:	02002021 	move	a0,s0
    5580:	0c0011cb 	jal	472c <handle_migration_stack>
    5584:	02202821 	move	a1,s1
    5588:	08001542 	j	5508 <handle_migration+0xac>
    558c:	00001021 	move	v0,zero
    5590:	02002021 	move	a0,s0
    5594:	0c00121f 	jal	487c <handle_consumer_migration_request_msg>
    5598:	02202821 	move	a1,s1
    559c:	08001542 	j	5508 <handle_migration+0xac>
    55a0:	00001021 	move	v0,zero
    55a4:	02002021 	move	a0,s0
    55a8:	0c001288 	jal	4a20 <handle_producer_migration_request_msg>
    55ac:	02202821 	move	a1,s1
    55b0:	08001542 	j	5508 <handle_migration+0xac>
    55b4:	00001021 	move	v0,zero
    55b8:	02002021 	move	a0,s0
    55bc:	0c001316 	jal	4c58 <handle_migration_task_location>
    55c0:	02202821 	move	a1,s1
    55c4:	08001542 	j	5508 <handle_migration+0xac>
    55c8:	00001021 	move	v0,zero
    55cc:	02002021 	move	a0,s0
    55d0:	0c0011db 	jal	476c <handle_migration_TCB>
    55d4:	02202821 	move	a1,s1
    55d8:	08001542 	j	5508 <handle_migration+0xac>
    55dc:	00001021 	move	v0,zero
    55e0:	02002021 	move	a0,s0
    55e4:	0c001201 	jal	4804 <handle_migration_code>
    55e8:	02202821 	move	a1,s1
    55ec:	08001542 	j	5508 <handle_migration+0xac>
    55f0:	00001021 	move	v0,zero

000055f4 <get_time_slice>:
    55f4:	3c030005 	lui	v1,0x5
    55f8:	8c629088 	lw	v0,-28536(v1)
    55fc:	03e00008 	jr	ra
    5600:	00000000 	nop

00005604 <init_scheduling_ptr>:
    5604:	00051080 	sll	v0,a1,0x2
    5608:	00051900 	sll	v1,a1,0x4
    560c:	00621823 	subu	v1,v1,v0
    5610:	00651823 	subu	v1,v1,a1
    5614:	3c020005 	lui	v0,0x5
    5618:	00031880 	sll	v1,v1,0x2
    561c:	2442b0d0 	addiu	v0,v0,-20272
    5620:	00621821 	addu	v1,v1,v0
    5624:	2405ffff 	li	a1,-1
    5628:	ac65000c 	sw	a1,12(v1)
    562c:	03e00008 	jr	ra
    5630:	ac830000 	sw	v1,0(a0)

00005634 <update_slack_time>:
    5634:	8c83000c 	lw	v1,12(a0)
    5638:	8c820010 	lw	v0,16(a0)
    563c:	00803021 	move	a2,a0
    5640:	00431021 	addu	v0,v0,v1
    5644:	8c840014 	lw	a0,20(a0)
    5648:	00451023 	subu	v0,v0,a1
    564c:	00441823 	subu	v1,v0,a0
    5650:	0044102a 	slt	v0,v0,a0
    5654:	10400003 	beqz	v0,5664 <update_slack_time+0x30>
    5658:	00000000 	nop
    565c:	03e00008 	jr	ra
    5660:	acc00018 	sw	zero,24(a2)
    5664:	03e00008 	jr	ra
    5668:	acc30018 	sw	v1,24(a2)

0000566c <real_time_task>:
    566c:	3c022000 	lui	v0,0x2000
    5670:	8c830010 	lw	v1,16(a0)
    5674:	ac86000c 	sw	a2,12(a0)
    5678:	ac850008 	sw	a1,8(a0)
    567c:	ac870004 	sw	a3,4(a0)
    5680:	34420300 	ori	v0,v0,0x300
    5684:	00804021 	move	t0,a0
    5688:	8c460000 	lw	a2,0(v0)
    568c:	14600025 	bnez	v1,5724 <real_time_task+0xb8>
    5690:	00000000 	nop
    5694:	14a00002 	bnez	a1,56a0 <real_time_task+0x34>
    5698:	00c5001b 	divu	zero,a2,a1
    569c:	0007000d 	break	0x7
    56a0:	00001012 	mflo	v0
	...
    56ac:	00a20018 	mult	a1,v0
    56b0:	00001012 	mflo	v0
    56b4:	0046182b 	sltu	v1,v0,a2
    56b8:	10600007 	beqz	v1,56d8 <real_time_task+0x6c>
    56bc:	00a21821 	addu	v1,a1,v0
    56c0:	00651821 	addu	v1,v1,a1
    56c4:	00652023 	subu	a0,v1,a1
    56c8:	0086102b 	sltu	v0,a0,a2
    56cc:	1440fffd 	bnez	v0,56c4 <real_time_task+0x58>
    56d0:	00651821 	addu	v1,v1,a1
    56d4:	00801021 	move	v0,a0
    56d8:	3c060005 	lui	a2,0x5
    56dc:	ad020010 	sw	v0,16(t0)
    56e0:	ad000000 	sw	zero,0(t0)
    56e4:	ad070014 	sw	a3,20(t0)
    56e8:	00072100 	sll	a0,a3,0x4
    56ec:	00071080 	sll	v0,a3,0x2
    56f0:	00441021 	addu	v0,v0,a0
    56f4:	00021880 	sll	v1,v0,0x2
    56f8:	00431021 	addu	v0,v0,v1
    56fc:	14a00002 	bnez	a1,5708 <real_time_task+0x9c>
    5700:	0045001b 	divu	zero,v0,a1
    5704:	0007000d 	break	0x7
    5708:	8cc39100 	lw	v1,-28416(a2)
    570c:	00001012 	mflo	v0
    5710:	2442000a 	addiu	v0,v0,10
    5714:	00431821 	addu	v1,v0,v1
    5718:	ad020020 	sw	v0,32(t0)
    571c:	03e00008 	jr	ra
    5720:	acc39100 	sw	v1,-28416(a2)
    5724:	3c060005 	lui	a2,0x5
    5728:	8cc29100 	lw	v0,-28416(a2)
    572c:	8c830020 	lw	v1,32(a0)
    5730:	00000000 	nop
    5734:	00431023 	subu	v0,v0,v1
    5738:	080015ba 	j	56e8 <real_time_task+0x7c>
    573c:	acc29100 	sw	v0,-28416(a2)

00005740 <round_robin>:
    5740:	3c040005 	lui	a0,0x5
    5744:	8c829104 	lw	v0,-28412(a0)
    5748:	00000000 	nop
    574c:	14400005 	bnez	v0,5764 <round_robin+0x24>
    5750:	24430001 	addiu	v1,v0,1
    5754:	ac809104 	sw	zero,-28412(a0)
    5758:	8c829104 	lw	v0,-28412(a0)
    575c:	03e00008 	jr	ra
    5760:	00000000 	nop
    5764:	ac839104 	sw	v1,-28412(a0)
    5768:	8c829104 	lw	v0,-28412(a0)
    576c:	03e00008 	jr	ra
    5770:	00000000 	nop

00005774 <dynamic_slice_time>:
    5774:	3c070005 	lui	a3,0x5
    5778:	24e6b0d0 	addiu	a2,a3,-20272
    577c:	8cc3000c 	lw	v1,12(a2)
    5780:	2402ffff 	li	v0,-1
    5784:	10620021 	beq	v1,v0,580c <dynamic_slice_time+0x98>
    5788:	00000000 	nop
    578c:	1086001f 	beq	a0,a2,580c <dynamic_slice_time+0x98>
    5790:	24020005 	li	v0,5
    5794:	8ce3b0d0 	lw	v1,-20272(a3)
    5798:	00000000 	nop
    579c:	1062000e 	beq	v1,v0,57d8 <dynamic_slice_time+0x64>
    57a0:	24020001 	li	v0,1
    57a4:	1062000c 	beq	v1,v0,57d8 <dynamic_slice_time+0x64>
    57a8:	00000000 	nop
    57ac:	8cc30018 	lw	v1,24(a2)
    57b0:	00000000 	nop
    57b4:	10600015 	beqz	v1,580c <dynamic_slice_time+0x98>
    57b8:	3c040005 	lui	a0,0x5
    57bc:	8c829088 	lw	v0,-28536(a0)
    57c0:	00000000 	nop
    57c4:	0062102b 	sltu	v0,v1,v0
    57c8:	10400010 	beqz	v0,580c <dynamic_slice_time+0x98>
    57cc:	00000000 	nop
    57d0:	03e00008 	jr	ra
    57d4:	ac839088 	sw	v1,-28536(a0)
    57d8:	8cc30008 	lw	v1,8(a2)
    57dc:	8cc20010 	lw	v0,16(a2)
    57e0:	00000000 	nop
    57e4:	00431821 	addu	v1,v0,v1
    57e8:	10600008 	beqz	v1,580c <dynamic_slice_time+0x98>
    57ec:	3c040005 	lui	a0,0x5
    57f0:	8c829088 	lw	v0,-28536(a0)
    57f4:	00652823 	subu	a1,v1,a1
    57f8:	00a2102b 	sltu	v0,a1,v0
    57fc:	10400003 	beqz	v0,580c <dynamic_slice_time+0x98>
    5800:	00000000 	nop
    5804:	03e00008 	jr	ra
    5808:	ac859088 	sw	a1,-28536(a0)
    580c:	03e00008 	jr	ra
    5810:	00000000 	nop

00005814 <update_real_time>:
    5814:	3c060005 	lui	a2,0x5
    5818:	24c7b0d0 	addiu	a3,a2,-20272
    581c:	8ce5000c 	lw	a1,12(a3)
    5820:	2402ffff 	li	v0,-1
    5824:	10a20027 	beq	a1,v0,58c4 <update_real_time+0xb0>
    5828:	00804021 	move	t0,a0
    582c:	8cc3b0d0 	lw	v1,-20272(a2)
    5830:	00000000 	nop
    5834:	1062002d 	beq	v1,v0,58ec <update_real_time+0xd8>
    5838:	24020003 	li	v0,3
    583c:	1062002b 	beq	v1,v0,58ec <update_real_time+0xd8>
    5840:	24020004 	li	v0,4
    5844:	10620029 	beq	v1,v0,58ec <update_real_time+0xd8>
    5848:	24020002 	li	v0,2
    584c:	10620029 	beq	v1,v0,58f4 <update_real_time+0xe0>
    5850:	3c020005 	lui	v0,0x5
    5854:	24c5b0d0 	addiu	a1,a2,-20272
    5858:	8ca40010 	lw	a0,16(a1)
    585c:	8ca30008 	lw	v1,8(a1)
    5860:	00000000 	nop
    5864:	00832021 	addu	a0,a0,v1
    5868:	0104102b 	sltu	v0,t0,a0
    586c:	1440001b 	bnez	v0,58dc <update_real_time+0xc8>
    5870:	3c070005 	lui	a3,0x5
    5874:	8ca20004 	lw	v0,4(a1)
    5878:	8ce3b0d0 	lw	v1,-20272(a3)
    587c:	aca20014 	sw	v0,20(a1)
    5880:	24020001 	li	v0,1
    5884:	10620003 	beq	v1,v0,5894 <update_real_time+0x80>
    5888:	aca40010 	sw	a0,16(a1)
    588c:	ace0b0d0 	sw	zero,-20272(a3)
    5890:	24c5b0d0 	addiu	a1,a2,-20272
    5894:	8ca3000c 	lw	v1,12(a1)
    5898:	8ca20010 	lw	v0,16(a1)
    589c:	8ca40014 	lw	a0,20(a1)
    58a0:	00431021 	addu	v0,v0,v1
    58a4:	00481023 	subu	v0,v0,t0
    58a8:	0044182a 	slt	v1,v0,a0
    58ac:	10600003 	beqz	v1,58bc <update_real_time+0xa8>
    58b0:	00441023 	subu	v0,v0,a0
    58b4:	03e00008 	jr	ra
    58b8:	aca00018 	sw	zero,24(a1)
    58bc:	03e00008 	jr	ra
    58c0:	aca20018 	sw	v0,24(a1)
    58c4:	8cc3b0d0 	lw	v1,-20272(a2)
    58c8:	24020002 	li	v0,2
    58cc:	14620013 	bne	v1,v0,591c <update_real_time+0x108>
    58d0:	00000000 	nop
    58d4:	03e00008 	jr	ra
    58d8:	acc0b0d0 	sw	zero,-20272(a2)
    58dc:	8ce3b0d0 	lw	v1,-20272(a3)
    58e0:	24020005 	li	v0,5
    58e4:	1462ffeb 	bne	v1,v0,5894 <update_real_time+0x80>
    58e8:	24c5b0d0 	addiu	a1,a2,-20272
    58ec:	03e00008 	jr	ra
    58f0:	00000000 	nop
    58f4:	8c439004 	lw	v1,-28668(v0)
    58f8:	8ce4001c 	lw	a0,28(a3)
    58fc:	8ce20014 	lw	v0,20(a3)
    5900:	01031823 	subu	v1,t0,v1
    5904:	00641823 	subu	v1,v1,a0
    5908:	00431023 	subu	v0,v0,v1
    590c:	18400005 	blez	v0,5924 <update_real_time+0x110>
    5910:	ace20014 	sw	v0,20(a3)
    5914:	08001615 	j	5854 <update_real_time+0x40>
    5918:	acc0b0d0 	sw	zero,-20272(a2)
    591c:	03e00008 	jr	ra
    5920:	00000000 	nop
    5924:	8ce20010 	lw	v0,16(a3)
    5928:	24030005 	li	v1,5
    592c:	00451021 	addu	v0,v0,a1
    5930:	00481023 	subu	v0,v0,t0
    5934:	acc3b0d0 	sw	v1,-20272(a2)
    5938:	04410003 	bgez	v0,5948 <update_real_time+0x134>
    593c:	ace00014 	sw	zero,20(a3)
    5940:	08001615 	j	5854 <update_real_time+0x40>
    5944:	ace00018 	sw	zero,24(a3)
    5948:	08001615 	j	5854 <update_real_time+0x40>
    594c:	ace20018 	sw	v0,24(a3)

00005950 <clear_scheduling>:
    5950:	27bdffe0 	addiu	sp,sp,-32
    5954:	afb20018 	sw	s2,24(sp)
    5958:	afb10014 	sw	s1,20(sp)
    595c:	afb00010 	sw	s0,16(sp)
    5960:	afbf001c 	sw	ra,28(sp)
    5964:	00808021 	move	s0,a0
    5968:	8e02000c 	lw	v0,12(s0)
    596c:	3c040001 	lui	a0,0x1
    5970:	2412ffff 	li	s2,-1
    5974:	3c110005 	lui	s1,0x5
    5978:	1052000f 	beq	v0,s2,59b8 <clear_scheduling+0x68>
    597c:	248487dc 	addiu	a0,a0,-30756
    5980:	8e030020 	lw	v1,32(s0)
    5984:	8e229100 	lw	v0,-28416(s1)
    5988:	00000000 	nop
    598c:	00431023 	subu	v0,v0,v1
    5990:	0c000901 	jal	2404 <puts>
    5994:	ae229100 	sw	v0,-28416(s1)
    5998:	8e249100 	lw	a0,-28416(s1)
    599c:	0c00092c 	jal	24b0 <itoa>
    59a0:	00000000 	nop
    59a4:	0c000901 	jal	2404 <puts>
    59a8:	00402021 	move	a0,v0
    59ac:	3c040001 	lui	a0,0x1
    59b0:	0c000901 	jal	2404 <puts>
    59b4:	24848594 	addiu	a0,a0,-31340
    59b8:	ae12000c 	sw	s2,12(s0)
    59bc:	ae000020 	sw	zero,32(s0)
    59c0:	ae000010 	sw	zero,16(s0)
    59c4:	ae120000 	sw	s2,0(s0)
    59c8:	ae000014 	sw	zero,20(s0)
    59cc:	ae000004 	sw	zero,4(s0)
    59d0:	ae000008 	sw	zero,8(s0)
    59d4:	ae000018 	sw	zero,24(s0)
    59d8:	ae00001c 	sw	zero,28(s0)
    59dc:	8fbf001c 	lw	ra,28(sp)
    59e0:	8fb20018 	lw	s2,24(sp)
    59e4:	8fb10014 	lw	s1,20(sp)
    59e8:	8fb00010 	lw	s0,16(sp)
    59ec:	03e00008 	jr	ra
    59f0:	27bd0020 	addiu	sp,sp,32

000059f4 <LST>:
    59f4:	27bdffd8 	addiu	sp,sp,-40
    59f8:	afb00010 	sw	s0,16(sp)
    59fc:	3c100005 	lui	s0,0x5
    5a00:	afb3001c 	sw	s3,28(sp)
    5a04:	afb20018 	sw	s2,24(sp)
    5a08:	afb10014 	sw	s1,20(sp)
    5a0c:	afbf0020 	sw	ra,32(sp)
    5a10:	3c130005 	lui	s3,0x5
    5a14:	2607b0d0 	addiu	a3,s0,-20272
    5a18:	8e659004 	lw	a1,-28668(s3)
    5a1c:	8ce6000c 	lw	a2,12(a3)
    5a20:	3c120005 	lui	s2,0x5
    5a24:	2402ffff 	li	v0,-1
    5a28:	ae44908c 	sw	a0,-28532(s2)
    5a2c:	10c2007e 	beq	a2,v0,5c28 <LST+0x234>
    5a30:	00858821 	addu	s1,a0,a1
    5a34:	8e03b0d0 	lw	v1,-20272(s0)
    5a38:	00000000 	nop
    5a3c:	10620025 	beq	v1,v0,5ad4 <LST+0xe0>
    5a40:	24020003 	li	v0,3
    5a44:	10620023 	beq	v1,v0,5ad4 <LST+0xe0>
    5a48:	24020004 	li	v0,4
    5a4c:	10620021 	beq	v1,v0,5ad4 <LST+0xe0>
    5a50:	24020002 	li	v0,2
    5a54:	10620097 	beq	v1,v0,5cb4 <LST+0x2c0>
    5a58:	02251823 	subu	v1,s1,a1
    5a5c:	2605b0d0 	addiu	a1,s0,-20272
    5a60:	8ca40010 	lw	a0,16(a1)
    5a64:	8ca30008 	lw	v1,8(a1)
    5a68:	00000000 	nop
    5a6c:	00832021 	addu	a0,a0,v1
    5a70:	0224102b 	sltu	v0,s1,a0
    5a74:	14400013 	bnez	v0,5ac4 <LST+0xd0>
    5a78:	3c060005 	lui	a2,0x5
    5a7c:	8ca20004 	lw	v0,4(a1)
    5a80:	8cc3b0d0 	lw	v1,-20272(a2)
    5a84:	aca20014 	sw	v0,20(a1)
    5a88:	24020001 	li	v0,1
    5a8c:	10620002 	beq	v1,v0,5a98 <LST+0xa4>
    5a90:	aca40010 	sw	a0,16(a1)
    5a94:	acc0b0d0 	sw	zero,-20272(a2)
    5a98:	2604b0d0 	addiu	a0,s0,-20272
    5a9c:	8c83000c 	lw	v1,12(a0)
    5aa0:	8c820010 	lw	v0,16(a0)
    5aa4:	8c850014 	lw	a1,20(a0)
    5aa8:	00431021 	addu	v0,v0,v1
    5aac:	00511023 	subu	v0,v0,s1
    5ab0:	0045182a 	slt	v1,v0,a1
    5ab4:	10600091 	beqz	v1,5cfc <LST+0x308>
    5ab8:	00451023 	subu	v0,v0,a1
    5abc:	0800170e 	j	5c38 <LST+0x244>
    5ac0:	ac800018 	sw	zero,24(a0)
    5ac4:	8cc3b0d0 	lw	v1,-20272(a2)
    5ac8:	24020005 	li	v0,5
    5acc:	1462fff3 	bne	v1,v0,5a9c <LST+0xa8>
    5ad0:	2604b0d0 	addiu	a0,s0,-20272
    5ad4:	0c0015d0 	jal	5740 <round_robin>
    5ad8:	00000000 	nop
    5adc:	00022080 	sll	a0,v0,0x2
    5ae0:	00021900 	sll	v1,v0,0x4
    5ae4:	00641823 	subu	v1,v1,a0
    5ae8:	00621823 	subu	v1,v1,v0
    5aec:	00031880 	sll	v1,v1,0x2
    5af0:	2602b0d0 	addiu	v0,s0,-20272
    5af4:	00621021 	addu	v0,v1,v0
    5af8:	8c440000 	lw	a0,0(v0)
    5afc:	00000000 	nop
    5b00:	1480003a 	bnez	a0,5bec <LST+0x1f8>
    5b04:	2604b0d0 	addiu	a0,s0,-20272
    5b08:	00403021 	move	a2,v0
    5b0c:	8cc2000c 	lw	v0,12(a2)
    5b10:	24030002 	li	v1,2
    5b14:	2404ffff 	li	a0,-1
    5b18:	10440055 	beq	v0,a0,5c70 <LST+0x27c>
    5b1c:	acc30000 	sw	v1,0(a2)
    5b20:	8cc20014 	lw	v0,20(a2)
    5b24:	3c070005 	lui	a3,0x5
    5b28:	ace29088 	sw	v0,-28536(a3)
    5b2c:	2605b0d0 	addiu	a1,s0,-20272
    5b30:	8ca3000c 	lw	v1,12(a1)
    5b34:	2402ffff 	li	v0,-1
    5b38:	10620012 	beq	v1,v0,5b84 <LST+0x190>
    5b3c:	00000000 	nop
    5b40:	10c50010 	beq	a2,a1,5b84 <LST+0x190>
    5b44:	3c020005 	lui	v0,0x5
    5b48:	8c44b0d0 	lw	a0,-20272(v0)
    5b4c:	24030005 	li	v1,5
    5b50:	1083004b 	beq	a0,v1,5c80 <LST+0x28c>
    5b54:	24020001 	li	v0,1
    5b58:	10820049 	beq	a0,v0,5c80 <LST+0x28c>
    5b5c:	00000000 	nop
    5b60:	8ca30018 	lw	v1,24(a1)
    5b64:	00000000 	nop
    5b68:	10600006 	beqz	v1,5b84 <LST+0x190>
    5b6c:	00000000 	nop
    5b70:	8ce29088 	lw	v0,-28536(a3)
    5b74:	00000000 	nop
    5b78:	0062102b 	sltu	v0,v1,v0
    5b7c:	1440004b 	bnez	v0,5cac <LST+0x2b8>
    5b80:	3c020005 	lui	v0,0x5
    5b84:	8cc3000c 	lw	v1,12(a2)
    5b88:	2402ffff 	li	v0,-1
    5b8c:	10620005 	beq	v1,v0,5ba4 <LST+0x1b0>
    5b90:	3c022000 	lui	v0,0x2000
    5b94:	34420300 	ori	v0,v0,0x300
    5b98:	8c430000 	lw	v1,0(v0)
    5b9c:	00000000 	nop
    5ba0:	acc3001c 	sw	v1,28(a2)
    5ba4:	3c022000 	lui	v0,0x2000
    5ba8:	34420300 	ori	v0,v0,0x300
    5bac:	8c430000 	lw	v1,0(v0)
    5bb0:	8e44908c 	lw	a0,-28532(s2)
    5bb4:	8e629004 	lw	v0,-28668(s3)
    5bb8:	00641823 	subu	v1,v1,a0
    5bbc:	00621021 	addu	v0,v1,v0
    5bc0:	00021042 	srl	v0,v0,0x1
    5bc4:	ae629004 	sw	v0,-28668(s3)
    5bc8:	ae43908c 	sw	v1,-28532(s2)
    5bcc:	8fbf0020 	lw	ra,32(sp)
    5bd0:	8fb3001c 	lw	s3,28(sp)
    5bd4:	8fb20018 	lw	s2,24(sp)
    5bd8:	8fb10014 	lw	s1,20(sp)
    5bdc:	8fb00010 	lw	s0,16(sp)
    5be0:	00c01021 	move	v0,a2
    5be4:	03e00008 	jr	ra
    5be8:	27bd0028 	addiu	sp,sp,40
    5bec:	8c83000c 	lw	v1,12(a0)
    5bf0:	3c070005 	lui	a3,0x5
    5bf4:	2402ffff 	li	v0,-1
    5bf8:	10620007 	beq	v1,v0,5c18 <LST+0x224>
    5bfc:	ace09088 	sw	zero,-28536(a3)
    5c00:	8e03b0d0 	lw	v1,-20272(s0)
    5c04:	24020005 	li	v0,5
    5c08:	10620032 	beq	v1,v0,5cd4 <LST+0x2e0>
    5c0c:	24020001 	li	v0,1
    5c10:	10620030 	beq	v1,v0,5cd4 <LST+0x2e0>
    5c14:	00000000 	nop
    5c18:	24023fbe 	li	v0,16318
    5c1c:	00003021 	move	a2,zero
    5c20:	080016e9 	j	5ba4 <LST+0x1b0>
    5c24:	ace29088 	sw	v0,-28536(a3)
    5c28:	8e03b0d0 	lw	v1,-20272(s0)
    5c2c:	24020002 	li	v0,2
    5c30:	10620034 	beq	v1,v0,5d04 <LST+0x310>
    5c34:	00000000 	nop
    5c38:	8e02b0d0 	lw	v0,-20272(s0)
    5c3c:	00000000 	nop
    5c40:	1440ffa4 	bnez	v0,5ad4 <LST+0xe0>
    5c44:	00000000 	nop
    5c48:	2604b0d0 	addiu	a0,s0,-20272
    5c4c:	8c83000c 	lw	v1,12(a0)
    5c50:	2402ffff 	li	v0,-1
    5c54:	1062ff9f 	beq	v1,v0,5ad4 <LST+0xe0>
    5c58:	00803021 	move	a2,a0
    5c5c:	8cc2000c 	lw	v0,12(a2)
    5c60:	24030002 	li	v1,2
    5c64:	2404ffff 	li	a0,-1
    5c68:	1444ffad 	bne	v0,a0,5b20 <LST+0x12c>
    5c6c:	acc30000 	sw	v1,0(a2)
    5c70:	3c070005 	lui	a3,0x5
    5c74:	24023fbe 	li	v0,16318
    5c78:	080016cb 	j	5b2c <LST+0x138>
    5c7c:	ace29088 	sw	v0,-28536(a3)
    5c80:	8ca30008 	lw	v1,8(a1)
    5c84:	8ca20010 	lw	v0,16(a1)
    5c88:	00000000 	nop
    5c8c:	00431821 	addu	v1,v0,v1
    5c90:	1060ffbc 	beqz	v1,5b84 <LST+0x190>
    5c94:	00711823 	subu	v1,v1,s1
    5c98:	8ce29088 	lw	v0,-28536(a3)
    5c9c:	00000000 	nop
    5ca0:	0062102b 	sltu	v0,v1,v0
    5ca4:	1040ffb7 	beqz	v0,5b84 <LST+0x190>
    5ca8:	3c020005 	lui	v0,0x5
    5cac:	080016e1 	j	5b84 <LST+0x190>
    5cb0:	ac439088 	sw	v1,-28536(v0)
    5cb4:	8ce2001c 	lw	v0,28(a3)
    5cb8:	8ce40014 	lw	a0,20(a3)
    5cbc:	00621823 	subu	v1,v1,v0
    5cc0:	00832023 	subu	a0,a0,v1
    5cc4:	18800011 	blez	a0,5d0c <LST+0x318>
    5cc8:	ace40014 	sw	a0,20(a3)
    5ccc:	08001697 	j	5a5c <LST+0x68>
    5cd0:	ae00b0d0 	sw	zero,-20272(s0)
    5cd4:	8c830008 	lw	v1,8(a0)
    5cd8:	8c820010 	lw	v0,16(a0)
    5cdc:	00000000 	nop
    5ce0:	00431021 	addu	v0,v0,v1
    5ce4:	1040ffcc 	beqz	v0,5c18 <LST+0x224>
    5ce8:	ace29088 	sw	v0,-28536(a3)
    5cec:	00511023 	subu	v0,v0,s1
    5cf0:	00003021 	move	a2,zero
    5cf4:	080016e9 	j	5ba4 <LST+0x1b0>
    5cf8:	ace29088 	sw	v0,-28536(a3)
    5cfc:	0800170e 	j	5c38 <LST+0x244>
    5d00:	ac820018 	sw	v0,24(a0)
    5d04:	08001712 	j	5c48 <LST+0x254>
    5d08:	ae00b0d0 	sw	zero,-20272(s0)
    5d0c:	8ce20010 	lw	v0,16(a3)
    5d10:	24030005 	li	v1,5
    5d14:	00461021 	addu	v0,v0,a2
    5d18:	00511023 	subu	v0,v0,s1
    5d1c:	ae03b0d0 	sw	v1,-20272(s0)
    5d20:	04410003 	bgez	v0,5d30 <LST+0x33c>
    5d24:	ace00014 	sw	zero,20(a3)
    5d28:	08001697 	j	5a5c <LST+0x68>
    5d2c:	ace00018 	sw	zero,24(a3)
    5d30:	08001697 	j	5a5c <LST+0x68>
    5d34:	ace20018 	sw	v0,24(a3)

00005d38 <initSRstructs>:
    5d38:	3c022000 	lui	v0,0x2000
    5d3c:	34420140 	ori	v0,v0,0x140
    5d40:	8c440000 	lw	a0,0(v0)
    5d44:	3c030005 	lui	v1,0x5
    5d48:	ac649090 	sw	a0,-28528(v1)
    5d4c:	3c020005 	lui	v0,0x5
    5d50:	3c030005 	lui	v1,0x5
    5d54:	2442b17c 	addiu	v0,v0,-20100
    5d58:	2463bc6c 	addiu	v1,v1,-17300
    5d5c:	ac400000 	sw	zero,0(v0)
    5d60:	2442008c 	addiu	v0,v0,140
    5d64:	1443fffd 	bne	v0,v1,5d5c <initSRstructs+0x24>
    5d68:	00000000 	nop
    5d6c:	03e00008 	jr	ra
    5d70:	24020001 	li	v0,1

00005d74 <SearchSourceRoutingDestination>:
    5d74:	3c020005 	lui	v0,0x5
    5d78:	2443b180 	addiu	v1,v0,-20096
    5d7c:	00002821 	move	a1,zero
    5d80:	24070001 	li	a3,1
    5d84:	2406000a 	li	a2,10
    5d88:	8c620000 	lw	v0,0(v1)
    5d8c:	00000000 	nop
    5d90:	14820005 	bne	a0,v0,5da8 <SearchSourceRoutingDestination+0x34>
    5d94:	00000000 	nop
    5d98:	8c62fffc 	lw	v0,-4(v1)
    5d9c:	00000000 	nop
    5da0:	10470005 	beq	v0,a3,5db8 <SearchSourceRoutingDestination+0x44>
    5da4:	00000000 	nop
    5da8:	24a50001 	addiu	a1,a1,1
    5dac:	14a6fff6 	bne	a1,a2,5d88 <SearchSourceRoutingDestination+0x14>
    5db0:	2463008c 	addiu	v1,v1,140
    5db4:	2405ffff 	li	a1,-1
    5db8:	03e00008 	jr	ra
    5dbc:	00a01021 	move	v0,a1

00005dc0 <ClearSlotSourceRouting>:
    5dc0:	3c020005 	lui	v0,0x5
    5dc4:	3c030005 	lui	v1,0x5
    5dc8:	2442b0fc 	addiu	v0,v0,-20228
    5dcc:	2463b180 	addiu	v1,v1,-20096
    5dd0:	24460080 	addiu	a2,v0,128
    5dd4:	00002821 	move	a1,zero
    5dd8:	24080001 	li	t0,1
    5ddc:	2407000a 	li	a3,10
    5de0:	8c620000 	lw	v0,0(v1)
    5de4:	00000000 	nop
    5de8:	14820005 	bne	a0,v0,5e00 <ClearSlotSourceRouting+0x40>
    5dec:	00000000 	nop
    5df0:	8c62fffc 	lw	v0,-4(v1)
    5df4:	00000000 	nop
    5df8:	10480008 	beq	v0,t0,5e1c <ClearSlotSourceRouting+0x5c>
    5dfc:	00a01021 	move	v0,a1
    5e00:	24a50001 	addiu	a1,a1,1
    5e04:	24c6008c 	addiu	a2,a2,140
    5e08:	14a7fff5 	bne	a1,a3,5de0 <ClearSlotSourceRouting+0x20>
    5e0c:	2463008c 	addiu	v1,v1,140
    5e10:	2405ffff 	li	a1,-1
    5e14:	03e00008 	jr	ra
    5e18:	00a01021 	move	v0,a1
    5e1c:	03e00008 	jr	ra
    5e20:	acc00000 	sw	zero,0(a2)

00005e24 <ClearAllSourceRouting>:
    5e24:	3c020005 	lui	v0,0x5
    5e28:	3c030005 	lui	v1,0x5
    5e2c:	2444b17c 	addiu	a0,v0,-20100
    5e30:	2463b6f4 	addiu	v1,v1,-18700
    5e34:	08001792 	j	5e48 <ClearAllSourceRouting+0x24>
    5e38:	24050001 	li	a1,1
    5e3c:	2484008c 	addiu	a0,a0,140
    5e40:	10830009 	beq	a0,v1,5e68 <ClearAllSourceRouting+0x44>
    5e44:	00000000 	nop
    5e48:	8c820000 	lw	v0,0(a0)
    5e4c:	00000000 	nop
    5e50:	1445fffa 	bne	v0,a1,5e3c <ClearAllSourceRouting+0x18>
    5e54:	00000000 	nop
    5e58:	ac800000 	sw	zero,0(a0)
    5e5c:	2484008c 	addiu	a0,a0,140
    5e60:	1483fff9 	bne	a0,v1,5e48 <ClearAllSourceRouting+0x24>
    5e64:	00000000 	nop
    5e68:	03e00008 	jr	ra
    5e6c:	00000000 	nop

00005e70 <Seek>:
    5e70:	240d0001 	li	t5,1
    5e74:	3c02f03f 	lui	v0,0xf03f
    5e78:	3c0a2000 	lui	t2,0x2000
    5e7c:	34427dca 	ori	v0,v0,0x7dca
    5e80:	008d5804 	sllv	t3,t5,a0
    5e84:	01626024 	and	t4,t3,v0
    5e88:	35430370 	ori	v1,t2,0x370
    5e8c:	35420390 	ori	v0,t2,0x390
    5e90:	35480394 	ori	t0,t2,0x394
    5e94:	2c890020 	sltiu	t1,a0,32
    5e98:	ac640000 	sw	a0,0(v1)
    5e9c:	ac450000 	sw	a1,0(v0)
    5ea0:	ad070000 	sw	a3,0(t0)
    5ea4:	1120000d 	beqz	t1,5edc <Seek+0x6c>
    5ea8:	3c022000 	lui	v0,0x2000
    5eac:	31640234 	andi	a0,t3,0x234
    5eb0:	11800007 	beqz	t4,5ed0 <Seek+0x60>
    5eb4:	35420550 	ori	v0,t2,0x550
    5eb8:	ac400000 	sw	zero,0(v0)
    5ebc:	3c022000 	lui	v0,0x2000
    5ec0:	34420380 	ori	v0,v0,0x380
    5ec4:	ac460000 	sw	a2,0(v0)
    5ec8:	03e00008 	jr	ra
    5ecc:	00000000 	nop
    5ed0:	14800004 	bnez	a0,5ee4 <Seek+0x74>
    5ed4:	00000000 	nop
    5ed8:	3c022000 	lui	v0,0x2000
    5edc:	080017ae 	j	5eb8 <Seek+0x48>
    5ee0:	34420550 	ori	v0,v0,0x550
    5ee4:	ac4d0000 	sw	t5,0(v0)
    5ee8:	3c022000 	lui	v0,0x2000
    5eec:	34420380 	ori	v0,v0,0x380
    5ef0:	ac460000 	sw	a2,0(v0)
    5ef4:	03e00008 	jr	ra
    5ef8:	00000000 	nop

00005efc <print_port>:
    5efc:	2c820008 	sltiu	v0,a0,8
    5f00:	10400008 	beqz	v0,5f24 <print_port+0x28>
    5f04:	3c030001 	lui	v1,0x1
    5f08:	00041080 	sll	v0,a0,0x2
    5f0c:	2463886c 	addiu	v1,v1,-30612
    5f10:	00431021 	addu	v0,v0,v1
    5f14:	8c440000 	lw	a0,0(v0)
    5f18:	00000000 	nop
    5f1c:	00800008 	jr	a0
    5f20:	00000000 	nop
    5f24:	3c040001 	lui	a0,0x1
    5f28:	08000901 	j	2404 <puts>
    5f2c:	2484839c 	addiu	a0,a0,-31844
    5f30:	3c040001 	lui	a0,0x1
    5f34:	08000901 	j	2404 <puts>
    5f38:	24848804 	addiu	a0,a0,-30716
    5f3c:	3c040001 	lui	a0,0x1
    5f40:	08000901 	j	2404 <puts>
    5f44:	24848820 	addiu	a0,a0,-30688
    5f48:	3c040001 	lui	a0,0x1
    5f4c:	08000901 	j	2404 <puts>
    5f50:	24848818 	addiu	a0,a0,-30696
    5f54:	3c040001 	lui	a0,0x1
    5f58:	08000901 	j	2404 <puts>
    5f5c:	24848810 	addiu	a0,a0,-30704
    5f60:	3c040001 	lui	a0,0x1
    5f64:	08000901 	j	2404 <puts>
    5f68:	24848808 	addiu	a0,a0,-30712
    5f6c:	3c040001 	lui	a0,0x1
    5f70:	08000901 	j	2404 <puts>
    5f74:	2484881c 	addiu	a0,a0,-30692
    5f78:	3c040001 	lui	a0,0x1
    5f7c:	08000901 	j	2404 <puts>
    5f80:	24848814 	addiu	a0,a0,-30700
    5f84:	3c040001 	lui	a0,0x1
    5f88:	08000901 	j	2404 <puts>
    5f8c:	2484880c 	addiu	a0,a0,-30708

00005f90 <GetFreeSlotSourceRouting>:
    5f90:	27bdffe8 	addiu	sp,sp,-24
    5f94:	3c020005 	lui	v0,0x5
    5f98:	3c030005 	lui	v1,0x5
    5f9c:	afbf0010 	sw	ra,16(sp)
    5fa0:	2445b180 	addiu	a1,v0,-20096
    5fa4:	2463b6f8 	addiu	v1,v1,-18696
    5fa8:	24060001 	li	a2,1
    5fac:	8ca20000 	lw	v0,0(a1)
    5fb0:	00000000 	nop
    5fb4:	10820016 	beq	a0,v0,6010 <GetFreeSlotSourceRouting+0x80>
    5fb8:	00000000 	nop
    5fbc:	24a5008c 	addiu	a1,a1,140
    5fc0:	14a3fffa 	bne	a1,v1,5fac <GetFreeSlotSourceRouting+0x1c>
    5fc4:	3c020005 	lui	v0,0x5
    5fc8:	2443b17c 	addiu	v1,v0,-20100
    5fcc:	00002021 	move	a0,zero
    5fd0:	24050014 	li	a1,20
    5fd4:	8c620000 	lw	v0,0(v1)
    5fd8:	00000000 	nop
    5fdc:	10400008 	beqz	v0,6000 <GetFreeSlotSourceRouting+0x70>
    5fe0:	2463008c 	addiu	v1,v1,140
    5fe4:	24840001 	addiu	a0,a0,1
    5fe8:	1485fffa 	bne	a0,a1,5fd4 <GetFreeSlotSourceRouting+0x44>
    5fec:	00000000 	nop
    5ff0:	3c040001 	lui	a0,0x1
    5ff4:	0c000901 	jal	2404 <puts>
    5ff8:	24848824 	addiu	a0,a0,-30684
    5ffc:	2404ffff 	li	a0,-1
    6000:	8fbf0010 	lw	ra,16(sp)
    6004:	00801021 	move	v0,a0
    6008:	03e00008 	jr	ra
    600c:	27bd0018 	addiu	sp,sp,24
    6010:	8ca2fffc 	lw	v0,-4(a1)
    6014:	00000000 	nop
    6018:	1446ffe9 	bne	v0,a2,5fc0 <GetFreeSlotSourceRouting+0x30>
    601c:	24a5008c 	addiu	a1,a1,140
    6020:	24a5ff74 	addiu	a1,a1,-140
    6024:	08001800 	j	6000 <GetFreeSlotSourceRouting+0x70>
    6028:	2404ffff 	li	a0,-1

0000602c <ProcessTurns>:
    602c:	27bdff78 	addiu	sp,sp,-136
    6030:	afb40070 	sw	s4,112(sp)
    6034:	afb10064 	sw	s1,100(sp)
    6038:	27b40010 	addiu	s4,sp,16
    603c:	00008821 	move	s1,zero
    6040:	30820003 	andi	v0,a0,0x3
    6044:	02803821 	move	a3,s4
    6048:	00042082 	srl	a0,a0,0x2
    604c:	240a0010 	li	t2,16
    6050:	26310001 	addiu	s1,s1,1
    6054:	afbf0084 	sw	ra,132(sp)
    6058:	afbe0080 	sw	s8,128(sp)
    605c:	afb7007c 	sw	s7,124(sp)
    6060:	afb60078 	sw	s6,120(sp)
    6064:	afb50074 	sw	s5,116(sp)
    6068:	afb3006c 	sw	s3,108(sp)
    606c:	afb20068 	sw	s2,104(sp)
    6070:	afb00060 	sw	s0,96(sp)
    6074:	240b0020 	li	t3,32
    6078:	24090001 	li	t1,1
    607c:	240c0003 	li	t4,3
    6080:	ace20000 	sw	v0,0(a3)
    6084:	122a0010 	beq	s1,t2,60c8 <ProcessTurns+0x9c>
    6088:	30830003 	andi	v1,a0,0x3
    608c:	122b00be 	beq	s1,t3,6388 <ProcessTurns+0x35c>
    6090:	00000000 	nop
    6094:	8ce20000 	lw	v0,0(a3)
    6098:	00000000 	nop
    609c:	1440000e 	bnez	v0,60d8 <ProcessTurns+0xac>
    60a0:	00000000 	nop
    60a4:	10690015 	beq	v1,t1,60fc <ProcessTurns+0xd0>
    60a8:	00111080 	sll	v0,s1,0x2
    60ac:	24e70004 	addiu	a3,a3,4
    60b0:	30820003 	andi	v0,a0,0x3
    60b4:	26310001 	addiu	s1,s1,1
    60b8:	00042082 	srl	a0,a0,0x2
    60bc:	ace20000 	sw	v0,0(a3)
    60c0:	162afff2 	bne	s1,t2,608c <ProcessTurns+0x60>
    60c4:	30830003 	andi	v1,a0,0x3
    60c8:	8ce20000 	lw	v0,0(a3)
    60cc:	00000000 	nop
    60d0:	1040fff4 	beqz	v0,60a4 <ProcessTurns+0x78>
    60d4:	00a02021 	move	a0,a1
    60d8:	104900ad 	beq	v0,t1,6390 <ProcessTurns+0x364>
    60dc:	24080002 	li	t0,2
    60e0:	104800af 	beq	v0,t0,63a0 <ProcessTurns+0x374>
    60e4:	00000000 	nop
    60e8:	144cfff0 	bne	v0,t4,60ac <ProcessTurns+0x80>
    60ec:	00000000 	nop
    60f0:	1468ffef 	bne	v1,t0,60b0 <ProcessTurns+0x84>
    60f4:	24e70004 	addiu	a3,a3,4
    60f8:	00111080 	sll	v0,s1,0x2
    60fc:	00541021 	addu	v0,v0,s4
    6100:	1a2000df 	blez	s1,6480 <ProcessTurns+0x454>
    6104:	ac430000 	sw	v1,0(v0)
    6108:	00002021 	move	a0,zero
    610c:	00002821 	move	a1,zero
    6110:	00003821 	move	a3,zero
    6114:	02801821 	move	v1,s4
    6118:	24060001 	li	a2,1
    611c:	24080002 	li	t0,2
    6120:	08001851 	j	6144 <ProcessTurns+0x118>
    6124:	24090003 	li	t1,3
    6128:	104800a3 	beq	v0,t0,63b8 <ProcessTurns+0x38c>
    612c:	00000000 	nop
    6130:	104900bf 	beq	v0,t1,6430 <ProcessTurns+0x404>
    6134:	00000000 	nop
    6138:	24840001 	addiu	a0,a0,1
    613c:	1091000b 	beq	a0,s1,616c <ProcessTurns+0x140>
    6140:	24630004 	addiu	v1,v1,4
    6144:	8c620000 	lw	v0,0(v1)
    6148:	00000000 	nop
    614c:	10460098 	beq	v0,a2,63b0 <ProcessTurns+0x384>
    6150:	00000000 	nop
    6154:	1440fff4 	bnez	v0,6128 <ProcessTurns+0xfc>
    6158:	00000000 	nop
    615c:	24840001 	addiu	a0,a0,1
    6160:	24a50001 	addiu	a1,a1,1
    6164:	1491fff7 	bne	a0,s1,6144 <ProcessTurns+0x118>
    6168:	24630004 	addiu	v1,v1,4
    616c:	00a09821 	move	s3,a1
    6170:	00e09021 	move	s2,a3
    6174:	3c040001 	lui	a0,0x1
    6178:	3c100005 	lui	s0,0x5
    617c:	0c000901 	jal	2404 <puts>
    6180:	24848860 	addiu	a0,a0,-30624
    6184:	8e039074 	lw	v1,-28556(s0)
    6188:	3c170001 	lui	s7,0x1
    618c:	00032202 	srl	a0,v1,0x8
    6190:	00932021 	addu	a0,a0,s3
    6194:	00721821 	addu	v1,v1,s2
    6198:	306300ff 	andi	v1,v1,0xff
    619c:	00042200 	sll	a0,a0,0x8
    61a0:	0c000973 	jal	25cc <itoh>
    61a4:	00832025 	or	a0,a0,v1
    61a8:	0c000901 	jal	2404 <puts>
    61ac:	00402021 	move	a0,v0
    61b0:	0c000901 	jal	2404 <puts>
    61b4:	26e48594 	addiu	a0,s7,-31340
    61b8:	8e039074 	lw	v1,-28556(s0)
    61bc:	3c1e0005 	lui	s8,0x5
    61c0:	00032202 	srl	a0,v1,0x8
    61c4:	00932021 	addu	a0,a0,s3
    61c8:	00721821 	addu	v1,v1,s2
    61cc:	306300ff 	andi	v1,v1,0xff
    61d0:	00042200 	sll	a0,a0,0x8
    61d4:	0c00175d 	jal	5d74 <SearchSourceRoutingDestination>
    61d8:	00832025 	or	a0,a0,v1
    61dc:	00409821 	move	s3,v0
    61e0:	3c022aaa 	lui	v0,0x2aaa
    61e4:	3442aaab 	ori	v0,v0,0xaaab
    61e8:	02220018 	mult	s1,v0
    61ec:	0013a880 	sll	s5,s3,0x2
    61f0:	0013b100 	sll	s6,s3,0x4
    61f4:	02b62821 	addu	a1,s5,s6
    61f8:	000518c0 	sll	v1,a1,0x3
    61fc:	001137c3 	sra	a2,s1,0x1f
    6200:	00651823 	subu	v1,v1,a1
    6204:	27c4b0fc 	addiu	a0,s8,-20228
    6208:	00648021 	addu	s0,v1,a0
    620c:	00001010 	mfhi	v0
    6210:	00461023 	subu	v0,v0,a2
    6214:	24420001 	addiu	v0,v0,1
    6218:	1a200089 	blez	s1,6440 <ProcessTurns+0x414>
    621c:	ae020088 	sw	v0,136(s0)
    6220:	00003021 	move	a2,zero
    6224:	24070001 	li	a3,1
    6228:	24080001 	li	t0,1
    622c:	02802021 	move	a0,s4
    6230:	14e0006a 	bnez	a3,63dc <ProcessTurns+0x3b0>
    6234:	00000000 	nop
    6238:	8c820000 	lw	v0,0(a0)
    623c:	00000000 	nop
    6240:	2442fffe 	addiu	v0,v0,-2
    6244:	2c420002 	sltiu	v0,v0,2
    6248:	1440005d 	bnez	v0,63c0 <ProcessTurns+0x394>
    624c:	00000000 	nop
    6250:	24c60001 	addiu	a2,a2,1
    6254:	24840004 	addiu	a0,a0,4
    6258:	00d1102a 	slt	v0,a2,s1
    625c:	1440fff4 	bnez	v0,6230 <ProcessTurns+0x204>
    6260:	00000000 	nop
    6264:	00009021 	move	s2,zero
    6268:	02808021 	move	s0,s4
    626c:	8e040000 	lw	a0,0(s0)
    6270:	0c0017bf 	jal	5efc <print_port>
    6274:	26520001 	addiu	s2,s2,1
    6278:	0232102a 	slt	v0,s1,s2
    627c:	1040fffb 	beqz	v0,626c <ProcessTurns+0x240>
    6280:	26100004 	addiu	s0,s0,4
    6284:	0c000901 	jal	2404 <puts>
    6288:	26e48594 	addiu	a0,s7,-31340
    628c:	02b62021 	addu	a0,s5,s6
    6290:	000410c0 	sll	v0,a0,0x3
    6294:	00441023 	subu	v0,v0,a0
    6298:	27c3b0fc 	addiu	v1,s8,-20228
    629c:	3c047000 	lui	a0,0x7000
    62a0:	00431821 	addu	v1,v0,v1
    62a4:	34847000 	ori	a0,a0,0x7000
    62a8:	0640002a 	bltz	s2,6354 <ProcessTurns+0x328>
    62ac:	ac640000 	sw	a0,0(v1)
    62b0:	8fa20010 	lw	v0,16(sp)
    62b4:	24090014 	li	t1,20
    62b8:	3042000f 	andi	v0,v0,0xf
    62bc:	00021600 	sll	v0,v0,0x18
    62c0:	00441025 	or	v0,v0,a0
    62c4:	24080001 	li	t0,1
    62c8:	ac620000 	sw	v0,0(v1)
    62cc:	0248102a 	slt	v0,s2,t0
    62d0:	14400021 	bnez	v0,6358 <ProcessTurns+0x32c>
    62d4:	02601021 	move	v0,s3
    62d8:	3c042aaa 	lui	a0,0x2aaa
    62dc:	3484aaab 	ori	a0,a0,0xaaab
    62e0:	01040018 	mult	t0,a0
    62e4:	00131940 	sll	v1,s3,0x5
    62e8:	00083fc3 	sra	a3,t0,0x1f
    62ec:	02a31821 	addu	v1,s5,v1
    62f0:	00081080 	sll	v0,t0,0x2
    62f4:	00731823 	subu	v1,v1,s3
    62f8:	00541021 	addu	v0,v0,s4
    62fc:	8c450000 	lw	a1,0(v0)
    6300:	27c6b0fc 	addiu	a2,s8,-20228
    6304:	30a5000f 	andi	a1,a1,0xf
    6308:	01252804 	sllv	a1,a1,t1
    630c:	25080001 	addiu	t0,t0,1
    6310:	00002010 	mfhi	a0
    6314:	00872023 	subu	a0,a0,a3
    6318:	00641821 	addu	v1,v1,a0
    631c:	00031880 	sll	v1,v1,0x2
    6320:	00661821 	addu	v1,v1,a2
    6324:	8c620000 	lw	v0,0(v1)
    6328:	00000000 	nop
    632c:	00451025 	or	v0,v0,a1
    6330:	1120003a 	beqz	t1,641c <ProcessTurns+0x3f0>
    6334:	ac620000 	sw	v0,0(v1)
    6338:	24020010 	li	v0,16
    633c:	1122003e 	beq	t1,v0,6438 <ProcessTurns+0x40c>
    6340:	00000000 	nop
    6344:	2529fffc 	addiu	t1,t1,-4
    6348:	0248102a 	slt	v0,s2,t0
    634c:	1040ffe3 	beqz	v0,62dc <ProcessTurns+0x2b0>
    6350:	3c042aaa 	lui	a0,0x2aaa
    6354:	02601021 	move	v0,s3
    6358:	8fbf0084 	lw	ra,132(sp)
    635c:	8fbe0080 	lw	s8,128(sp)
    6360:	8fb7007c 	lw	s7,124(sp)
    6364:	8fb60078 	lw	s6,120(sp)
    6368:	8fb50074 	lw	s5,116(sp)
    636c:	8fb40070 	lw	s4,112(sp)
    6370:	8fb3006c 	lw	s3,108(sp)
    6374:	8fb20068 	lw	s2,104(sp)
    6378:	8fb10064 	lw	s1,100(sp)
    637c:	8fb00060 	lw	s0,96(sp)
    6380:	03e00008 	jr	ra
    6384:	27bd0088 	addiu	sp,sp,136
    6388:	08001825 	j	6094 <ProcessTurns+0x68>
    638c:	00c02021 	move	a0,a2
    6390:	1060ff59 	beqz	v1,60f8 <ProcessTurns+0xcc>
    6394:	24e70004 	addiu	a3,a3,4
    6398:	0800182d 	j	60b4 <ProcessTurns+0x88>
    639c:	30820003 	andi	v0,a0,0x3
    63a0:	106cff55 	beq	v1,t4,60f8 <ProcessTurns+0xcc>
    63a4:	24e70004 	addiu	a3,a3,4
    63a8:	0800182d 	j	60b4 <ProcessTurns+0x88>
    63ac:	30820003 	andi	v0,a0,0x3
    63b0:	0800184e 	j	6138 <ProcessTurns+0x10c>
    63b4:	24a5ffff 	addiu	a1,a1,-1
    63b8:	0800184e 	j	6138 <ProcessTurns+0x10c>
    63bc:	24e70001 	addiu	a3,a3,1
    63c0:	24840004 	addiu	a0,a0,4
    63c4:	8c820000 	lw	v0,0(a0)
    63c8:	00000000 	nop
    63cc:	1448ffa2 	bne	v0,t0,6258 <ProcessTurns+0x22c>
    63d0:	24c60001 	addiu	a2,a2,1
    63d4:	08001896 	j	6258 <ProcessTurns+0x22c>
    63d8:	24070001 	li	a3,1
    63dc:	8c850000 	lw	a1,0(a0)
    63e0:	00000000 	nop
    63e4:	24a2fffe 	addiu	v0,a1,-2
    63e8:	2c420002 	sltiu	v0,v0,2
    63ec:	14400005 	bnez	v0,6404 <ProcessTurns+0x3d8>
    63f0:	00061880 	sll	v1,a2,0x2
    63f4:	00741821 	addu	v1,v1,s4
    63f8:	24a20004 	addiu	v0,a1,4
    63fc:	08001894 	j	6250 <ProcessTurns+0x224>
    6400:	ac620000 	sw	v0,0(v1)
    6404:	8c820004 	lw	v0,4(a0)
    6408:	00000000 	nop
    640c:	1440fff9 	bnez	v0,63f4 <ProcessTurns+0x3c8>
    6410:	00000000 	nop
    6414:	080018fd 	j	63f4 <ProcessTurns+0x3c8>
    6418:	00003821 	move	a3,zero
    641c:	3c027000 	lui	v0,0x7000
    6420:	34427000 	ori	v0,v0,0x7000
    6424:	24090018 	li	t1,24
    6428:	080018b3 	j	62cc <ProcessTurns+0x2a0>
    642c:	ac620004 	sw	v0,4(v1)
    6430:	0800184e 	j	6138 <ProcessTurns+0x10c>
    6434:	24e7ffff 	addiu	a3,a3,-1
    6438:	080018b3 	j	62cc <ProcessTurns+0x2a0>
    643c:	24090008 	li	t1,8
    6440:	1220ff88 	beqz	s1,6264 <ProcessTurns+0x238>
    6444:	00000000 	nop
    6448:	0c000901 	jal	2404 <puts>
    644c:	26e48594 	addiu	a0,s7,-31340
    6450:	8fa30010 	lw	v1,16(sp)
    6454:	3c027000 	lui	v0,0x7000
    6458:	3063000f 	andi	v1,v1,0xf
    645c:	00031e00 	sll	v1,v1,0x18
    6460:	34427000 	ori	v0,v0,0x7000
    6464:	24090018 	li	t1,24
    6468:	00621825 	or	v1,v1,v0
    646c:	00009021 	move	s2,zero
    6470:	24080001 	li	t0,1
    6474:	2529fffc 	addiu	t1,t1,-4
    6478:	080018d2 	j	6348 <ProcessTurns+0x31c>
    647c:	ae030000 	sw	v1,0(s0)
    6480:	00009821 	move	s3,zero
    6484:	0800185d 	j	6174 <ProcessTurns+0x148>
    6488:	00009021 	move	s2,zero

0000648c <search_Service>:
    648c:	3c020005 	lui	v0,0x5
    6490:	8c429108 	lw	v0,-28408(v0)
    6494:	00000000 	nop
    6498:	14400002 	bnez	v0,64a4 <search_Service+0x18>
    649c:	2445ffff 	addiu	a1,v0,-1
    64a0:	2405000f 	li	a1,15
    64a4:	3c020005 	lui	v0,0x5
    64a8:	2448bbec 	addiu	t0,v0,-17428
    64ac:	00003021 	move	a2,zero
    64b0:	24070010 	li	a3,16
    64b4:	00051100 	sll	v0,a1,0x4
    64b8:	00051980 	sll	v1,a1,0x6
    64bc:	00621823 	subu	v1,v1,v0
    64c0:	00651823 	subu	v1,v1,a1
    64c4:	00031880 	sll	v1,v1,0x2
    64c8:	00681821 	addu	v1,v1,t0
    64cc:	8c620084 	lw	v0,132(v1)
    64d0:	00000000 	nop
    64d4:	10440007 	beq	v0,a0,64f4 <search_Service+0x68>
    64d8:	24c60001 	addiu	a2,a2,1
    64dc:	24a5ffff 	addiu	a1,a1,-1
    64e0:	04a00006 	bltz	a1,64fc <search_Service+0x70>
    64e4:	00000000 	nop
    64e8:	14c7fff2 	bne	a2,a3,64b4 <search_Service+0x28>
    64ec:	00000000 	nop
    64f0:	2405ffff 	li	a1,-1
    64f4:	03e00008 	jr	ra
    64f8:	00a01021 	move	v0,a1
    64fc:	14c7ffed 	bne	a2,a3,64b4 <search_Service+0x28>
    6500:	2405000f 	li	a1,15
    6504:	0800193d 	j	64f4 <search_Service+0x68>
    6508:	2405ffff 	li	a1,-1

0000650c <search_Target>:
    650c:	3c020005 	lui	v0,0x5
    6510:	8c429108 	lw	v0,-28408(v0)
    6514:	00000000 	nop
    6518:	14400002 	bnez	v0,6524 <search_Target+0x18>
    651c:	2447ffff 	addiu	a3,v0,-1
    6520:	2407000f 	li	a3,15
    6524:	00004021 	move	t0,zero
    6528:	3c090005 	lui	t1,0x5
    652c:	00071100 	sll	v0,a3,0x4
    6530:	00071980 	sll	v1,a3,0x6
    6534:	00621823 	subu	v1,v1,v0
    6538:	00671823 	subu	v1,v1,a3
    653c:	00031880 	sll	v1,v1,0x2
    6540:	2525bbec 	addiu	a1,t1,-17428
    6544:	00651021 	addu	v0,v1,a1
    6548:	9446007e 	lhu	a2,126(v0)
    654c:	00000000 	nop
    6550:	10c40015 	beq	a2,a0,65a8 <search_Target+0x9c>
    6554:	00000000 	nop
    6558:	24620078 	addiu	v0,v1,120
    655c:	00451821 	addu	v1,v0,a1
    6560:	2405001e 	li	a1,30
    6564:	10c00008 	beqz	a2,6588 <search_Target+0x7c>
    6568:	24a5ffff 	addiu	a1,a1,-1
    656c:	94660002 	lhu	a2,2(v1)
    6570:	00000000 	nop
    6574:	10c4000c 	beq	a2,a0,65a8 <search_Target+0x9c>
    6578:	2463fffc 	addiu	v1,v1,-4
    657c:	2402ffff 	li	v0,-1
    6580:	14a2fff8 	bne	a1,v0,6564 <search_Target+0x58>
    6584:	00000000 	nop
    6588:	24e7ffff 	addiu	a3,a3,-1
    658c:	04e00008 	bltz	a3,65b0 <search_Target+0xa4>
    6590:	00000000 	nop
    6594:	25080001 	addiu	t0,t0,1
    6598:	24020010 	li	v0,16
    659c:	1502ffe3 	bne	t0,v0,652c <search_Target+0x20>
    65a0:	00000000 	nop
    65a4:	2407ffff 	li	a3,-1
    65a8:	03e00008 	jr	ra
    65ac:	00e01021 	move	v0,a3
    65b0:	08001965 	j	6594 <search_Target+0x88>
    65b4:	2407000f 	li	a3,15

000065b8 <initialize_CM_FIFO>:
    65b8:	3c020005 	lui	v0,0x5
    65bc:	3c030005 	lui	v1,0x5
    65c0:	2442bc70 	addiu	v0,v0,-17296
    65c4:	2463c830 	addiu	v1,v1,-14288
    65c8:	ac400000 	sw	zero,0(v0)
    65cc:	244200bc 	addiu	v0,v0,188
    65d0:	1443fffd 	bne	v0,v1,65c8 <initialize_CM_FIFO+0x10>
    65d4:	00000000 	nop
    65d8:	03e00008 	jr	ra
    65dc:	00000000 	nop

000065e0 <resend_control_message>:
    65e0:	27bdffe8 	addiu	sp,sp,-24
    65e4:	afb00010 	sw	s0,16(sp)
    65e8:	afbf0014 	sw	ra,20(sp)
    65ec:	0c001943 	jal	650c <search_Target>
    65f0:	00000000 	nop
    65f4:	00022100 	sll	a0,v0,0x4
    65f8:	00021980 	sll	v1,v0,0x6
    65fc:	00641823 	subu	v1,v1,a0
    6600:	00621823 	subu	v1,v1,v0
    6604:	3c040005 	lui	a0,0x5
    6608:	00031880 	sll	v1,v1,0x2
    660c:	2484bbec 	addiu	a0,a0,-17428
    6610:	00648021 	addu	s0,v1,a0
    6614:	2403ffff 	li	v1,-1
    6618:	1043000d 	beq	v0,v1,6650 <resend_control_message+0x70>
    661c:	02002021 	move	a0,s0
    6620:	8e0500b0 	lw	a1,176(s0)
    6624:	8e0600b4 	lw	a2,180(s0)
    6628:	0c000b31 	jal	2cc4 <send_packet>
    662c:	00000000 	nop
    6630:	24020001 	li	v0,1
    6634:	24030001 	li	v1,1
    6638:	ae0200b8 	sw	v0,184(s0)
    663c:	8fbf0014 	lw	ra,20(sp)
    6640:	8fb00010 	lw	s0,16(sp)
    6644:	00601021 	move	v0,v1
    6648:	03e00008 	jr	ra
    664c:	27bd0018 	addiu	sp,sp,24
    6650:	3c040001 	lui	a0,0x1
    6654:	0c000901 	jal	2404 <puts>
    6658:	2484888c 	addiu	a0,a0,-30580
    665c:	0800198f 	j	663c <resend_control_message+0x5c>
    6660:	2403ffff 	li	v1,-1

00006664 <insert_CM_FIFO>:
    6664:	27bdffe0 	addiu	sp,sp,-32
    6668:	afb20018 	sw	s2,24(sp)
    666c:	afb10014 	sw	s1,20(sp)
    6670:	afb00010 	sw	s0,16(sp)
    6674:	afbf001c 	sw	ra,28(sp)
    6678:	8c980084 	lw	t8,132(a0)
    667c:	24020190 	li	v0,400
    6680:	00808021 	move	s0,a0
    6684:	00a08821 	move	s1,a1
    6688:	13020074 	beq	t8,v0,685c <insert_CM_FIFO+0x1f8>
    668c:	00c09021 	move	s2,a2
    6690:	2f020191 	sltiu	v0,t8,401
    6694:	10400015 	beqz	v0,66ec <insert_CM_FIFO+0x88>
    6698:	24020235 	li	v0,565
    669c:	24020070 	li	v0,112
    66a0:	13020065 	beq	t8,v0,6838 <insert_CM_FIFO+0x1d4>
    66a4:	2f020071 	sltiu	v0,t8,113
    66a8:	10400073 	beqz	v0,6878 <insert_CM_FIFO+0x214>
    66ac:	24020150 	li	v0,336
    66b0:	24020020 	li	v0,32
    66b4:	13020054 	beq	t8,v0,6808 <insert_CM_FIFO+0x1a4>
    66b8:	2f020021 	sltiu	v0,t8,33
    66bc:	1040008a 	beqz	v0,68e8 <insert_CM_FIFO+0x284>
    66c0:	24020040 	li	v0,64
    66c4:	24020010 	li	v0,16
    66c8:	1302004f 	beq	t8,v0,6808 <insert_CM_FIFO+0x1a4>
    66cc:	24020015 	li	v0,21
    66d0:	1302004d 	beq	t8,v0,6808 <insert_CM_FIFO+0x1a4>
    66d4:	00000000 	nop
    66d8:	3c040001 	lui	a0,0x1
    66dc:	0c000901 	jal	2404 <puts>
    66e0:	248488b4 	addiu	a0,a0,-30540
    66e4:	080019b9 	j	66e4 <insert_CM_FIFO+0x80>
    66e8:	00000000 	nop
    66ec:	13020052 	beq	t8,v0,6838 <insert_CM_FIFO+0x1d4>
    66f0:	2f020236 	sltiu	v0,t8,566
    66f4:	1040006b 	beqz	v0,68a4 <insert_CM_FIFO+0x240>
    66f8:	24020250 	li	v0,592
    66fc:	2f020228 	sltiu	v0,t8,552
    6700:	10400073 	beqz	v0,68d0 <insert_CM_FIFO+0x26c>
    6704:	24020230 	li	v0,560
    6708:	2f020220 	sltiu	v0,t8,544
    670c:	1440007e 	bnez	v0,6908 <insert_CM_FIFO+0x2a4>
    6710:	24020200 	li	v0,512
    6714:	3c190005 	lui	t9,0x5
    6718:	8f239108 	lw	v1,-28408(t9)
    671c:	3c050005 	lui	a1,0x5
    6720:	00032100 	sll	a0,v1,0x4
    6724:	00031180 	sll	v0,v1,0x6
    6728:	00441023 	subu	v0,v0,a0
    672c:	00431023 	subu	v0,v0,v1
    6730:	00021080 	sll	v0,v0,0x2
    6734:	24a3bbec 	addiu	v1,a1,-17428
    6738:	00431021 	addu	v0,v0,v1
    673c:	ac5200b4 	sw	s2,180(v0)
    6740:	ac5100b0 	sw	s1,176(v0)
    6744:	8e180084 	lw	t8,132(s0)
    6748:	8f289108 	lw	t0,-28408(t9)
    674c:	24a3bbec 	addiu	v1,a1,-17428
    6750:	00084900 	sll	t1,t0,0x4
    6754:	00085180 	sll	t2,t0,0x6
    6758:	01491023 	subu	v0,t2,t1
    675c:	00481023 	subu	v0,v0,t0
    6760:	00021080 	sll	v0,v0,0x2
    6764:	00432021 	addu	a0,v0,v1
    6768:	00003021 	move	a2,zero
    676c:	24070080 	li	a3,128
    6770:	00d01021 	addu	v0,a2,s0
    6774:	8c430000 	lw	v1,0(v0)
    6778:	24c60004 	addiu	a2,a2,4
    677c:	ac830000 	sw	v1,0(a0)
    6780:	14c7fffb 	bne	a2,a3,6770 <insert_CM_FIFO+0x10c>
    6784:	24840004 	addiu	a0,a0,4
    6788:	01491023 	subu	v0,t2,t1
    678c:	00481023 	subu	v0,v0,t0
    6790:	8e0400ac 	lw	a0,172(s0)
    6794:	8e060080 	lw	a2,128(s0)
    6798:	8e070088 	lw	a3,136(s0)
    679c:	8e090090 	lw	t1,144(s0)
    67a0:	8e0a0094 	lw	t2,148(s0)
    67a4:	8e0b0098 	lw	t3,152(s0)
    67a8:	8e0c009c 	lw	t4,156(s0)
    67ac:	8e0d00a0 	lw	t5,160(s0)
    67b0:	8e0e00a4 	lw	t6,164(s0)
    67b4:	8e0f00a8 	lw	t7,168(s0)
    67b8:	25030001 	addiu	v1,t0,1
    67bc:	00021080 	sll	v0,v0,0x2
    67c0:	8e08008c 	lw	t0,140(s0)
    67c4:	24a5bbec 	addiu	a1,a1,-17428
    67c8:	00451021 	addu	v0,v0,a1
    67cc:	3063000f 	andi	v1,v1,0xf
    67d0:	af239108 	sw	v1,-28408(t9)
    67d4:	ac460080 	sw	a2,128(v0)
    67d8:	ac580084 	sw	t8,132(v0)
    67dc:	ac470088 	sw	a3,136(v0)
    67e0:	ac48008c 	sw	t0,140(v0)
    67e4:	ac490090 	sw	t1,144(v0)
    67e8:	ac4a0094 	sw	t2,148(v0)
    67ec:	ac4b0098 	sw	t3,152(v0)
    67f0:	ac4c009c 	sw	t4,156(v0)
    67f4:	ac4d00a0 	sw	t5,160(v0)
    67f8:	ac4e00a4 	sw	t6,164(v0)
    67fc:	ac4f00a8 	sw	t7,168(v0)
    6800:	ac4400ac 	sw	a0,172(v0)
    6804:	ac4000b8 	sw	zero,184(v0)
    6808:	8fbf001c 	lw	ra,28(sp)
    680c:	8fb20018 	lw	s2,24(sp)
    6810:	8fb10014 	lw	s1,20(sp)
    6814:	8fb00010 	lw	s0,16(sp)
    6818:	03e00008 	jr	ra
    681c:	27bd0020 	addiu	sp,sp,32
    6820:	13020005 	beq	t8,v0,6838 <insert_CM_FIFO+0x1d4>
    6824:	24020280 	li	v0,640
    6828:	13020003 	beq	t8,v0,6838 <insert_CM_FIFO+0x1d4>
    682c:	24020255 	li	v0,597
    6830:	1702ffa9 	bne	t8,v0,66d8 <insert_CM_FIFO+0x74>
    6834:	00000000 	nop
    6838:	3c190005 	lui	t9,0x5
    683c:	080019d2 	j	6748 <insert_CM_FIFO+0xe4>
    6840:	3c050005 	lui	a1,0x5
    6844:	13020005 	beq	t8,v0,685c <insert_CM_FIFO+0x1f8>
    6848:	24020180 	li	v0,384
    684c:	1302fffa 	beq	t8,v0,6838 <insert_CM_FIFO+0x1d4>
    6850:	24020160 	li	v0,352
    6854:	1702ffa1 	bne	t8,v0,66dc <insert_CM_FIFO+0x78>
    6858:	3c040001 	lui	a0,0x1
    685c:	0c001923 	jal	648c <search_Service>
    6860:	03002021 	move	a0,t8
    6864:	2403ffff 	li	v1,-1
    6868:	1443ffab 	bne	v0,v1,6718 <insert_CM_FIFO+0xb4>
    686c:	3c190005 	lui	t9,0x5
    6870:	08001a02 	j	6808 <insert_CM_FIFO+0x1a4>
    6874:	00000000 	nop
    6878:	1302ffa6 	beq	t8,v0,6714 <insert_CM_FIFO+0xb0>
    687c:	2f020151 	sltiu	v0,t8,337
    6880:	1040fff0 	beqz	v0,6844 <insert_CM_FIFO+0x1e0>
    6884:	24020170 	li	v0,368
    6888:	24020090 	li	v0,144
    688c:	1302ffea 	beq	t8,v0,6838 <insert_CM_FIFO+0x1d4>
    6890:	24020140 	li	v0,320
    6894:	1702ff90 	bne	t8,v0,66d8 <insert_CM_FIFO+0x74>
    6898:	3c190005 	lui	t9,0x5
    689c:	080019c6 	j	6718 <insert_CM_FIFO+0xb4>
    68a0:	00000000 	nop
    68a4:	1302ff9b 	beq	t8,v0,6714 <insert_CM_FIFO+0xb0>
    68a8:	2f020251 	sltiu	v0,t8,593
    68ac:	1040ffdc 	beqz	v0,6820 <insert_CM_FIFO+0x1bc>
    68b0:	24020260 	li	v0,608
    68b4:	24020240 	li	v0,576
    68b8:	1302ff96 	beq	t8,v0,6714 <insert_CM_FIFO+0xb0>
    68bc:	24020245 	li	v0,581
    68c0:	1702ff85 	bne	t8,v0,66d8 <insert_CM_FIFO+0x74>
    68c4:	3c190005 	lui	t9,0x5
    68c8:	080019d2 	j	6748 <insert_CM_FIFO+0xe4>
    68cc:	3c050005 	lui	a1,0x5
    68d0:	1302ffd9 	beq	t8,v0,6838 <insert_CM_FIFO+0x1d4>
    68d4:	24020231 	li	v0,561
    68d8:	1702ff7f 	bne	t8,v0,66d8 <insert_CM_FIFO+0x74>
    68dc:	3c190005 	lui	t9,0x5
    68e0:	080019c6 	j	6718 <insert_CM_FIFO+0xb4>
    68e4:	00000000 	nop
    68e8:	1302ff8a 	beq	t8,v0,6714 <insert_CM_FIFO+0xb0>
    68ec:	24020050 	li	v0,80
    68f0:	1302ffd1 	beq	t8,v0,6838 <insert_CM_FIFO+0x1d4>
    68f4:	24020025 	li	v0,37
    68f8:	1702ff78 	bne	t8,v0,66dc <insert_CM_FIFO+0x78>
    68fc:	3c040001 	lui	a0,0x1
    6900:	08001a02 	j	6808 <insert_CM_FIFO+0x1a4>
    6904:	00000000 	nop
    6908:	1302ffcb 	beq	t8,v0,6838 <insert_CM_FIFO+0x1d4>
    690c:	24020210 	li	v0,528
    6910:	1702ff71 	bne	t8,v0,66d8 <insert_CM_FIFO+0x74>
    6914:	3c190005 	lui	t9,0x5
    6918:	080019d2 	j	6748 <insert_CM_FIFO+0xe4>
    691c:	3c050005 	lui	a1,0x5

00006920 <print_CM_FIFO>:
    6920:	27bdffd0 	addiu	sp,sp,-48
    6924:	afb60028 	sw	s6,40(sp)
    6928:	3c160001 	lui	s6,0x1
    692c:	afb50024 	sw	s5,36(sp)
    6930:	afb40020 	sw	s4,32(sp)
    6934:	afb3001c 	sw	s3,28(sp)
    6938:	afb20018 	sw	s2,24(sp)
    693c:	afb10014 	sw	s1,20(sp)
    6940:	afb00010 	sw	s0,16(sp)
    6944:	afbf002c 	sw	ra,44(sp)
    6948:	0c000901 	jal	2404 <puts>
    694c:	26c48594 	addiu	a0,s6,-31340
    6950:	3c030005 	lui	v1,0x5
    6954:	2471bc70 	addiu	s1,v1,-17296
    6958:	00008021 	move	s0,zero
    695c:	3c150001 	lui	s5,0x1
    6960:	3c140001 	lui	s4,0x1
    6964:	3c130001 	lui	s3,0x1
    6968:	24120010 	li	s2,16
    696c:	0c000901 	jal	2404 <puts>
    6970:	26a488ec 	addiu	a0,s5,-30484
    6974:	0c000973 	jal	25cc <itoh>
    6978:	02002021 	move	a0,s0
    697c:	0c000901 	jal	2404 <puts>
    6980:	00402021 	move	a0,v0
    6984:	0c000901 	jal	2404 <puts>
    6988:	268488f4 	addiu	a0,s4,-30476
    698c:	8e240000 	lw	a0,0(s1)
    6990:	0c000973 	jal	25cc <itoh>
    6994:	26100001 	addiu	s0,s0,1
    6998:	0c000901 	jal	2404 <puts>
    699c:	00402021 	move	a0,v0
    69a0:	0c000901 	jal	2404 <puts>
    69a4:	26648900 	addiu	a0,s3,-30464
    69a8:	8e24fff8 	lw	a0,-8(s1)
    69ac:	0c000973 	jal	25cc <itoh>
    69b0:	263100bc 	addiu	s1,s1,188
    69b4:	0c000901 	jal	2404 <puts>
    69b8:	00402021 	move	a0,v0
    69bc:	0c000901 	jal	2404 <puts>
    69c0:	26c48594 	addiu	a0,s6,-31340
    69c4:	1612ffe9 	bne	s0,s2,696c <print_CM_FIFO+0x4c>
    69c8:	00000000 	nop
    69cc:	8fbf002c 	lw	ra,44(sp)
    69d0:	8fb60028 	lw	s6,40(sp)
    69d4:	8fb50024 	lw	s5,36(sp)
    69d8:	8fb40020 	lw	s4,32(sp)
    69dc:	8fb3001c 	lw	s3,28(sp)
    69e0:	8fb20018 	lw	s2,24(sp)
    69e4:	8fb10014 	lw	s1,20(sp)
    69e8:	8fb00010 	lw	s0,16(sp)
    69ec:	03e00008 	jr	ra
    69f0:	27bd0030 	addiu	sp,sp,48

000069f4 <le64toh>:
    69f4:	00043c02 	srl	a3,a0,0x10
    69f8:	30e700ff 	andi	a3,a3,0xff
    69fc:	00041e02 	srl	v1,a0,0x18
    6a00:	00074602 	srl	t0,a3,0x18
    6a04:	00047200 	sll	t6,a0,0x8
    6a08:	00073a00 	sll	a3,a3,0x8
    6a0c:	00054e02 	srl	t1,a1,0x18
    6a10:	00003021 	move	a2,zero
    6a14:	306300ff 	andi	v1,v1,0xff
    6a18:	00671825 	or	v1,v1,a3
    6a1c:	01c94825 	or	t1,t6,t1
    6a20:	00053a02 	srl	a3,a1,0x8
    6a24:	00047600 	sll	t6,a0,0x18
    6a28:	00063200 	sll	a2,a2,0x8
    6a2c:	01063025 	or	a2,t0,a2
    6a30:	00045a02 	srl	t3,a0,0x8
    6a34:	312900ff 	andi	t1,t1,0xff
    6a38:	01c73825 	or	a3,t6,a3
    6a3c:	00001021 	move	v0,zero
    6a40:	01204021 	move	t0,t1
    6a44:	316b00ff 	andi	t3,t3,0xff
    6a48:	00461025 	or	v0,v0,a2
    6a4c:	00004821 	move	t1,zero
    6a50:	30e700ff 	andi	a3,a3,0xff
    6a54:	00005021 	move	t2,zero
    6a58:	00073400 	sll	a2,a3,0x10
    6a5c:	00481025 	or	v0,v0,t0
    6a60:	00691825 	or	v1,v1,t1
    6a64:	000b4402 	srl	t0,t3,0x10
    6a68:	00003821 	move	a3,zero
    6a6c:	000a5400 	sll	t2,t2,0x10
    6a70:	308d00ff 	andi	t5,a0,0xff
    6a74:	00671825 	or	v1,v1,a3
    6a78:	010a5025 	or	t2,t0,t2
    6a7c:	00053c02 	srl	a3,a1,0x10
    6a80:	00044400 	sll	t0,a0,0x10
    6a84:	00006021 	move	t4,zero
    6a88:	00461025 	or	v0,v0,a2
    6a8c:	01073825 	or	a3,t0,a3
    6a90:	000d3202 	srl	a2,t5,0x8
    6a94:	000c6600 	sll	t4,t4,0x18
    6a98:	00cc6025 	or	t4,a2,t4
    6a9c:	000d6e00 	sll	t5,t5,0x18
    6aa0:	30e700ff 	andi	a3,a3,0xff
    6aa4:	000b5c00 	sll	t3,t3,0x10
    6aa8:	00073200 	sll	a2,a3,0x8
    6aac:	014c5025 	or	t2,t2,t4
    6ab0:	016d5825 	or	t3,t3,t5
    6ab4:	30a500ff 	andi	a1,a1,0xff
    6ab8:	00003821 	move	a3,zero
    6abc:	00052600 	sll	a0,a1,0x18
    6ac0:	01465025 	or	t2,t2,a2
    6ac4:	00002821 	move	a1,zero
    6ac8:	01675825 	or	t3,t3,a3
    6acc:	01445025 	or	t2,t2,a0
    6ad0:	01655825 	or	t3,t3,a1
    6ad4:	004a1025 	or	v0,v0,t2
    6ad8:	03e00008 	jr	ra
    6adc:	006b1825 	or	v1,v1,t3

00006ae0 <siphash24>:
    6ae0:	27bdfe40 	addiu	sp,sp,-448
    6ae4:	afbf01bc 	sw	ra,444(sp)
    6ae8:	afbe01b8 	sw	s8,440(sp)
    6aec:	afb701b4 	sw	s7,436(sp)
    6af0:	afb601b0 	sw	s6,432(sp)
    6af4:	afb501ac 	sw	s5,428(sp)
    6af8:	afb401a8 	sw	s4,424(sp)
    6afc:	afb301a4 	sw	s3,420(sp)
    6b00:	afb201a0 	sw	s2,416(sp)
    6b04:	afb1019c 	sw	s1,412(sp)
    6b08:	afb00198 	sw	s0,408(sp)
    6b0c:	00801021 	move	v0,a0
    6b10:	afa501c4 	sw	a1,452(sp)
    6b14:	8cc40000 	lw	a0,0(a2)
    6b18:	8cc50004 	lw	a1,4(a2)
    6b1c:	00c09021 	move	s2,a2
    6b20:	0c001a7d 	jal	69f4 <le64toh>
    6b24:	0040f021 	move	s8,v0
    6b28:	8e45000c 	lw	a1,12(s2)
    6b2c:	8e440008 	lw	a0,8(s2)
    6b30:	00408021 	move	s0,v0
    6b34:	00608821 	move	s1,v1
    6b38:	00001021 	move	v0,zero
    6b3c:	00001821 	move	v1,zero
    6b40:	afa30024 	sw	v1,36(sp)
    6b44:	0c001a7d 	jal	69f4 <le64toh>
    6b48:	afa20020 	sw	v0,32(sp)
    6b4c:	8fa401c4 	lw	a0,452(sp)
    6b50:	3c057073 	lui	a1,0x7073
    6b54:	2c860008 	sltiu	a2,a0,8
    6b58:	3c04736f 	lui	a0,0x736f
    6b5c:	34846d65 	ori	a0,a0,0x6d65
    6b60:	0204b026 	xor	s6,s0,a0
    6b64:	34a56575 	ori	a1,a1,0x6575
    6b68:	3c04646f 	lui	a0,0x646f
    6b6c:	34847261 	ori	a0,a0,0x7261
    6b70:	0225b826 	xor	s7,s1,a1
    6b74:	3c056e64 	lui	a1,0x6e64
    6b78:	34a56f6d 	ori	a1,a1,0x6f6d
    6b7c:	00449026 	xor	s2,v0,a0
    6b80:	3c046c79 	lui	a0,0x6c79
    6b84:	00659826 	xor	s3,v1,a1
    6b88:	34846765 	ori	a0,a0,0x6765
    6b8c:	3c056e65 	lui	a1,0x6e65
    6b90:	02042026 	xor	a0,s0,a0
    6b94:	34a57261 	ori	a1,a1,0x7261
    6b98:	afa40018 	sw	a0,24(sp)
    6b9c:	02258026 	xor	s0,s1,a1
    6ba0:	3c047465 	lui	a0,0x7465
    6ba4:	3c057974 	lui	a1,0x7974
    6ba8:	00006821 	move	t5,zero
    6bac:	00006021 	move	t4,zero
    6bb0:	34846462 	ori	a0,a0,0x6462
    6bb4:	34a56573 	ori	a1,a1,0x6573
    6bb8:	afb0001c 	sw	s0,28(sp)
    6bbc:	afad002c 	sw	t5,44(sp)
    6bc0:	afac0028 	sw	t4,40(sp)
    6bc4:	afad0034 	sw	t5,52(sp)
    6bc8:	afac0030 	sw	t4,48(sp)
    6bcc:	afad003c 	sw	t5,60(sp)
    6bd0:	afac0038 	sw	t4,56(sp)
    6bd4:	afad0044 	sw	t5,68(sp)
    6bd8:	afac0040 	sw	t4,64(sp)
    6bdc:	afad004c 	sw	t5,76(sp)
    6be0:	afac0048 	sw	t4,72(sp)
    6be4:	afad0054 	sw	t5,84(sp)
    6be8:	afac0050 	sw	t4,80(sp)
    6bec:	afad005c 	sw	t5,92(sp)
    6bf0:	afac0058 	sw	t4,88(sp)
    6bf4:	afad0064 	sw	t5,100(sp)
    6bf8:	afac0060 	sw	t4,96(sp)
    6bfc:	afad006c 	sw	t5,108(sp)
    6c00:	afac0068 	sw	t4,104(sp)
    6c04:	afad0074 	sw	t5,116(sp)
    6c08:	afac0070 	sw	t4,112(sp)
    6c0c:	afad007c 	sw	t5,124(sp)
    6c10:	afac0078 	sw	t4,120(sp)
    6c14:	afad0084 	sw	t5,132(sp)
    6c18:	afac0080 	sw	t4,128(sp)
    6c1c:	afad008c 	sw	t5,140(sp)
    6c20:	afac0088 	sw	t4,136(sp)
    6c24:	afad0094 	sw	t5,148(sp)
    6c28:	afac0090 	sw	t4,144(sp)
    6c2c:	afad009c 	sw	t5,156(sp)
    6c30:	afac0098 	sw	t4,152(sp)
    6c34:	0044a026 	xor	s4,v0,a0
    6c38:	afad00a4 	sw	t5,164(sp)
    6c3c:	0065a826 	xor	s5,v1,a1
    6c40:	afac00a0 	sw	t4,160(sp)
    6c44:	afad00ac 	sw	t5,172(sp)
    6c48:	afac00a8 	sw	t4,168(sp)
    6c4c:	afad00b4 	sw	t5,180(sp)
    6c50:	afac00b0 	sw	t4,176(sp)
    6c54:	afad00bc 	sw	t5,188(sp)
    6c58:	afac00b8 	sw	t4,184(sp)
    6c5c:	afad00c4 	sw	t5,196(sp)
    6c60:	afac00c0 	sw	t4,192(sp)
    6c64:	afad00cc 	sw	t5,204(sp)
    6c68:	afac00c8 	sw	t4,200(sp)
    6c6c:	afad00d4 	sw	t5,212(sp)
    6c70:	afac00d0 	sw	t4,208(sp)
    6c74:	afad00dc 	sw	t5,220(sp)
    6c78:	afac00d8 	sw	t4,216(sp)
    6c7c:	afad00e4 	sw	t5,228(sp)
    6c80:	afac00e0 	sw	t4,224(sp)
    6c84:	afad00ec 	sw	t5,236(sp)
    6c88:	afac00e8 	sw	t4,232(sp)
    6c8c:	afad00f4 	sw	t5,244(sp)
    6c90:	afac00f0 	sw	t4,240(sp)
    6c94:	afad00fc 	sw	t5,252(sp)
    6c98:	afac00f8 	sw	t4,248(sp)
    6c9c:	afad0104 	sw	t5,260(sp)
    6ca0:	afac0100 	sw	t4,256(sp)
    6ca4:	afad010c 	sw	t5,268(sp)
    6ca8:	afac0108 	sw	t4,264(sp)
    6cac:	afad0114 	sw	t5,276(sp)
    6cb0:	afac0110 	sw	t4,272(sp)
    6cb4:	afad011c 	sw	t5,284(sp)
    6cb8:	afac0118 	sw	t4,280(sp)
    6cbc:	afad0124 	sw	t5,292(sp)
    6cc0:	afac0120 	sw	t4,288(sp)
    6cc4:	afad012c 	sw	t5,300(sp)
    6cc8:	afac0128 	sw	t4,296(sp)
    6ccc:	afad0134 	sw	t5,308(sp)
    6cd0:	afac0130 	sw	t4,304(sp)
    6cd4:	afad013c 	sw	t5,316(sp)
    6cd8:	afac0138 	sw	t4,312(sp)
    6cdc:	afad0144 	sw	t5,324(sp)
    6ce0:	afac0140 	sw	t4,320(sp)
    6ce4:	afad014c 	sw	t5,332(sp)
    6ce8:	afac0148 	sw	t4,328(sp)
    6cec:	afad0154 	sw	t5,340(sp)
    6cf0:	afac0150 	sw	t4,336(sp)
    6cf4:	afad015c 	sw	t5,348(sp)
    6cf8:	afac0158 	sw	t4,344(sp)
    6cfc:	afad0164 	sw	t5,356(sp)
    6d00:	afac0160 	sw	t4,352(sp)
    6d04:	afad016c 	sw	t5,364(sp)
    6d08:	afac0168 	sw	t4,360(sp)
    6d0c:	afad0174 	sw	t5,372(sp)
    6d10:	afac0170 	sw	t4,368(sp)
    6d14:	afad017c 	sw	t5,380(sp)
    6d18:	afac0178 	sw	t4,376(sp)
    6d1c:	afad0184 	sw	t5,388(sp)
    6d20:	afac0180 	sw	t4,384(sp)
    6d24:	afad018c 	sw	t5,396(sp)
    6d28:	afac0188 	sw	t4,392(sp)
    6d2c:	afad0194 	sw	t5,404(sp)
    6d30:	14c00289 	bnez	a2,7758 <siphash24+0xc78>
    6d34:	afac0190 	sw	t4,400(sp)
    6d38:	8fb101c4 	lw	s1,452(sp)
    6d3c:	8fc50004 	lw	a1,4(s8)
    6d40:	8fc40000 	lw	a0,0(s8)
    6d44:	0c001a7d 	jal	69f4 <le64toh>
    6d48:	2631fff8 	addiu	s1,s1,-8
    6d4c:	00123340 	sll	a2,s2,0xd
    6d50:	8fad001c 	lw	t5,28(sp)
    6d54:	00133cc2 	srl	a3,s3,0x13
    6d58:	00752826 	xor	a1,v1,s5
    6d5c:	00e63825 	or	a3,a3,a2
    6d60:	8fa60018 	lw	a2,24(sp)
    6d64:	00ad4821 	addu	t1,a1,t5
    6d68:	02f35821 	addu	t3,s7,s3
    6d6c:	00542026 	xor	a0,v0,s4
    6d70:	00137340 	sll	t6,s3,0xd
    6d74:	00126cc2 	srl	t5,s2,0x13
    6d78:	02d25021 	addu	t2,s6,s2
    6d7c:	0177602b 	sltu	t4,t3,s7
    6d80:	afa70090 	sw	a3,144(sp)
    6d84:	00864021 	addu	t0,a0,a2
    6d88:	01ae6825 	or	t5,t5,t6
    6d8c:	00043400 	sll	a2,a0,0x10
    6d90:	00053c02 	srl	a3,a1,0x10
    6d94:	018a6021 	addu	t4,t4,t2
    6d98:	afad0094 	sw	t5,148(sp)
    6d9c:	00e63825 	or	a3,a3,a2
    6da0:	00056c00 	sll	t5,a1,0x10
    6da4:	00042402 	srl	a0,a0,0x10
    6da8:	afa70098 	sw	a3,152(sp)
    6dac:	afac005c 	sw	t4,92(sp)
    6db0:	01803821 	move	a3,t4
    6db4:	008d2025 	or	a0,a0,t5
    6db8:	8fac0090 	lw	t4,144(sp)
    6dbc:	afa4009c 	sw	a0,156(sp)
    6dc0:	00ec3026 	xor	a2,a3,t4
    6dc4:	0125782b 	sltu	t7,t1,a1
    6dc8:	8faa0098 	lw	t2,152(sp)
    6dcc:	8fa50094 	lw	a1,148(sp)
    6dd0:	8fac009c 	lw	t4,156(sp)
    6dd4:	01e84021 	addu	t0,t7,t0
    6dd8:	01653826 	xor	a3,t3,a1
    6ddc:	010a2026 	xor	a0,t0,t2
    6de0:	012c2826 	xor	a1,t1,t4
    6de4:	01066021 	addu	t4,t0,a2
    6de8:	8fa8005c 	lw	t0,92(sp)
    6dec:	01276821 	addu	t5,t1,a3
    6df0:	afab0058 	sw	t3,88(sp)
    6df4:	01a9702b 	sltu	t6,t5,t1
    6df8:	00a85821 	addu	t3,a1,t0
    6dfc:	00074bc2 	srl	t1,a3,0xf
    6e00:	00064440 	sll	t0,a2,0x11
    6e04:	01284825 	or	t1,t1,t0
    6e08:	00077c40 	sll	t7,a3,0x11
    6e0c:	8fa70058 	lw	a3,88(sp)
    6e10:	afa900a0 	sw	t1,160(sp)
    6e14:	00044540 	sll	t0,a0,0x15
    6e18:	00054ac2 	srl	t1,a1,0xb
    6e1c:	01284825 	or	t1,t1,t0
    6e20:	00875021 	addu	t2,a0,a3
    6e24:	00054540 	sll	t0,a1,0x15
    6e28:	000633c2 	srl	a2,a2,0xf
    6e2c:	000422c2 	srl	a0,a0,0xb
    6e30:	0165802b 	sltu	s0,t3,a1
    6e34:	00cf3025 	or	a2,a2,t7
    6e38:	8fa500a0 	lw	a1,160(sp)
    6e3c:	00882025 	or	a0,a0,t0
    6e40:	01cc7021 	addu	t6,t6,t4
    6e44:	afa600a4 	sw	a2,164(sp)
    6e48:	afa400ac 	sw	a0,172(sp)
    6e4c:	01c53026 	xor	a2,t6,a1
    6e50:	8fac00ac 	lw	t4,172(sp)
    6e54:	8fa500a4 	lw	a1,164(sp)
    6e58:	020a5021 	addu	t2,s0,t2
    6e5c:	afae0024 	sw	t6,36(sp)
    6e60:	01a53826 	xor	a3,t5,a1
    6e64:	01492026 	xor	a0,t2,t1
    6e68:	016c2826 	xor	a1,t3,t4
    6e6c:	01466021 	addu	t4,t2,a2
    6e70:	8faa0024 	lw	t2,36(sp)
    6e74:	afad0020 	sw	t5,32(sp)
    6e78:	01676821 	addu	t5,t3,a3
    6e7c:	01ab702b 	sltu	t6,t5,t3
    6e80:	afa900a8 	sw	t1,168(sp)
    6e84:	00075cc2 	srl	t3,a3,0x13
    6e88:	00aa4821 	addu	t1,a1,t2
    6e8c:	00065340 	sll	t2,a2,0xd
    6e90:	016a5825 	or	t3,t3,t2
    6e94:	afab00b0 	sw	t3,176(sp)
    6e98:	00075340 	sll	t2,a3,0xd
    6e9c:	000634c2 	srl	a2,a2,0x13
    6ea0:	00ca3025 	or	a2,a2,t2
    6ea4:	8faa00b0 	lw	t2,176(sp)
    6ea8:	01cc7021 	addu	t6,t6,t4
    6eac:	afa600b4 	sw	a2,180(sp)
    6eb0:	8fa70020 	lw	a3,32(sp)
    6eb4:	01ca3026 	xor	a2,t6,t2
    6eb8:	8faa00b4 	lw	t2,180(sp)
    6ebc:	0125582b 	sltu	t3,t1,a1
    6ec0:	00874021 	addu	t0,a0,a3
    6ec4:	00057c00 	sll	t7,a1,0x10
    6ec8:	01aa3826 	xor	a3,t5,t2
    6ecc:	00045400 	sll	t2,a0,0x10
    6ed0:	00042402 	srl	a0,a0,0x10
    6ed4:	01684021 	addu	t0,t3,t0
    6ed8:	008f2025 	or	a0,a0,t7
    6edc:	00055c02 	srl	t3,a1,0x10
    6ee0:	016a5825 	or	t3,t3,t2
    6ee4:	afa400bc 	sw	a0,188(sp)
    6ee8:	afab00b8 	sw	t3,184(sp)
    6eec:	afad0050 	sw	t5,80(sp)
    6ef0:	8fad00bc 	lw	t5,188(sp)
    6ef4:	8fac00b8 	lw	t4,184(sp)
    6ef8:	012d2826 	xor	a1,t1,t5
    6efc:	000783c2 	srl	s0,a3,0xf
    6f00:	00066c40 	sll	t5,a2,0x11
    6f04:	01275821 	addu	t3,t1,a3
    6f08:	010c2026 	xor	a0,t0,t4
    6f0c:	020d8025 	or	s0,s0,t5
    6f10:	00046540 	sll	t4,a0,0x15
    6f14:	afae0054 	sw	t6,84(sp)
    6f18:	0169782b 	sltu	t7,t3,t1
    6f1c:	afb000c0 	sw	s0,192(sp)
    6f20:	00ae4821 	addu	t1,a1,t6
    6f24:	00076c40 	sll	t5,a3,0x11
    6f28:	000572c2 	srl	t6,a1,0xb
    6f2c:	8fa70050 	lw	a3,80(sp)
    6f30:	01cc7025 	or	t6,t6,t4
    6f34:	01065021 	addu	t2,t0,a2
    6f38:	afae00c8 	sw	t6,200(sp)
    6f3c:	00874021 	addu	t0,a0,a3
    6f40:	00057540 	sll	t6,a1,0x15
    6f44:	000422c2 	srl	a0,a0,0xb
    6f48:	000633c2 	srl	a2,a2,0xf
    6f4c:	008e2025 	or	a0,a0,t6
    6f50:	00cd3025 	or	a2,a2,t5
    6f54:	afa400cc 	sw	a0,204(sp)
    6f58:	0125602b 	sltu	t4,t1,a1
    6f5c:	afa600c4 	sw	a2,196(sp)
    6f60:	01669826 	xor	s3,t3,a2
    6f64:	8fa700cc 	lw	a3,204(sp)
    6f68:	8fa600c8 	lw	a2,200(sp)
    6f6c:	01ea7821 	addu	t7,t7,t2
    6f70:	01884021 	addu	t0,t4,t0
    6f74:	2e250008 	sltiu	a1,s1,8
    6f78:	afaf001c 	sw	t7,28(sp)
    6f7c:	27de0008 	addiu	s8,s8,8
    6f80:	afab0018 	sw	t3,24(sp)
    6f84:	01f09026 	xor	s2,t7,s0
    6f88:	0106a026 	xor	s4,t0,a2
    6f8c:	0127a826 	xor	s5,t1,a3
    6f90:	0048b026 	xor	s6,v0,t0
    6f94:	10a0ff69 	beqz	a1,6d3c <siphash24+0x25c>
    6f98:	0069b826 	xor	s7,v1,t1
    6f9c:	00006821 	move	t5,zero
    6fa0:	00006021 	move	t4,zero
    6fa4:	afad0014 	sw	t5,20(sp)
    6fa8:	afac0010 	sw	t4,16(sp)
    6fac:	10a00012 	beqz	a1,6ff8 <siphash24+0x518>
    6fb0:	27a60010 	addiu	a2,sp,16
    6fb4:	3c030001 	lui	v1,0x1
    6fb8:	00111080 	sll	v0,s1,0x2
    6fbc:	2463890c 	addiu	v1,v1,-30452
    6fc0:	00431021 	addu	v0,v0,v1
    6fc4:	8c440000 	lw	a0,0(v0)
    6fc8:	00000000 	nop
    6fcc:	00800008 	jr	a0
    6fd0:	00000000 	nop
    6fd4:	93c20002 	lbu	v0,2(s8)
    6fd8:	00000000 	nop
    6fdc:	a0c20002 	sb	v0,2(a2)
    6fe0:	93c20001 	lbu	v0,1(s8)
    6fe4:	00000000 	nop
    6fe8:	a0c20001 	sb	v0,1(a2)
    6fec:	93c20000 	lbu	v0,0(s8)
    6ff0:	00000000 	nop
    6ff4:	a0c20000 	sb	v0,0(a2)
    6ff8:	8fb101c4 	lw	s1,452(sp)
    6ffc:	8fa50014 	lw	a1,20(sp)
    7000:	8fa40010 	lw	a0,16(sp)
    7004:	0c001a7d 	jal	69f4 <le64toh>
    7008:	00118600 	sll	s0,s1,0x18
    700c:	02028025 	or	s0,s0,v0
    7010:	8fa40018 	lw	a0,24(sp)
    7014:	02141026 	xor	v0,s0,s4
    7018:	00008821 	move	s1,zero
    701c:	8fad001c 	lw	t5,28(sp)
    7020:	00445021 	addu	t2,v0,a0
    7024:	02238825 	or	s1,s1,v1
    7028:	00122340 	sll	a0,s2,0xd
    702c:	00132cc2 	srl	a1,s3,0x13
    7030:	02351826 	xor	v1,s1,s5
    7034:	00a42825 	or	a1,a1,a0
    7038:	02f33821 	addu	a3,s7,s3
    703c:	006d5821 	addu	t3,v1,t5
    7040:	afa500d0 	sw	a1,208(sp)
    7044:	00136b40 	sll	t5,s3,0xd
    7048:	00022400 	sll	a0,v0,0x10
    704c:	00122cc2 	srl	a1,s2,0x13
    7050:	00034402 	srl	t0,v1,0x10
    7054:	02d23021 	addu	a2,s6,s2
    7058:	00f7602b 	sltu	t4,a3,s7
    705c:	00ad2825 	or	a1,a1,t5
    7060:	01044025 	or	t0,t0,a0
    7064:	01866021 	addu	t4,t4,a2
    7068:	afa500d4 	sw	a1,212(sp)
    706c:	afa800d8 	sw	t0,216(sp)
    7070:	00021402 	srl	v0,v0,0x10
    7074:	00034400 	sll	t0,v1,0x10
    7078:	afac008c 	sw	t4,140(sp)
    707c:	8fad00d4 	lw	t5,212(sp)
    7080:	01802821 	move	a1,t4
    7084:	00481025 	or	v0,v0,t0
    7088:	8fac00d0 	lw	t4,208(sp)
    708c:	afa200dc 	sw	v0,220(sp)
    7090:	00ac2026 	xor	a0,a1,t4
    7094:	afa70088 	sw	a3,136(sp)
    7098:	00ed2826 	xor	a1,a3,t5
    709c:	8fa600d8 	lw	a2,216(sp)
    70a0:	8fa700dc 	lw	a3,220(sp)
    70a4:	0163482b 	sltu	t1,t3,v1
    70a8:	012a4821 	addu	t1,t1,t2
    70ac:	8fac0088 	lw	t4,136(sp)
    70b0:	8faa008c 	lw	t2,140(sp)
    70b4:	01671826 	xor	v1,t3,a3
    70b8:	01261026 	xor	v0,t1,a2
    70bc:	01653821 	addu	a3,t3,a1
    70c0:	01243021 	addu	a2,t1,a0
    70c4:	004c4021 	addu	t0,v0,t4
    70c8:	006a4821 	addu	t1,v1,t2
    70cc:	000362c2 	srl	t4,v1,0xb
    70d0:	00025540 	sll	t2,v0,0x15
    70d4:	00eb682b 	sltu	t5,a3,t3
    70d8:	018a6025 	or	t4,t4,t2
    70dc:	00045c40 	sll	t3,a0,0x11
    70e0:	00055440 	sll	t2,a1,0x11
    70e4:	000423c2 	srl	a0,a0,0xf
    70e8:	008a2025 	or	a0,a0,t2
    70ec:	000573c2 	srl	t6,a1,0xf
    70f0:	01cb7025 	or	t6,t6,t3
    70f4:	afa400e4 	sw	a0,228(sp)
    70f8:	00035d40 	sll	t3,v1,0x15
    70fc:	000212c2 	srl	v0,v0,0xb
    7100:	0123782b 	sltu	t7,t1,v1
    7104:	004b1025 	or	v0,v0,t3
    7108:	8fa300e4 	lw	v1,228(sp)
    710c:	afac00e8 	sw	t4,232(sp)
    7110:	afa200ec 	sw	v0,236(sp)
    7114:	00e32826 	xor	a1,a3,v1
    7118:	01a66821 	addu	t5,t5,a2
    711c:	afa70048 	sw	a3,72(sp)
    7120:	8fa600e8 	lw	a2,232(sp)
    7124:	8fa700ec 	lw	a3,236(sp)
    7128:	01e87821 	addu	t7,t7,t0
    712c:	01a06021 	move	t4,t5
    7130:	8fa80048 	lw	t0,72(sp)
    7134:	01271826 	xor	v1,t1,a3
    7138:	018e2026 	xor	a0,t4,t6
    713c:	01e61026 	xor	v0,t7,a2
    7140:	01253821 	addu	a3,t1,a1
    7144:	00485021 	addu	t2,v0,t0
    7148:	afad004c 	sw	t5,76(sp)
    714c:	00044340 	sll	t0,a0,0xd
    7150:	00e9682b 	sltu	t5,a3,t1
    7154:	00054cc2 	srl	t1,a1,0x13
    7158:	006c5821 	addu	t3,v1,t4
    715c:	01e43021 	addu	a2,t7,a0
    7160:	afae00e0 	sw	t6,224(sp)
    7164:	01284825 	or	t1,t1,t0
    7168:	00057340 	sll	t6,a1,0xd
    716c:	000424c2 	srl	a0,a0,0x13
    7170:	afa900f0 	sw	t1,240(sp)
    7174:	0163602b 	sltu	t4,t3,v1
    7178:	00024400 	sll	t0,v0,0x10
    717c:	008e2025 	or	a0,a0,t6
    7180:	00034c02 	srl	t1,v1,0x10
    7184:	01a66821 	addu	t5,t5,a2
    7188:	afa400f4 	sw	a0,244(sp)
    718c:	01284825 	or	t1,t1,t0
    7190:	018a6021 	addu	t4,t4,t2
    7194:	00034400 	sll	t0,v1,0x10
    7198:	00021402 	srl	v0,v0,0x10
    719c:	01805021 	move	t2,t4
    71a0:	afad0084 	sw	t5,132(sp)
    71a4:	8fa300f4 	lw	v1,244(sp)
    71a8:	01a06021 	move	t4,t5
    71ac:	00481025 	or	v0,v0,t0
    71b0:	8fad00f0 	lw	t5,240(sp)
    71b4:	afa200fc 	sw	v0,252(sp)
    71b8:	00e32826 	xor	a1,a3,v1
    71bc:	018d2026 	xor	a0,t4,t5
    71c0:	afa70080 	sw	a3,128(sp)
    71c4:	8fa700fc 	lw	a3,252(sp)
    71c8:	01491026 	xor	v0,t2,t1
    71cc:	01446021 	addu	t4,t2,a0
    71d0:	8fa60080 	lw	a2,128(sp)
    71d4:	8faa0084 	lw	t2,132(sp)
    71d8:	01671826 	xor	v1,t3,a3
    71dc:	01656821 	addu	t5,t3,a1
    71e0:	00464021 	addu	t0,v0,a2
    71e4:	afa900f8 	sw	t1,248(sp)
    71e8:	01ab702b 	sltu	t6,t5,t3
    71ec:	006a4821 	addu	t1,v1,t2
    71f0:	00043c40 	sll	a3,a0,0x11
    71f4:	00023540 	sll	a2,v0,0x15
    71f8:	00055bc2 	srl	t3,a1,0xf
    71fc:	000352c2 	srl	t2,v1,0xb
    7200:	01675825 	or	t3,t3,a3
    7204:	01465025 	or	t2,t2,a2
    7208:	00033d40 	sll	a3,v1,0x15
    720c:	00053440 	sll	a2,a1,0x11
    7210:	000423c2 	srl	a0,a0,0xf
    7214:	000212c2 	srl	v0,v0,0xb
    7218:	00862025 	or	a0,a0,a2
    721c:	00471025 	or	v0,v0,a3
    7220:	afab0100 	sw	t3,256(sp)
    7224:	afa40104 	sw	a0,260(sp)
    7228:	afaa0108 	sw	t2,264(sp)
    722c:	afa2010c 	sw	v0,268(sp)
    7230:	8faa0108 	lw	t2,264(sp)
    7234:	8fa2010c 	lw	v0,268(sp)
    7238:	0123782b 	sltu	t7,t1,v1
    723c:	8fa30104 	lw	v1,260(sp)
    7240:	01cc7021 	addu	t6,t6,t4
    7244:	01e87821 	addu	t7,t7,t0
    7248:	01a32826 	xor	a1,t5,v1
    724c:	01223826 	xor	a3,t1,v0
    7250:	01cb2026 	xor	a0,t6,t3
    7254:	01ea3026 	xor	a2,t7,t2
    7258:	01a01021 	move	v0,t5
    725c:	00c25021 	addu	t2,a2,v0
    7260:	39c300ff 	xori	v1,t6,0xff
    7264:	00041340 	sll	v0,a0,0xd
    7268:	000564c2 	srl	t4,a1,0x13
    726c:	00e35821 	addu	t3,a3,v1
    7270:	020f8026 	xor	s0,s0,t7
    7274:	01826025 	or	t4,t4,v0
    7278:	00071c02 	srl	v1,a3,0x10
    727c:	00061400 	sll	v0,a2,0x10
    7280:	00904021 	addu	t0,a0,s0
    7284:	afac0110 	sw	t4,272(sp)
    7288:	00621825 	or	v1,v1,v0
    728c:	00056340 	sll	t4,a1,0xd
    7290:	00071400 	sll	v0,a3,0x10
    7294:	000424c2 	srl	a0,a0,0x13
    7298:	00063402 	srl	a2,a2,0x10
    729c:	afad0040 	sw	t5,64(sp)
    72a0:	008c2025 	or	a0,a0,t4
    72a4:	0167682b 	sltu	t5,t3,a3
    72a8:	00c23025 	or	a2,a2,v0
    72ac:	02298826 	xor	s1,s1,t1
    72b0:	00b14821 	addu	t1,a1,s1
    72b4:	afa40114 	sw	a0,276(sp)
    72b8:	afa30118 	sw	v1,280(sp)
    72bc:	afa6011c 	sw	a2,284(sp)
    72c0:	01aa6821 	addu	t5,t5,t2
    72c4:	01a05021 	move	t2,t5
    72c8:	8fa30114 	lw	v1,276(sp)
    72cc:	8fad0110 	lw	t5,272(sp)
    72d0:	8fa60118 	lw	a2,280(sp)
    72d4:	8fa7011c 	lw	a3,284(sp)
    72d8:	afae0044 	sw	t6,68(sp)
    72dc:	0125702b 	sltu	t6,t1,a1
    72e0:	01c87021 	addu	t6,t6,t0
    72e4:	01232826 	xor	a1,t1,v1
    72e8:	01cd2026 	xor	a0,t6,t5
    72ec:	01671826 	xor	v1,t3,a3
    72f0:	01461026 	xor	v0,t2,a2
    72f4:	01653821 	addu	a3,t3,a1
    72f8:	01443021 	addu	a2,t2,a0
    72fc:	000362c2 	srl	t4,v1,0xb
    7300:	00025540 	sll	t2,v0,0x15
    7304:	00eb682b 	sltu	t5,a3,t3
    7308:	018a6025 	or	t4,t4,t2
    730c:	00045c40 	sll	t3,a0,0x11
    7310:	00055440 	sll	t2,a1,0x11
    7314:	000423c2 	srl	a0,a0,0xf
    7318:	afae007c 	sw	t6,124(sp)
    731c:	afa90078 	sw	t1,120(sp)
    7320:	008a2025 	or	a0,a0,t2
    7324:	01204021 	move	t0,t1
    7328:	006e4821 	addu	t1,v1,t6
    732c:	000573c2 	srl	t6,a1,0xf
    7330:	01cb7025 	or	t6,t6,t3
    7334:	afa40124 	sw	a0,292(sp)
    7338:	00484021 	addu	t0,v0,t0
    733c:	00035d40 	sll	t3,v1,0x15
    7340:	000212c2 	srl	v0,v0,0xb
    7344:	0123782b 	sltu	t7,t1,v1
    7348:	004b1025 	or	v0,v0,t3
    734c:	8fa30124 	lw	v1,292(sp)
    7350:	afac0128 	sw	t4,296(sp)
    7354:	afa2012c 	sw	v0,300(sp)
    7358:	00e32826 	xor	a1,a3,v1
    735c:	01a66821 	addu	t5,t5,a2
    7360:	afa70038 	sw	a3,56(sp)
    7364:	8fa60128 	lw	a2,296(sp)
    7368:	8fa7012c 	lw	a3,300(sp)
    736c:	01e87821 	addu	t7,t7,t0
    7370:	01a06021 	move	t4,t5
    7374:	8fa80038 	lw	t0,56(sp)
    7378:	01271826 	xor	v1,t1,a3
    737c:	018e2026 	xor	a0,t4,t6
    7380:	01e61026 	xor	v0,t7,a2
    7384:	01253821 	addu	a3,t1,a1
    7388:	01e43021 	addu	a2,t7,a0
    738c:	00485021 	addu	t2,v0,t0
    7390:	afae0120 	sw	t6,288(sp)
    7394:	afad003c 	sw	t5,60(sp)
    7398:	00044340 	sll	t0,a0,0xd
    739c:	00e9682b 	sltu	t5,a3,t1
    73a0:	00057340 	sll	t6,a1,0xd
    73a4:	00054cc2 	srl	t1,a1,0x13
    73a8:	000424c2 	srl	a0,a0,0x13
    73ac:	01284825 	or	t1,t1,t0
    73b0:	008e2025 	or	a0,a0,t6
    73b4:	006c5821 	addu	t3,v1,t4
    73b8:	afa90130 	sw	t1,304(sp)
    73bc:	afa40134 	sw	a0,308(sp)
    73c0:	00024400 	sll	t0,v0,0x10
    73c4:	00034c02 	srl	t1,v1,0x10
    73c8:	01284825 	or	t1,t1,t0
    73cc:	0163602b 	sltu	t4,t3,v1
    73d0:	00034400 	sll	t0,v1,0x10
    73d4:	00021402 	srl	v0,v0,0x10
    73d8:	8fa30134 	lw	v1,308(sp)
    73dc:	01a66821 	addu	t5,t5,a2
    73e0:	00481025 	or	v0,v0,t0
    73e4:	018a6021 	addu	t4,t4,t2
    73e8:	00e32826 	xor	a1,a3,v1
    73ec:	01805021 	move	t2,t4
    73f0:	afa90138 	sw	t1,312(sp)
    73f4:	01a06021 	move	t4,t5
    73f8:	afad0074 	sw	t5,116(sp)
    73fc:	8fad0130 	lw	t5,304(sp)
    7400:	afa2013c 	sw	v0,316(sp)
    7404:	afa70070 	sw	a3,112(sp)
    7408:	8fa7013c 	lw	a3,316(sp)
    740c:	018d2026 	xor	a0,t4,t5
    7410:	01671826 	xor	v1,t3,a3
    7414:	01491026 	xor	v0,t2,t1
    7418:	006c4821 	addu	t1,v1,t4
    741c:	8fac0070 	lw	t4,112(sp)
    7420:	01653821 	addu	a3,t3,a1
    7424:	01443021 	addu	a2,t2,a0
    7428:	004c4021 	addu	t0,v0,t4
    742c:	00025540 	sll	t2,v0,0x15
    7430:	000362c2 	srl	t4,v1,0xb
    7434:	00eb682b 	sltu	t5,a3,t3
    7438:	018a6025 	or	t4,t4,t2
    743c:	00045c40 	sll	t3,a0,0x11
    7440:	00055440 	sll	t2,a1,0x11
    7444:	000423c2 	srl	a0,a0,0xf
    7448:	008a2025 	or	a0,a0,t2
    744c:	000573c2 	srl	t6,a1,0xf
    7450:	01cb7025 	or	t6,t6,t3
    7454:	afa40144 	sw	a0,324(sp)
    7458:	00035d40 	sll	t3,v1,0x15
    745c:	000212c2 	srl	v0,v0,0xb
    7460:	0123782b 	sltu	t7,t1,v1
    7464:	004b1025 	or	v0,v0,t3
    7468:	8fa30144 	lw	v1,324(sp)
    746c:	afac0148 	sw	t4,328(sp)
    7470:	afa2014c 	sw	v0,332(sp)
    7474:	00e32826 	xor	a1,a3,v1
    7478:	01a66821 	addu	t5,t5,a2
    747c:	afa70030 	sw	a3,48(sp)
    7480:	8fa60148 	lw	a2,328(sp)
    7484:	8fa7014c 	lw	a3,332(sp)
    7488:	01e87821 	addu	t7,t7,t0
    748c:	01a06021 	move	t4,t5
    7490:	8fa80030 	lw	t0,48(sp)
    7494:	01271826 	xor	v1,t1,a3
    7498:	018e2026 	xor	a0,t4,t6
    749c:	01e61026 	xor	v0,t7,a2
    74a0:	01253821 	addu	a3,t1,a1
    74a4:	00485021 	addu	t2,v0,t0
    74a8:	afad0034 	sw	t5,52(sp)
    74ac:	00044340 	sll	t0,a0,0xd
    74b0:	00e9682b 	sltu	t5,a3,t1
    74b4:	00054cc2 	srl	t1,a1,0x13
    74b8:	01e43021 	addu	a2,t7,a0
    74bc:	afae0140 	sw	t6,320(sp)
    74c0:	01284825 	or	t1,t1,t0
    74c4:	00057340 	sll	t6,a1,0xd
    74c8:	000424c2 	srl	a0,a0,0x13
    74cc:	afa90150 	sw	t1,336(sp)
    74d0:	00024400 	sll	t0,v0,0x10
    74d4:	008e2025 	or	a0,a0,t6
    74d8:	00034c02 	srl	t1,v1,0x10
    74dc:	006c5821 	addu	t3,v1,t4
    74e0:	afa40154 	sw	a0,340(sp)
    74e4:	01284825 	or	t1,t1,t0
    74e8:	00021402 	srl	v0,v0,0x10
    74ec:	00034400 	sll	t0,v1,0x10
    74f0:	0163602b 	sltu	t4,t3,v1
    74f4:	00481025 	or	v0,v0,t0
    74f8:	8fa30154 	lw	v1,340(sp)
    74fc:	afa2015c 	sw	v0,348(sp)
    7500:	00e32826 	xor	a1,a3,v1
    7504:	01a66821 	addu	t5,t5,a2
    7508:	afa70068 	sw	a3,104(sp)
    750c:	018a6021 	addu	t4,t4,t2
    7510:	8fa7015c 	lw	a3,348(sp)
    7514:	01805021 	move	t2,t4
    7518:	afad006c 	sw	t5,108(sp)
    751c:	01a06021 	move	t4,t5
    7520:	8fad0150 	lw	t5,336(sp)
    7524:	01671826 	xor	v1,t3,a3
    7528:	018d2026 	xor	a0,t4,t5
    752c:	01491026 	xor	v0,t2,t1
    7530:	afa90158 	sw	t1,344(sp)
    7534:	006c4821 	addu	t1,v1,t4
    7538:	8fac0068 	lw	t4,104(sp)
    753c:	01653821 	addu	a3,t3,a1
    7540:	01443021 	addu	a2,t2,a0
    7544:	004c4021 	addu	t0,v0,t4
    7548:	00025540 	sll	t2,v0,0x15
    754c:	000362c2 	srl	t4,v1,0xb
    7550:	00eb682b 	sltu	t5,a3,t3
    7554:	018a6025 	or	t4,t4,t2
    7558:	00045c40 	sll	t3,a0,0x11
    755c:	00055440 	sll	t2,a1,0x11
    7560:	000423c2 	srl	a0,a0,0xf
    7564:	008a2025 	or	a0,a0,t2
    7568:	000573c2 	srl	t6,a1,0xf
    756c:	01cb7025 	or	t6,t6,t3
    7570:	afa40164 	sw	a0,356(sp)
    7574:	00035d40 	sll	t3,v1,0x15
    7578:	000212c2 	srl	v0,v0,0xb
    757c:	0123782b 	sltu	t7,t1,v1
    7580:	004b1025 	or	v0,v0,t3
    7584:	8fa30164 	lw	v1,356(sp)
    7588:	afac0168 	sw	t4,360(sp)
    758c:	afa2016c 	sw	v0,364(sp)
    7590:	00e32826 	xor	a1,a3,v1
    7594:	01a66821 	addu	t5,t5,a2
    7598:	afa70028 	sw	a3,40(sp)
    759c:	8fa60168 	lw	a2,360(sp)
    75a0:	8fa7016c 	lw	a3,364(sp)
    75a4:	01e87821 	addu	t7,t7,t0
    75a8:	01a06021 	move	t4,t5
    75ac:	8fa80028 	lw	t0,40(sp)
    75b0:	01271826 	xor	v1,t1,a3
    75b4:	018e2026 	xor	a0,t4,t6
    75b8:	01e61026 	xor	v0,t7,a2
    75bc:	01253821 	addu	a3,t1,a1
    75c0:	00485021 	addu	t2,v0,t0
    75c4:	afad002c 	sw	t5,44(sp)
    75c8:	00044340 	sll	t0,a0,0xd
    75cc:	00e9682b 	sltu	t5,a3,t1
    75d0:	00054cc2 	srl	t1,a1,0x13
    75d4:	01e43021 	addu	a2,t7,a0
    75d8:	afae0160 	sw	t6,352(sp)
    75dc:	01284825 	or	t1,t1,t0
    75e0:	00057340 	sll	t6,a1,0xd
    75e4:	000424c2 	srl	a0,a0,0x13
    75e8:	afa90170 	sw	t1,368(sp)
    75ec:	00024400 	sll	t0,v0,0x10
    75f0:	008e2025 	or	a0,a0,t6
    75f4:	00034c02 	srl	t1,v1,0x10
    75f8:	006c5821 	addu	t3,v1,t4
    75fc:	01284825 	or	t1,t1,t0
    7600:	afa40174 	sw	a0,372(sp)
    7604:	00034400 	sll	t0,v1,0x10
    7608:	00021402 	srl	v0,v0,0x10
    760c:	0163602b 	sltu	t4,t3,v1
    7610:	00481025 	or	v0,v0,t0
    7614:	8fa30174 	lw	v1,372(sp)
    7618:	afa2017c 	sw	v0,380(sp)
    761c:	00e32826 	xor	a1,a3,v1
    7620:	01a66821 	addu	t5,t5,a2
    7624:	afa70060 	sw	a3,96(sp)
    7628:	018a6021 	addu	t4,t4,t2
    762c:	8fa7017c 	lw	a3,380(sp)
    7630:	01805021 	move	t2,t4
    7634:	afad0064 	sw	t5,100(sp)
    7638:	01a06021 	move	t4,t5
    763c:	8fad0170 	lw	t5,368(sp)
    7640:	01671826 	xor	v1,t3,a3
    7644:	018d2026 	xor	a0,t4,t5
    7648:	01491026 	xor	v0,t2,t1
    764c:	afa90178 	sw	t1,376(sp)
    7650:	006c4821 	addu	t1,v1,t4
    7654:	8fac0060 	lw	t4,96(sp)
    7658:	01653821 	addu	a3,t3,a1
    765c:	01443021 	addu	a2,t2,a0
    7660:	004c4021 	addu	t0,v0,t4
    7664:	00025540 	sll	t2,v0,0x15
    7668:	000362c2 	srl	t4,v1,0xb
    766c:	00eb682b 	sltu	t5,a3,t3
    7670:	018a6025 	or	t4,t4,t2
    7674:	00045c40 	sll	t3,a0,0x11
    7678:	00055440 	sll	t2,a1,0x11
    767c:	000423c2 	srl	a0,a0,0xf
    7680:	000573c2 	srl	t6,a1,0xf
    7684:	008a2025 	or	a0,a0,t2
    7688:	01cb7025 	or	t6,t6,t3
    768c:	afa40184 	sw	a0,388(sp)
    7690:	00035d40 	sll	t3,v1,0x15
    7694:	000212c2 	srl	v0,v0,0xb
    7698:	8fa50184 	lw	a1,388(sp)
    769c:	004b1025 	or	v0,v0,t3
    76a0:	01a66821 	addu	t5,t5,a2
    76a4:	afac0188 	sw	t4,392(sp)
    76a8:	afa2018c 	sw	v0,396(sp)
    76ac:	01a06021 	move	t4,t5
    76b0:	0123782b 	sltu	t7,t1,v1
    76b4:	afad0194 	sw	t5,404(sp)
    76b8:	00e51826 	xor	v1,a3,a1
    76bc:	00e06821 	move	t5,a3
    76c0:	afa70190 	sw	a3,400(sp)
    76c4:	8fa60188 	lw	a2,392(sp)
    76c8:	8fa7018c 	lw	a3,396(sp)
    76cc:	01e87821 	addu	t7,t7,t0
    76d0:	018e1026 	xor	v0,t4,t6
    76d4:	01e62026 	xor	a0,t7,a2
    76d8:	01272826 	xor	a1,t1,a3
    76dc:	01e21026 	xor	v0,t7,v0
    76e0:	01231826 	xor	v1,t1,v1
    76e4:	008d2026 	xor	a0,a0,t5
    76e8:	00ac2826 	xor	a1,a1,t4
    76ec:	8fbf01bc 	lw	ra,444(sp)
    76f0:	8fbe01b8 	lw	s8,440(sp)
    76f4:	8fb701b4 	lw	s7,436(sp)
    76f8:	8fb601b0 	lw	s6,432(sp)
    76fc:	8fb501ac 	lw	s5,428(sp)
    7700:	8fb401a8 	lw	s4,424(sp)
    7704:	8fb301a4 	lw	s3,420(sp)
    7708:	8fb201a0 	lw	s2,416(sp)
    770c:	8fb1019c 	lw	s1,412(sp)
    7710:	8fb00198 	lw	s0,408(sp)
    7714:	afae0180 	sw	t6,384(sp)
    7718:	00441026 	xor	v0,v0,a0
    771c:	00651826 	xor	v1,v1,a1
    7720:	03e00008 	jr	ra
    7724:	27bd01c0 	addiu	sp,sp,448
    7728:	93c20006 	lbu	v0,6(s8)
    772c:	00000000 	nop
    7730:	a0c20006 	sb	v0,6(a2)
    7734:	93c20005 	lbu	v0,5(s8)
    7738:	00000000 	nop
    773c:	a0c20005 	sb	v0,5(a2)
    7740:	93c20004 	lbu	v0,4(s8)
    7744:	00000000 	nop
    7748:	a0c20004 	sb	v0,4(a2)
    774c:	8fc20000 	lw	v0,0(s8)
    7750:	08001bfe 	j	6ff8 <siphash24+0x518>
    7754:	acc20000 	sw	v0,0(a2)
    7758:	8fb101c4 	lw	s1,452(sp)
    775c:	08001be7 	j	6f9c <siphash24+0x4bc>
    7760:	24050001 	li	a1,1

00007764 <GLFSR_init>:
    7764:	00806821 	move	t5,a0
    7768:	34e40001 	ori	a0,a3,0x1
    776c:	ada4000c 	sw	a0,12(t5)
    7770:	8fa30014 	lw	v1,20(sp)
    7774:	8fa20010 	lw	v0,16(sp)
    7778:	00004821 	move	t1,zero
    777c:	3c088000 	lui	t0,0x8000
    7780:	240b003e 	li	t3,62
    7784:	240cffff 	li	t4,-1
    7788:	ada30004 	sw	v1,4(t5)
    778c:	ada20000 	sw	v0,0(t5)
    7790:	08001dec 	j	77b0 <GLFSR_init+0x4c>
    7794:	ada60008 	sw	a2,8(t5)
    7798:	116c000e 	beq	t3,t4,77d4 <GLFSR_init+0x70>
    779c:	00092842 	srl	a1,t1,0x1
    77a0:	01452825 	or	a1,t2,a1
    77a4:	00082042 	srl	a0,t0,0x1
    77a8:	00a04821 	move	t1,a1
    77ac:	00804021 	move	t0,a0
    77b0:	00c81024 	and	v0,a2,t0
    77b4:	00e91824 	and	v1,a3,t1
    77b8:	00431025 	or	v0,v0,v1
    77bc:	000857c0 	sll	t2,t0,0x1f
    77c0:	1040fff5 	beqz	v0,7798 <GLFSR_init+0x34>
    77c4:	256bffff 	addiu	t3,t3,-1
    77c8:	ada90014 	sw	t1,20(t5)
    77cc:	03e00008 	jr	ra
    77d0:	ada80010 	sw	t0,16(t5)
    77d4:	03e00008 	jr	ra
    77d8:	00000000 	nop

000077dc <GLFSR_next>:
    77dc:	8c830004 	lw	v1,4(a0)
    77e0:	8c820000 	lw	v0,0(a0)
    77e4:	00803821 	move	a3,a0
    77e8:	8c860010 	lw	a2,16(a0)
    77ec:	00024040 	sll	t0,v0,0x1
    77f0:	000327c2 	srl	a0,v1,0x1f
    77f4:	8ce50014 	lw	a1,20(a3)
    77f8:	00884025 	or	t0,a0,t0
    77fc:	00034840 	sll	t1,v1,0x1
    7800:	00a91824 	and	v1,a1,t1
    7804:	00c81024 	and	v0,a2,t0
    7808:	00431025 	or	v0,v0,v1
    780c:	ace90004 	sw	t1,4(a3)
    7810:	00001821 	move	v1,zero
    7814:	10400008 	beqz	v0,7838 <GLFSR_next+0x5c>
    7818:	ace80000 	sw	t0,0(a3)
    781c:	8ce30008 	lw	v1,8(a3)
    7820:	8ce2000c 	lw	v0,12(a3)
    7824:	00681826 	xor	v1,v1,t0
    7828:	00491026 	xor	v0,v0,t1
    782c:	ace30000 	sw	v1,0(a3)
    7830:	ace20004 	sw	v0,4(a3)
    7834:	24030001 	li	v1,1
    7838:	03e00008 	jr	ra
    783c:	00601021 	move	v0,v1

00007840 <Unset_Secure_Zone>:
    7840:	27bdffb8 	addiu	sp,sp,-72
    7844:	afa60018 	sw	a2,24(sp)
    7848:	afbf0044 	sw	ra,68(sp)
    784c:	afbe0040 	sw	s8,64(sp)
    7850:	afb7003c 	sw	s7,60(sp)
    7854:	afb60038 	sw	s6,56(sp)
    7858:	afb50034 	sw	s5,52(sp)
    785c:	afb40030 	sw	s4,48(sp)
    7860:	00a0a821 	move	s5,a1
    7864:	afb3002c 	sw	s3,44(sp)
    7868:	afb20028 	sw	s2,40(sp)
    786c:	afb10024 	sw	s1,36(sp)
    7870:	afb00020 	sw	s0,32(sp)
    7874:	0c0008fd 	jal	23f4 <get_net_address>
    7878:	00808021 	move	s0,a0
    787c:	30420f00 	andi	v0,v0,0xf00
    7880:	0c0008fd 	jal	23f4 <get_net_address>
    7884:	00029a02 	srl	s3,v0,0x8
    7888:	3c030005 	lui	v1,0x5
    788c:	8c66900c 	lw	a2,-28660(v1)
    7890:	32a400f0 	andi	a0,s5,0xf0
    7894:	30c300f0 	andi	v1,a2,0xf0
    7898:	320500f0 	andi	a1,s0,0xf0
    789c:	3054000f 	andi	s4,v0,0xf
    78a0:	00042102 	srl	a0,a0,0x4
    78a4:	3c020005 	lui	v0,0x5
    78a8:	00038903 	sra	s1,v1,0x4
    78ac:	afa40014 	sw	a0,20(sp)
    78b0:	8c439008 	lw	v1,-28664(v0)
    78b4:	0005b102 	srl	s6,a1,0x4
    78b8:	30d2000f 	andi	s2,a2,0xf
    78bc:	32be000f 	andi	s8,s5,0xf
    78c0:	12b0006c 	beq	s5,s0,7a74 <Unset_Secure_Zone+0x234>
    78c4:	3217000f 	andi	s7,s0,0xf
    78c8:	12710072 	beq	s3,s1,7a94 <Unset_Secure_Zone+0x254>
    78cc:	00000000 	nop
    78d0:	afa00010 	sw	zero,16(sp)
    78d4:	00001021 	move	v0,zero
    78d8:	3c110005 	lui	s1,0x5
    78dc:	8e32910c 	lw	s2,-28404(s1)
    78e0:	00000000 	nop
    78e4:	1240007e 	beqz	s2,7ae0 <Unset_Secure_Zone+0x2a0>
    78e8:	00000000 	nop
    78ec:	1440003b 	bnez	v0,79dc <Unset_Secure_Zone+0x19c>
    78f0:	26c20001 	addiu	v0,s6,1
    78f4:	1262009b 	beq	s3,v0,7b64 <Unset_Secure_Zone+0x324>
    78f8:	0297102b 	sltu	v0,s4,s7
    78fc:	27c20001 	addiu	v0,s8,1
    7900:	1282009f 	beq	s4,v0,7b80 <Unset_Secure_Zone+0x340>
    7904:	00000000 	nop
    7908:	127600a4 	beq	s3,s6,7b9c <Unset_Secure_Zone+0x35c>
    790c:	0297102b 	sltu	v0,s4,s7
    7910:	129700a8 	beq	s4,s7,7bb4 <Unset_Secure_Zone+0x374>
    7914:	00000000 	nop
    7918:	3c040001 	lui	a0,0x1
    791c:	0c000901 	jal	2404 <puts>
    7920:	248489b0 	addiu	a0,a0,-30288
    7924:	0c000973 	jal	25cc <itoh>
    7928:	02402021 	move	a0,s2
    792c:	00402021 	move	a0,v0
    7930:	0c000901 	jal	2404 <puts>
    7934:	3c100001 	lui	s0,0x1
    7938:	0c000901 	jal	2404 <puts>
    793c:	26048594 	addiu	a0,s0,-31340
    7940:	3c032000 	lui	v1,0x2000
    7944:	34630540 	ori	v1,v1,0x540
    7948:	ac720000 	sw	s2,0(v1)
    794c:	8fa30010 	lw	v1,16(sp)
    7950:	00000000 	nop
    7954:	1460006e 	bnez	v1,7b10 <Unset_Secure_Zone+0x2d0>
    7958:	00000000 	nop
    795c:	3c040001 	lui	a0,0x1
    7960:	248489a0 	addiu	a0,a0,-30304
    7964:	0c000901 	jal	2404 <puts>
    7968:	ae32910c 	sw	s2,-28404(s1)
    796c:	0c000973 	jal	25cc <itoh>
    7970:	02a02021 	move	a0,s5
    7974:	0c000901 	jal	2404 <puts>
    7978:	00402021 	move	a0,v0
    797c:	0c000901 	jal	2404 <puts>
    7980:	26048594 	addiu	a0,s0,-31340
    7984:	3c040001 	lui	a0,0x1
    7988:	0c000901 	jal	2404 <puts>
    798c:	248489cc 	addiu	a0,a0,-30260
    7990:	3c030005 	lui	v1,0x5
    7994:	8c64900c 	lw	a0,-28660(v1)
    7998:	0c000973 	jal	25cc <itoh>
    799c:	00000000 	nop
    79a0:	0c000901 	jal	2404 <puts>
    79a4:	00402021 	move	a0,v0
    79a8:	26048594 	addiu	a0,s0,-31340
    79ac:	8fbf0044 	lw	ra,68(sp)
    79b0:	8fbe0040 	lw	s8,64(sp)
    79b4:	8fb7003c 	lw	s7,60(sp)
    79b8:	8fb60038 	lw	s6,56(sp)
    79bc:	8fb50034 	lw	s5,52(sp)
    79c0:	8fb40030 	lw	s4,48(sp)
    79c4:	8fb3002c 	lw	s3,44(sp)
    79c8:	8fb20028 	lw	s2,40(sp)
    79cc:	8fb10024 	lw	s1,36(sp)
    79d0:	8fb00020 	lw	s0,32(sp)
    79d4:	08000901 	j	2404 <puts>
    79d8:	27bd0048 	addiu	sp,sp,72
    79dc:	8fa30010 	lw	v1,16(sp)
    79e0:	00000000 	nop
    79e4:	1060ffc3 	beqz	v1,78f4 <Unset_Secure_Zone+0xb4>
    79e8:	00000000 	nop
    79ec:	0c0008fd 	jal	23f4 <get_net_address>
    79f0:	00000000 	nop
    79f4:	0c0008fd 	jal	23f4 <get_net_address>
    79f8:	00408021 	move	s0,v0
    79fc:	0c0008fd 	jal	23f4 <get_net_address>
    7a00:	00408821 	move	s1,v0
    7a04:	3c030005 	lui	v1,0x5
    7a08:	8c67900c 	lw	a3,-28660(v1)
    7a0c:	8fa60018 	lw	a2,24(sp)
    7a10:	00402821 	move	a1,v0
    7a14:	0c00179c 	jal	5e70 <Seek>
    7a18:	2404000b 	li	a0,11
    7a1c:	3c040001 	lui	a0,0x1
    7a20:	0c000901 	jal	2404 <puts>
    7a24:	24848988 	addiu	a0,a0,-30328
    7a28:	0c000973 	jal	25cc <itoh>
    7a2c:	02402021 	move	a0,s2
    7a30:	00402021 	move	a0,v0
    7a34:	0c000901 	jal	2404 <puts>
    7a38:	3c120001 	lui	s2,0x1
    7a3c:	0c000901 	jal	2404 <puts>
    7a40:	26448594 	addiu	a0,s2,-31340
    7a44:	00108102 	srl	s0,s0,0x4
    7a48:	3c040001 	lui	a0,0x1
    7a4c:	248489a0 	addiu	a0,a0,-30304
    7a50:	321000f0 	andi	s0,s0,0xf0
    7a54:	0c000901 	jal	2404 <puts>
    7a58:	3231000f 	andi	s1,s1,0xf
    7a5c:	0c000973 	jal	25cc <itoh>
    7a60:	02112025 	or	a0,s0,s1
    7a64:	0c000901 	jal	2404 <puts>
    7a68:	00402021 	move	a0,v0
    7a6c:	08001e6b 	j	79ac <Unset_Secure_Zone+0x16c>
    7a70:	26448594 	addiu	a0,s2,-31340
    7a74:	14d5ff94 	bne	a2,s5,78c8 <Unset_Secure_Zone+0x88>
    7a78:	3c040001 	lui	a0,0x1
    7a7c:	0c000901 	jal	2404 <puts>
    7a80:	2484892c 	addiu	a0,a0,-30420
    7a84:	1271004f 	beq	s3,s1,7bc4 <Unset_Secure_Zone+0x384>
    7a88:	24020001 	li	v0,1
    7a8c:	08001e36 	j	78d8 <Unset_Secure_Zone+0x98>
    7a90:	afa00010 	sw	zero,16(sp)
    7a94:	1692ff8e 	bne	s4,s2,78d0 <Unset_Secure_Zone+0x90>
    7a98:	306200f0 	andi	v0,v1,0xf0
    7a9c:	00021103 	sra	v0,v0,0x4
    7aa0:	1456ff8b 	bne	v0,s6,78d0 <Unset_Secure_Zone+0x90>
    7aa4:	3062000f 	andi	v0,v1,0xf
    7aa8:	1457ff89 	bne	v0,s7,78d0 <Unset_Secure_Zone+0x90>
    7aac:	24040003 	li	a0,3
    7ab0:	8fa50018 	lw	a1,24(sp)
    7ab4:	00000000 	nop
    7ab8:	00a03021 	move	a2,a1
    7abc:	0c00179c 	jal	5e70 <Seek>
    7ac0:	00003821 	move	a3,zero
    7ac4:	3c040001 	lui	a0,0x1
    7ac8:	0c000901 	jal	2404 <puts>
    7acc:	24848964 	addiu	a0,a0,-30364
    7ad0:	24020001 	li	v0,1
    7ad4:	afa20010 	sw	v0,16(sp)
    7ad8:	08001e36 	j	78d8 <Unset_Secure_Zone+0x98>
    7adc:	00001021 	move	v0,zero
    7ae0:	8fbf0044 	lw	ra,68(sp)
    7ae4:	8fbe0040 	lw	s8,64(sp)
    7ae8:	8fb7003c 	lw	s7,60(sp)
    7aec:	8fb60038 	lw	s6,56(sp)
    7af0:	8fb50034 	lw	s5,52(sp)
    7af4:	8fb40030 	lw	s4,48(sp)
    7af8:	8fb3002c 	lw	s3,44(sp)
    7afc:	8fb20028 	lw	s2,40(sp)
    7b00:	8fb10024 	lw	s1,36(sp)
    7b04:	8fb00020 	lw	s0,32(sp)
    7b08:	03e00008 	jr	ra
    7b0c:	27bd0048 	addiu	sp,sp,72
    7b10:	0c0008fd 	jal	23f4 <get_net_address>
    7b14:	00000000 	nop
    7b18:	3c030005 	lui	v1,0x5
    7b1c:	8c67900c 	lw	a3,-28660(v1)
    7b20:	8fa60018 	lw	a2,24(sp)
    7b24:	00402821 	move	a1,v0
    7b28:	0c00179c 	jal	5e70 <Seek>
    7b2c:	2404000b 	li	a0,11
    7b30:	3c040001 	lui	a0,0x1
    7b34:	0c000901 	jal	2404 <puts>
    7b38:	248489c0 	addiu	a0,a0,-30272
    7b3c:	3c020005 	lui	v0,0x5
    7b40:	8c44900c 	lw	a0,-28660(v0)
    7b44:	0c000973 	jal	25cc <itoh>
    7b48:	00000000 	nop
    7b4c:	0c000901 	jal	2404 <puts>
    7b50:	00402021 	move	a0,v0
    7b54:	0c000901 	jal	2404 <puts>
    7b58:	26048594 	addiu	a0,s0,-31340
    7b5c:	08001e58 	j	7960 <Unset_Secure_Zone+0x120>
    7b60:	3c040001 	lui	a0,0x1
    7b64:	1440ff66 	bnez	v0,7900 <Unset_Secure_Zone+0xc0>
    7b68:	27c20001 	addiu	v0,s8,1
    7b6c:	03d4102b 	sltu	v0,s8,s4
    7b70:	1440ff63 	bnez	v0,7900 <Unset_Secure_Zone+0xc0>
    7b74:	27c20001 	addiu	v0,s8,1
    7b78:	08001e40 	j	7900 <Unset_Secure_Zone+0xc0>
    7b7c:	2652000c 	addiu	s2,s2,12
    7b80:	8fa20014 	lw	v0,20(sp)
    7b84:	00000000 	nop
    7b88:	1662ff5f 	bne	s3,v0,7908 <Unset_Secure_Zone+0xc8>
    7b8c:	00000000 	nop
    7b90:	1676ff5f 	bne	s3,s6,7910 <Unset_Secure_Zone+0xd0>
    7b94:	265200c0 	addiu	s2,s2,192
    7b98:	0297102b 	sltu	v0,s4,s7
    7b9c:	1440ff5c 	bnez	v0,7910 <Unset_Secure_Zone+0xd0>
    7ba0:	03d4102b 	sltu	v0,s8,s4
    7ba4:	1440ff5a 	bnez	v0,7910 <Unset_Secure_Zone+0xd0>
    7ba8:	00000000 	nop
    7bac:	1697ff5a 	bne	s4,s7,7918 <Unset_Secure_Zone+0xd8>
    7bb0:	2652fff4 	addiu	s2,s2,-12
    7bb4:	1676ff58 	bne	s3,s6,7918 <Unset_Secure_Zone+0xd8>
    7bb8:	00000000 	nop
    7bbc:	08001e46 	j	7918 <Unset_Secure_Zone+0xd8>
    7bc0:	2652ff40 	addiu	s2,s2,-192
    7bc4:	1692ffb1 	bne	s4,s2,7a8c <Unset_Secure_Zone+0x24c>
    7bc8:	00000000 	nop
    7bcc:	8fa20014 	lw	v0,20(sp)
    7bd0:	00000000 	nop
    7bd4:	1662ffad 	bne	s3,v0,7a8c <Unset_Secure_Zone+0x24c>
    7bd8:	24020001 	li	v0,1
    7bdc:	169effab 	bne	s4,s8,7a8c <Unset_Secure_Zone+0x24c>
    7be0:	00000000 	nop
    7be4:	8fa50018 	lw	a1,24(sp)
    7be8:	24040003 	li	a0,3
    7bec:	00a03021 	move	a2,a1
    7bf0:	0c00179c 	jal	5e70 <Seek>
    7bf4:	00003821 	move	a3,zero
    7bf8:	3c040001 	lui	a0,0x1
    7bfc:	0c000901 	jal	2404 <puts>
    7c00:	2484893c 	addiu	a0,a0,-30404
    7c04:	24030001 	li	v1,1
    7c08:	24020001 	li	v0,1
    7c0c:	08001e36 	j	78d8 <Unset_Secure_Zone+0x98>
    7c10:	afa30010 	sw	v1,16(sp)

00007c14 <Set_Secure_Zone>:
    7c14:	27bdffc0 	addiu	sp,sp,-64
    7c18:	afbf003c 	sw	ra,60(sp)
    7c1c:	afbe0038 	sw	s8,56(sp)
    7c20:	afb70034 	sw	s7,52(sp)
    7c24:	afb5002c 	sw	s5,44(sp)
    7c28:	afb40028 	sw	s4,40(sp)
    7c2c:	00a0a821 	move	s5,a1
    7c30:	afb30024 	sw	s3,36(sp)
    7c34:	afb20020 	sw	s2,32(sp)
    7c38:	00809821 	move	s3,a0
    7c3c:	afb1001c 	sw	s1,28(sp)
    7c40:	afb00018 	sw	s0,24(sp)
    7c44:	afa60010 	sw	a2,16(sp)
    7c48:	0c0008fd 	jal	23f4 <get_net_address>
    7c4c:	afb60030 	sw	s6,48(sp)
    7c50:	30420f00 	andi	v0,v0,0xf00
    7c54:	0c0008fd 	jal	23f4 <get_net_address>
    7c58:	00028202 	srl	s0,v0,0x8
    7c5c:	32a300f0 	andi	v1,s5,0xf0
    7c60:	326400f0 	andi	a0,s3,0xf0
    7c64:	00039102 	srl	s2,v1,0x4
    7c68:	3051000f 	andi	s1,v0,0xf
    7c6c:	0004b902 	srl	s7,a0,0x4
    7c70:	32b4000f 	andi	s4,s5,0xf
    7c74:	12120025 	beq	s0,s2,7d0c <Set_Secure_Zone+0xf8>
    7c78:	327e000f 	andi	s8,s3,0xf
    7c7c:	0291102b 	sltu	v0,s4,s1
    7c80:	1040002a 	beqz	v0,7d2c <Set_Secure_Zone+0x118>
    7c84:	023e102b 	sltu	v0,s1,s8
    7c88:	0000b021 	move	s6,zero
    7c8c:	0217102b 	sltu	v0,s0,s7
    7c90:	1040002e 	beqz	v0,7d4c <Set_Secure_Zone+0x138>
    7c94:	0250102b 	sltu	v0,s2,s0
    7c98:	12c00035 	beqz	s6,7d70 <Set_Secure_Zone+0x15c>
    7c9c:	3c170005 	lui	s7,0x5
    7ca0:	3c020005 	lui	v0,0x5
    7ca4:	3c030005 	lui	v1,0x5
    7ca8:	ac539008 	sw	s3,-28664(v0)
    7cac:	ac76910c 	sw	s6,-28404(v1)
    7cb0:	1212003b 	beq	s0,s2,7da0 <Set_Secure_Zone+0x18c>
    7cb4:	aef5900c 	sw	s5,-28660(s7)
    7cb8:	3c100001 	lui	s0,0x1
    7cbc:	3c040001 	lui	a0,0x1
    7cc0:	0c000901 	jal	2404 <puts>
    7cc4:	248489ec 	addiu	a0,a0,-30228
    7cc8:	0c000973 	jal	25cc <itoh>
    7ccc:	02c02021 	move	a0,s6
    7cd0:	0c000901 	jal	2404 <puts>
    7cd4:	00402021 	move	a0,v0
    7cd8:	26048594 	addiu	a0,s0,-31340
    7cdc:	8fbf003c 	lw	ra,60(sp)
    7ce0:	8fbe0038 	lw	s8,56(sp)
    7ce4:	8fb70034 	lw	s7,52(sp)
    7ce8:	8fb60030 	lw	s6,48(sp)
    7cec:	8fb5002c 	lw	s5,44(sp)
    7cf0:	8fb40028 	lw	s4,40(sp)
    7cf4:	8fb30024 	lw	s3,36(sp)
    7cf8:	8fb20020 	lw	s2,32(sp)
    7cfc:	8fb1001c 	lw	s1,28(sp)
    7d00:	8fb00018 	lw	s0,24(sp)
    7d04:	08000901 	j	2404 <puts>
    7d08:	27bd0040 	addiu	sp,sp,64
    7d0c:	1634ffdc 	bne	s1,s4,7c80 <Set_Secure_Zone+0x6c>
    7d10:	0291102b 	sltu	v0,s4,s1
    7d14:	8fa50010 	lw	a1,16(sp)
    7d18:	24040003 	li	a0,3
    7d1c:	00a03021 	move	a2,a1
    7d20:	0c00179c 	jal	5e70 <Seek>
    7d24:	00003821 	move	a3,zero
    7d28:	023e102b 	sltu	v0,s1,s8
    7d2c:	1440ffd7 	bnez	v0,7c8c <Set_Secure_Zone+0x78>
    7d30:	0000b021 	move	s6,zero
    7d34:	12120033 	beq	s0,s2,7e04 <Set_Secure_Zone+0x1f0>
    7d38:	00000000 	nop
    7d3c:	1617ffd4 	bne	s0,s7,7c90 <Set_Secure_Zone+0x7c>
    7d40:	0217102b 	sltu	v0,s0,s7
    7d44:	2416000c 	li	s6,12
    7d48:	0250102b 	sltu	v0,s2,s0
    7d4c:	1440ffd2 	bnez	v0,7c98 <Set_Secure_Zone+0x84>
    7d50:	00000000 	nop
    7d54:	12340027 	beq	s1,s4,7df4 <Set_Secure_Zone+0x1e0>
    7d58:	00000000 	nop
    7d5c:	163effce 	bne	s1,s8,7c98 <Set_Secure_Zone+0x84>
    7d60:	00000000 	nop
    7d64:	26d600c0 	addiu	s6,s6,192
    7d68:	16c0ffcd 	bnez	s6,7ca0 <Set_Secure_Zone+0x8c>
    7d6c:	3c170005 	lui	s7,0x5
    7d70:	8fbf003c 	lw	ra,60(sp)
    7d74:	8fbe0038 	lw	s8,56(sp)
    7d78:	8fb70034 	lw	s7,52(sp)
    7d7c:	8fb60030 	lw	s6,48(sp)
    7d80:	8fb5002c 	lw	s5,44(sp)
    7d84:	8fb40028 	lw	s4,40(sp)
    7d88:	8fb30024 	lw	s3,36(sp)
    7d8c:	8fb20020 	lw	s2,32(sp)
    7d90:	8fb1001c 	lw	s1,28(sp)
    7d94:	8fb00018 	lw	s0,24(sp)
    7d98:	03e00008 	jr	ra
    7d9c:	27bd0040 	addiu	sp,sp,64
    7da0:	1634ffc5 	bne	s1,s4,7cb8 <Set_Secure_Zone+0xa4>
    7da4:	00000000 	nop
    7da8:	0c0008fd 	jal	23f4 <get_net_address>
    7dac:	3c100001 	lui	s0,0x1
    7db0:	8fa60010 	lw	a2,16(sp)
    7db4:	00402821 	move	a1,v0
    7db8:	02a03821 	move	a3,s5
    7dbc:	0c00179c 	jal	5e70 <Seek>
    7dc0:	2404001d 	li	a0,29
    7dc4:	3c040001 	lui	a0,0x1
    7dc8:	0c000901 	jal	2404 <puts>
    7dcc:	248489e0 	addiu	a0,a0,-30240
    7dd0:	8ee4900c 	lw	a0,-28660(s7)
    7dd4:	0c000973 	jal	25cc <itoh>
    7dd8:	00000000 	nop
    7ddc:	0c000901 	jal	2404 <puts>
    7de0:	00402021 	move	a0,v0
    7de4:	0c000901 	jal	2404 <puts>
    7de8:	26048594 	addiu	a0,s0,-31340
    7dec:	08001f30 	j	7cc0 <Set_Secure_Zone+0xac>
    7df0:	3c040001 	lui	a0,0x1
    7df4:	163effa8 	bne	s1,s8,7c98 <Set_Secure_Zone+0x84>
    7df8:	26d60030 	addiu	s6,s6,48
    7dfc:	08001f5a 	j	7d68 <Set_Secure_Zone+0x154>
    7e00:	26d600c0 	addiu	s6,s6,192
    7e04:	08001f4f 	j	7d3c <Set_Secure_Zone+0x128>
    7e08:	24160003 	li	s6,3
