
kernel_master_debug.bin:     file format elf32-bigmips

Disassembly of section .text:

00000000 <entry>:
       0:	3c1d0001 	lui	sp,0x1
       4:	37bdffff 	ori	sp,sp,0xffff
       8:	0c0008c8 	jal	2320 <main>
       c:	00000000 	nop
      10:	08000004 	j	10 <entry+0x10>
      14:	00000000 	nop

00000018 <initialize_cluster_load>:
      18:	3c020005 	lui	v0,0x5
      1c:	03e00008 	jr	ra
      20:	ac408e2c 	sw	zero,-29140(v0)

00000024 <initialize_clusters>:
      24:	27bdffe8 	addiu	sp,sp,-24
      28:	afbf0014 	sw	ra,20(sp)
      2c:	0c000946 	jal	2518 <get_net_address>
      30:	afb00010 	sw	s0,16(sp)
      34:	3c100012 	lui	s0,0x12
      38:	00502825 	or	a1,v0,s0
      3c:	00003021 	move	a2,zero
      40:	00003821 	move	a3,zero
      44:	0c001546 	jal	5518 <Seek>
      48:	24040012 	li	a0,18
      4c:	3c040001 	lui	a0,0x1
      50:	0c00094a 	jal	2528 <puts>
      54:	248480e8 	addiu	a0,a0,-32536
      58:	0c000975 	jal	25d4 <itoa>
      5c:	00002021 	move	a0,zero
      60:	0c00094a 	jal	2528 <puts>
      64:	00402021 	move	a0,v0
      68:	3c040001 	lui	a0,0x1
      6c:	0c00094a 	jal	2528 <puts>
      70:	248489ac 	addiu	a0,a0,-30292
      74:	0c000946 	jal	2518 <get_net_address>
      78:	00000000 	nop
      7c:	00502825 	or	a1,v0,s0
      80:	24040003 	li	a0,3
      84:	00003021 	move	a2,zero
      88:	0c001546 	jal	5518 <Seek>
      8c:	00003821 	move	a3,zero
      90:	8fbf0014 	lw	ra,20(sp)
      94:	8fb00010 	lw	s0,16(sp)
      98:	00002021 	move	a0,zero
      9c:	08000db9 	j	36e4 <reclustering_setup>
      a0:	27bd0018 	addiu	sp,sp,24

000000a4 <initialize_slaves>:
      a4:	27bdffc8 	addiu	sp,sp,-56
      a8:	afb3001c 	sw	s3,28(sp)
      ac:	3c130005 	lui	s3,0x5
      b0:	afb7002c 	sw	s7,44(sp)
      b4:	afb40020 	sw	s4,32(sp)
      b8:	afbf0030 	sw	ra,48(sp)
      bc:	afb60028 	sw	s6,40(sp)
      c0:	afb50024 	sw	s5,36(sp)
      c4:	afb20018 	sw	s2,24(sp)
      c8:	afb10014 	sw	s1,20(sp)
      cc:	0c001049 	jal	4124 <init_procesors>
      d0:	afb00010 	sw	s0,16(sp)
      d4:	8e628e40 	lw	v0,-29120(s3)
      d8:	3c170005 	lui	s7,0x5
      dc:	00022940 	sll	a1,v0,0x5
      e0:	00022080 	sll	a0,v0,0x2
      e4:	26e78db8 	addiu	a3,s7,-29256
      e8:	00a41023 	subu	v0,a1,a0
      ec:	00471021 	addu	v0,v0,a3
      f0:	8c460014 	lw	a2,20(v0)
      f4:	8c54000c 	lw	s4,12(v0)
      f8:	00000000 	nop
      fc:	00d4182a 	slt	v1,a2,s4
     100:	1460003f 	bnez	v1,200 <initialize_slaves+0x15c>
     104:	00e0a821 	move	s5,a3
     108:	00e0b021 	move	s6,a3
     10c:	8e628e40 	lw	v0,-29120(s3)
     110:	00a42023 	subu	a0,a1,a0
     114:	00023140 	sll	a2,v0,0x5
     118:	00022880 	sll	a1,v0,0x2
     11c:	00c51823 	subu	v1,a2,a1
     120:	00952021 	addu	a0,a0,s5
     124:	00751821 	addu	v1,v1,s5
     128:	8c910008 	lw	s1,8(a0)
     12c:	8c620010 	lw	v0,16(v1)
     130:	00000000 	nop
     134:	0051102a 	slt	v0,v0,s1
     138:	14400026 	bnez	v0,1d4 <initialize_slaves+0x130>
     13c:	00111200 	sll	v0,s1,0x8
     140:	00548021 	addu	s0,v0,s4
     144:	08000060 	j	180 <initialize_slaves+0xdc>
     148:	02c09021 	move	s2,s6
     14c:	0c0012ba 	jal	4ae8 <add_procesor>
     150:	26310001 	addiu	s1,s1,1
     154:	8e628e40 	lw	v0,-29120(s3)
     158:	00000000 	nop
     15c:	00023140 	sll	a2,v0,0x5
     160:	00022880 	sll	a1,v0,0x2
     164:	00c51023 	subu	v0,a2,a1
     168:	00521021 	addu	v0,v0,s2
     16c:	8c430010 	lw	v1,16(v0)
     170:	00000000 	nop
     174:	0071182a 	slt	v1,v1,s1
     178:	14600016 	bnez	v1,1d4 <initialize_slaves+0x130>
     17c:	26100100 	addiu	s0,s0,256
     180:	00c51023 	subu	v0,a2,a1
     184:	00521021 	addu	v0,v0,s2
     188:	8c430000 	lw	v1,0(v0)
     18c:	8c450004 	lw	a1,4(v0)
     190:	00031a00 	sll	v1,v1,0x8
     194:	00651825 	or	v1,v1,a1
     198:	1470ffec 	bne	v1,s0,14c <initialize_slaves+0xa8>
     19c:	02002021 	move	a0,s0
     1a0:	0c0012ba 	jal	4ae8 <add_procesor>
     1a4:	02002021 	move	a0,s0
     1a8:	8e628e40 	lw	v0,-29120(s3)
     1ac:	26310001 	addiu	s1,s1,1
     1b0:	00023140 	sll	a2,v0,0x5
     1b4:	00022880 	sll	a1,v0,0x2
     1b8:	00c51023 	subu	v0,a2,a1
     1bc:	00521021 	addu	v0,v0,s2
     1c0:	8c430010 	lw	v1,16(v0)
     1c4:	00000000 	nop
     1c8:	0071182a 	slt	v1,v1,s1
     1cc:	1060ffec 	beqz	v1,180 <initialize_slaves+0xdc>
     1d0:	26100100 	addiu	s0,s0,256
     1d4:	8e628e40 	lw	v0,-29120(s3)
     1d8:	26940001 	addiu	s4,s4,1
     1dc:	00022940 	sll	a1,v0,0x5
     1e0:	00022080 	sll	a0,v0,0x2
     1e4:	00a41023 	subu	v0,a1,a0
     1e8:	00551021 	addu	v0,v0,s5
     1ec:	8c460014 	lw	a2,20(v0)
     1f0:	00000000 	nop
     1f4:	00d4182a 	slt	v1,a2,s4
     1f8:	1060ffc4 	beqz	v1,10c <initialize_slaves+0x68>
     1fc:	00000000 	nop
     200:	00a41023 	subu	v0,a1,a0
     204:	26e38db8 	addiu	v1,s7,-29256
     208:	00431021 	addu	v0,v0,v1
     20c:	8c510010 	lw	s1,16(v0)
     210:	8c500008 	lw	s0,8(v0)
     214:	8c43000c 	lw	v1,12(v0)
     218:	3210000f 	andi	s0,s0,0xf
     21c:	3231000f 	andi	s1,s1,0xf
     220:	3063000f 	andi	v1,v1,0xf
     224:	30c2000f 	andi	v0,a2,0xf
     228:	00108100 	sll	s0,s0,0x4
     22c:	00118900 	sll	s1,s1,0x4
     230:	02038025 	or	s0,s0,v1
     234:	0c000946 	jal	2518 <get_net_address>
     238:	02228825 	or	s1,s1,v0
     23c:	3c050011 	lui	a1,0x11
     240:	02003021 	move	a2,s0
     244:	02203821 	move	a3,s1
     248:	24040011 	li	a0,17
     24c:	0c001546 	jal	5518 <Seek>
     250:	00452825 	or	a1,v0,a1
     254:	3c040001 	lui	a0,0x1
     258:	8fbf0030 	lw	ra,48(sp)
     25c:	8fb7002c 	lw	s7,44(sp)
     260:	8fb60028 	lw	s6,40(sp)
     264:	8fb50024 	lw	s5,36(sp)
     268:	8fb40020 	lw	s4,32(sp)
     26c:	8fb3001c 	lw	s3,28(sp)
     270:	8fb20018 	lw	s2,24(sp)
     274:	8fb10014 	lw	s1,20(sp)
     278:	8fb00010 	lw	s0,16(sp)
     27c:	2484810c 	addiu	a0,a0,-32500
     280:	0800094a 	j	2528 <puts>
     284:	27bd0038 	addiu	sp,sp,56

00000288 <Aplly_LSFR>:
     288:	27bdffd0 	addiu	sp,sp,-48
     28c:	afb30024 	sw	s3,36(sp)
     290:	3c130005 	lui	s3,0x5
     294:	afa70014 	sw	a3,20(sp)
     298:	afa60010 	sw	a2,16(sp)
     29c:	00a03821 	move	a3,a1
     2a0:	00803021 	move	a2,a0
     2a4:	2664a1d0 	addiu	a0,s3,-24112
     2a8:	afbf0028 	sw	ra,40(sp)
     2ac:	afb20020 	sw	s2,32(sp)
     2b0:	afb1001c 	sw	s1,28(sp)
     2b4:	afb00018 	sw	s0,24(sp)
     2b8:	0c001bfc 	jal	6ff0 <GLFSR_init>
     2bc:	3c120005 	lui	s2,0x5
     2c0:	8fa3004c 	lw	v1,76(sp)
     2c4:	8fa20048 	lw	v0,72(sp)
     2c8:	8fa70044 	lw	a3,68(sp)
     2cc:	8fa60040 	lw	a2,64(sp)
     2d0:	26448ed0 	addiu	a0,s2,-28976
     2d4:	afa30014 	sw	v1,20(sp)
     2d8:	afa20010 	sw	v0,16(sp)
     2dc:	0c001bfc 	jal	6ff0 <GLFSR_init>
     2e0:	00008021 	move	s0,zero
     2e4:	24110080 	li	s1,128
     2e8:	0c001c1a 	jal	7068 <GLFSR_next>
     2ec:	2664a1d0 	addiu	a0,s3,-24112
     2f0:	26100001 	addiu	s0,s0,1
     2f4:	0c001c1a 	jal	7068 <GLFSR_next>
     2f8:	26448ed0 	addiu	a0,s2,-28976
     2fc:	1611fffa 	bne	s0,s1,2e8 <Aplly_LSFR+0x60>
     300:	00001021 	move	v0,zero
     304:	8fbf0028 	lw	ra,40(sp)
     308:	8fb30024 	lw	s3,36(sp)
     30c:	8fb20020 	lw	s2,32(sp)
     310:	8fb1001c 	lw	s1,28(sp)
     314:	8fb00018 	lw	s0,24(sp)
     318:	03e00008 	jr	ra
     31c:	27bd0030 	addiu	sp,sp,48

00000320 <handle_app_terminated>:
     320:	27bdffc8 	addiu	sp,sp,-56
     324:	afb00010 	sw	s0,16(sp)
     328:	00808021 	move	s0,a0
     32c:	3c040001 	lui	a0,0x1
     330:	24848124 	addiu	a0,a0,-32476
     334:	afbf0030 	sw	ra,48(sp)
     338:	afb7002c 	sw	s7,44(sp)
     33c:	afb60028 	sw	s6,40(sp)
     340:	afb3001c 	sw	s3,28(sp)
     344:	afb20018 	sw	s2,24(sp)
     348:	00a09821 	move	s3,a1
     34c:	00c09021 	move	s2,a2
     350:	afb50024 	sw	s5,36(sp)
     354:	afb40020 	sw	s4,32(sp)
     358:	0c00094a 	jal	2528 <puts>
     35c:	afb10014 	sw	s1,20(sp)
     360:	0c000975 	jal	25d4 <itoa>
     364:	02002021 	move	a0,s0
     368:	00402021 	move	a0,v0
     36c:	0c00094a 	jal	2528 <puts>
     370:	3c170001 	lui	s7,0x1
     374:	0c00094a 	jal	2528 <puts>
     378:	26e489ac 	addiu	a0,s7,-30292
     37c:	00122202 	srl	a0,s2,0x8
     380:	0c00134c 	jal	4d30 <get_cluster_ID>
     384:	324500ff 	andi	a1,s2,0xff
     388:	12600030 	beqz	s3,44c <handle_app_terminated+0x12c>
     38c:	0040b021 	move	s6,v0
     390:	3c020005 	lui	v0,0x5
     394:	3c030005 	lui	v1,0x5
     398:	24518e18 	addiu	s1,v0,-29160
     39c:	24758db8 	addiu	s5,v1,-29256
     3a0:	00008021 	move	s0,zero
     3a4:	080000ff 	j	3fc <handle_app_terminated+0xdc>
     3a8:	3c140005 	lui	s4,0x5
     3ac:	8e838e40 	lw	v1,-29120(s4)
     3b0:	30e500ff 	andi	a1,a3,0xff
     3b4:	00031140 	sll	v0,v1,0x5
     3b8:	00031880 	sll	v1,v1,0x2
     3bc:	00431023 	subu	v0,v0,v1
     3c0:	00551021 	addu	v0,v0,s5
     3c4:	8c430000 	lw	v1,0(v0)
     3c8:	8c460004 	lw	a2,4(v0)
     3cc:	00031a00 	sll	v1,v1,0x8
     3d0:	00661825 	or	v1,v1,a2
     3d4:	10e30006 	beq	a3,v1,3f0 <handle_app_terminated+0xd0>
     3d8:	00072202 	srl	a0,a3,0x8
     3dc:	0c00134c 	jal	4d30 <get_cluster_ID>
     3e0:	00000000 	nop
     3e4:	00402021 	move	a0,v0
     3e8:	0c001301 	jal	4c04 <release_cluster_resources>
     3ec:	24050001 	li	a1,1
     3f0:	26100001 	addiu	s0,s0,1
     3f4:	12130015 	beq	s0,s3,44c <handle_app_terminated+0x12c>
     3f8:	26310004 	addiu	s1,s1,4
     3fc:	8e270000 	lw	a3,0(s1)
     400:	00000000 	nop
     404:	1647ffe9 	bne	s2,a3,3ac <handle_app_terminated+0x8c>
     408:	02c02021 	move	a0,s6
     40c:	8e838e40 	lw	v1,-29120(s4)
     410:	00000000 	nop
     414:	00031140 	sll	v0,v1,0x5
     418:	00031880 	sll	v1,v1,0x2
     41c:	00431023 	subu	v0,v0,v1
     420:	00551021 	addu	v0,v0,s5
     424:	8c430000 	lw	v1,0(v0)
     428:	8c450004 	lw	a1,4(v0)
     42c:	00031a00 	sll	v1,v1,0x8
     430:	00651825 	or	v1,v1,a1
     434:	1243ffee 	beq	s2,v1,3f0 <handle_app_terminated+0xd0>
     438:	24050001 	li	a1,1
     43c:	0c001301 	jal	4c04 <release_cluster_resources>
     440:	26100001 	addiu	s0,s0,1
     444:	1613ffed 	bne	s0,s3,3fc <handle_app_terminated+0xdc>
     448:	26310004 	addiu	s1,s1,4
     44c:	3c050005 	lui	a1,0x5
     450:	3c100005 	lui	s0,0x5
     454:	8ca28db4 	lw	v0,-29260(a1)
     458:	8e038e64 	lw	v1,-29084(s0)
     45c:	3c040001 	lui	a0,0x1
     460:	24630001 	addiu	v1,v1,1
     464:	02621021 	addu	v0,s3,v0
     468:	2484814c 	addiu	a0,a0,-32436
     46c:	aca28db4 	sw	v0,-29260(a1)
     470:	0c00094a 	jal	2528 <puts>
     474:	ae038e64 	sw	v1,-29084(s0)
     478:	8e048e64 	lw	a0,-29084(s0)
     47c:	00000000 	nop
     480:	00041900 	sll	v1,a0,0x4
     484:	00042080 	sll	a0,a0,0x2
     488:	00832021 	addu	a0,a0,v1
     48c:	00041080 	sll	v0,a0,0x2
     490:	00822021 	addu	a0,a0,v0
     494:	0c000975 	jal	25d4 <itoa>
     498:	00042042 	srl	a0,a0,0x1
     49c:	0c00094a 	jal	2528 <puts>
     4a0:	00402021 	move	a0,v0
     4a4:	3c040001 	lui	a0,0x1
     4a8:	0c00094a 	jal	2528 <puts>
     4ac:	2484815c 	addiu	a0,a0,-32420
     4b0:	8e038e64 	lw	v1,-29084(s0)
     4b4:	24020002 	li	v0,2
     4b8:	1062000c 	beq	v1,v0,4ec <handle_app_terminated+0x1cc>
     4bc:	00000000 	nop
     4c0:	8fbf0030 	lw	ra,48(sp)
     4c4:	8fb7002c 	lw	s7,44(sp)
     4c8:	8fb60028 	lw	s6,40(sp)
     4cc:	8fb50024 	lw	s5,36(sp)
     4d0:	8fb40020 	lw	s4,32(sp)
     4d4:	8fb3001c 	lw	s3,28(sp)
     4d8:	8fb20018 	lw	s2,24(sp)
     4dc:	8fb10014 	lw	s1,20(sp)
     4e0:	8fb00010 	lw	s0,16(sp)
     4e4:	03e00008 	jr	ra
     4e8:	27bd0038 	addiu	sp,sp,56
     4ec:	3c040001 	lui	a0,0x1
     4f0:	24848160 	addiu	a0,a0,-32416
     4f4:	0c00094a 	jal	2528 <puts>
     4f8:	3c102000 	lui	s0,0x2000
     4fc:	36030300 	ori	v1,s0,0x300
     500:	8c640000 	lw	a0,0(v1)
     504:	0c000975 	jal	25d4 <itoa>
     508:	36100080 	ori	s0,s0,0x80
     50c:	0c00094a 	jal	2528 <puts>
     510:	00402021 	move	a0,v0
     514:	0c00094a 	jal	2528 <puts>
     518:	26e489ac 	addiu	a0,s7,-30292
     51c:	24020001 	li	v0,1
     520:	ae020000 	sw	v0,0(s0)
     524:	08000130 	j	4c0 <handle_app_terminated+0x1a0>
     528:	00000000 	nop

0000052c <send_tasks_location>:
     52c:	27bdffd0 	addiu	sp,sp,-48
     530:	afbe0028 	sw	s8,40(sp)
     534:	afb50024 	sw	s5,36(sp)
     538:	afb3001c 	sw	s3,28(sp)
     53c:	afb20018 	sw	s2,24(sp)
     540:	afbf002c 	sw	ra,44(sp)
     544:	afb40020 	sw	s4,32(sp)
     548:	afb10014 	sw	s1,20(sp)
     54c:	afb00010 	sw	s0,16(sp)
     550:	8c860008 	lw	a2,8(a0)
     554:	03a0f021 	move	s8,sp
     558:	00061080 	sll	v0,a2,0x2
     55c:	2442000e 	addiu	v0,v0,14
     560:	000210c2 	srl	v0,v0,0x3
     564:	000210c0 	sll	v0,v0,0x3
     568:	03a0a821 	move	s5,sp
     56c:	03a2e823 	subu	sp,sp,v0
     570:	00809021 	move	s2,a0
     574:	18c0001d 	blez	a2,5ec <send_tasks_location+0xc0>
     578:	27b30010 	addiu	s3,sp,16
     57c:	02601821 	move	v1,s3
     580:	00002821 	move	a1,zero
     584:	8c820028 	lw	v0,40(a0)
     588:	24a50001 	addiu	a1,a1,1
     58c:	ac620000 	sw	v0,0(v1)
     590:	24840078 	addiu	a0,a0,120
     594:	14c5fffb 	bne	a2,a1,584 <send_tasks_location+0x58>
     598:	24630004 	addiu	v1,v1,4
     59c:	02408021 	move	s0,s2
     5a0:	00008821 	move	s1,zero
     5a4:	24140231 	li	s4,561
     5a8:	0c000aac 	jal	2ab0 <get_service_header_slot>
     5ac:	26310001 	addiu	s1,s1,1
     5b0:	8e030028 	lw	v1,40(s0)
     5b4:	ac540084 	sw	s4,132(v0)
     5b8:	ac43007c 	sw	v1,124(v0)
     5bc:	8e460008 	lw	a2,8(s2)
     5c0:	00402021 	move	a0,v0
     5c4:	ac46009c 	sw	a2,156(v0)
     5c8:	8e030014 	lw	v1,20(s0)
     5cc:	02602821 	move	a1,s3
     5d0:	0c000b7a 	jal	2de8 <send_packet>
     5d4:	ac430088 	sw	v1,136(v0)
     5d8:	8e420008 	lw	v0,8(s2)
     5dc:	00000000 	nop
     5e0:	0222102a 	slt	v0,s1,v0
     5e4:	1440fff0 	bnez	v0,5a8 <send_tasks_location+0x7c>
     5e8:	26100078 	addiu	s0,s0,120
     5ec:	02a0e821 	move	sp,s5
     5f0:	03c0e821 	move	sp,s8
     5f4:	8fbf002c 	lw	ra,44(sp)
     5f8:	8fbe0028 	lw	s8,40(sp)
     5fc:	8fb50024 	lw	s5,36(sp)
     600:	8fb40020 	lw	s4,32(sp)
     604:	8fb3001c 	lw	s3,28(sp)
     608:	8fb20018 	lw	s2,24(sp)
     60c:	8fb10014 	lw	s1,20(sp)
     610:	8fb00010 	lw	s0,16(sp)
     614:	03e00008 	jr	ra
     618:	27bd0030 	addiu	sp,sp,48

0000061c <send_task_release>:
     61c:	27bdffc0 	addiu	sp,sp,-64
     620:	afbe0038 	sw	s8,56(sp)
     624:	afb5002c 	sw	s5,44(sp)
     628:	afb30024 	sw	s3,36(sp)
     62c:	afbf003c 	sw	ra,60(sp)
     630:	afb70034 	sw	s7,52(sp)
     634:	afb60030 	sw	s6,48(sp)
     638:	afb40028 	sw	s4,40(sp)
     63c:	afb20020 	sw	s2,32(sp)
     640:	afb1001c 	sw	s1,28(sp)
     644:	afb00018 	sw	s0,24(sp)
     648:	8c860008 	lw	a2,8(a0)
     64c:	03a0f021 	move	s8,sp
     650:	00061080 	sll	v0,a2,0x2
     654:	2442000e 	addiu	v0,v0,14
     658:	000210c2 	srl	v0,v0,0x3
     65c:	000210c0 	sll	v0,v0,0x3
     660:	afdd0010 	sw	sp,16(s8)
     664:	03a2e823 	subu	sp,sp,v0
     668:	00809821 	move	s3,a0
     66c:	18c0004b 	blez	a2,79c <send_task_release+0x180>
     670:	27b50010 	addiu	s5,sp,16
     674:	02a01821 	move	v1,s5
     678:	00002821 	move	a1,zero
     67c:	8c820028 	lw	v0,40(a0)
     680:	24a50001 	addiu	a1,a1,1
     684:	ac620000 	sw	v0,0(v1)
     688:	24840078 	addiu	a0,a0,120
     68c:	14a6fffb 	bne	a1,a2,67c <send_task_release+0x60>
     690:	24630004 	addiu	v1,v1,4
     694:	02608821 	move	s1,s3
     698:	0000b021 	move	s6,zero
     69c:	00009021 	move	s2,zero
     6a0:	24140001 	li	s4,1
     6a4:	080001b0 	j	6c0 <send_task_release+0xa4>
     6a8:	24170250 	li	s7,592
     6ac:	8e620008 	lw	v0,8(s3)
     6b0:	26520001 	addiu	s2,s2,1
     6b4:	0242102a 	slt	v0,s2,v0
     6b8:	10400022 	beqz	v0,744 <send_task_release+0x128>
     6bc:	26310078 	addiu	s1,s1,120
     6c0:	8e220034 	lw	v0,52(s1)
     6c4:	00000000 	nop
     6c8:	1454fff8 	bne	v0,s4,6ac <send_task_release+0x90>
     6cc:	00000000 	nop
     6d0:	0c000aac 	jal	2ab0 <get_service_header_slot>
     6d4:	00000000 	nop
     6d8:	8e240028 	lw	a0,40(s1)
     6dc:	ac570084 	sw	s7,132(v0)
     6e0:	ac44007c 	sw	a0,124(v0)
     6e4:	8e630008 	lw	v1,8(s3)
     6e8:	00408021 	move	s0,v0
     6ec:	ac43009c 	sw	v1,156(v0)
     6f0:	8e220014 	lw	v0,20(s1)
     6f4:	00000000 	nop
     6f8:	ae020088 	sw	v0,136(s0)
     6fc:	8e23001c 	lw	v1,28(s1)
     700:	00000000 	nop
     704:	ae0300a0 	sw	v1,160(s0)
     708:	8e220020 	lw	v0,32(s1)
     70c:	00000000 	nop
     710:	ae0200a8 	sw	v0,168(s0)
     714:	8e630104 	lw	v1,260(s3)
     718:	0c00108e 	jal	4238 <proc_is_migrating>
     71c:	ae0300a4 	sw	v1,164(s0)
     720:	02002021 	move	a0,s0
     724:	10400020 	beqz	v0,7a8 <send_task_release+0x18c>
     728:	02a02821 	move	a1,s5
     72c:	8e620008 	lw	v0,8(s3)
     730:	26520001 	addiu	s2,s2,1
     734:	0242102a 	slt	v0,s2,v0
     738:	24160001 	li	s6,1
     73c:	1440ffe0 	bnez	v0,6c0 <send_task_release+0xa4>
     740:	26310078 	addiu	s1,s1,120
     744:	12c00016 	beqz	s6,7a0 <send_task_release+0x184>
     748:	24020001 	li	v0,1
     74c:	3c022000 	lui	v0,0x2000
     750:	34420250 	ori	v0,v0,0x250
     754:	8c430000 	lw	v1,0(v0)
     758:	00000000 	nop
     75c:	1460fffb 	bnez	v1,74c <send_task_release+0x130>
     760:	00000000 	nop
     764:	8fdd0010 	lw	sp,16(s8)
     768:	03c0e821 	move	sp,s8
     76c:	8fdf003c 	lw	ra,60(s8)
     770:	8fbe0038 	lw	s8,56(sp)
     774:	8fb70034 	lw	s7,52(sp)
     778:	8fb60030 	lw	s6,48(sp)
     77c:	8fb5002c 	lw	s5,44(sp)
     780:	8fb40028 	lw	s4,40(sp)
     784:	8fb30024 	lw	s3,36(sp)
     788:	8fb20020 	lw	s2,32(sp)
     78c:	8fb1001c 	lw	s1,28(sp)
     790:	8fb00018 	lw	s0,24(sp)
     794:	03e00008 	jr	ra
     798:	27bd0040 	addiu	sp,sp,64
     79c:	24020001 	li	v0,1
     7a0:	080001d3 	j	74c <send_task_release+0x130>
     7a4:	ae620004 	sw	v0,4(s3)
     7a8:	8e660008 	lw	a2,8(s3)
     7ac:	0c000b7a 	jal	2de8 <send_packet>
     7b0:	00000000 	nop
     7b4:	24020003 	li	v0,3
     7b8:	080001ab 	j	6ac <send_task_release+0x90>
     7bc:	ae220034 	sw	v0,52(s1)

000007c0 <send_task_allocation>:
     7c0:	27bdffe8 	addiu	sp,sp,-24
     7c4:	afb00010 	sw	s0,16(sp)
     7c8:	afbf0014 	sw	ra,20(sp)
     7cc:	0c000aac 	jal	2ab0 <get_service_header_slot>
     7d0:	00808021 	move	s0,a0
     7d4:	8e030008 	lw	v1,8(s0)
     7d8:	24040040 	li	a0,64
     7dc:	ac440084 	sw	a0,132(v0)
     7e0:	ac43007c 	sw	v1,124(v0)
     7e4:	8e030004 	lw	v1,4(s0)
     7e8:	00402021 	move	a0,v0
     7ec:	ac43008c 	sw	v1,140(v0)
     7f0:	8e050000 	lw	a1,0(s0)
     7f4:	00000000 	nop
     7f8:	ac450088 	sw	a1,136(v0)
     7fc:	8e060010 	lw	a2,16(s0)
     800:	3c051000 	lui	a1,0x1000
     804:	ac4600a4 	sw	a2,164(v0)
     808:	8e02000c 	lw	v0,12(s0)
     80c:	8fbf0014 	lw	ra,20(sp)
     810:	8fb00010 	lw	s0,16(sp)
     814:	00452825 	or	a1,v0,a1
     818:	08000b7a 	j	2de8 <send_packet>
     81c:	27bd0018 	addiu	sp,sp,24

00000820 <send_app_terminated>:
     820:	27bdffe0 	addiu	sp,sp,-32
     824:	afbf0018 	sw	ra,24(sp)
     828:	afb10014 	sw	s1,20(sp)
     82c:	afb00010 	sw	s0,16(sp)
     830:	00a08821 	move	s1,a1
     834:	0c000aac 	jal	2ab0 <get_service_header_slot>
     838:	00808021 	move	s0,a0
     83c:	3c030005 	lui	v1,0x5
     840:	8c648e20 	lw	a0,-29152(v1)
     844:	24030140 	li	v1,320
     848:	ac44007c 	sw	a0,124(v0)
     84c:	ac430084 	sw	v1,132(v0)
     850:	8e050000 	lw	a1,0(s0)
     854:	00402021 	move	a0,v0
     858:	ac450088 	sw	a1,136(v0)
     85c:	8e030008 	lw	v1,8(s0)
     860:	00000000 	nop
     864:	ac43009c 	sw	v1,156(v0)
     868:	8e060008 	lw	a2,8(s0)
     86c:	0c000b7a 	jal	2de8 <send_packet>
     870:	02202821 	move	a1,s1
     874:	3c022000 	lui	v0,0x2000
     878:	34430250 	ori	v1,v0,0x250
     87c:	8c620000 	lw	v0,0(v1)
     880:	00000000 	nop
     884:	1440fffd 	bnez	v0,87c <send_app_terminated+0x5c>
     888:	00000000 	nop
     88c:	8fbf0018 	lw	ra,24(sp)
     890:	8fb10014 	lw	s1,20(sp)
     894:	8fb00010 	lw	s0,16(sp)
     898:	03e00008 	jr	ra
     89c:	27bd0020 	addiu	sp,sp,32

000008a0 <SeekInterruptHandler>:
     8a0:	3c032000 	lui	v1,0x2000
     8a4:	27bdffc8 	addiu	sp,sp,-56
     8a8:	34640554 	ori	a0,v1,0x554
     8ac:	afbf0030 	sw	ra,48(sp)
     8b0:	afb7002c 	sw	s7,44(sp)
     8b4:	afb60028 	sw	s6,40(sp)
     8b8:	afb50024 	sw	s5,36(sp)
     8bc:	afb40020 	sw	s4,32(sp)
     8c0:	afb3001c 	sw	s3,28(sp)
     8c4:	afb20018 	sw	s2,24(sp)
     8c8:	afb10014 	sw	s1,20(sp)
     8cc:	afb00010 	sw	s0,16(sp)
     8d0:	34650500 	ori	a1,v1,0x500
     8d4:	ac800000 	sw	zero,0(a0)
     8d8:	24020001 	li	v0,1
     8dc:	8caa0000 	lw	t2,0(a1)
     8e0:	ac820000 	sw	v0,0(a0)
     8e4:	24020002 	li	v0,2
     8e8:	8ca90000 	lw	t1,0(a1)
     8ec:	34670370 	ori	a3,v1,0x370
     8f0:	ac820000 	sw	v0,0(a0)
     8f4:	34660394 	ori	a2,v1,0x394
     8f8:	34620380 	ori	v0,v1,0x380
     8fc:	34630390 	ori	v1,v1,0x390
     900:	8ca80000 	lw	t0,0(a1)
     904:	8cd10000 	lw	s1,0(a2)
     908:	8c450000 	lw	a1,0(v0)
     90c:	8c720000 	lw	s2,0(v1)
     910:	8ce70000 	lw	a3,0(a3)
     914:	00000000 	nop
     918:	2ce20020 	sltiu	v0,a3,32
     91c:	1040002e 	beqz	v0,9d8 <SeekInterruptHandler+0x138>
     920:	3c040001 	lui	a0,0x1
     924:	3c030001 	lui	v1,0x1
     928:	00071080 	sll	v0,a3,0x2
     92c:	24638744 	addiu	v1,v1,-30908
     930:	00431021 	addu	v0,v0,v1
     934:	8c440000 	lw	a0,0(v0)
     938:	00000000 	nop
     93c:	00800008 	jr	a0
     940:	00000000 	nop
     944:	3c020005 	lui	v0,0x5
     948:	90438e14 	lbu	v1,-29164(v0)
     94c:	00000000 	nop
     950:	10600288 	beqz	v1,1374 <SeekInterruptHandler+0xad4>
     954:	3c020005 	lui	v0,0x5
     958:	8c438e40 	lw	v1,-29120(v0)
     95c:	3c020005 	lui	v0,0x5
     960:	00032140 	sll	a0,v1,0x5
     964:	00031880 	sll	v1,v1,0x2
     968:	24428db8 	addiu	v0,v0,-29256
     96c:	00832023 	subu	a0,a0,v1
     970:	00822021 	addu	a0,a0,v0
     974:	8c860000 	lw	a2,0(a0)
     978:	8c820004 	lw	v0,4(a0)
     97c:	00063200 	sll	a2,a2,0x8
     980:	8e040000 	lw	a0,0(s0)
     984:	0c0000c8 	jal	320 <handle_app_terminated>
     988:	00c23025 	or	a2,a2,v0
     98c:	8e040108 	lw	a0,264(s0)
     990:	0c001df0 	jal	77c0 <free_Secure_Zone>
     994:	00000000 	nop
     998:	8e040000 	lw	a0,0(s0)
     99c:	0c000cd3 	jal	334c <remove_application>
     9a0:	00000000 	nop
     9a4:	8fbf0030 	lw	ra,48(sp)
     9a8:	8fb7002c 	lw	s7,44(sp)
     9ac:	8fb60028 	lw	s6,40(sp)
     9b0:	8fb50024 	lw	s5,36(sp)
     9b4:	8fb40020 	lw	s4,32(sp)
     9b8:	8fb3001c 	lw	s3,28(sp)
     9bc:	8fb20018 	lw	s2,24(sp)
     9c0:	8fb10014 	lw	s1,20(sp)
     9c4:	8fb00010 	lw	s0,16(sp)
     9c8:	00001021 	move	v0,zero
     9cc:	03e00008 	jr	ra
     9d0:	27bd0038 	addiu	sp,sp,56
     9d4:	3c040001 	lui	a0,0x1
     9d8:	0c00094a 	jal	2528 <puts>
     9dc:	24848388 	addiu	a0,a0,-31864
     9e0:	3c040001 	lui	a0,0x1
     9e4:	0c00094a 	jal	2528 <puts>
     9e8:	248483a8 	addiu	a0,a0,-31832
     9ec:	08000269 	j	9a4 <SeekInterruptHandler+0x104>
     9f0:	00000000 	nop
     9f4:	3c022000 	lui	v0,0x2000
     9f8:	34420300 	ori	v0,v0,0x300
     9fc:	8c440000 	lw	a0,0(v0)
     a00:	0c000975 	jal	25d4 <itoa>
     a04:	00129c02 	srl	s3,s2,0x10
     a08:	0c00094a 	jal	2528 <puts>
     a0c:	00402021 	move	a0,v0
     a10:	3c040001 	lui	a0,0x1
     a14:	0c00094a 	jal	2528 <puts>
     a18:	24848168 	addiu	a0,a0,-32408
     a1c:	0c0009bc 	jal	26f0 <itoh>
     a20:	02402021 	move	a0,s2
     a24:	0c00094a 	jal	2528 <puts>
     a28:	00402021 	move	a0,v0
     a2c:	3c040001 	lui	a0,0x1
     a30:	0c00094a 	jal	2528 <puts>
     a34:	248489ac 	addiu	a0,a0,-30292
     a38:	0c00158e 	jal	5638 <GetFreeSlotSourceRouting>
     a3c:	02602021 	move	a0,s3
     a40:	00402021 	move	a0,v0
     a44:	2403ffff 	li	v1,-1
     a48:	3c020005 	lui	v0,0x5
     a4c:	1083ffd5 	beq	a0,v1,9a4 <SeekInterruptHandler+0x104>
     a50:	ac448e24 	sw	a0,-29148(v0)
     a54:	00041900 	sll	v1,a0,0x4
     a58:	00041080 	sll	v0,a0,0x2
     a5c:	00431021 	addu	v0,v0,v1
     a60:	000220c0 	sll	a0,v0,0x3
     a64:	00822023 	subu	a0,a0,v0
     a68:	3c020005 	lui	v0,0x5
     a6c:	2442a918 	addiu	v0,v0,-22248
     a70:	00822021 	addu	a0,a0,v0
     a74:	3c110005 	lui	s1,0x5
     a78:	24030001 	li	v1,1
     a7c:	8e308e70 	lw	s0,-29072(s1)
     a80:	ac830080 	sw	v1,128(a0)
     a84:	0c000946 	jal	2518 <get_net_address>
     a88:	ac930084 	sw	s3,132(a0)
     a8c:	3042ffff 	andi	v0,v0,0xffff
     a90:	00108400 	sll	s0,s0,0x10
     a94:	02022825 	or	a1,s0,v0
     a98:	02603021 	move	a2,s3
     a9c:	24040005 	li	a0,5
     aa0:	0c001546 	jal	5518 <Seek>
     aa4:	00003821 	move	a3,zero
     aa8:	8e228e70 	lw	v0,-29072(s1)
     aac:	00000000 	nop
     ab0:	24420001 	addiu	v0,v0,1
     ab4:	08000269 	j	9a4 <SeekInterruptHandler+0x104>
     ab8:	ae228e70 	sw	v0,-29072(s1)
     abc:	01402021 	move	a0,t2
     ac0:	01202821 	move	a1,t1
     ac4:	0c0015b5 	jal	56d4 <ProcessTurns>
     ac8:	01003021 	move	a2,t0
     acc:	00022900 	sll	a1,v0,0x4
     ad0:	00021880 	sll	v1,v0,0x2
     ad4:	00651821 	addu	v1,v1,a1
     ad8:	000320c0 	sll	a0,v1,0x3
     adc:	3c050005 	lui	a1,0x5
     ae0:	00832023 	subu	a0,a0,v1
     ae4:	24b2a918 	addiu	s2,a1,-22248
     ae8:	00922021 	addu	a0,a0,s2
     aec:	8c900084 	lw	s0,132(a0)
     af0:	3c110005 	lui	s1,0x5
     af4:	0c000946 	jal	2518 <get_net_address>
     af8:	ae228e24 	sw	v0,-29148(s1)
     afc:	3042ffff 	andi	v0,v0,0xffff
     b00:	00108400 	sll	s0,s0,0x10
     b04:	02022825 	or	a1,s0,v0
     b08:	24040003 	li	a0,3
     b0c:	00003021 	move	a2,zero
     b10:	0c001546 	jal	5518 <Seek>
     b14:	00003821 	move	a3,zero
     b18:	8e228e24 	lw	v0,-29148(s1)
     b1c:	00000000 	nop
     b20:	00022100 	sll	a0,v0,0x4
     b24:	00021080 	sll	v0,v0,0x2
     b28:	00441021 	addu	v0,v0,a0
     b2c:	000218c0 	sll	v1,v0,0x3
     b30:	00621823 	subu	v1,v1,v0
     b34:	00721821 	addu	v1,v1,s2
     b38:	8c640084 	lw	a0,132(v1)
     b3c:	0c00179b 	jal	5e6c <resend_control_message>
     b40:	00000000 	nop
     b44:	2403ffff 	li	v1,-1
     b48:	10430228 	beq	v0,v1,13ec <SeekInterruptHandler+0xb4c>
     b4c:	3c040001 	lui	a0,0x1
     b50:	8e228e24 	lw	v0,-29148(s1)
     b54:	00000000 	nop
     b58:	00022100 	sll	a0,v0,0x4
     b5c:	00021080 	sll	v0,v0,0x2
     b60:	00441021 	addu	v0,v0,a0
     b64:	000218c0 	sll	v1,v0,0x3
     b68:	00621823 	subu	v1,v1,v0
     b6c:	00721821 	addu	v1,v1,s2
     b70:	8c640084 	lw	a0,132(v1)
     b74:	0c00151a 	jal	5468 <ClearSlotSourceRouting>
     b78:	00000000 	nop
     b7c:	08000269 	j	9a4 <SeekInterruptHandler+0x104>
     b80:	00000000 	nop
     b84:	3c040001 	lui	a0,0x1
     b88:	0c00094a 	jal	2528 <puts>
     b8c:	2484819c 	addiu	a0,a0,-32356
     b90:	0c0009bc 	jal	26f0 <itoh>
     b94:	02202021 	move	a0,s1
     b98:	3c150001 	lui	s5,0x1
     b9c:	0c00094a 	jal	2528 <puts>
     ba0:	00402021 	move	a0,v0
     ba4:	0c00094a 	jal	2528 <puts>
     ba8:	26a489ac 	addiu	a0,s5,-30292
     bac:	00111902 	srl	v1,s1,0x4
     bb0:	3074000f 	andi	s4,v1,0xf
     bb4:	0c000cb0 	jal	32c0 <get_application_ptr>
     bb8:	02802021 	move	a0,s4
     bbc:	3c040001 	lui	a0,0x1
     bc0:	00408021 	move	s0,v0
     bc4:	0c00094a 	jal	2528 <puts>
     bc8:	248481b8 	addiu	a0,a0,-32328
     bcc:	0c0009bc 	jal	26f0 <itoh>
     bd0:	02002021 	move	a0,s0
     bd4:	0c00094a 	jal	2528 <puts>
     bd8:	00402021 	move	a0,v0
     bdc:	0c00094a 	jal	2528 <puts>
     be0:	26a489ac 	addiu	a0,s5,-30292
     be4:	3223000f 	andi	v1,s1,0xf
     be8:	00141200 	sll	v0,s4,0x8
     bec:	00439821 	addu	s3,v0,v1
     bf0:	02602821 	move	a1,s3
     bf4:	0c000c9d 	jal	3274 <set_task_terminated>
     bf8:	02002021 	move	a0,s0
     bfc:	3c040001 	lui	a0,0x1
     c00:	0c00094a 	jal	2528 <puts>
     c04:	248481c0 	addiu	a0,a0,-32320
     c08:	0c0009bc 	jal	26f0 <itoh>
     c0c:	02602021 	move	a0,s3
     c10:	0c00094a 	jal	2528 <puts>
     c14:	00402021 	move	a0,v0
     c18:	3251ffff 	andi	s1,s2,0xffff
     c1c:	0c00094a 	jal	2528 <puts>
     c20:	26a489ac 	addiu	a0,s5,-30292
     c24:	3c160005 	lui	s6,0x5
     c28:	0c001328 	jal	4ca0 <get_master_address>
     c2c:	02202021 	move	a0,s1
     c30:	8ec68e40 	lw	a2,-29120(s6)
     c34:	3c170005 	lui	s7,0x5
     c38:	00061880 	sll	v1,a2,0x2
     c3c:	00062140 	sll	a0,a2,0x5
     c40:	00832023 	subu	a0,a0,v1
     c44:	26f28db8 	addiu	s2,s7,-29256
     c48:	00922021 	addu	a0,a0,s2
     c4c:	8c830000 	lw	v1,0(a0)
     c50:	8c850004 	lw	a1,4(a0)
     c54:	00031a00 	sll	v1,v1,0x8
     c58:	00651825 	or	v1,v1,a1
     c5c:	104301de 	beq	v0,v1,13d8 <SeekInterruptHandler+0xb38>
     c60:	02202821 	move	a1,s1
     c64:	3c040001 	lui	a0,0x1
     c68:	0c00094a 	jal	2528 <puts>
     c6c:	248481d0 	addiu	a0,a0,-32304
     c70:	0c0009bc 	jal	26f0 <itoh>
     c74:	02202021 	move	a0,s1
     c78:	0c00094a 	jal	2528 <puts>
     c7c:	00402021 	move	a0,v0
     c80:	0c00094a 	jal	2528 <puts>
     c84:	26a489ac 	addiu	a0,s5,-30292
     c88:	8e03000c 	lw	v1,12(s0)
     c8c:	8e020008 	lw	v0,8(s0)
     c90:	00000000 	nop
     c94:	1462ff43 	bne	v1,v0,9a4 <SeekInterruptHandler+0x104>
     c98:	3c040001 	lui	a0,0x1
     c9c:	0c00094a 	jal	2528 <puts>
     ca0:	248481e0 	addiu	a0,a0,-32288
     ca4:	0c0009bc 	jal	26f0 <itoh>
     ca8:	02802021 	move	a0,s4
     cac:	0c00094a 	jal	2528 <puts>
     cb0:	00402021 	move	a0,v0
     cb4:	0c00094a 	jal	2528 <puts>
     cb8:	26a489ac 	addiu	a0,s5,-30292
     cbc:	8e030104 	lw	v1,260(s0)
     cc0:	24020001 	li	v0,1
     cc4:	106201f1 	beq	v1,v0,148c <SeekInterruptHandler+0xbec>
     cc8:	00000000 	nop
     ccc:	8e050008 	lw	a1,8(s0)
     cd0:	00000000 	nop
     cd4:	18a001ad 	blez	a1,138c <SeekInterruptHandler+0xaec>
     cd8:	02002021 	move	a0,s0
     cdc:	8ec28e40 	lw	v0,-29120(s6)
     ce0:	00000000 	nop
     ce4:	00021940 	sll	v1,v0,0x5
     ce8:	00021080 	sll	v0,v0,0x2
     cec:	00621823 	subu	v1,v1,v0
     cf0:	3c020005 	lui	v0,0x5
     cf4:	00724021 	addu	t0,v1,s2
     cf8:	24468e18 	addiu	a2,v0,-29160
     cfc:	00003821 	move	a3,zero
     d00:	08000347 	j	d1c <SeekInterruptHandler+0x47c>
     d04:	2409ffff 	li	t1,-1
     d08:	24e70001 	addiu	a3,a3,1
     d0c:	acc20000 	sw	v0,0(a2)
     d10:	24840078 	addiu	a0,a0,120
     d14:	10a7019d 	beq	a1,a3,138c <SeekInterruptHandler+0xaec>
     d18:	24c60004 	addiu	a2,a2,4
     d1c:	8c820030 	lw	v0,48(a0)
     d20:	00000000 	nop
     d24:	1449fff8 	bne	v0,t1,d08 <SeekInterruptHandler+0x468>
     d28:	00000000 	nop
     d2c:	8d020000 	lw	v0,0(t0)
     d30:	8d030004 	lw	v1,4(t0)
     d34:	00021200 	sll	v0,v0,0x8
     d38:	08000342 	j	d08 <SeekInterruptHandler+0x468>
     d3c:	00431025 	or	v0,v0,v1
     d40:	3c040001 	lui	a0,0x1
     d44:	0c00094a 	jal	2528 <puts>
     d48:	248481fc 	addiu	a0,a0,-32260
     d4c:	0c0009bc 	jal	26f0 <itoh>
     d50:	02202021 	move	a0,s1
     d54:	3c160001 	lui	s6,0x1
     d58:	0c00094a 	jal	2528 <puts>
     d5c:	00402021 	move	a0,v0
     d60:	0c00094a 	jal	2528 <puts>
     d64:	26c489ac 	addiu	a0,s6,-30292
     d68:	0c001d8e 	jal	7638 <get_AppID_with_RH_Address>
     d6c:	02202021 	move	a0,s1
     d70:	3c040001 	lui	a0,0x1
     d74:	00409021 	move	s2,v0
     d78:	0c00094a 	jal	2528 <puts>
     d7c:	24848224 	addiu	a0,a0,-32220
     d80:	0c0009bc 	jal	26f0 <itoh>
     d84:	02402021 	move	a0,s2
     d88:	0c00094a 	jal	2528 <puts>
     d8c:	00402021 	move	a0,v0
     d90:	0c00094a 	jal	2528 <puts>
     d94:	26c489ac 	addiu	a0,s6,-30292
     d98:	3c040001 	lui	a0,0x1
     d9c:	0c00094a 	jal	2528 <puts>
     da0:	24848238 	addiu	a0,a0,-32200
     da4:	0c0009bc 	jal	26f0 <itoh>
     da8:	02202021 	move	a0,s1
     dac:	0c00094a 	jal	2528 <puts>
     db0:	00402021 	move	a0,v0
     db4:	0c00094a 	jal	2528 <puts>
     db8:	26c489ac 	addiu	a0,s6,-30292
     dbc:	2403ffff 	li	v1,-1
     dc0:	1243018e 	beq	s2,v1,13fc <SeekInterruptHandler+0xb5c>
     dc4:	3c022000 	lui	v0,0x2000
     dc8:	34420300 	ori	v0,v0,0x300
     dcc:	8c500000 	lw	s0,0(v0)
     dd0:	0c000946 	jal	2518 <get_net_address>
     dd4:	00108400 	sll	s0,s0,0x10
     dd8:	3c0300ff 	lui	v1,0xff
     ddc:	02038024 	and	s0,s0,v1
     de0:	02028025 	or	s0,s0,v0
     de4:	00122e00 	sll	a1,s2,0x18
     de8:	00b02825 	or	a1,a1,s0
     dec:	24040001 	li	a0,1
     df0:	02203021 	move	a2,s1
     df4:	0c001546 	jal	5518 <Seek>
     df8:	02403821 	move	a3,s2
     dfc:	0c000975 	jal	25d4 <itoa>
     e00:	02202021 	move	a0,s1
     e04:	0c00094a 	jal	2528 <puts>
     e08:	00402021 	move	a0,v0
     e0c:	0c00094a 	jal	2528 <puts>
     e10:	26c489ac 	addiu	a0,s6,-30292
     e14:	3c040001 	lui	a0,0x1
     e18:	0c00094a 	jal	2528 <puts>
     e1c:	2484827c 	addiu	a0,a0,-32132
     e20:	0c000975 	jal	25d4 <itoa>
     e24:	02402021 	move	a0,s2
     e28:	0c00094a 	jal	2528 <puts>
     e2c:	00402021 	move	a0,v0
     e30:	3c040001 	lui	a0,0x1
     e34:	0c00094a 	jal	2528 <puts>
     e38:	2484828c 	addiu	a0,a0,-32116
     e3c:	3c032000 	lui	v1,0x2000
     e40:	34630300 	ori	v1,v1,0x300
     e44:	8c640000 	lw	a0,0(v1)
     e48:	0c000975 	jal	25d4 <itoa>
     e4c:	00000000 	nop
     e50:	0c00094a 	jal	2528 <puts>
     e54:	00402021 	move	a0,v0
     e58:	0c00094a 	jal	2528 <puts>
     e5c:	26c489ac 	addiu	a0,s6,-30292
     e60:	08000269 	j	9a4 <SeekInterruptHandler+0x104>
     e64:	00000000 	nop
     e68:	3c040001 	lui	a0,0x1
     e6c:	0c00094a 	jal	2528 <puts>
     e70:	248482c4 	addiu	a0,a0,-32060
     e74:	3c040001 	lui	a0,0x1
     e78:	0c00094a 	jal	2528 <puts>
     e7c:	248489ac 	addiu	a0,a0,-30292
     e80:	0c000cb0 	jal	32c0 <get_application_ptr>
     e84:	02202021 	move	a0,s1
     e88:	8c450008 	lw	a1,8(v0)
     e8c:	00000000 	nop
     e90:	18a0feac 	blez	a1,944 <SeekInterruptHandler+0xa4>
     e94:	00408021 	move	s0,v0
     e98:	3c020005 	lui	v0,0x5
     e9c:	8c438e40 	lw	v1,-29120(v0)
     ea0:	3c020005 	lui	v0,0x5
     ea4:	00032140 	sll	a0,v1,0x5
     ea8:	00031880 	sll	v1,v1,0x2
     eac:	00832023 	subu	a0,a0,v1
     eb0:	24428db8 	addiu	v0,v0,-29256
     eb4:	3c030005 	lui	v1,0x5
     eb8:	00822021 	addu	a0,a0,v0
     ebc:	24688e18 	addiu	t0,v1,-29160
     ec0:	02003021 	move	a2,s0
     ec4:	00003821 	move	a3,zero
     ec8:	080003b9 	j	ee4 <SeekInterruptHandler+0x644>
     ecc:	2409ffff 	li	t1,-1
     ed0:	24e70001 	addiu	a3,a3,1
     ed4:	ad020000 	sw	v0,0(t0)
     ed8:	24c60078 	addiu	a2,a2,120
     edc:	10a7fe99 	beq	a1,a3,944 <SeekInterruptHandler+0xa4>
     ee0:	25080004 	addiu	t0,t0,4
     ee4:	8cc20030 	lw	v0,48(a2)
     ee8:	00000000 	nop
     eec:	1449fff8 	bne	v0,t1,ed0 <SeekInterruptHandler+0x630>
     ef0:	00000000 	nop
     ef4:	8c820000 	lw	v0,0(a0)
     ef8:	8c830004 	lw	v1,4(a0)
     efc:	00021200 	sll	v0,v0,0x8
     f00:	080003b4 	j	ed0 <SeekInterruptHandler+0x630>
     f04:	00431025 	or	v0,v0,v1
     f08:	00111102 	srl	v0,s1,0x4
     f0c:	3055000f 	andi	s5,v0,0xf
     f10:	0c000cb0 	jal	32c0 <get_application_ptr>
     f14:	02a02021 	move	a0,s5
     f18:	00409821 	move	s3,v0
     f1c:	3225000f 	andi	a1,s1,0xf
     f20:	00151200 	sll	v0,s5,0x8
     f24:	00452821 	addu	a1,v0,a1
     f28:	0c000bf6 	jal	2fd8 <set_task_allocated>
     f2c:	02602021 	move	a0,s3
     f30:	3c040001 	lui	a0,0x1
     f34:	248482e0 	addiu	a0,a0,-32032
     f38:	0c00094a 	jal	2528 <puts>
     f3c:	00408021 	move	s0,v0
     f40:	0c0009bc 	jal	26f0 <itoh>
     f44:	02202021 	move	a0,s1
     f48:	3c160001 	lui	s6,0x1
     f4c:	0c00094a 	jal	2528 <puts>
     f50:	00402021 	move	a0,v0
     f54:	0c00094a 	jal	2528 <puts>
     f58:	26c489ac 	addiu	a0,s6,-30292
     f5c:	3c040001 	lui	a0,0x1
     f60:	0c00094a 	jal	2528 <puts>
     f64:	248482f4 	addiu	a0,a0,-32012
     f68:	0c0009bc 	jal	26f0 <itoh>
     f6c:	02002021 	move	a0,s0
     f70:	0c00094a 	jal	2528 <puts>
     f74:	00402021 	move	a0,v0
     f78:	0c00094a 	jal	2528 <puts>
     f7c:	26c489ac 	addiu	a0,s6,-30292
     f80:	3c040001 	lui	a0,0x1
     f84:	0c00094a 	jal	2528 <puts>
     f88:	248482fc 	addiu	a0,a0,-32004
     f8c:	3c032000 	lui	v1,0x2000
     f90:	34710300 	ori	s1,v1,0x300
     f94:	8e240000 	lw	a0,0(s1)
     f98:	0c000975 	jal	25d4 <itoa>
     f9c:	00000000 	nop
     fa0:	0c00094a 	jal	2528 <puts>
     fa4:	00402021 	move	a0,v0
     fa8:	0c00094a 	jal	2528 <puts>
     fac:	26c489ac 	addiu	a0,s6,-30292
     fb0:	8e630008 	lw	v1,8(s3)
     fb4:	00000000 	nop
     fb8:	1603fe7a 	bne	s0,v1,9a4 <SeekInterruptHandler+0x104>
     fbc:	3c040001 	lui	a0,0x1
     fc0:	0c00094a 	jal	2528 <puts>
     fc4:	24848304 	addiu	a0,a0,-31996
     fc8:	0c000975 	jal	25d4 <itoa>
     fcc:	02a02021 	move	a0,s5
     fd0:	0c00094a 	jal	2528 <puts>
     fd4:	00402021 	move	a0,v0
     fd8:	3c040001 	lui	a0,0x1
     fdc:	0c00094a 	jal	2528 <puts>
     fe0:	24848320 	addiu	a0,a0,-31968
     fe4:	8e240000 	lw	a0,0(s1)
     fe8:	0c000975 	jal	25d4 <itoa>
     fec:	00000000 	nop
     ff0:	0c00094a 	jal	2528 <puts>
     ff4:	00402021 	move	a0,v0
     ff8:	0c00094a 	jal	2528 <puts>
     ffc:	26c489ac 	addiu	a0,s6,-30292
    1000:	8e630104 	lw	v1,260(s3)
    1004:	24020001 	li	v0,1
    1008:	1462fe66 	bne	v1,v0,9a4 <SeekInterruptHandler+0x104>
    100c:	00000000 	nop
    1010:	8e620008 	lw	v0,8(s3)
    1014:	00000000 	nop
    1018:	18400118 	blez	v0,147c <SeekInterruptHandler+0xbdc>
    101c:	00008821 	move	s1,zero
    1020:	02609021 	move	s2,s3
    1024:	24100404 	li	s0,1028
    1028:	0000a021 	move	s4,zero
    102c:	8e440014 	lw	a0,20(s2)
    1030:	0c0011be 	jal	46f8 <get_task_location>
    1034:	00000000 	nop
    1038:	00022203 	sra	a0,v0,0x8
    103c:	00402821 	move	a1,v0
    1040:	00111203 	sra	v0,s1,0x8
    1044:	0044102a 	slt	v0,v0,a0
    1048:	10400005 	beqz	v0,1060 <SeekInterruptHandler+0x7c0>
    104c:	00101203 	sra	v0,s0,0x8
    1050:	322300ff 	andi	v1,s1,0xff
    1054:	30a20f00 	andi	v0,a1,0xf00
    1058:	00438825 	or	s1,v0,v1
    105c:	00101203 	sra	v0,s0,0x8
    1060:	0082102a 	slt	v0,a0,v0
    1064:	10400005 	beqz	v0,107c <SeekInterruptHandler+0x7dc>
    1068:	30a300ff 	andi	v1,a1,0xff
    106c:	320300ff 	andi	v1,s0,0xff
    1070:	30a20f00 	andi	v0,a1,0xf00
    1074:	00438025 	or	s0,v0,v1
    1078:	30a300ff 	andi	v1,a1,0xff
    107c:	322200ff 	andi	v0,s1,0xff
    1080:	0043102a 	slt	v0,v0,v1
    1084:	10400004 	beqz	v0,1098 <SeekInterruptHandler+0x7f8>
    1088:	320200ff 	andi	v0,s0,0xff
    108c:	32220f00 	andi	v0,s1,0xf00
    1090:	00628825 	or	s1,v1,v0
    1094:	320200ff 	andi	v0,s0,0xff
    1098:	0062102a 	slt	v0,v1,v0
    109c:	10400002 	beqz	v0,10a8 <SeekInterruptHandler+0x808>
    10a0:	32020f00 	andi	v0,s0,0xf00
    10a4:	00628025 	or	s0,v1,v0
    10a8:	8e620008 	lw	v0,8(s3)
    10ac:	26940001 	addiu	s4,s4,1
    10b0:	0282102a 	slt	v0,s4,v0
    10b4:	1440ffdd 	bnez	v0,102c <SeekInterruptHandler+0x78c>
    10b8:	26520078 	addiu	s2,s2,120
    10bc:	00111103 	sra	v0,s1,0x4
    10c0:	304200f0 	andi	v0,v0,0xf0
    10c4:	00102103 	sra	a0,s0,0x4
    10c8:	3223000f 	andi	v1,s1,0xf
    10cc:	00622825 	or	a1,v1,v0
    10d0:	308400f0 	andi	a0,a0,0xf0
    10d4:	3202000f 	andi	v0,s0,0xf
    10d8:	0044a025 	or	s4,v0,a0
    10dc:	00a09021 	move	s2,a1
    10e0:	8e640000 	lw	a0,0(s3)
    10e4:	0c001d7c 	jal	75f0 <set_RH_Address>
    10e8:	3c112000 	lui	s1,0x2000
    10ec:	3c040001 	lui	a0,0x1
    10f0:	36310300 	ori	s1,s1,0x300
    10f4:	0c00094a 	jal	2528 <puts>
    10f8:	2484832c 	addiu	a0,a0,-31956
    10fc:	8e240000 	lw	a0,0(s1)
    1100:	0c000975 	jal	25d4 <itoa>
    1104:	00000000 	nop
    1108:	0c00094a 	jal	2528 <puts>
    110c:	00402021 	move	a0,v0
    1110:	0c00094a 	jal	2528 <puts>
    1114:	26c489ac 	addiu	a0,s6,-30292
    1118:	8e300000 	lw	s0,0(s1)
    111c:	0c000946 	jal	2518 <get_net_address>
    1120:	00108400 	sll	s0,s0,0x10
    1124:	3c0300ff 	lui	v1,0xff
    1128:	02038024 	and	s0,s0,v1
    112c:	00152e00 	sll	a1,s5,0x18
    1130:	00b02825 	or	a1,a1,s0
    1134:	00a22825 	or	a1,a1,v0
    1138:	02803021 	move	a2,s4
    113c:	02403821 	move	a3,s2
    1140:	0c001546 	jal	5518 <Seek>
    1144:	24040007 	li	a0,7
    1148:	08000269 	j	9a4 <SeekInterruptHandler+0x104>
    114c:	00000000 	nop
    1150:	3243ffff 	andi	v1,s2,0xffff
    1154:	3c020005 	lui	v0,0x5
    1158:	0c000946 	jal	2518 <get_net_address>
    115c:	ac438e20 	sw	v1,-29152(v0)
    1160:	02402821 	move	a1,s2
    1164:	24040003 	li	a0,3
    1168:	00003021 	move	a2,zero
    116c:	0c001546 	jal	5518 <Seek>
    1170:	00003821 	move	a3,zero
    1174:	0c000029 	jal	a4 <initialize_slaves>
    1178:	00000000 	nop
    117c:	08000269 	j	9a4 <SeekInterruptHandler+0x104>
    1180:	00000000 	nop
    1184:	00113100 	sll	a2,s1,0x4
    1188:	3c020005 	lui	v0,0x5
    118c:	3223000f 	andi	v1,s1,0xf
    1190:	30c60f00 	andi	a2,a2,0xf00
    1194:	8c448e40 	lw	a0,-29120(v0)
    1198:	00c33025 	or	a2,a2,v1
    119c:	0c0014e3 	jal	538c <page_released>
    11a0:	3245ffff 	andi	a1,s2,0xffff
    11a4:	08000269 	j	9a4 <SeekInterruptHandler+0x104>
    11a8:	00000000 	nop
    11ac:	3c020005 	lui	v0,0x5
    11b0:	90438e14 	lbu	v1,-29164(v0)
    11b4:	00000000 	nop
    11b8:	1060fdfa 	beqz	v1,9a4 <SeekInterruptHandler+0x104>
    11bc:	3c040001 	lui	a0,0x1
    11c0:	0c00094a 	jal	2528 <puts>
    11c4:	2484835c 	addiu	a0,a0,-31908
    11c8:	00003021 	move	a2,zero
    11cc:	00003821 	move	a3,zero
    11d0:	24040003 	li	a0,3
    11d4:	0c001546 	jal	5518 <Seek>
    11d8:	02402821 	move	a1,s2
    11dc:	3c020005 	lui	v0,0x5
    11e0:	8c448e40 	lw	a0,-29120(v0)
    11e4:	0c00135f 	jal	4d7c <SearchCluster>
    11e8:	02202821 	move	a1,s1
    11ec:	3c030005 	lui	v1,0x5
    11f0:	00408021 	move	s0,v0
    11f4:	8c628db4 	lw	v0,-29260(v1)
    11f8:	02002021 	move	a0,s0
    11fc:	00511023 	subu	v0,v0,s1
    1200:	02202821 	move	a1,s1
    1204:	0c0012f1 	jal	4bc4 <allocate_cluster_resource>
    1208:	ac628db4 	sw	v0,-29260(v1)
    120c:	00101940 	sll	v1,s0,0x5
    1210:	3c020005 	lui	v0,0x5
    1214:	00108080 	sll	s0,s0,0x2
    1218:	00701823 	subu	v1,v1,s0
    121c:	24428db8 	addiu	v0,v0,-29256
    1220:	00621821 	addu	v1,v1,v0
    1224:	8c660000 	lw	a2,0(v1)
    1228:	8c620004 	lw	v0,4(v1)
    122c:	3c100005 	lui	s0,0x5
    1230:	8e058e6c 	lw	a1,-29076(s0)
    1234:	00063200 	sll	a2,a2,0x8
    1238:	24030001 	li	v1,1
    123c:	00c23025 	or	a2,a2,v0
    1240:	02403821 	move	a3,s2
    1244:	3c020005 	lui	v0,0x5
    1248:	2404001b 	li	a0,27
    124c:	0c001546 	jal	5518 <Seek>
    1250:	ac438e68 	sw	v1,-29080(v0)
    1254:	3c040001 	lui	a0,0x1
    1258:	0c00094a 	jal	2528 <puts>
    125c:	248489ac 	addiu	a0,a0,-30292
    1260:	8e038e6c 	lw	v1,-29076(s0)
    1264:	00000000 	nop
    1268:	24630001 	addiu	v1,v1,1
    126c:	08000269 	j	9a4 <SeekInterruptHandler+0x104>
    1270:	ae038e6c 	sw	v1,-29076(s0)
    1274:	0c001d9f 	jal	767c <get_Secure_Zone_index>
    1278:	02202021 	move	a0,s1
    127c:	02202021 	move	a0,s1
    1280:	00408021 	move	s0,v0
    1284:	0c001d8e 	jal	7638 <get_AppID_with_RH_Address>
    1288:	2413ffff 	li	s3,-1
    128c:	1213006f 	beq	s0,s3,144c <SeekInterruptHandler+0xbac>
    1290:	0040a021 	move	s4,v0
    1294:	3c020005 	lui	v0,0x5
    1298:	2442a1e8 	addiu	v0,v0,-24088
    129c:	00108140 	sll	s0,s0,0x5
    12a0:	02028021 	addu	s0,s0,v0
    12a4:	8e120018 	lw	s2,24(s0)
    12a8:	0c000946 	jal	2518 <get_net_address>
    12ac:	00000000 	nop
    12b0:	8e030018 	lw	v1,24(s0)
    12b4:	00000000 	nop
    12b8:	10730055 	beq	v1,s3,1410 <SeekInterruptHandler+0xb70>
    12bc:	3c022000 	lui	v0,0x2000
    12c0:	34420300 	ori	v0,v0,0x300
    12c4:	8c500000 	lw	s0,0(v0)
    12c8:	0c000946 	jal	2518 <get_net_address>
    12cc:	00108400 	sll	s0,s0,0x10
    12d0:	3244ffff 	andi	a0,s2,0xffff
    12d4:	3c0300ff 	lui	v1,0xff
    12d8:	02038024 	and	s0,s0,v1
    12dc:	00123d03 	sra	a3,s2,0x14
    12e0:	00121c03 	sra	v1,s2,0x10
    12e4:	00042103 	sra	a0,a0,0x4
    12e8:	02028025 	or	s0,s0,v0
    12ec:	00142e00 	sll	a1,s4,0x18
    12f0:	308400f0 	andi	a0,a0,0xf0
    12f4:	3063000f 	andi	v1,v1,0xf
    12f8:	3246000f 	andi	a2,s2,0xf
    12fc:	30e700f0 	andi	a3,a3,0xf0
    1300:	00863025 	or	a2,a0,a2
    1304:	00b02825 	or	a1,a1,s0
    1308:	00e33825 	or	a3,a3,v1
    130c:	0c001546 	jal	5518 <Seek>
    1310:	2404001e 	li	a0,30
    1314:	08000269 	j	9a4 <SeekInterruptHandler+0x104>
    1318:	00000000 	nop
    131c:	3c040001 	lui	a0,0x1
    1320:	0c00094a 	jal	2528 <puts>
    1324:	24848348 	addiu	a0,a0,-31928
    1328:	0c0009bc 	jal	26f0 <itoh>
    132c:	02402021 	move	a0,s2
    1330:	0c00094a 	jal	2528 <puts>
    1334:	00402021 	move	a0,v0
    1338:	3c040001 	lui	a0,0x1
    133c:	0c00094a 	jal	2528 <puts>
    1340:	248489ac 	addiu	a0,a0,-30292
    1344:	08000269 	j	9a4 <SeekInterruptHandler+0x104>
    1348:	00000000 	nop
    134c:	3244ffff 	andi	a0,s2,0xffff
    1350:	0c000f6d 	jal	3db4 <handle_reclustering_request_from_seek>
    1354:	02203021 	move	a2,s1
    1358:	08000269 	j	9a4 <SeekInterruptHandler+0x104>
    135c:	00000000 	nop
    1360:	3244ffff 	andi	a0,s2,0xffff
    1364:	0c000e44 	jal	3910 <handle_reclustering_release_from_seek>
    1368:	02203021 	move	a2,s1
    136c:	08000269 	j	9a4 <SeekInterruptHandler+0x104>
    1370:	00000000 	nop
    1374:	3c050005 	lui	a1,0x5
    1378:	24a58e18 	addiu	a1,a1,-29160
    137c:	0c000208 	jal	820 <send_app_terminated>
    1380:	02002021 	move	a0,s0
    1384:	08000263 	j	98c <SeekInterruptHandler+0xec>
    1388:	00000000 	nop
    138c:	3c020005 	lui	v0,0x5
    1390:	90438e14 	lbu	v1,-29164(v0)
    1394:	00000000 	nop
    1398:	10600045 	beqz	v1,14b0 <SeekInterruptHandler+0xc10>
    139c:	26e48db8 	addiu	a0,s7,-29256
    13a0:	8ec38e40 	lw	v1,-29120(s6)
    13a4:	00000000 	nop
    13a8:	00031140 	sll	v0,v1,0x5
    13ac:	00031880 	sll	v1,v1,0x2
    13b0:	00431023 	subu	v0,v0,v1
    13b4:	00441021 	addu	v0,v0,a0
    13b8:	8c460000 	lw	a2,0(v0)
    13bc:	8c430004 	lw	v1,4(v0)
    13c0:	00063200 	sll	a2,a2,0x8
    13c4:	8e040000 	lw	a0,0(s0)
    13c8:	0c0000c8 	jal	320 <handle_app_terminated>
    13cc:	00c33025 	or	a2,a2,v1
    13d0:	08000266 	j	998 <SeekInterruptHandler+0xf8>
    13d4:	00000000 	nop
    13d8:	00c02021 	move	a0,a2
    13dc:	0c0014e3 	jal	538c <page_released>
    13e0:	02603021 	move	a2,s3
    13e4:	0800031a 	j	c68 <SeekInterruptHandler+0x3c8>
    13e8:	3c040001 	lui	a0,0x1
    13ec:	0c00094a 	jal	2528 <puts>
    13f0:	24848184 	addiu	a0,a0,-32380
    13f4:	08000269 	j	9a4 <SeekInterruptHandler+0x104>
    13f8:	00000000 	nop
    13fc:	3c040001 	lui	a0,0x1
    1400:	0c00094a 	jal	2528 <puts>
    1404:	24848244 	addiu	a0,a0,-32188
    1408:	0800037f 	j	dfc <SeekInterruptHandler+0x55c>
    140c:	00000000 	nop
    1410:	34420300 	ori	v0,v0,0x300
    1414:	8c500000 	lw	s0,0(v0)
    1418:	0c000946 	jal	2518 <get_net_address>
    141c:	00108400 	sll	s0,s0,0x10
    1420:	3c0300ff 	lui	v1,0xff
    1424:	02038024 	and	s0,s0,v1
    1428:	02028025 	or	s0,s0,v0
    142c:	00142e00 	sll	a1,s4,0x18
    1430:	02203021 	move	a2,s1
    1434:	00b02825 	or	a1,a1,s0
    1438:	2404001e 	li	a0,30
    143c:	0c001546 	jal	5518 <Seek>
    1440:	02203821 	move	a3,s1
    1444:	08000269 	j	9a4 <SeekInterruptHandler+0x104>
    1448:	00000000 	nop
    144c:	3c040001 	lui	a0,0x1
    1450:	0c00094a 	jal	2528 <puts>
    1454:	2484829c 	addiu	a0,a0,-32100
    1458:	0c0009bc 	jal	26f0 <itoh>
    145c:	02202021 	move	a0,s1
    1460:	0c00094a 	jal	2528 <puts>
    1464:	00402021 	move	a0,v0
    1468:	3c040001 	lui	a0,0x1
    146c:	0c00094a 	jal	2528 <puts>
    1470:	248489ac 	addiu	a0,a0,-30292
    1474:	0800051d 	j	1474 <SeekInterruptHandler+0xbd4>
    1478:	00000000 	nop
    147c:	00002821 	move	a1,zero
    1480:	24140044 	li	s4,68
    1484:	08000438 	j	10e0 <SeekInterruptHandler+0x840>
    1488:	00009021 	move	s2,zero
    148c:	0c000946 	jal	2518 <get_net_address>
    1490:	00000000 	nop
    1494:	8e070108 	lw	a3,264(s0)
    1498:	00402821 	move	a1,v0
    149c:	02803021 	move	a2,s4
    14a0:	0c001546 	jal	5518 <Seek>
    14a4:	2404000a 	li	a0,10
    14a8:	08000269 	j	9a4 <SeekInterruptHandler+0x104>
    14ac:	00000000 	nop
    14b0:	3c050005 	lui	a1,0x5
    14b4:	24a58e18 	addiu	a1,a1,-29160
    14b8:	0c000208 	jal	820 <send_app_terminated>
    14bc:	02002021 	move	a0,s0
    14c0:	08000266 	j	998 <SeekInterruptHandler+0xf8>
    14c4:	00000000 	nop

000014c8 <send_full_task_migration>:
    14c8:	27bdffe0 	addiu	sp,sp,-32
    14cc:	afbf001c 	sw	ra,28(sp)
    14d0:	afb20018 	sw	s2,24(sp)
    14d4:	afb10014 	sw	s1,20(sp)
    14d8:	00c09021 	move	s2,a2
    14dc:	00a08821 	move	s1,a1
    14e0:	afb00010 	sw	s0,16(sp)
    14e4:	0c000aac 	jal	2ab0 <get_service_header_slot>
    14e8:	00808021 	move	s0,a0
    14ec:	24030210 	li	v1,528
    14f0:	ac430084 	sw	v1,132(v0)
    14f4:	00002821 	move	a1,zero
    14f8:	00003021 	move	a2,zero
    14fc:	00402021 	move	a0,v0
    1500:	ac51007c 	sw	s1,124(v0)
    1504:	ac500088 	sw	s0,136(v0)
    1508:	0c000b7a 	jal	2de8 <send_packet>
    150c:	ac52009c 	sw	s2,156(v0)
    1510:	3c040001 	lui	a0,0x1
    1514:	0c00094a 	jal	2528 <puts>
    1518:	248483d0 	addiu	a0,a0,-31792
    151c:	0c0009bc 	jal	26f0 <itoh>
    1520:	02002021 	move	a0,s0
    1524:	0c00094a 	jal	2528 <puts>
    1528:	00402021 	move	a0,v0
    152c:	3c040001 	lui	a0,0x1
    1530:	0c00094a 	jal	2528 <puts>
    1534:	248483f0 	addiu	a0,a0,-31760
    1538:	0c0009bc 	jal	26f0 <itoh>
    153c:	02202021 	move	a0,s1
    1540:	0c00094a 	jal	2528 <puts>
    1544:	00402021 	move	a0,v0
    1548:	3c040001 	lui	a0,0x1
    154c:	0c00094a 	jal	2528 <puts>
    1550:	248489ac 	addiu	a0,a0,-30292
    1554:	02002021 	move	a0,s0
    1558:	02202821 	move	a1,s1
    155c:	0c000d46 	jal	3518 <change_task_location_TCB>
    1560:	02403021 	move	a2,s2
    1564:	8fbf001c 	lw	ra,28(sp)
    1568:	8fb20018 	lw	s2,24(sp)
    156c:	8fb10014 	lw	s1,20(sp)
    1570:	8fb00010 	lw	s0,16(sp)
    1574:	24020001 	li	v0,1
    1578:	03e00008 	jr	ra
    157c:	27bd0020 	addiu	sp,sp,32

00001580 <send_app_allocation_map>:
    1580:	27bdffd8 	addiu	sp,sp,-40
    1584:	afbf0020 	sw	ra,32(sp)
    1588:	afb3001c 	sw	s3,28(sp)
    158c:	afb20018 	sw	s2,24(sp)
    1590:	00809821 	move	s3,a0
    1594:	00c09021 	move	s2,a2
    1598:	afb10014 	sw	s1,20(sp)
    159c:	afb00010 	sw	s0,16(sp)
    15a0:	0c000aac 	jal	2ab0 <get_service_header_slot>
    15a4:	00a08821 	move	s1,a1
    15a8:	00408021 	move	s0,v0
    15ac:	3c040005 	lui	a0,0x5
    15b0:	3c020005 	lui	v0,0x5
    15b4:	8c438e40 	lw	v1,-29120(v0)
    15b8:	8c828e20 	lw	v0,-29152(a0)
    15bc:	00032940 	sll	a1,v1,0x5
    15c0:	ae02007c 	sw	v0,124(s0)
    15c4:	00031880 	sll	v1,v1,0x2
    15c8:	3c020005 	lui	v0,0x5
    15cc:	00a32823 	subu	a1,a1,v1
    15d0:	24428db8 	addiu	v0,v0,-29256
    15d4:	24030240 	li	v1,576
    15d8:	ae030084 	sw	v1,132(s0)
    15dc:	00a22821 	addu	a1,a1,v0
    15e0:	8ca30000 	lw	v1,0(a1)
    15e4:	8ca20004 	lw	v0,4(a1)
    15e8:	00031a00 	sll	v1,v1,0x8
    15ec:	00621825 	or	v1,v1,v0
    15f0:	ae03008c 	sw	v1,140(s0)
    15f4:	ae12009c 	sw	s2,156(s0)
    15f8:	8e660008 	lw	a2,8(s3)
    15fc:	02002021 	move	a0,s0
    1600:	00063080 	sll	a2,a2,0x2
    1604:	0c000b7a 	jal	2de8 <send_packet>
    1608:	02202821 	move	a1,s1
    160c:	02002021 	move	a0,s0
    1610:	02202821 	move	a1,s1
    1614:	00123080 	sll	a2,s2,0x2
    1618:	0c000b22 	jal	2c88 <send_packet_io>
    161c:	2407005a 	li	a3,90
    1620:	3c022000 	lui	v0,0x2000
    1624:	34430250 	ori	v1,v0,0x250
    1628:	8c620000 	lw	v0,0(v1)
    162c:	00000000 	nop
    1630:	1440fffd 	bnez	v0,1628 <send_app_allocation_map+0xa8>
    1634:	00000000 	nop
    1638:	8fbf0020 	lw	ra,32(sp)
    163c:	8fb3001c 	lw	s3,28(sp)
    1640:	8fb20018 	lw	s2,24(sp)
    1644:	8fb10014 	lw	s1,20(sp)
    1648:	8fb00010 	lw	s0,16(sp)
    164c:	03e00008 	jr	ra
    1650:	27bd0028 	addiu	sp,sp,40

00001654 <request_task_of_application>:
    1654:	27bdfe88 	addiu	sp,sp,-376
    1658:	afb50164 	sw	s5,356(sp)
    165c:	0080a821 	move	s5,a0
    1660:	3c040001 	lui	a0,0x1
    1664:	24848400 	addiu	a0,a0,-31744
    1668:	afbf0170 	sw	ra,368(sp)
    166c:	afb60168 	sw	s6,360(sp)
    1670:	afb3015c 	sw	s3,348(sp)
    1674:	afb00150 	sw	s0,336(sp)
    1678:	afb7016c 	sw	s7,364(sp)
    167c:	afb40160 	sw	s4,352(sp)
    1680:	afb20158 	sw	s2,344(sp)
    1684:	0c00094a 	jal	2528 <puts>
    1688:	afb10154 	sw	s1,340(sp)
    168c:	0c0009bc 	jal	26f0 <itoh>
    1690:	02a02021 	move	a0,s5
    1694:	00402021 	move	a0,v0
    1698:	0c00094a 	jal	2528 <puts>
    169c:	3c160001 	lui	s6,0x1
    16a0:	0c00094a 	jal	2528 <puts>
    16a4:	26c489ac 	addiu	a0,s6,-30292
    16a8:	0c00120b 	jal	482c <get_task_id_processor>
    16ac:	02a02021 	move	a0,s5
    16b0:	3c040001 	lui	a0,0x1
    16b4:	3050ffff 	andi	s0,v0,0xffff
    16b8:	0c00094a 	jal	2528 <puts>
    16bc:	24848420 	addiu	a0,a0,-31712
    16c0:	0c0009bc 	jal	26f0 <itoh>
    16c4:	02002021 	move	a0,s0
    16c8:	0c00094a 	jal	2528 <puts>
    16cc:	00402021 	move	a0,v0
    16d0:	0c00094a 	jal	2528 <puts>
    16d4:	26c489ac 	addiu	a0,s6,-30292
    16d8:	0c000cb0 	jal	32c0 <get_application_ptr>
    16dc:	00102202 	srl	a0,s0,0x8
    16e0:	8c450008 	lw	a1,8(v0)
    16e4:	00000000 	nop
    16e8:	18a0006b 	blez	a1,1898 <request_task_of_application+0x244>
    16ec:	00409821 	move	s3,v0
    16f0:	24500014 	addiu	s0,v0,20
    16f4:	8e030014 	lw	v1,20(s0)
    16f8:	2402ffff 	li	v0,-1
    16fc:	1062005a 	beq	v1,v0,1868 <request_task_of_application+0x214>
    1700:	00009021 	move	s2,zero
    1704:	0000a021 	move	s4,zero
    1708:	00008821 	move	s1,zero
    170c:	080005d0 	j	1740 <request_task_of_application+0xec>
    1710:	27b70010 	addiu	s7,sp,16
    1714:	001110c0 	sll	v0,s1,0x3
    1718:	001119c0 	sll	v1,s1,0x7
    171c:	00621823 	subu	v1,v1,v0
    1720:	00731821 	addu	v1,v1,s3
    1724:	0225102a 	slt	v0,s1,a1
    1728:	1040003e 	beqz	v0,1824 <request_task_of_application+0x1d0>
    172c:	24700014 	addiu	s0,v1,20
    1730:	8e030014 	lw	v1,20(s0)
    1734:	2402ffff 	li	v0,-1
    1738:	1062004c 	beq	v1,v0,186c <request_task_of_application+0x218>
    173c:	3c040001 	lui	a0,0x1
    1740:	8e020020 	lw	v0,32(s0)
    1744:	00000000 	nop
    1748:	1440fff2 	bnez	v0,1714 <request_task_of_application+0xc0>
    174c:	26310001 	addiu	s1,s1,1
    1750:	3c040001 	lui	a0,0x1
    1754:	16a3ffef 	bne	s5,v1,1714 <request_task_of_application+0xc0>
    1758:	24848454 	addiu	a0,a0,-31660
    175c:	0c00094a 	jal	2528 <puts>
    1760:	26940001 	addiu	s4,s4,1
    1764:	24030001 	li	v1,1
    1768:	3c040001 	lui	a0,0x1
    176c:	ae030020 	sw	v1,32(s0)
    1770:	0c00094a 	jal	2528 <puts>
    1774:	2484847c 	addiu	a0,a0,-31620
    1778:	8e040000 	lw	a0,0(s0)
    177c:	0c0009bc 	jal	26f0 <itoh>
    1780:	00000000 	nop
    1784:	0c00094a 	jal	2528 <puts>
    1788:	00402021 	move	a0,v0
    178c:	3c040001 	lui	a0,0x1
    1790:	0c00094a 	jal	2528 <puts>
    1794:	248483f0 	addiu	a0,a0,-31760
    1798:	8e040014 	lw	a0,20(s0)
    179c:	0c0009bc 	jal	26f0 <itoh>
    17a0:	00000000 	nop
    17a4:	0c00094a 	jal	2528 <puts>
    17a8:	00402021 	move	a0,v0
    17ac:	0c00094a 	jal	2528 <puts>
    17b0:	26c489ac 	addiu	a0,s6,-30292
    17b4:	8e040000 	lw	a0,0(s0)
    17b8:	00121080 	sll	v0,s2,0x2
    17bc:	00571021 	addu	v0,v0,s7
    17c0:	ac440000 	sw	a0,0(v0)
    17c4:	26430001 	addiu	v1,s2,1
    17c8:	8e040014 	lw	a0,20(s0)
    17cc:	00031880 	sll	v1,v1,0x2
    17d0:	00771821 	addu	v1,v1,s7
    17d4:	ac640000 	sw	a0,0(v1)
    17d8:	26420002 	addiu	v0,s2,2
    17dc:	8e040010 	lw	a0,16(s0)
    17e0:	00021080 	sll	v0,v0,0x2
    17e4:	00571021 	addu	v0,v0,s7
    17e8:	ac440000 	sw	a0,0(v0)
    17ec:	26430003 	addiu	v1,s2,3
    17f0:	8e020004 	lw	v0,4(s0)
    17f4:	00031880 	sll	v1,v1,0x2
    17f8:	00771821 	addu	v1,v1,s7
    17fc:	ac620000 	sw	v0,0(v1)
    1800:	8e650008 	lw	a1,8(s3)
    1804:	001110c0 	sll	v0,s1,0x3
    1808:	001119c0 	sll	v1,s1,0x7
    180c:	00621823 	subu	v1,v1,v0
    1810:	00731821 	addu	v1,v1,s3
    1814:	0225102a 	slt	v0,s1,a1
    1818:	26520004 	addiu	s2,s2,4
    181c:	1440ffc4 	bnez	v0,1730 <request_task_of_application+0xdc>
    1820:	24700014 	addiu	s0,v1,20
    1824:	0c000187 	jal	61c <send_task_release>
    1828:	02602021 	move	a0,s3
    182c:	02602021 	move	a0,s3
    1830:	02e02821 	move	a1,s7
    1834:	0c000560 	jal	1580 <send_app_allocation_map>
    1838:	02803021 	move	a2,s4
    183c:	8fbf0170 	lw	ra,368(sp)
    1840:	8fb7016c 	lw	s7,364(sp)
    1844:	8fb60168 	lw	s6,360(sp)
    1848:	8fb50164 	lw	s5,356(sp)
    184c:	8fb40160 	lw	s4,352(sp)
    1850:	8fb3015c 	lw	s3,348(sp)
    1854:	8fb20158 	lw	s2,344(sp)
    1858:	8fb10154 	lw	s1,340(sp)
    185c:	8fb00150 	lw	s0,336(sp)
    1860:	03e00008 	jr	ra
    1864:	27bd0178 	addiu	sp,sp,376
    1868:	3c040001 	lui	a0,0x1
    186c:	0c00094a 	jal	2528 <puts>
    1870:	24848434 	addiu	a0,a0,-31692
    1874:	8e040000 	lw	a0,0(s0)
    1878:	0c000975 	jal	25d4 <itoa>
    187c:	00000000 	nop
    1880:	0c00094a 	jal	2528 <puts>
    1884:	00402021 	move	a0,v0
    1888:	0c00094a 	jal	2528 <puts>
    188c:	26c489ac 	addiu	a0,s6,-30292
    1890:	08000624 	j	1890 <request_task_of_application+0x23c>
    1894:	00000000 	nop
    1898:	0000a021 	move	s4,zero
    189c:	08000609 	j	1824 <request_task_of_application+0x1d0>
    18a0:	27b70010 	addiu	s7,sp,16

000018a4 <request_application>:
    18a4:	27bdffc8 	addiu	sp,sp,-56
    18a8:	afbe002c 	sw	s8,44(sp)
    18ac:	afb60028 	sw	s6,40(sp)
    18b0:	afb40020 	sw	s4,32(sp)
    18b4:	afb3001c 	sw	s3,28(sp)
    18b8:	afbf0030 	sw	ra,48(sp)
    18bc:	afb50024 	sw	s5,36(sp)
    18c0:	afb20018 	sw	s2,24(sp)
    18c4:	afb10014 	sw	s1,20(sp)
    18c8:	afb00010 	sw	s0,16(sp)
    18cc:	8c820008 	lw	v0,8(a0)
    18d0:	00809821 	move	s3,a0
    18d4:	00021100 	sll	v0,v0,0x4
    18d8:	24420008 	addiu	v0,v0,8
    18dc:	3c040001 	lui	a0,0x1
    18e0:	03a0f021 	move	s8,sp
    18e4:	24848498 	addiu	a0,a0,-31592
    18e8:	03a0b021 	move	s6,sp
    18ec:	0c00094a 	jal	2528 <puts>
    18f0:	03a2e823 	subu	sp,sp,v0
    18f4:	3c030005 	lui	v1,0x5
    18f8:	8c628e60 	lw	v0,-29088(v1)
    18fc:	8e640008 	lw	a0,8(s3)
    1900:	2442ffff 	addiu	v0,v0,-1
    1904:	ac628e60 	sw	v0,-29088(v1)
    1908:	1880006a 	blez	a0,1ab4 <request_application+0x210>
    190c:	27b40010 	addiu	s4,sp,16
    1910:	26700014 	addiu	s0,s3,20
    1914:	8e040014 	lw	a0,20(s0)
    1918:	2402ffff 	li	v0,-1
    191c:	10820058 	beq	a0,v0,1a80 <request_application+0x1dc>
    1920:	00009021 	move	s2,zero
    1924:	0000a821 	move	s5,zero
    1928:	08000658 	j	1960 <request_application+0xbc>
    192c:	00008821 	move	s1,zero
    1930:	001110c0 	sll	v0,s1,0x3
    1934:	001119c0 	sll	v1,s1,0x7
    1938:	00621823 	subu	v1,v1,v0
    193c:	8e620008 	lw	v0,8(s3)
    1940:	00731821 	addu	v1,v1,s3
    1944:	0222102a 	slt	v0,s1,v0
    1948:	1040003a 	beqz	v0,1a34 <request_application+0x190>
    194c:	24700014 	addiu	s0,v1,20
    1950:	8e040014 	lw	a0,20(s0)
    1954:	2402ffff 	li	v0,-1
    1958:	10820049 	beq	a0,v0,1a80 <request_application+0x1dc>
    195c:	00000000 	nop
    1960:	0c00108e 	jal	4238 <proc_is_migrating>
    1964:	26310001 	addiu	s1,s1,1
    1968:	3c040001 	lui	a0,0x1
    196c:	1440fff0 	bnez	v0,1930 <request_application+0x8c>
    1970:	2484847c 	addiu	a0,a0,-31620
    1974:	0c00094a 	jal	2528 <puts>
    1978:	26b50001 	addiu	s5,s5,1
    197c:	8e040000 	lw	a0,0(s0)
    1980:	0c0009bc 	jal	26f0 <itoh>
    1984:	00000000 	nop
    1988:	0c00094a 	jal	2528 <puts>
    198c:	00402021 	move	a0,v0
    1990:	3c040001 	lui	a0,0x1
    1994:	0c00094a 	jal	2528 <puts>
    1998:	248483f0 	addiu	a0,a0,-31760
    199c:	8e040014 	lw	a0,20(s0)
    19a0:	0c0009bc 	jal	26f0 <itoh>
    19a4:	00000000 	nop
    19a8:	0c00094a 	jal	2528 <puts>
    19ac:	00402021 	move	a0,v0
    19b0:	3c040001 	lui	a0,0x1
    19b4:	0c00094a 	jal	2528 <puts>
    19b8:	248489ac 	addiu	a0,a0,-30292
    19bc:	8e040000 	lw	a0,0(s0)
    19c0:	00121080 	sll	v0,s2,0x2
    19c4:	00541021 	addu	v0,v0,s4
    19c8:	ac440000 	sw	a0,0(v0)
    19cc:	26430001 	addiu	v1,s2,1
    19d0:	8e040014 	lw	a0,20(s0)
    19d4:	00031880 	sll	v1,v1,0x2
    19d8:	00741821 	addu	v1,v1,s4
    19dc:	ac640000 	sw	a0,0(v1)
    19e0:	26420002 	addiu	v0,s2,2
    19e4:	8e040010 	lw	a0,16(s0)
    19e8:	00021080 	sll	v0,v0,0x2
    19ec:	00541021 	addu	v0,v0,s4
    19f0:	ac440000 	sw	a0,0(v0)
    19f4:	26430003 	addiu	v1,s2,3
    19f8:	8e040004 	lw	a0,4(s0)
    19fc:	00031880 	sll	v1,v1,0x2
    1a00:	00741821 	addu	v1,v1,s4
    1a04:	24020001 	li	v0,1
    1a08:	ac640000 	sw	a0,0(v1)
    1a0c:	ae020020 	sw	v0,32(s0)
    1a10:	001119c0 	sll	v1,s1,0x7
    1a14:	001110c0 	sll	v0,s1,0x3
    1a18:	00621823 	subu	v1,v1,v0
    1a1c:	8e620008 	lw	v0,8(s3)
    1a20:	00731821 	addu	v1,v1,s3
    1a24:	0222102a 	slt	v0,s1,v0
    1a28:	26520004 	addiu	s2,s2,4
    1a2c:	1440ffc8 	bnez	v0,1950 <request_application+0xac>
    1a30:	24700014 	addiu	s0,v1,20
    1a34:	0c000187 	jal	61c <send_task_release>
    1a38:	02602021 	move	a0,s3
    1a3c:	02602021 	move	a0,s3
    1a40:	02802821 	move	a1,s4
    1a44:	0c000560 	jal	1580 <send_app_allocation_map>
    1a48:	02a03021 	move	a2,s5
    1a4c:	02c0e821 	move	sp,s6
    1a50:	03c0e821 	move	sp,s8
    1a54:	8fbf0030 	lw	ra,48(sp)
    1a58:	8fbe002c 	lw	s8,44(sp)
    1a5c:	8fb60028 	lw	s6,40(sp)
    1a60:	8fb50024 	lw	s5,36(sp)
    1a64:	8fb40020 	lw	s4,32(sp)
    1a68:	8fb3001c 	lw	s3,28(sp)
    1a6c:	8fb20018 	lw	s2,24(sp)
    1a70:	8fb10014 	lw	s1,20(sp)
    1a74:	8fb00010 	lw	s0,16(sp)
    1a78:	03e00008 	jr	ra
    1a7c:	27bd0038 	addiu	sp,sp,56
    1a80:	3c040001 	lui	a0,0x1
    1a84:	0c00094a 	jal	2528 <puts>
    1a88:	24848434 	addiu	a0,a0,-31692
    1a8c:	8e040000 	lw	a0,0(s0)
    1a90:	0c000975 	jal	25d4 <itoa>
    1a94:	00000000 	nop
    1a98:	0c00094a 	jal	2528 <puts>
    1a9c:	00402021 	move	a0,v0
    1aa0:	3c040001 	lui	a0,0x1
    1aa4:	0c00094a 	jal	2528 <puts>
    1aa8:	248489ac 	addiu	a0,a0,-30292
    1aac:	080006ab 	j	1aac <request_application+0x208>
    1ab0:	00000000 	nop
    1ab4:	0800068d 	j	1a34 <request_application+0x190>
    1ab8:	0000a821 	move	s5,zero

00001abc <handle_new_app>:
    1abc:	27bdffd0 	addiu	sp,sp,-48
    1ac0:	afb20018 	sw	s2,24(sp)
    1ac4:	00809021 	move	s2,a0
    1ac8:	3c040001 	lui	a0,0x1
    1acc:	afbf002c 	sw	ra,44(sp)
    1ad0:	afbe0028 	sw	s8,40(sp)
    1ad4:	afb50024 	sw	s5,36(sp)
    1ad8:	03a0f021 	move	s8,sp
    1adc:	afb40020 	sw	s4,32(sp)
    1ae0:	afb3001c 	sw	s3,28(sp)
    1ae4:	afb10014 	sw	s1,20(sp)
    1ae8:	afb00010 	sw	s0,16(sp)
    1aec:	248484a8 	addiu	a0,a0,-31576
    1af0:	0c00094a 	jal	2528 <puts>
    1af4:	00c08821 	move	s1,a2
    1af8:	3c032000 	lui	v1,0x2000
    1afc:	34740300 	ori	s4,v1,0x300
    1b00:	8e840000 	lw	a0,0(s4)
    1b04:	0c000975 	jal	25d4 <itoa>
    1b08:	3c150001 	lui	s5,0x1
    1b0c:	0c00094a 	jal	2528 <puts>
    1b10:	00402021 	move	a0,v0
    1b14:	0c00094a 	jal	2528 <puts>
    1b18:	26a489ac 	addiu	a0,s5,-30292
    1b1c:	00111880 	sll	v1,s1,0x2
    1b20:	2463000e 	addiu	v1,v1,14
    1b24:	000318c2 	srl	v1,v1,0x3
    1b28:	000318c0 	sll	v1,v1,0x3
    1b2c:	03a09821 	move	s3,sp
    1b30:	03a3e823 	subu	sp,sp,v1
    1b34:	27b00010 	addiu	s0,sp,16
    1b38:	02002021 	move	a0,s0
    1b3c:	0c000b01 	jal	2c04 <DMNI_read_data>
    1b40:	02202821 	move	a1,s1
    1b44:	02002821 	move	a1,s0
    1b48:	0c000ce1 	jal	3384 <read_and_create_application>
    1b4c:	02402021 	move	a0,s2
    1b50:	8c430104 	lw	v1,260(v0)
    1b54:	00408021 	move	s0,v0
    1b58:	24020001 	li	v0,1
    1b5c:	10620041 	beq	v1,v0,1c64 <handle_new_app+0x1a8>
    1b60:	3c020005 	lui	v0,0x5
    1b64:	8e070008 	lw	a3,8(s0)
    1b68:	00000000 	nop
    1b6c:	18e00012 	blez	a3,1bb8 <handle_new_app+0xfc>
    1b70:	3c090005 	lui	t1,0x5
    1b74:	3c090005 	lui	t1,0x5
    1b78:	8d238e40 	lw	v1,-29120(t1)
    1b7c:	3c080005 	lui	t0,0x5
    1b80:	00031880 	sll	v1,v1,0x2
    1b84:	25028e2c 	addiu	v0,t0,-29140
    1b88:	00621021 	addu	v0,v1,v0
    1b8c:	8c460000 	lw	a2,0(v0)
    1b90:	02002021 	move	a0,s0
    1b94:	00002821 	move	a1,zero
    1b98:	8c82002c 	lw	v0,44(a0)
    1b9c:	24a50001 	addiu	a1,a1,1
    1ba0:	00c23021 	addu	a2,a2,v0
    1ba4:	14e5fffc 	bne	a3,a1,1b98 <handle_new_app+0xdc>
    1ba8:	24840078 	addiu	a0,a0,120
    1bac:	25028e2c 	addiu	v0,t0,-29140
    1bb0:	00621021 	addu	v0,v1,v0
    1bb4:	ac460000 	sw	a2,0(v0)
    1bb8:	3c030005 	lui	v1,0x5
    1bbc:	8c628e60 	lw	v0,-29088(v1)
    1bc0:	8e050000 	lw	a1,0(s0)
    1bc4:	8d248e40 	lw	a0,-29120(t1)
    1bc8:	24420001 	addiu	v0,v0,1
    1bcc:	0c00148b 	jal	522c <application_mapping>
    1bd0:	ac628e60 	sw	v0,-29088(v1)
    1bd4:	1040001d 	beqz	v0,1c4c <handle_new_app+0x190>
    1bd8:	00000000 	nop
    1bdc:	3c040001 	lui	a0,0x1
    1be0:	0c00094a 	jal	2528 <puts>
    1be4:	24848544 	addiu	a0,a0,-31420
    1be8:	3c032000 	lui	v1,0x2000
    1bec:	34630300 	ori	v1,v1,0x300
    1bf0:	8c640000 	lw	a0,0(v1)
    1bf4:	0c000975 	jal	25d4 <itoa>
    1bf8:	00000000 	nop
    1bfc:	0c00094a 	jal	2528 <puts>
    1c00:	00402021 	move	a0,v0
    1c04:	0c00094a 	jal	2528 <puts>
    1c08:	26a489ac 	addiu	a0,s5,-30292
    1c0c:	24030004 	li	v1,4
    1c10:	ae030004 	sw	v1,4(s0)
    1c14:	0c000629 	jal	18a4 <request_application>
    1c18:	02002021 	move	a0,s0
    1c1c:	0260e821 	move	sp,s3
    1c20:	03c0e821 	move	sp,s8
    1c24:	8fbf002c 	lw	ra,44(sp)
    1c28:	8fbe0028 	lw	s8,40(sp)
    1c2c:	8fb50024 	lw	s5,36(sp)
    1c30:	8fb40020 	lw	s4,32(sp)
    1c34:	8fb3001c 	lw	s3,28(sp)
    1c38:	8fb20018 	lw	s2,24(sp)
    1c3c:	8fb10014 	lw	s1,20(sp)
    1c40:	8fb00010 	lw	s0,16(sp)
    1c44:	03e00008 	jr	ra
    1c48:	27bd0030 	addiu	sp,sp,48
    1c4c:	3c040001 	lui	a0,0x1
    1c50:	0c00094a 	jal	2528 <puts>
    1c54:	24848554 	addiu	a0,a0,-31404
    1c58:	24030003 	li	v1,3
    1c5c:	08000707 	j	1c1c <handle_new_app+0x160>
    1c60:	ae030004 	sw	v1,4(s0)
    1c64:	8c448e6c 	lw	a0,-29076(v0)
    1c68:	0c001c3d 	jal	70f4 <get_static_SZ>
    1c6c:	2484ffff 	addiu	a0,a0,-1
    1c70:	14400007 	bnez	v0,1c90 <handle_new_app+0x1d4>
    1c74:	00408821 	move	s1,v0
    1c78:	8e050008 	lw	a1,8(s0)
    1c7c:	0c001d30 	jal	74c0 <create_shapes>
    1c80:	24040001 	li	a0,1
    1c84:	0c001fb0 	jal	7ec0 <search_shape>
    1c88:	00402021 	move	a0,v0
    1c8c:	00408821 	move	s1,v0
    1c90:	3c040001 	lui	a0,0x1
    1c94:	0c00094a 	jal	2528 <puts>
    1c98:	248484c8 	addiu	a0,a0,-31544
    1c9c:	8e840000 	lw	a0,0(s4)
    1ca0:	0c000975 	jal	25d4 <itoa>
    1ca4:	3c120005 	lui	s2,0x5
    1ca8:	0c00094a 	jal	2528 <puts>
    1cac:	00402021 	move	a0,v0
    1cb0:	0c00094a 	jal	2528 <puts>
    1cb4:	26a489ac 	addiu	a0,s5,-30292
    1cb8:	3c040001 	lui	a0,0x1
    1cbc:	0c00094a 	jal	2528 <puts>
    1cc0:	248484d8 	addiu	a0,a0,-31528
    1cc4:	8e448e30 	lw	a0,-29136(s2)
    1cc8:	0c000975 	jal	25d4 <itoa>
    1ccc:	00000000 	nop
    1cd0:	0c00094a 	jal	2528 <puts>
    1cd4:	00402021 	move	a0,v0
    1cd8:	0c00094a 	jal	2528 <puts>
    1cdc:	26a489ac 	addiu	a0,s5,-30292
    1ce0:	3c040001 	lui	a0,0x1
    1ce4:	0c00094a 	jal	2528 <puts>
    1ce8:	248484e0 	addiu	a0,a0,-31520
    1cec:	0c0009bc 	jal	26f0 <itoh>
    1cf0:	02202021 	move	a0,s1
    1cf4:	0c00094a 	jal	2528 <puts>
    1cf8:	00402021 	move	a0,v0
    1cfc:	0c00094a 	jal	2528 <puts>
    1d00:	26a489ac 	addiu	a0,s5,-30292
    1d04:	2403ffff 	li	v1,-1
    1d08:	1223000c 	beq	s1,v1,1d3c <handle_new_app+0x280>
    1d0c:	3c040001 	lui	a0,0x1
    1d10:	8e448e30 	lw	a0,-29136(s2)
    1d14:	0c001ecf 	jal	7b3c <alloc_Secure_Zone>
    1d18:	00000000 	nop
    1d1c:	0c0010a2 	jal	4288 <print_migrating_list>
    1d20:	00000000 	nop
    1d24:	8e070008 	lw	a3,8(s0)
    1d28:	00000000 	nop
    1d2c:	1ce0ff91 	bgtz	a3,1b74 <handle_new_app+0xb8>
    1d30:	3c090005 	lui	t1,0x5
    1d34:	080006ef 	j	1bbc <handle_new_app+0x100>
    1d38:	3c030005 	lui	v1,0x5
    1d3c:	0c00094a 	jal	2528 <puts>
    1d40:	248484f4 	addiu	a0,a0,-31500
    1d44:	08000751 	j	1d44 <handle_new_app+0x288>
    1d48:	00000000 	nop

00001d4c <handle_packet>:
    1d4c:	27bdff00 	addiu	sp,sp,-256
    1d50:	afb000e0 	sw	s0,224(sp)
    1d54:	27b00030 	addiu	s0,sp,48
    1d58:	02002021 	move	a0,s0
    1d5c:	afbf00f8 	sw	ra,248(sp)
    1d60:	afb500f4 	sw	s5,244(sp)
    1d64:	afb400f0 	sw	s4,240(sp)
    1d68:	afb300ec 	sw	s3,236(sp)
    1d6c:	afb200e8 	sw	s2,232(sp)
    1d70:	0c000ad7 	jal	2b5c <read_packet>
    1d74:	afb100e4 	sw	s1,228(sp)
    1d78:	8fa300b4 	lw	v1,180(sp)
    1d7c:	24020160 	li	v0,352
    1d80:	1062004f 	beq	v1,v0,1ec0 <handle_packet+0x174>
    1d84:	2c620161 	sltiu	v0,v1,353
    1d88:	1440003e 	bnez	v0,1e84 <handle_packet+0x138>
    1d8c:	24020090 	li	v0,144
    1d90:	24020200 	li	v0,512
    1d94:	1062005a 	beq	v1,v0,1f00 <handle_packet+0x1b4>
    1d98:	2c620201 	sltiu	v0,v1,513
    1d9c:	1440005c 	bnez	v0,1f10 <handle_packet+0x1c4>
    1da0:	24020180 	li	v0,384
    1da4:	24020240 	li	v0,576
    1da8:	10620089 	beq	v1,v0,1fd0 <handle_packet+0x284>
    1dac:	24020260 	li	v0,608
    1db0:	1062010d 	beq	v1,v0,21e8 <handle_packet+0x49c>
    1db4:	24020235 	li	v0,565
    1db8:	14620059 	bne	v1,v0,1f20 <handle_packet+0x1d4>
    1dbc:	00000000 	nop
    1dc0:	3c040001 	lui	a0,0x1
    1dc4:	0c00094a 	jal	2528 <puts>
    1dc8:	24848614 	addiu	a0,a0,-31212
    1dcc:	3c032000 	lui	v1,0x2000
    1dd0:	34720300 	ori	s2,v1,0x300
    1dd4:	8e440000 	lw	a0,0(s2)
    1dd8:	0c000975 	jal	25d4 <itoa>
    1ddc:	3c110001 	lui	s1,0x1
    1de0:	0c00094a 	jal	2528 <puts>
    1de4:	00402021 	move	a0,v0
    1de8:	0c00094a 	jal	2528 <puts>
    1dec:	262489ac 	addiu	a0,s1,-30292
    1df0:	3c040001 	lui	a0,0x1
    1df4:	0c00094a 	jal	2528 <puts>
    1df8:	24848630 	addiu	a0,a0,-31184
    1dfc:	8fa400b8 	lw	a0,184(sp)
    1e00:	0c000975 	jal	25d4 <itoa>
    1e04:	00000000 	nop
    1e08:	0c00094a 	jal	2528 <puts>
    1e0c:	00402021 	move	a0,v0
    1e10:	0c00094a 	jal	2528 <puts>
    1e14:	262489ac 	addiu	a0,s1,-30292
    1e18:	3c040001 	lui	a0,0x1
    1e1c:	0c00094a 	jal	2528 <puts>
    1e20:	24848644 	addiu	a0,a0,-31164
    1e24:	8fa400c0 	lw	a0,192(sp)
    1e28:	0c0009bc 	jal	26f0 <itoh>
    1e2c:	00000000 	nop
    1e30:	0c00094a 	jal	2528 <puts>
    1e34:	00402021 	move	a0,v0
    1e38:	0c00094a 	jal	2528 <puts>
    1e3c:	262489ac 	addiu	a0,s1,-30292
    1e40:	8fa400b8 	lw	a0,184(sp)
    1e44:	0c000c3a 	jal	30e8 <sub_migrations>
    1e48:	00042202 	srl	a0,a0,0x8
    1e4c:	104000ec 	beqz	v0,2200 <handle_packet+0x4b4>
    1e50:	00000000 	nop
    1e54:	8fa400cc 	lw	a0,204(sp)
    1e58:	8fa500b8 	lw	a1,184(sp)
    1e5c:	0c0010e0 	jal	4380 <remove_from_migration_list>
    1e60:	00000000 	nop
    1e64:	3c040001 	lui	a0,0x1
    1e68:	0c00094a 	jal	2528 <puts>
    1e6c:	2484867c 	addiu	a0,a0,-31108
    1e70:	8fa400cc 	lw	a0,204(sp)
    1e74:	0c000595 	jal	1654 <request_task_of_application>
    1e78:	00000000 	nop
    1e7c:	080007b7 	j	1edc <handle_packet+0x190>
    1e80:	00000000 	nop
    1e84:	1062001e 	beq	v1,v0,1f00 <handle_packet+0x1b4>
    1e88:	2c620091 	sltiu	v0,v1,145
    1e8c:	1440003c 	bnez	v0,1f80 <handle_packet+0x234>
    1e90:	24020050 	li	v0,80
    1e94:	24020140 	li	v0,320
    1e98:	10620042 	beq	v1,v0,1fa4 <handle_packet+0x258>
    1e9c:	24020150 	li	v0,336
    1ea0:	14620020 	bne	v1,v0,1f24 <handle_packet+0x1d8>
    1ea4:	3c040001 	lui	a0,0x1
    1ea8:	8fa400b8 	lw	a0,184(sp)
    1eac:	8fa600cc 	lw	a2,204(sp)
    1eb0:	0c0006af 	jal	1abc <handle_new_app>
    1eb4:	00002821 	move	a1,zero
    1eb8:	080007b7 	j	1edc <handle_packet+0x190>
    1ebc:	00000000 	nop
    1ec0:	8fa200c0 	lw	v0,192(sp)
    1ec4:	8fa400bc 	lw	a0,188(sp)
    1ec8:	3c030005 	lui	v1,0x5
    1ecc:	0c000db9 	jal	36e4 <reclustering_setup>
    1ed0:	ac628e20 	sw	v0,-29152(v1)
    1ed4:	0c000029 	jal	a4 <initialize_slaves>
    1ed8:	00000000 	nop
    1edc:	8fbf00f8 	lw	ra,248(sp)
    1ee0:	8fb500f4 	lw	s5,244(sp)
    1ee4:	8fb400f0 	lw	s4,240(sp)
    1ee8:	8fb300ec 	lw	s3,236(sp)
    1eec:	8fb200e8 	lw	s2,232(sp)
    1ef0:	8fb100e4 	lw	s1,228(sp)
    1ef4:	8fb000e0 	lw	s0,224(sp)
    1ef8:	03e00008 	jr	ra
    1efc:	27bd0100 	addiu	sp,sp,256
    1f00:	0c000eb3 	jal	3acc <handle_reclustering>
    1f04:	02002021 	move	a0,s0
    1f08:	080007b7 	j	1edc <handle_packet+0x190>
    1f0c:	00000000 	nop
    1f10:	10620043 	beq	v1,v0,2020 <handle_packet+0x2d4>
    1f14:	24020190 	li	v0,400
    1f18:	1062fff9 	beq	v1,v0,1f00 <handle_packet+0x1b4>
    1f1c:	00000000 	nop
    1f20:	3c040001 	lui	a0,0x1
    1f24:	0c00094a 	jal	2528 <puts>
    1f28:	24848698 	addiu	a0,a0,-31080
    1f2c:	8fa400b4 	lw	a0,180(sp)
    1f30:	0c0009bc 	jal	26f0 <itoh>
    1f34:	3c100001 	lui	s0,0x1
    1f38:	0c00094a 	jal	2528 <puts>
    1f3c:	00402021 	move	a0,v0
    1f40:	0c00094a 	jal	2528 <puts>
    1f44:	260489ac 	addiu	a0,s0,-30292
    1f48:	3c040001 	lui	a0,0x1
    1f4c:	0c00094a 	jal	2528 <puts>
    1f50:	248486b0 	addiu	a0,a0,-31056
    1f54:	3c032000 	lui	v1,0x2000
    1f58:	34630300 	ori	v1,v1,0x300
    1f5c:	8c640000 	lw	a0,0(v1)
    1f60:	0c000975 	jal	25d4 <itoa>
    1f64:	00000000 	nop
    1f68:	0c00094a 	jal	2528 <puts>
    1f6c:	00402021 	move	a0,v0
    1f70:	0c00094a 	jal	2528 <puts>
    1f74:	260489ac 	addiu	a0,s0,-30292
    1f78:	080007b7 	j	1edc <handle_packet+0x190>
    1f7c:	00000000 	nop
    1f80:	1062002f 	beq	v1,v0,2040 <handle_packet+0x2f4>
    1f84:	24020070 	li	v0,112
    1f88:	1462ffe5 	bne	v1,v0,1f20 <handle_packet+0x1d4>
    1f8c:	00000000 	nop
    1f90:	3c040001 	lui	a0,0x1
    1f94:	0c00094a 	jal	2528 <puts>
    1f98:	248485cc 	addiu	a0,a0,-31284
    1f9c:	080007b7 	j	1edc <handle_packet+0x190>
    1fa0:	00000000 	nop
    1fa4:	8fa500cc 	lw	a1,204(sp)
    1fa8:	3c040005 	lui	a0,0x5
    1fac:	0c000b01 	jal	2c04 <DMNI_read_data>
    1fb0:	24848e18 	addiu	a0,a0,-29160
    1fb4:	8fa400b8 	lw	a0,184(sp)
    1fb8:	8fa500cc 	lw	a1,204(sp)
    1fbc:	8fa600c0 	lw	a2,192(sp)
    1fc0:	0c0000c8 	jal	320 <handle_app_terminated>
    1fc4:	00000000 	nop
    1fc8:	080007b7 	j	1edc <handle_packet+0x190>
    1fcc:	00000000 	nop
    1fd0:	3c040001 	lui	a0,0x1
    1fd4:	0c00094a 	jal	2528 <puts>
    1fd8:	248485b8 	addiu	a0,a0,-31304
    1fdc:	3c032000 	lui	v1,0x2000
    1fe0:	34630300 	ori	v1,v1,0x300
    1fe4:	8c640000 	lw	a0,0(v1)
    1fe8:	0c000975 	jal	25d4 <itoa>
    1fec:	00000000 	nop
    1ff0:	0c00094a 	jal	2528 <puts>
    1ff4:	00402021 	move	a0,v0
    1ff8:	3c040001 	lui	a0,0x1
    1ffc:	0c00094a 	jal	2528 <puts>
    2000:	248489ac 	addiu	a0,a0,-30292
    2004:	8fa500cc 	lw	a1,204(sp)
    2008:	27a40010 	addiu	a0,sp,16
    200c:	0c000b01 	jal	2c04 <DMNI_read_data>
    2010:	00052880 	sll	a1,a1,0x2
    2014:	3c030005 	lui	v1,0x5
    2018:	080007b7 	j	1edc <handle_packet+0x190>
    201c:	ac608e68 	sw	zero,-29080(v1)
    2020:	3c020005 	lui	v0,0x5
    2024:	8fa500c0 	lw	a1,192(sp)
    2028:	8c448e40 	lw	a0,-29120(v0)
    202c:	8fa600b8 	lw	a2,184(sp)
    2030:	0c0014e3 	jal	538c <page_released>
    2034:	00000000 	nop
    2038:	080007b7 	j	1edc <handle_packet+0x190>
    203c:	00000000 	nop
    2040:	3c040001 	lui	a0,0x1
    2044:	0c00094a 	jal	2528 <puts>
    2048:	24848578 	addiu	a0,a0,-31368
    204c:	8fa400b8 	lw	a0,184(sp)
    2050:	0c000975 	jal	25d4 <itoa>
    2054:	3c150001 	lui	s5,0x1
    2058:	0c00094a 	jal	2528 <puts>
    205c:	00402021 	move	a0,v0
    2060:	0c00094a 	jal	2528 <puts>
    2064:	26a489ac 	addiu	a0,s5,-30292
    2068:	8fa400b8 	lw	a0,184(sp)
    206c:	0c000cb0 	jal	32c0 <get_application_ptr>
    2070:	00042202 	srl	a0,a0,0x8
    2074:	8fa500b8 	lw	a1,184(sp)
    2078:	00402021 	move	a0,v0
    207c:	0c000bf6 	jal	2fd8 <set_task_allocated>
    2080:	0040a021 	move	s4,v0
    2084:	3c040001 	lui	a0,0x1
    2088:	00408021 	move	s0,v0
    208c:	0c00094a 	jal	2528 <puts>
    2090:	24848598 	addiu	a0,a0,-31336
    2094:	0c000975 	jal	25d4 <itoa>
    2098:	02002021 	move	a0,s0
    209c:	0c00094a 	jal	2528 <puts>
    20a0:	00402021 	move	a0,v0
    20a4:	0c00094a 	jal	2528 <puts>
    20a8:	26a489ac 	addiu	a0,s5,-30292
    20ac:	8e830008 	lw	v1,8(s4)
    20b0:	00000000 	nop
    20b4:	1603ff89 	bne	s0,v1,1edc <handle_packet+0x190>
    20b8:	24020001 	li	v0,1
    20bc:	8e830104 	lw	v1,260(s4)
    20c0:	00000000 	nop
    20c4:	1462ff85 	bne	v1,v0,1edc <handle_packet+0x190>
    20c8:	00000000 	nop
    20cc:	1a000079 	blez	s0,22b4 <handle_packet+0x568>
    20d0:	02809021 	move	s2,s4
    20d4:	00008021 	move	s0,zero
    20d8:	24110404 	li	s1,1028
    20dc:	00009821 	move	s3,zero
    20e0:	8e440014 	lw	a0,20(s2)
    20e4:	0c0011be 	jal	46f8 <get_task_location>
    20e8:	26730001 	addiu	s3,s3,1
    20ec:	00022203 	sra	a0,v0,0x8
    20f0:	00102a03 	sra	a1,s0,0x8
    20f4:	00111a03 	sra	v1,s1,0x8
    20f8:	0083402a 	slt	t0,a0,v1
    20fc:	00a4202a 	slt	a0,a1,a0
    2100:	30430f00 	andi	v1,v0,0xf00
    2104:	304600ff 	andi	a2,v0,0xff
    2108:	26520078 	addiu	s2,s2,120
    210c:	320500ff 	andi	a1,s0,0xff
    2110:	322900ff 	andi	t1,s1,0xff
    2114:	10800002 	beqz	a0,2120 <handle_packet+0x3d4>
    2118:	00603821 	move	a3,v1
    211c:	00658025 	or	s0,v1,a1
    2120:	320200ff 	andi	v0,s0,0xff
    2124:	32050f00 	andi	a1,s0,0xf00
    2128:	11000002 	beqz	t0,2134 <handle_packet+0x3e8>
    212c:	0046182a 	slt	v1,v0,a2
    2130:	00e98825 	or	s1,a3,t1
    2134:	322200ff 	andi	v0,s1,0xff
    2138:	32240f00 	andi	a0,s1,0xf00
    213c:	10600002 	beqz	v1,2148 <handle_packet+0x3fc>
    2140:	00c2102a 	slt	v0,a2,v0
    2144:	00c58025 	or	s0,a2,a1
    2148:	10400002 	beqz	v0,2154 <handle_packet+0x408>
    214c:	00000000 	nop
    2150:	00c48825 	or	s1,a2,a0
    2154:	8e820008 	lw	v0,8(s4)
    2158:	00000000 	nop
    215c:	0262102a 	slt	v0,s3,v0
    2160:	1440ffdf 	bnez	v0,20e0 <handle_packet+0x394>
    2164:	00101103 	sra	v0,s0,0x4
    2168:	304200f0 	andi	v0,v0,0xf0
    216c:	3204000f 	andi	a0,s0,0xf
    2170:	00111903 	sra	v1,s1,0x4
    2174:	00822825 	or	a1,a0,v0
    2178:	306300f0 	andi	v1,v1,0xf0
    217c:	3222000f 	andi	v0,s1,0xf
    2180:	00628825 	or	s1,v1,v0
    2184:	00a08021 	move	s0,a1
    2188:	8e840000 	lw	a0,0(s4)
    218c:	0c001d7c 	jal	75f0 <set_RH_Address>
    2190:	00000000 	nop
    2194:	3c040001 	lui	a0,0x1
    2198:	0c00094a 	jal	2528 <puts>
    219c:	248485ac 	addiu	a0,a0,-31316
    21a0:	3c032000 	lui	v1,0x2000
    21a4:	34630300 	ori	v1,v1,0x300
    21a8:	8c640000 	lw	a0,0(v1)
    21ac:	0c000975 	jal	25d4 <itoa>
    21b0:	00000000 	nop
    21b4:	0c00094a 	jal	2528 <puts>
    21b8:	00402021 	move	a0,v0
    21bc:	0c00094a 	jal	2528 <puts>
    21c0:	26a489ac 	addiu	a0,s5,-30292
    21c4:	0c000946 	jal	2518 <get_net_address>
    21c8:	00000000 	nop
    21cc:	00402821 	move	a1,v0
    21d0:	02203021 	move	a2,s1
    21d4:	02003821 	move	a3,s0
    21d8:	0c001546 	jal	5518 <Seek>
    21dc:	24040007 	li	a0,7
    21e0:	080007b7 	j	1edc <handle_packet+0x190>
    21e4:	00000000 	nop
    21e8:	8fa400c0 	lw	a0,192(sp)
    21ec:	8fa500d8 	lw	a1,216(sp)
    21f0:	0c0012e2 	jal	4b88 <update_proc_slack_time>
    21f4:	00000000 	nop
    21f8:	080007b7 	j	1edc <handle_packet+0x190>
    21fc:	00000000 	nop
    2200:	8fa400b8 	lw	a0,184(sp)
    2204:	0c000cb0 	jal	32c0 <get_application_ptr>
    2208:	00042202 	srl	a0,a0,0x8
    220c:	0c00014b 	jal	52c <send_tasks_location>
    2210:	00402021 	move	a0,v0
    2214:	8fb000cc 	lw	s0,204(sp)
    2218:	0c000946 	jal	2518 <get_net_address>
    221c:	00000000 	nop
    2220:	8fa600b8 	lw	a2,184(sp)
    2224:	00108400 	sll	s0,s0,0x10
    2228:	02022825 	or	a1,s0,v0
    222c:	00063202 	srl	a2,a2,0x8
    2230:	00003821 	move	a3,zero
    2234:	0c001546 	jal	5518 <Seek>
    2238:	2404000e 	li	a0,14
    223c:	3c040001 	lui	a0,0x1
    2240:	0c00094a 	jal	2528 <puts>
    2244:	2484865c 	addiu	a0,a0,-31140
    2248:	8fa400b8 	lw	a0,184(sp)
    224c:	0c000975 	jal	25d4 <itoa>
    2250:	00042202 	srl	a0,a0,0x8
    2254:	0c00094a 	jal	2528 <puts>
    2258:	00402021 	move	a0,v0
    225c:	0c00094a 	jal	2528 <puts>
    2260:	262489ac 	addiu	a0,s1,-30292
    2264:	3c040001 	lui	a0,0x1
    2268:	0c00094a 	jal	2528 <puts>
    226c:	24848674 	addiu	a0,a0,-31116
    2270:	8e440000 	lw	a0,0(s2)
    2274:	0c000975 	jal	25d4 <itoa>
    2278:	00000000 	nop
    227c:	0c00094a 	jal	2528 <puts>
    2280:	00402021 	move	a0,v0
    2284:	0c00094a 	jal	2528 <puts>
    2288:	262489ac 	addiu	a0,s1,-30292
    228c:	8fb000cc 	lw	s0,204(sp)
    2290:	0c000946 	jal	2518 <get_net_address>
    2294:	00108400 	sll	s0,s0,0x10
    2298:	02022825 	or	a1,s0,v0
    229c:	24040003 	li	a0,3
    22a0:	00003021 	move	a2,zero
    22a4:	0c001546 	jal	5518 <Seek>
    22a8:	00003821 	move	a3,zero
    22ac:	08000795 	j	1e54 <handle_packet+0x108>
    22b0:	00000000 	nop
    22b4:	00002821 	move	a1,zero
    22b8:	24110044 	li	s1,68
    22bc:	08000862 	j	2188 <handle_packet+0x43c>
    22c0:	00008021 	move	s0,zero

000022c4 <handle_pending_application>:
    22c4:	3c040001 	lui	a0,0x1
    22c8:	27bdffe8 	addiu	sp,sp,-24
    22cc:	248486b8 	addiu	a0,a0,-31048
    22d0:	afbf0014 	sw	ra,20(sp)
    22d4:	0c00094a 	jal	2528 <puts>
    22d8:	afb00010 	sw	s0,16(sp)
    22dc:	0c000c4c 	jal	3130 <get_next_pending_app>
    22e0:	00000000 	nop
    22e4:	00402021 	move	a0,v0
    22e8:	0c000e19 	jal	3864 <reclustering_next_task>
    22ec:	00408021 	move	s0,v0
    22f0:	14400005 	bnez	v0,2308 <handle_pending_application+0x44>
    22f4:	02002021 	move	a0,s0
    22f8:	8fbf0014 	lw	ra,20(sp)
    22fc:	8fb00010 	lw	s0,16(sp)
    2300:	03e00008 	jr	ra
    2304:	27bd0018 	addiu	sp,sp,24
    2308:	24020004 	li	v0,4
    230c:	ae020004 	sw	v0,4(s0)
    2310:	8fbf0014 	lw	ra,20(sp)
    2314:	8fb00010 	lw	s0,16(sp)
    2318:	08000629 	j	18a4 <request_application>
    231c:	27bd0018 	addiu	sp,sp,24

00002320 <main>:
    2320:	27bdffe8 	addiu	sp,sp,-24
    2324:	3c022000 	lui	v0,0x2000
    2328:	afbf0014 	sw	ra,20(sp)
    232c:	34420140 	ori	v0,v0,0x140
    2330:	afb00010 	sw	s0,16(sp)
    2334:	8c440000 	lw	a0,0(v0)
    2338:	0c000943 	jal	250c <set_net_address>
    233c:	00000000 	nop
    2340:	0c000946 	jal	2518 <get_net_address>
    2344:	00000000 	nop
    2348:	1440006a 	bnez	v0,24f4 <main+0x1d4>
    234c:	3c040001 	lui	a0,0x1
    2350:	0c00094a 	jal	2528 <puts>
    2354:	248486d4 	addiu	a0,a0,-31020
    2358:	3c040005 	lui	a0,0x5
    235c:	8c838e40 	lw	v1,-29120(a0)
    2360:	3c020005 	lui	v0,0x5
    2364:	00032940 	sll	a1,v1,0x5
    2368:	00031880 	sll	v1,v1,0x2
    236c:	00a32823 	subu	a1,a1,v1
    2370:	24428db8 	addiu	v0,v0,-29256
    2374:	00a22821 	addu	a1,a1,v0
    2378:	8ca30000 	lw	v1,0(a1)
    237c:	8ca20004 	lw	v0,4(a1)
    2380:	00031a00 	sll	v1,v1,0x8
    2384:	00621825 	or	v1,v1,v0
    2388:	24040001 	li	a0,1
    238c:	3c020005 	lui	v0,0x5
    2390:	3c100005 	lui	s0,0x5
    2394:	ac438e20 	sw	v1,-29152(v0)
    2398:	0c000009 	jal	24 <initialize_clusters>
    239c:	a2048e14 	sb	a0,-29164(s0)
    23a0:	0c000029 	jal	a4 <initialize_slaves>
    23a4:	00000000 	nop
    23a8:	0c000006 	jal	18 <initialize_cluster_load>
    23ac:	00000000 	nop
    23b0:	0c000c18 	jal	3060 <initialize_applications>
    23b4:	00000000 	nop
    23b8:	0c000fe6 	jal	3f98 <init_new_task_list>
    23bc:	00000000 	nop
    23c0:	0c000abf 	jal	2afc <init_service_header_slots>
    23c4:	00000000 	nop
    23c8:	0c001791 	jal	5e44 <initialize_CM_FIFO>
    23cc:	00000000 	nop
    23d0:	92028e14 	lbu	v0,-29164(s0)
    23d4:	00000000 	nop
    23d8:	10400041 	beqz	v0,24e0 <main+0x1c0>
    23dc:	00000000 	nop
    23e0:	3c040001 	lui	a0,0x1
    23e4:	0c00094a 	jal	2528 <puts>
    23e8:	24848714 	addiu	a0,a0,-30956
    23ec:	0c000946 	jal	2518 <get_net_address>
    23f0:	3c100005 	lui	s0,0x5
    23f4:	00402821 	move	a1,v0
    23f8:	2404001c 	li	a0,28
    23fc:	00003021 	move	a2,zero
    2400:	0c001546 	jal	5518 <Seek>
    2404:	00003821 	move	a3,zero
    2408:	0c000946 	jal	2518 <get_net_address>
    240c:	00000000 	nop
    2410:	00402821 	move	a1,v0
    2414:	24040003 	li	a0,3
    2418:	00003021 	move	a2,zero
    241c:	0c001546 	jal	5518 <Seek>
    2420:	00003821 	move	a3,zero
    2424:	3c032000 	lui	v1,0x2000
    2428:	34630020 	ori	v1,v1,0x20
    242c:	8c620000 	lw	v0,0(v1)
    2430:	00000000 	nop
    2434:	30420020 	andi	v0,v0,0x20
    2438:	14400013 	bnez	v0,2488 <main+0x168>
    243c:	00000000 	nop
    2440:	8c620000 	lw	v0,0(v1)
    2444:	00000000 	nop
    2448:	30420080 	andi	v0,v0,0x80
    244c:	1440001e 	bnez	v0,24c8 <main+0x1a8>
    2450:	00000000 	nop
    2454:	8e028e60 	lw	v0,-29088(s0)
    2458:	00000000 	nop
    245c:	14400010 	bnez	v0,24a0 <main+0x180>
    2460:	00000000 	nop
    2464:	0c00118c 	jal	4630 <manage_SZ_migration>
    2468:	00000000 	nop
    246c:	3c032000 	lui	v1,0x2000
    2470:	34630020 	ori	v1,v1,0x20
    2474:	8c620000 	lw	v0,0(v1)
    2478:	00000000 	nop
    247c:	30420020 	andi	v0,v0,0x20
    2480:	1040ffef 	beqz	v0,2440 <main+0x120>
    2484:	00000000 	nop
    2488:	0c000753 	jal	1d4c <handle_packet>
    248c:	00000000 	nop
    2490:	0c00118c 	jal	4630 <manage_SZ_migration>
    2494:	00000000 	nop
    2498:	0800091c 	j	2470 <main+0x150>
    249c:	3c032000 	lui	v1,0x2000
    24a0:	0c000dd2 	jal	3748 <is_reclustering_NOT_active>
    24a4:	00000000 	nop
    24a8:	1040ffee 	beqz	v0,2464 <main+0x144>
    24ac:	00000000 	nop
    24b0:	0c0008b1 	jal	22c4 <handle_pending_application>
    24b4:	00000000 	nop
    24b8:	0c00118c 	jal	4630 <manage_SZ_migration>
    24bc:	00000000 	nop
    24c0:	0800091c 	j	2470 <main+0x150>
    24c4:	3c032000 	lui	v1,0x2000
    24c8:	0c000228 	jal	8a0 <SeekInterruptHandler>
    24cc:	00000000 	nop
    24d0:	0c00118c 	jal	4630 <manage_SZ_migration>
    24d4:	00000000 	nop
    24d8:	0800091c 	j	2470 <main+0x150>
    24dc:	3c032000 	lui	v1,0x2000
    24e0:	3c040001 	lui	a0,0x1
    24e4:	0c00094a 	jal	2528 <puts>
    24e8:	2484872c 	addiu	a0,a0,-30932
    24ec:	08000909 	j	2424 <main+0x104>
    24f0:	3c100005 	lui	s0,0x5
    24f4:	3c040001 	lui	a0,0x1
    24f8:	248486f4 	addiu	a0,a0,-30988
    24fc:	0c00094a 	jal	2528 <puts>
    2500:	3c100005 	lui	s0,0x5
    2504:	080008ec 	j	23b0 <main+0x90>
    2508:	a2008e14 	sb	zero,-29164(s0)

0000250c <set_net_address>:
    250c:	3c020005 	lui	v0,0x5
    2510:	03e00008 	jr	ra
    2514:	ac448e34 	sw	a0,-29132(v0)

00002518 <get_net_address>:
    2518:	3c030005 	lui	v1,0x5
    251c:	8c628e34 	lw	v0,-29132(v1)
    2520:	03e00008 	jr	ra
    2524:	00000000 	nop

00002528 <puts>:
    2528:	8c820000 	lw	v0,0(a0)
    252c:	3c032000 	lui	v1,0x2000
    2530:	ac620000 	sw	v0,0(v1)
    2534:	00802821 	move	a1,a0
    2538:	80840000 	lb	a0,0(a0)
    253c:	00000000 	nop
    2540:	10800022 	beqz	a0,25cc <puts+0xa4>
    2544:	00000000 	nop
    2548:	80a20001 	lb	v0,1(a1)
    254c:	00000000 	nop
    2550:	1040001e 	beqz	v0,25cc <puts+0xa4>
    2554:	00000000 	nop
    2558:	80a20002 	lb	v0,2(a1)
    255c:	00000000 	nop
    2560:	1040001a 	beqz	v0,25cc <puts+0xa4>
    2564:	00000000 	nop
    2568:	80a20003 	lb	v0,3(a1)
    256c:	00000000 	nop
    2570:	10400016 	beqz	v0,25cc <puts+0xa4>
    2574:	3c042000 	lui	a0,0x2000
    2578:	0800096c 	j	25b0 <puts+0x88>
    257c:	24a50004 	addiu	a1,a1,4
    2580:	80a20001 	lb	v0,1(a1)
    2584:	00000000 	nop
    2588:	10400010 	beqz	v0,25cc <puts+0xa4>
    258c:	00000000 	nop
    2590:	80a20002 	lb	v0,2(a1)
    2594:	00000000 	nop
    2598:	1040000c 	beqz	v0,25cc <puts+0xa4>
    259c:	00000000 	nop
    25a0:	80a20003 	lb	v0,3(a1)
    25a4:	00000000 	nop
    25a8:	10400008 	beqz	v0,25cc <puts+0xa4>
    25ac:	24a50004 	addiu	a1,a1,4
    25b0:	8ca20000 	lw	v0,0(a1)
    25b4:	00000000 	nop
    25b8:	ac820000 	sw	v0,0(a0)
    25bc:	80a30000 	lb	v1,0(a1)
    25c0:	00000000 	nop
    25c4:	1460ffee 	bnez	v1,2580 <puts+0x58>
    25c8:	00000000 	nop
    25cc:	03e00008 	jr	ra
    25d0:	00001021 	move	v0,zero

000025d4 <itoa>:
    25d4:	14800009 	bnez	a0,25fc <itoa+0x28>
    25d8:	00802821 	move	a1,a0
    25dc:	3c020005 	lui	v0,0x5
    25e0:	24448eac 	addiu	a0,v0,-29012
    25e4:	00802821 	move	a1,a0
    25e8:	24030030 	li	v1,48
    25ec:	a0438eac 	sb	v1,-29012(v0)
    25f0:	00a01021 	move	v0,a1
    25f4:	03e00008 	jr	ra
    25f8:	a0800001 	sb	zero,1(a0)
    25fc:	3c03cccc 	lui	v1,0xcccc
    2600:	3463cccd 	ori	v1,v1,0xcccd
    2604:	00830019 	multu	a0,v1
    2608:	3c020005 	lui	v0,0x5
    260c:	24468ead 	addiu	a2,v0,-29011
    2610:	3c080005 	lui	t0,0x5
    2614:	24070001 	li	a3,1
    2618:	00001810 	mfhi	v1
    261c:	000318c2 	srl	v1,v1,0x3
    2620:	00031040 	sll	v0,v1,0x1
    2624:	000320c0 	sll	a0,v1,0x3
    2628:	00441021 	addu	v0,v0,a0
    262c:	00a21023 	subu	v0,a1,v0
    2630:	24420030 	addiu	v0,v0,48
    2634:	00602821 	move	a1,v1
    2638:	10a00013 	beqz	a1,2688 <itoa+0xb4>
    263c:	a1028eac 	sb	v0,-29012(t0)
    2640:	3c03cccc 	lui	v1,0xcccc
    2644:	3463cccd 	ori	v1,v1,0xcccd
    2648:	00a30019 	multu	a1,v1
    264c:	24e70001 	addiu	a3,a3,1
    2650:	00001810 	mfhi	v1
    2654:	000320c2 	srl	a0,v1,0x3
    2658:	00041040 	sll	v0,a0,0x1
    265c:	000418c0 	sll	v1,a0,0x3
    2660:	00431021 	addu	v0,v0,v1
    2664:	00a21023 	subu	v0,a1,v0
    2668:	24420030 	addiu	v0,v0,48
    266c:	a0c20000 	sb	v0,0(a2)
    2670:	2402000b 	li	v0,11
    2674:	10e2000d 	beq	a3,v0,26ac <itoa+0xd8>
    2678:	24c60001 	addiu	a2,a2,1
    267c:	00802821 	move	a1,a0
    2680:	14a0fff0 	bnez	a1,2644 <itoa+0x70>
    2684:	3c03cccc 	lui	v1,0xcccc
    2688:	3c040005 	lui	a0,0x5
    268c:	24828ea0 	addiu	v0,a0,-29024
    2690:	00e21021 	addu	v0,a3,v0
    2694:	24e3ffff 	addiu	v1,a3,-1
    2698:	04610008 	bgez	v1,26bc <itoa+0xe8>
    269c:	a0400000 	sb	zero,0(v0)
    26a0:	24858ea0 	addiu	a1,a0,-29024
    26a4:	03e00008 	jr	ra
    26a8:	00a01021 	move	v0,a1
    26ac:	3c040005 	lui	a0,0x5
    26b0:	24828ea0 	addiu	v0,a0,-29024
    26b4:	2403000a 	li	v1,10
    26b8:	a040000b 	sb	zero,11(v0)
    26bc:	24828ea0 	addiu	v0,a0,-29024
    26c0:	00621821 	addu	v1,v1,v0
    26c4:	3c020005 	lui	v0,0x5
    26c8:	25058eac 	addiu	a1,t0,-29012
    26cc:	24468e9f 	addiu	a2,v0,-29025
    26d0:	90a20000 	lbu	v0,0(a1)
    26d4:	00000000 	nop
    26d8:	a0620000 	sb	v0,0(v1)
    26dc:	2463ffff 	addiu	v1,v1,-1
    26e0:	1466fffb 	bne	v1,a2,26d0 <itoa+0xfc>
    26e4:	24a50001 	addiu	a1,a1,1
    26e8:	080009a9 	j	26a4 <itoa+0xd0>
    26ec:	24858ea0 	addiu	a1,a0,-29024

000026f0 <itoh>:
    26f0:	3c080005 	lui	t0,0x5
    26f4:	25038e94 	addiu	v1,t0,-29036
    26f8:	24050030 	li	a1,48
    26fc:	24020078 	li	v0,120
    2700:	a0620001 	sb	v0,1(v1)
    2704:	a060000a 	sb	zero,10(v1)
    2708:	1480000b 	bnez	a0,2738 <itoh+0x48>
    270c:	a1058e94 	sb	a1,-29036(t0)
    2710:	a0650009 	sb	a1,9(v1)
    2714:	a0650002 	sb	a1,2(v1)
    2718:	a0650003 	sb	a1,3(v1)
    271c:	a0650004 	sb	a1,4(v1)
    2720:	a0650005 	sb	a1,5(v1)
    2724:	a0650006 	sb	a1,6(v1)
    2728:	a0650007 	sb	a1,7(v1)
    272c:	a0650008 	sb	a1,8(v1)
    2730:	03e00008 	jr	ra
    2734:	25028e94 	addiu	v0,t0,-29036
    2738:	3c020005 	lui	v0,0x5
    273c:	3c030005 	lui	v1,0x5
    2740:	24478e9d 	addiu	a3,v0,-29027
    2744:	080009d7 	j	275c <itoh+0x6c>
    2748:	24638e95 	addiu	v1,v1,-29035
    274c:	a0e60000 	sb	a2,0(a3)
    2750:	24e7ffff 	addiu	a3,a3,-1
    2754:	10e3fff6 	beq	a3,v1,2730 <itoh+0x40>
    2758:	00042102 	srl	a0,a0,0x4
    275c:	3082000f 	andi	v0,a0,0xf
    2760:	24460030 	addiu	a2,v0,48
    2764:	24450057 	addiu	a1,v0,87
    2768:	2c42000a 	sltiu	v0,v0,10
    276c:	1440fff7 	bnez	v0,274c <itoh+0x5c>
    2770:	00000000 	nop
    2774:	080009d4 	j	2750 <itoh+0x60>
    2778:	a0e50000 	sb	a1,0(a3)

0000277c <abs>:
    277c:	04800003 	bltz	a0,278c <abs+0x10>
    2780:	00801021 	move	v0,a0
    2784:	03e00008 	jr	ra
    2788:	00000000 	nop
    278c:	03e00008 	jr	ra
    2790:	00041023 	negu	v0,a0

00002794 <rand>:
    2794:	30820001 	andi	v0,a0,0x1
    2798:	00021023 	negu	v0,v0
    279c:	3042b400 	andi	v0,v0,0xb400
    27a0:	00042043 	sra	a0,a0,0x1
    27a4:	00822026 	xor	a0,a0,v0
    27a8:	14c00002 	bnez	a2,27b4 <rand+0x20>
    27ac:	0086001a 	div	zero,a0,a2
    27b0:	0007000d 	break	0x7
    27b4:	00001010 	mfhi	v0
    27b8:	03e00008 	jr	ra
    27bc:	00451021 	addu	v0,v0,a1

000027c0 <add>:
    27c0:	03e00008 	jr	ra
    27c4:	00851021 	addu	v0,a0,a1

000027c8 <sub>:
    27c8:	03e00008 	jr	ra
    27cc:	00851023 	subu	v0,a0,a1

000027d0 <memset>:
    27d0:	18c00008 	blez	a2,27f4 <memset+0x24>
    27d4:	00801021 	move	v0,a0
    27d8:	30a500ff 	andi	a1,a1,0xff
    27dc:	00c43021 	addu	a2,a2,a0
    27e0:	00801821 	move	v1,a0
    27e4:	a0650000 	sb	a1,0(v1)
    27e8:	24630001 	addiu	v1,v1,1
    27ec:	1466fffd 	bne	v1,a2,27e4 <memset+0x14>
    27f0:	00000000 	nop
    27f4:	03e00008 	jr	ra
    27f8:	00000000 	nop

000027fc <fixetoa>:
    27fc:	0480004b 	bltz	a0,292c <fixetoa+0x130>
    2800:	3c0b0005 	lui	t3,0x5
    2804:	10800042 	beqz	a0,2910 <fixetoa+0x114>
    2808:	3c020005 	lui	v0,0x5
    280c:	3c0b0005 	lui	t3,0x5
    2810:	00802821 	move	a1,a0
    2814:	00003021 	move	a2,zero
    2818:	08000a0f 	j	283c <fixetoa+0x40>
    281c:	25678e84 	addiu	a3,t3,-29052
    2820:	10400084 	beqz	v0,2a34 <fixetoa+0x238>
    2824:	24020030 	li	v0,48
    2828:	a0e20000 	sb	v0,0(a3)
    282c:	24c60001 	addiu	a2,a2,1
    2830:	2402000c 	li	v0,12
    2834:	10c20015 	beq	a2,v0,288c <fixetoa+0x90>
    2838:	24e70001 	addiu	a3,a3,1
    283c:	00051fc3 	sra	v1,a1,0x1f
    2840:	10a0fff7 	beqz	a1,2820 <fixetoa+0x24>
    2844:	28c20005 	slti	v0,a2,5
    2848:	3c026666 	lui	v0,0x6666
    284c:	34426667 	ori	v0,v0,0x6667
    2850:	00a20018 	mult	a1,v0
    2854:	24c60001 	addiu	a2,a2,1
    2858:	00001010 	mfhi	v0
    285c:	00021083 	sra	v0,v0,0x2
    2860:	00431023 	subu	v0,v0,v1
    2864:	00021840 	sll	v1,v0,0x1
    2868:	000220c0 	sll	a0,v0,0x3
    286c:	00641821 	addu	v1,v1,a0
    2870:	00a31823 	subu	v1,a1,v1
    2874:	24630030 	addiu	v1,v1,48
    2878:	00402821 	move	a1,v0
    287c:	2402000c 	li	v0,12
    2880:	a0e30000 	sb	v1,0(a3)
    2884:	14c2ffed 	bne	a2,v0,283c <fixetoa+0x40>
    2888:	24e70001 	addiu	a3,a3,1
    288c:	3c090005 	lui	t1,0x5
    2890:	25228e74 	addiu	v0,t1,-29068
    2894:	2406000c 	li	a2,12
    2898:	a040000d 	sb	zero,13(v0)
    289c:	25678e84 	addiu	a3,t3,-29052
    28a0:	00002821 	move	a1,zero
    28a4:	25228e74 	addiu	v0,t1,-29068
    28a8:	90e40000 	lbu	a0,0(a3)
    28ac:	00c21821 	addu	v1,a2,v0
    28b0:	24c6ffff 	addiu	a2,a2,-1
    28b4:	24a50001 	addiu	a1,a1,1
    28b8:	24e70001 	addiu	a3,a3,1
    28bc:	00c24021 	addu	t0,a2,v0
    28c0:	04c00010 	bltz	a2,2904 <fixetoa+0x108>
    28c4:	a0640000 	sb	a0,0(v1)
    28c8:	24020004 	li	v0,4
    28cc:	14a2fff6 	bne	a1,v0,28a8 <fixetoa+0xac>
    28d0:	25228e74 	addiu	v0,t1,-29068
    28d4:	2402002e 	li	v0,46
    28d8:	a1020000 	sb	v0,0(t0)
    28dc:	24c6ffff 	addiu	a2,a2,-1
    28e0:	25228e74 	addiu	v0,t1,-29068
    28e4:	90e40000 	lbu	a0,0(a3)
    28e8:	00c21821 	addu	v1,a2,v0
    28ec:	24c6ffff 	addiu	a2,a2,-1
    28f0:	24a50001 	addiu	a1,a1,1
    28f4:	24e70001 	addiu	a3,a3,1
    28f8:	00c24021 	addu	t0,a2,v0
    28fc:	04c1fff2 	bgez	a2,28c8 <fixetoa+0xcc>
    2900:	a0640000 	sb	a0,0(v1)
    2904:	25258e74 	addiu	a1,t1,-29068
    2908:	03e00008 	jr	ra
    290c:	00a01021 	move	v0,a1
    2910:	24448e84 	addiu	a0,v0,-29052
    2914:	00802821 	move	a1,a0
    2918:	24030030 	li	v1,48
    291c:	a0438e84 	sb	v1,-29052(v0)
    2920:	00a01021 	move	v0,a1
    2924:	03e00008 	jr	ra
    2928:	a0800001 	sb	zero,1(a0)
    292c:	3c026666 	lui	v0,0x6666
    2930:	00042823 	negu	a1,a0
    2934:	344a6667 	ori	t2,v0,0x6667
    2938:	00003021 	move	a2,zero
    293c:	25678e84 	addiu	a3,t3,-29052
    2940:	24090030 	li	t1,48
    2944:	08000a59 	j	2964 <fixetoa+0x168>
    2948:	2408000c 	li	t0,12
    294c:	10400040 	beqz	v0,2a50 <fixetoa+0x254>
    2950:	00000000 	nop
    2954:	24c60001 	addiu	a2,a2,1
    2958:	a0e90000 	sb	t1,0(a3)
    295c:	10c80012 	beq	a2,t0,29a8 <fixetoa+0x1ac>
    2960:	24e70001 	addiu	a3,a3,1
    2964:	00051fc3 	sra	v1,a1,0x1f
    2968:	10a0fff8 	beqz	a1,294c <fixetoa+0x150>
    296c:	28c20005 	slti	v0,a2,5
    2970:	00aa0018 	mult	a1,t2
    2974:	24c60001 	addiu	a2,a2,1
    2978:	00001010 	mfhi	v0
    297c:	00021083 	sra	v0,v0,0x2
    2980:	00431023 	subu	v0,v0,v1
    2984:	00021840 	sll	v1,v0,0x1
    2988:	000220c0 	sll	a0,v0,0x3
    298c:	00641821 	addu	v1,v1,a0
    2990:	00a31823 	subu	v1,a1,v1
    2994:	24630030 	addiu	v1,v1,48
    2998:	a0e30000 	sb	v1,0(a3)
    299c:	00402821 	move	a1,v0
    29a0:	14c8fff0 	bne	a2,t0,2964 <fixetoa+0x168>
    29a4:	24e70001 	addiu	a3,a3,1
    29a8:	3c090005 	lui	t1,0x5
    29ac:	25228e74 	addiu	v0,t1,-29068
    29b0:	a040000e 	sb	zero,14(v0)
    29b4:	2405000d 	li	a1,13
    29b8:	25678e84 	addiu	a3,t3,-29052
    29bc:	00003021 	move	a2,zero
    29c0:	25228e74 	addiu	v0,t1,-29068
    29c4:	90e40000 	lbu	a0,0(a3)
    29c8:	00a21821 	addu	v1,a1,v0
    29cc:	24a5ffff 	addiu	a1,a1,-1
    29d0:	24c60001 	addiu	a2,a2,1
    29d4:	24e70001 	addiu	a3,a3,1
    29d8:	00a24021 	addu	t0,a1,v0
    29dc:	04a00010 	bltz	a1,2a20 <fixetoa+0x224>
    29e0:	a0640000 	sb	a0,0(v1)
    29e4:	24020004 	li	v0,4
    29e8:	14c2fff6 	bne	a2,v0,29c4 <fixetoa+0x1c8>
    29ec:	25228e74 	addiu	v0,t1,-29068
    29f0:	2402002e 	li	v0,46
    29f4:	a1020000 	sb	v0,0(t0)
    29f8:	24a5ffff 	addiu	a1,a1,-1
    29fc:	25228e74 	addiu	v0,t1,-29068
    2a00:	90e40000 	lbu	a0,0(a3)
    2a04:	00a21821 	addu	v1,a1,v0
    2a08:	24a5ffff 	addiu	a1,a1,-1
    2a0c:	24c60001 	addiu	a2,a2,1
    2a10:	24e70001 	addiu	a3,a3,1
    2a14:	00a24021 	addu	t0,a1,v0
    2a18:	04a1fff2 	bgez	a1,29e4 <fixetoa+0x1e8>
    2a1c:	a0640000 	sb	a0,0(v1)
    2a20:	25258e74 	addiu	a1,t1,-29068
    2a24:	2402002d 	li	v0,45
    2a28:	a1228e74 	sb	v0,-29068(t1)
    2a2c:	03e00008 	jr	ra
    2a30:	00a01021 	move	v0,a1
    2a34:	3c090005 	lui	t1,0x5
    2a38:	25228e74 	addiu	v0,t1,-29068
    2a3c:	00c21021 	addu	v0,a2,v0
    2a40:	04c1ff96 	bgez	a2,289c <fixetoa+0xa0>
    2a44:	a0400001 	sb	zero,1(v0)
    2a48:	08000a42 	j	2908 <fixetoa+0x10c>
    2a4c:	25258e74 	addiu	a1,t1,-29068
    2a50:	3c090005 	lui	t1,0x5
    2a54:	25228e74 	addiu	v0,t1,-29068
    2a58:	00c21021 	addu	v0,a2,v0
    2a5c:	24c50001 	addiu	a1,a2,1
    2a60:	04a1ffd5 	bgez	a1,29b8 <fixetoa+0x1bc>
    2a64:	a0400002 	sb	zero,2(v0)
    2a68:	08000a89 	j	2a24 <fixetoa+0x228>
    2a6c:	25258e74 	addiu	a1,t1,-29068

00002a70 <strcpy>:
    2a70:	00801821 	move	v1,a0
    2a74:	80a20000 	lb	v0,0(a1)
    2a78:	24a50001 	addiu	a1,a1,1
    2a7c:	a0620000 	sb	v0,0(v1)
    2a80:	1440fffc 	bnez	v0,2a74 <strcpy+0x4>
    2a84:	24630001 	addiu	v1,v1,1
    2a88:	03e00008 	jr	ra
    2a8c:	00801021 	move	v0,a0

00002a90 <strlen>:
    2a90:	00801821 	move	v1,a0
    2a94:	80620000 	lb	v0,0(v1)
    2a98:	00000000 	nop
    2a9c:	1440fffd 	bnez	v0,2a94 <strlen+0x4>
    2aa0:	24630001 	addiu	v1,v1,1
    2aa4:	00641023 	subu	v0,v1,a0
    2aa8:	03e00008 	jr	ra
    2aac:	2442ffff 	addiu	v0,v0,-1

00002ab0 <get_service_header_slot>:
    2ab0:	3c020005 	lui	v0,0x5
    2ab4:	2444a4dc 	addiu	a0,v0,-23332
    2ab8:	8c8200b0 	lw	v0,176(a0)
    2abc:	3c030005 	lui	v1,0x5
    2ac0:	2463a428 	addiu	v1,v1,-23512
    2ac4:	10400007 	beqz	v0,2ae4 <get_service_header_slot+0x34>
    2ac8:	00802821 	move	a1,a0
    2acc:	24030001 	li	v1,1
    2ad0:	3c020005 	lui	v0,0x5
    2ad4:	ac43a4d8 	sw	v1,-23336(v0)
    2ad8:	00a01021 	move	v0,a1
    2adc:	03e00008 	jr	ra
    2ae0:	ac8000b0 	sw	zero,176(a0)
    2ae4:	24020001 	li	v0,1
    2ae8:	00602821 	move	a1,v1
    2aec:	ac8200b0 	sw	v0,176(a0)
    2af0:	00a01021 	move	v0,a1
    2af4:	03e00008 	jr	ra
    2af8:	ac6000b0 	sw	zero,176(v1)

00002afc <init_service_header_slots>:
    2afc:	24020001 	li	v0,1
    2b00:	3c030005 	lui	v1,0x5
    2b04:	3c040005 	lui	a0,0x5
    2b08:	ac62a4d8 	sw	v0,-23336(v1)
    2b0c:	03e00008 	jr	ra
    2b10:	ac82a58c 	sw	v0,-23156(a0)

00002b14 <DMNI_send_data>:
    2b14:	3c062000 	lui	a2,0x2000
    2b18:	00804021 	move	t0,a0
    2b1c:	00a03821 	move	a3,a1
    2b20:	34c30250 	ori	v1,a2,0x250
    2b24:	8c620000 	lw	v0,0(v1)
    2b28:	00000000 	nop
    2b2c:	1440fffd 	bnez	v0,2b24 <DMNI_send_data+0x10>
    2b30:	34c20200 	ori	v0,a2,0x200
    2b34:	ac470000 	sw	a3,0(v0)
    2b38:	34c50230 	ori	a1,a2,0x230
    2b3c:	34c30220 	ori	v1,a2,0x220
    2b40:	34c40210 	ori	a0,a2,0x210
    2b44:	24020001 	li	v0,1
    2b48:	ac600000 	sw	zero,0(v1)
    2b4c:	ac880000 	sw	t0,0(a0)
    2b50:	aca20000 	sw	v0,0(a1)
    2b54:	03e00008 	jr	ra
    2b58:	00000000 	nop

00002b5c <read_packet>:
    2b5c:	3c022000 	lui	v0,0x2000
    2b60:	24050001 	li	a1,1
    2b64:	34460200 	ori	a2,v0,0x200
    2b68:	34470220 	ori	a3,v0,0x220
    2b6c:	24880078 	addiu	t0,a0,120
    2b70:	34430210 	ori	v1,v0,0x210
    2b74:	27bdffe8 	addiu	sp,sp,-24
    2b78:	00806021 	move	t4,a0
    2b7c:	344b0530 	ori	t3,v0,0x530
    2b80:	34440230 	ori	a0,v0,0x230
    2b84:	344a0260 	ori	t2,v0,0x260
    2b88:	2402000d 	li	v0,13
    2b8c:	afbf0010 	sw	ra,16(sp)
    2b90:	24090001 	li	t1,1
    2b94:	acc20000 	sw	v0,0(a2)
    2b98:	ace50000 	sw	a1,0(a3)
    2b9c:	ac680000 	sw	t0,0(v1)
    2ba0:	ac850000 	sw	a1,0(a0)
    2ba4:	8d420000 	lw	v0,0(t2)
    2ba8:	00000000 	nop
    2bac:	10400011 	beqz	v0,2bf4 <read_packet+0x98>
    2bb0:	24020001 	li	v0,1
    2bb4:	8d620000 	lw	v0,0(t3)
    2bb8:	00000000 	nop
    2bbc:	1449fff9 	bne	v0,t1,2ba4 <read_packet+0x48>
    2bc0:	00000000 	nop
    2bc4:	8d840078 	lw	a0,120(t4)
    2bc8:	0c0009bc 	jal	26f0 <itoh>
    2bcc:	00000000 	nop
    2bd0:	0c00094a 	jal	2528 <puts>
    2bd4:	00402021 	move	a0,v0
    2bd8:	3c040001 	lui	a0,0x1
    2bdc:	0c00094a 	jal	2528 <puts>
    2be0:	248487c4 	addiu	a0,a0,-30780
    2be4:	8fbf0010 	lw	ra,16(sp)
    2be8:	2402ffff 	li	v0,-1
    2bec:	03e00008 	jr	ra
    2bf0:	27bd0018 	addiu	sp,sp,24
    2bf4:	8fbf0010 	lw	ra,16(sp)
    2bf8:	00000000 	nop
    2bfc:	03e00008 	jr	ra
    2c00:	27bd0018 	addiu	sp,sp,24

00002c04 <DMNI_read_data>:
    2c04:	3c022000 	lui	v0,0x2000
    2c08:	24090001 	li	t1,1
    2c0c:	27bdffe8 	addiu	sp,sp,-24
    2c10:	34430200 	ori	v1,v0,0x200
    2c14:	34460220 	ori	a2,v0,0x220
    2c18:	34470210 	ori	a3,v0,0x210
    2c1c:	34480230 	ori	t0,v0,0x230
    2c20:	afbf0010 	sw	ra,16(sp)
    2c24:	344c0530 	ori	t4,v0,0x530
    2c28:	ac650000 	sw	a1,0(v1)
    2c2c:	344b0260 	ori	t3,v0,0x260
    2c30:	acc90000 	sw	t1,0(a2)
    2c34:	240a0001 	li	t2,1
    2c38:	ace40000 	sw	a0,0(a3)
    2c3c:	ad090000 	sw	t1,0(t0)
    2c40:	8d620000 	lw	v0,0(t3)
    2c44:	00000000 	nop
    2c48:	1040000b 	beqz	v0,2c78 <DMNI_read_data+0x74>
    2c4c:	24020001 	li	v0,1
    2c50:	8d820000 	lw	v0,0(t4)
    2c54:	00000000 	nop
    2c58:	144afff9 	bne	v0,t2,2c40 <DMNI_read_data+0x3c>
    2c5c:	3c040001 	lui	a0,0x1
    2c60:	0c00094a 	jal	2528 <puts>
    2c64:	248487e0 	addiu	a0,a0,-30752
    2c68:	8fbf0010 	lw	ra,16(sp)
    2c6c:	2402ffff 	li	v0,-1
    2c70:	03e00008 	jr	ra
    2c74:	27bd0018 	addiu	sp,sp,24
    2c78:	8fbf0010 	lw	ra,16(sp)
    2c7c:	00000000 	nop
    2c80:	03e00008 	jr	ra
    2c84:	27bd0018 	addiu	sp,sp,24

00002c88 <send_packet_io>:
    2c88:	27bdffd8 	addiu	sp,sp,-40
    2c8c:	afb3001c 	sw	s3,28(sp)
    2c90:	afb20018 	sw	s2,24(sp)
    2c94:	afb00010 	sw	s0,16(sp)
    2c98:	afbf0020 	sw	ra,32(sp)
    2c9c:	afb10014 	sw	s1,20(sp)
    2ca0:	3c030005 	lui	v1,0x5
    2ca4:	8c628dd4 	lw	v0,-29228(v1)
    2ca8:	00808021 	move	s0,a0
    2cac:	00a09821 	move	s3,a1
    2cb0:	10470006 	beq	v0,a3,2ccc <send_packet_io+0x44>
    2cb4:	00c09021 	move	s2,a2
    2cb8:	3c040001 	lui	a0,0x1
    2cbc:	0c00094a 	jal	2528 <puts>
    2cc0:	248487fc 	addiu	a0,a0,-30724
    2cc4:	08000b31 	j	2cc4 <send_packet_io+0x3c>
    2cc8:	00000000 	nop
    2ccc:	24648dd4 	addiu	a0,v1,-29228
    2cd0:	8c82001c 	lw	v0,28(a0)
    2cd4:	00000000 	nop
    2cd8:	1440003b 	bnez	v0,2dc8 <send_packet_io+0x140>
    2cdc:	00000000 	nop
    2ce0:	8c820004 	lw	v0,4(a0)
    2ce4:	8c830008 	lw	v1,8(a0)
    2ce8:	00021200 	sll	v0,v0,0x8
    2cec:	00431025 	or	v0,v0,v1
    2cf0:	ae02007c 	sw	v0,124(s0)
    2cf4:	8c91000c 	lw	s1,12(a0)
    2cf8:	2402ffff 	li	v0,-1
    2cfc:	1222ffee 	beq	s1,v0,2cb8 <send_packet_io+0x30>
    2d00:	2642000b 	addiu	v0,s2,11
    2d04:	ae020080 	sw	v0,128(s0)
    2d08:	0c000946 	jal	2518 <get_net_address>
    2d0c:	ae000098 	sw	zero,152(s0)
    2d10:	30433f00 	andi	v1,v0,0x3f00
    2d14:	3044003f 	andi	a0,v0,0x3f
    2d18:	00031882 	srl	v1,v1,0x2
    2d1c:	00641825 	or	v1,v1,a0
    2d20:	8e05007c 	lw	a1,124(s0)
    2d24:	00031c00 	sll	v1,v1,0x10
    2d28:	00651825 	or	v1,v1,a1
    2d2c:	00112700 	sll	a0,s1,0x1c
    2d30:	00832025 	or	a0,a0,v1
    2d34:	3c072000 	lui	a3,0x2000
    2d38:	ae04007c 	sw	a0,124(s0)
    2d3c:	ae020090 	sw	v0,144(s0)
    2d40:	ae040078 	sw	a0,120(s0)
    2d44:	34e30250 	ori	v1,a3,0x250
    2d48:	8c620000 	lw	v0,0(v1)
    2d4c:	00000000 	nop
    2d50:	1440fffd 	bnez	v0,2d48 <send_packet_io+0xc0>
    2d54:	34e20300 	ori	v0,a3,0x300
    2d58:	8c430000 	lw	v1,0(v0)
    2d5c:	34e40200 	ori	a0,a3,0x200
    2d60:	26050078 	addiu	a1,s0,120
    2d64:	34e60210 	ori	a2,a3,0x210
    2d68:	2402000d 	li	v0,13
    2d6c:	ae030094 	sw	v1,148(s0)
    2d70:	ac820000 	sw	v0,0(a0)
    2d74:	acc50000 	sw	a1,0(a2)
    2d78:	12400004 	beqz	s2,2d8c <send_packet_io+0x104>
    2d7c:	34e30215 	ori	v1,a3,0x215
    2d80:	34e20205 	ori	v0,a3,0x205
    2d84:	ac520000 	sw	s2,0(v0)
    2d88:	ac730000 	sw	s3,0(v1)
    2d8c:	34e20230 	ori	v0,a3,0x230
    2d90:	34e30220 	ori	v1,a3,0x220
    2d94:	24070001 	li	a3,1
    2d98:	ac600000 	sw	zero,0(v1)
    2d9c:	ac470000 	sw	a3,0(v0)
    2da0:	02002021 	move	a0,s0
    2da4:	02602821 	move	a1,s3
    2da8:	02403021 	move	a2,s2
    2dac:	8fbf0020 	lw	ra,32(sp)
    2db0:	8fb3001c 	lw	s3,28(sp)
    2db4:	8fb20018 	lw	s2,24(sp)
    2db8:	8fb10014 	lw	s1,20(sp)
    2dbc:	8fb00010 	lw	s0,16(sp)
    2dc0:	080017bc 	j	5ef0 <insert_CM_FIFO>
    2dc4:	27bd0028 	addiu	sp,sp,40
    2dc8:	8c820010 	lw	v0,16(a0)
    2dcc:	8c830014 	lw	v1,20(a0)
    2dd0:	00021200 	sll	v0,v0,0x8
    2dd4:	00431025 	or	v0,v0,v1
    2dd8:	ae02007c 	sw	v0,124(s0)
    2ddc:	8c910018 	lw	s1,24(a0)
    2de0:	08000b3f 	j	2cfc <send_packet_io+0x74>
    2de4:	2402ffff 	li	v0,-1

00002de8 <send_packet>:
    2de8:	27bdffe0 	addiu	sp,sp,-32
    2dec:	24c2000b 	addiu	v0,a2,11
    2df0:	afbf001c 	sw	ra,28(sp)
    2df4:	afb20018 	sw	s2,24(sp)
    2df8:	afb10014 	sw	s1,20(sp)
    2dfc:	afb00010 	sw	s0,16(sp)
    2e00:	00808021 	move	s0,a0
    2e04:	ac820080 	sw	v0,128(a0)
    2e08:	ac800098 	sw	zero,152(a0)
    2e0c:	00c08821 	move	s1,a2
    2e10:	0c000946 	jal	2518 <get_net_address>
    2e14:	00a09021 	move	s2,a1
    2e18:	9604007e 	lhu	a0,126(s0)
    2e1c:	0c001507 	jal	541c <SearchSourceRoutingDestination>
    2e20:	ae020090 	sw	v0,144(s0)
    2e24:	00404021 	move	t0,v0
    2e28:	2402ffff 	li	v0,-1
    2e2c:	1102004a 	beq	t0,v0,2f58 <send_packet+0x170>
    2e30:	00081900 	sll	v1,t0,0x4
    2e34:	00081080 	sll	v0,t0,0x2
    2e38:	00431021 	addu	v0,v0,v1
    2e3c:	000220c0 	sll	a0,v0,0x3
    2e40:	00822023 	subu	a0,a0,v0
    2e44:	3c020005 	lui	v0,0x5
    2e48:	8e050090 	lw	a1,144(s0)
    2e4c:	2442a918 	addiu	v0,v0,-22248
    2e50:	00823821 	addu	a3,a0,v0
    2e54:	8ce60088 	lw	a2,136(a3)
    2e58:	30a33f00 	andi	v1,a1,0x3f00
    2e5c:	00031882 	srl	v1,v1,0x2
    2e60:	30a5003f 	andi	a1,a1,0x3f
    2e64:	2402001f 	li	v0,31
    2e68:	8e04007c 	lw	a0,124(s0)
    2e6c:	00651825 	or	v1,v1,a1
    2e70:	00461023 	subu	v0,v0,a2
    2e74:	00021080 	sll	v0,v0,0x2
    2e78:	00031c00 	sll	v1,v1,0x10
    2e7c:	00641825 	or	v1,v1,a0
    2e80:	00501021 	addu	v0,v0,s0
    2e84:	10c0000d 	beqz	a2,2ebc <send_packet+0xd4>
    2e88:	ac430000 	sw	v1,0(v0)
    2e8c:	00e02021 	move	a0,a3
    2e90:	00002821 	move	a1,zero
    2e94:	00001021 	move	v0,zero
    2e98:	00461023 	subu	v0,v0,a2
    2e9c:	8c830000 	lw	v1,0(a0)
    2ea0:	00021080 	sll	v0,v0,0x2
    2ea4:	00501021 	addu	v0,v0,s0
    2ea8:	24a50001 	addiu	a1,a1,1
    2eac:	ac430080 	sw	v1,128(v0)
    2eb0:	24840004 	addiu	a0,a0,4
    2eb4:	14c5fff8 	bne	a2,a1,2e98 <send_packet+0xb0>
    2eb8:	00a01021 	move	v0,a1
    2ebc:	24040001 	li	a0,1
    2ec0:	3c062000 	lui	a2,0x2000
    2ec4:	34c20250 	ori	v0,a2,0x250
    2ec8:	8c430000 	lw	v1,0(v0)
    2ecc:	00000000 	nop
    2ed0:	1460fffd 	bnez	v1,2ec8 <send_packet+0xe0>
    2ed4:	00000000 	nop
    2ed8:	34c20300 	ori	v0,a2,0x300
    2edc:	8c430000 	lw	v1,0(v0)
    2ee0:	24020001 	li	v0,1
    2ee4:	10820028 	beq	a0,v0,2f88 <send_packet+0x1a0>
    2ee8:	ae030094 	sw	v1,148(s0)
    2eec:	34c50210 	ori	a1,a2,0x210
    2ef0:	34c30200 	ori	v1,a2,0x200
    2ef4:	26040078 	addiu	a0,s0,120
    2ef8:	2402000d 	li	v0,13
    2efc:	ac620000 	sw	v0,0(v1)
    2f00:	aca40000 	sw	a0,0(a1)
    2f04:	12200005 	beqz	s1,2f1c <send_packet+0x134>
    2f08:	3c022000 	lui	v0,0x2000
    2f0c:	34430215 	ori	v1,v0,0x215
    2f10:	34420205 	ori	v0,v0,0x205
    2f14:	ac510000 	sw	s1,0(v0)
    2f18:	ac720000 	sw	s2,0(v1)
    2f1c:	3c022000 	lui	v0,0x2000
    2f20:	34470230 	ori	a3,v0,0x230
    2f24:	24030001 	li	v1,1
    2f28:	34420220 	ori	v0,v0,0x220
    2f2c:	ac400000 	sw	zero,0(v0)
    2f30:	ace30000 	sw	v1,0(a3)
    2f34:	02002021 	move	a0,s0
    2f38:	02402821 	move	a1,s2
    2f3c:	02203021 	move	a2,s1
    2f40:	8fbf001c 	lw	ra,28(sp)
    2f44:	8fb20018 	lw	s2,24(sp)
    2f48:	8fb10014 	lw	s1,20(sp)
    2f4c:	8fb00010 	lw	s0,16(sp)
    2f50:	080017bc 	j	5ef0 <insert_CM_FIFO>
    2f54:	27bd0020 	addiu	sp,sp,32
    2f58:	8e020090 	lw	v0,144(s0)
    2f5c:	8e04007c 	lw	a0,124(s0)
    2f60:	30433f00 	andi	v1,v0,0x3f00
    2f64:	00031882 	srl	v1,v1,0x2
    2f68:	3042003f 	andi	v0,v0,0x3f
    2f6c:	00621825 	or	v1,v1,v0
    2f70:	00031c00 	sll	v1,v1,0x10
    2f74:	00641825 	or	v1,v1,a0
    2f78:	00002021 	move	a0,zero
    2f7c:	ae03007c 	sw	v1,124(s0)
    2f80:	08000bb0 	j	2ec0 <send_packet+0xd8>
    2f84:	ae030078 	sw	v1,120(s0)
    2f88:	00081100 	sll	v0,t0,0x4
    2f8c:	00081880 	sll	v1,t0,0x2
    2f90:	00621821 	addu	v1,v1,v0
    2f94:	000320c0 	sll	a0,v1,0x3
    2f98:	3c020005 	lui	v0,0x5
    2f9c:	00832023 	subu	a0,a0,v1
    2fa0:	2442a918 	addiu	v0,v0,-22248
    2fa4:	00822021 	addu	a0,a0,v0
    2fa8:	8c850088 	lw	a1,136(a0)
    2fac:	2402001f 	li	v0,31
    2fb0:	00451023 	subu	v0,v0,a1
    2fb4:	00021080 	sll	v0,v0,0x2
    2fb8:	02021021 	addu	v0,s0,v0
    2fbc:	34c40210 	ori	a0,a2,0x210
    2fc0:	24a5000c 	addiu	a1,a1,12
    2fc4:	34c30200 	ori	v1,a2,0x200
    2fc8:	ac650000 	sw	a1,0(v1)
    2fcc:	ac820000 	sw	v0,0(a0)
    2fd0:	08000bc1 	j	2f04 <send_packet+0x11c>
    2fd4:	00000000 	nop

00002fd8 <set_task_allocated>:
    2fd8:	8c870008 	lw	a3,8(a0)
    2fdc:	00000000 	nop
    2fe0:	18e0001c 	blez	a3,3054 <set_task_allocated+0x7c>
    2fe4:	00801821 	move	v1,a0
    2fe8:	00004821 	move	t1,zero
    2fec:	00003021 	move	a2,zero
    2ff0:	08000c06 	j	3018 <set_task_allocated+0x40>
    2ff4:	24080002 	li	t0,2
    2ff8:	8c620034 	lw	v0,52(v1)
    2ffc:	00000000 	nop
    3000:	10480012 	beq	v0,t0,304c <set_task_allocated+0x74>
    3004:	00000000 	nop
    3008:	24c60001 	addiu	a2,a2,1
    300c:	00c7102a 	slt	v0,a2,a3
    3010:	1040000c 	beqz	v0,3044 <set_task_allocated+0x6c>
    3014:	24630078 	addiu	v1,v1,120
    3018:	8c620014 	lw	v0,20(v1)
    301c:	00000000 	nop
    3020:	1445fff5 	bne	v0,a1,2ff8 <set_task_allocated+0x20>
    3024:	00000000 	nop
    3028:	ac680034 	sw	t0,52(v1)
    302c:	8c870008 	lw	a3,8(a0)
    3030:	24c60001 	addiu	a2,a2,1
    3034:	00c7102a 	slt	v0,a2,a3
    3038:	25290001 	addiu	t1,t1,1
    303c:	1440fff6 	bnez	v0,3018 <set_task_allocated+0x40>
    3040:	24630078 	addiu	v1,v1,120
    3044:	03e00008 	jr	ra
    3048:	01201021 	move	v0,t1
    304c:	08000c02 	j	3008 <set_task_allocated+0x30>
    3050:	25290001 	addiu	t1,t1,1
    3054:	00004821 	move	t1,zero
    3058:	03e00008 	jr	ra
    305c:	01201021 	move	v0,t1

00003060 <initialize_applications>:
    3060:	3c020005 	lui	v0,0x5
    3064:	3c030005 	lui	v1,0x5
    3068:	244291c8 	addiu	v0,v0,-28216
    306c:	2463a17c 	addiu	v1,v1,-24196
    3070:	2405ffff 	li	a1,-1
    3074:	24040002 	li	a0,2
    3078:	ac450000 	sw	a1,0(v0)
    307c:	ac400008 	sw	zero,8(v0)
    3080:	ac440004 	sw	a0,4(v0)
    3084:	ac40000c 	sw	zero,12(v0)
    3088:	ac400010 	sw	zero,16(v0)
    308c:	2442010c 	addiu	v0,v0,268
    3090:	1443fff9 	bne	v0,v1,3078 <initialize_applications+0x18>
    3094:	00000000 	nop
    3098:	03e00008 	jr	ra
    309c:	00000000 	nop

000030a0 <add_migrations>:
    30a0:	3c020005 	lui	v0,0x5
    30a4:	244591c8 	addiu	a1,v0,-28216
    30a8:	00001821 	move	v1,zero
    30ac:	2407000f 	li	a3,15
    30b0:	00a03021 	move	a2,a1
    30b4:	8ca20000 	lw	v0,0(a1)
    30b8:	24630001 	addiu	v1,v1,1
    30bc:	10440005 	beq	v0,a0,30d4 <add_migrations+0x34>
    30c0:	24a5010c 	addiu	a1,a1,268
    30c4:	1467fffb 	bne	v1,a3,30b4 <add_migrations+0x14>
    30c8:	24c6010c 	addiu	a2,a2,268
    30cc:	03e00008 	jr	ra
    30d0:	2402ffff 	li	v0,-1
    30d4:	8cc20010 	lw	v0,16(a2)
    30d8:	00000000 	nop
    30dc:	24420001 	addiu	v0,v0,1
    30e0:	03e00008 	jr	ra
    30e4:	acc20010 	sw	v0,16(a2)

000030e8 <sub_migrations>:
    30e8:	3c020005 	lui	v0,0x5
    30ec:	244591c8 	addiu	a1,v0,-28216
    30f0:	00001821 	move	v1,zero
    30f4:	2407000f 	li	a3,15
    30f8:	00a03021 	move	a2,a1
    30fc:	8ca20000 	lw	v0,0(a1)
    3100:	24630001 	addiu	v1,v1,1
    3104:	10440005 	beq	v0,a0,311c <sub_migrations+0x34>
    3108:	24a5010c 	addiu	a1,a1,268
    310c:	1467fffb 	bne	v1,a3,30fc <sub_migrations+0x14>
    3110:	24c6010c 	addiu	a2,a2,268
    3114:	03e00008 	jr	ra
    3118:	2402ffff 	li	v0,-1
    311c:	8cc20010 	lw	v0,16(a2)
    3120:	00000000 	nop
    3124:	2442ffff 	addiu	v0,v0,-1
    3128:	03e00008 	jr	ra
    312c:	acc20010 	sw	v0,16(a2)

00003130 <get_next_pending_app>:
    3130:	3c020005 	lui	v0,0x5
    3134:	3c030005 	lui	v1,0x5
    3138:	27bdffe8 	addiu	sp,sp,-24
    313c:	244491cc 	addiu	a0,v0,-28212
    3140:	2467a180 	addiu	a3,v1,-24192
    3144:	00002821 	move	a1,zero
    3148:	24060003 	li	a2,3
    314c:	08000c58 	j	3160 <get_next_pending_app+0x30>
    3150:	afbf0010 	sw	ra,16(sp)
    3154:	2484010c 	addiu	a0,a0,268
    3158:	10870011 	beq	a0,a3,31a0 <get_next_pending_app+0x70>
    315c:	00000000 	nop
    3160:	8c820000 	lw	v0,0(a0)
    3164:	00000000 	nop
    3168:	1446fffa 	bne	v0,a2,3154 <get_next_pending_app+0x24>
    316c:	00000000 	nop
    3170:	10a00007 	beqz	a1,3190 <get_next_pending_app+0x60>
    3174:	00000000 	nop
    3178:	8ca20000 	lw	v0,0(a1)
    317c:	8c83fffc 	lw	v1,-4(a0)
    3180:	00000000 	nop
    3184:	0062102a 	slt	v0,v1,v0
    3188:	1040fff2 	beqz	v0,3154 <get_next_pending_app+0x24>
    318c:	00000000 	nop
    3190:	2485fffc 	addiu	a1,a0,-4
    3194:	2484010c 	addiu	a0,a0,268
    3198:	1487fff1 	bne	a0,a3,3160 <get_next_pending_app+0x30>
    319c:	00000000 	nop
    31a0:	10a00005 	beqz	a1,31b8 <get_next_pending_app+0x88>
    31a4:	00a01021 	move	v0,a1
    31a8:	8fbf0010 	lw	ra,16(sp)
    31ac:	00000000 	nop
    31b0:	03e00008 	jr	ra
    31b4:	27bd0018 	addiu	sp,sp,24
    31b8:	3c040001 	lui	a0,0x1
    31bc:	0c00094a 	jal	2528 <puts>
    31c0:	24848818 	addiu	a0,a0,-30696
    31c4:	08000c71 	j	31c4 <get_next_pending_app+0x94>
    31c8:	00000000 	nop

000031cc <get_task_ptr>:
    31cc:	27bdffe8 	addiu	sp,sp,-24
    31d0:	afb00010 	sw	s0,16(sp)
    31d4:	afbf0014 	sw	ra,20(sp)
    31d8:	8c860008 	lw	a2,8(a0)
    31dc:	00000000 	nop
    31e0:	18c0000e 	blez	a2,321c <get_task_ptr+0x50>
    31e4:	00a08021 	move	s0,a1
    31e8:	8c820014 	lw	v0,20(a0)
    31ec:	00000000 	nop
    31f0:	10a20016 	beq	a1,v0,324c <get_task_ptr+0x80>
    31f4:	00802821 	move	a1,a0
    31f8:	08000c84 	j	3210 <get_task_ptr+0x44>
    31fc:	00001821 	move	v1,zero
    3200:	8ca2008c 	lw	v0,140(a1)
    3204:	00000000 	nop
    3208:	12020011 	beq	s0,v0,3250 <get_task_ptr+0x84>
    320c:	24a50078 	addiu	a1,a1,120
    3210:	24630001 	addiu	v1,v1,1
    3214:	1466fffa 	bne	v1,a2,3200 <get_task_ptr+0x34>
    3218:	00000000 	nop
    321c:	3c040001 	lui	a0,0x1
    3220:	0c00094a 	jal	2528 <puts>
    3224:	24848840 	addiu	a0,a0,-30656
    3228:	0c000975 	jal	25d4 <itoa>
    322c:	02002021 	move	a0,s0
    3230:	0c00094a 	jal	2528 <puts>
    3234:	00402021 	move	a0,v0
    3238:	3c040001 	lui	a0,0x1
    323c:	0c00094a 	jal	2528 <puts>
    3240:	248489ac 	addiu	a0,a0,-30292
    3244:	08000c91 	j	3244 <get_task_ptr+0x78>
    3248:	00000000 	nop
    324c:	00001821 	move	v1,zero
    3250:	000311c0 	sll	v0,v1,0x7
    3254:	000318c0 	sll	v1,v1,0x3
    3258:	00431023 	subu	v0,v0,v1
    325c:	00441021 	addu	v0,v0,a0
    3260:	8fbf0014 	lw	ra,20(sp)
    3264:	8fb00010 	lw	s0,16(sp)
    3268:	24420014 	addiu	v0,v0,20
    326c:	03e00008 	jr	ra
    3270:	27bd0018 	addiu	sp,sp,24

00003274 <set_task_terminated>:
    3274:	27bdffe8 	addiu	sp,sp,-24
    3278:	afb00010 	sw	s0,16(sp)
    327c:	afbf0014 	sw	ra,20(sp)
    3280:	0c000c73 	jal	31cc <get_task_ptr>
    3284:	00808021 	move	s0,a0
    3288:	00401821 	move	v1,v0
    328c:	8c420020 	lw	v0,32(v0)
    3290:	24040004 	li	a0,4
    3294:	10440006 	beq	v0,a0,32b0 <set_task_terminated+0x3c>
    3298:	00000000 	nop
    329c:	8e02000c 	lw	v0,12(s0)
    32a0:	00000000 	nop
    32a4:	24420001 	addiu	v0,v0,1
    32a8:	ae02000c 	sw	v0,12(s0)
    32ac:	ac640020 	sw	a0,32(v1)
    32b0:	8fbf0014 	lw	ra,20(sp)
    32b4:	8fb00010 	lw	s0,16(sp)
    32b8:	03e00008 	jr	ra
    32bc:	27bd0018 	addiu	sp,sp,24

000032c0 <get_application_ptr>:
    32c0:	3c020005 	lui	v0,0x5
    32c4:	27bdffe8 	addiu	sp,sp,-24
    32c8:	244591c8 	addiu	a1,v0,-28216
    32cc:	afb00010 	sw	s0,16(sp)
    32d0:	afbf0014 	sw	ra,20(sp)
    32d4:	00808021 	move	s0,a0
    32d8:	00001821 	move	v1,zero
    32dc:	2406000f 	li	a2,15
    32e0:	00a02021 	move	a0,a1
    32e4:	8ca20000 	lw	v0,0(a1)
    32e8:	24630001 	addiu	v1,v1,1
    32ec:	12020012 	beq	s0,v0,3338 <get_application_ptr+0x78>
    32f0:	24a5010c 	addiu	a1,a1,268
    32f4:	1466fffb 	bne	v1,a2,32e4 <get_application_ptr+0x24>
    32f8:	2484010c 	addiu	a0,a0,268
    32fc:	3c040001 	lui	a0,0x1
    3300:	0c00094a 	jal	2528 <puts>
    3304:	24848858 	addiu	a0,a0,-30632
    3308:	0c000975 	jal	25d4 <itoa>
    330c:	02002021 	move	a0,s0
    3310:	0c00094a 	jal	2528 <puts>
    3314:	00402021 	move	a0,v0
    3318:	3c040001 	lui	a0,0x1
    331c:	0c00094a 	jal	2528 <puts>
    3320:	248489ac 	addiu	a0,a0,-30292
    3324:	8fbf0014 	lw	ra,20(sp)
    3328:	8fb00010 	lw	s0,16(sp)
    332c:	00001021 	move	v0,zero
    3330:	03e00008 	jr	ra
    3334:	27bd0018 	addiu	sp,sp,24
    3338:	8fbf0014 	lw	ra,20(sp)
    333c:	8fb00010 	lw	s0,16(sp)
    3340:	00801021 	move	v0,a0
    3344:	03e00008 	jr	ra
    3348:	27bd0018 	addiu	sp,sp,24

0000334c <remove_application>:
    334c:	27bdffe8 	addiu	sp,sp,-24
    3350:	afbf0010 	sw	ra,16(sp)
    3354:	0c000cb0 	jal	32c0 <get_application_ptr>
    3358:	00000000 	nop
    335c:	2403ffff 	li	v1,-1
    3360:	24040002 	li	a0,2
    3364:	ac430000 	sw	v1,0(v0)
    3368:	ac440004 	sw	a0,4(v0)
    336c:	ac40000c 	sw	zero,12(v0)
    3370:	ac400008 	sw	zero,8(v0)
    3374:	8fbf0010 	lw	ra,16(sp)
    3378:	00000000 	nop
    337c:	03e00008 	jr	ra
    3380:	27bd0018 	addiu	sp,sp,24

00003384 <read_and_create_application>:
    3384:	27bdffd8 	addiu	sp,sp,-40
    3388:	afb1001c 	sw	s1,28(sp)
    338c:	00808821 	move	s1,a0
    3390:	2404ffff 	li	a0,-1
    3394:	afbf0024 	sw	ra,36(sp)
    3398:	afb20020 	sw	s2,32(sp)
    339c:	afb00018 	sw	s0,24(sp)
    33a0:	0c000cb0 	jal	32c0 <get_application_ptr>
    33a4:	00a09021 	move	s2,a1
    33a8:	3c040001 	lui	a0,0x1
    33ac:	00408021 	move	s0,v0
    33b0:	24848878 	addiu	a0,a0,-30600
    33b4:	0c00094a 	jal	2528 <puts>
    33b8:	ac510000 	sw	s1,0(v0)
    33bc:	8e040000 	lw	a0,0(s0)
    33c0:	0c000975 	jal	25d4 <itoa>
    33c4:	00000000 	nop
    33c8:	0c00094a 	jal	2528 <puts>
    33cc:	00402021 	move	a0,v0
    33d0:	3c040001 	lui	a0,0x1
    33d4:	0c00094a 	jal	2528 <puts>
    33d8:	248489ac 	addiu	a0,a0,-30292
    33dc:	8e430000 	lw	v1,0(s2)
    33e0:	00000000 	nop
    33e4:	04600045 	bltz	v1,34fc <read_and_create_application+0x178>
    33e8:	ae030008 	sw	v1,8(s0)
    33ec:	ae000104 	sw	zero,260(s0)
    33f0:	8e020008 	lw	v0,8(s0)
    33f4:	00000000 	nop
    33f8:	1840003a 	blez	v0,34e4 <read_and_create_application+0x160>
    33fc:	02001021 	move	v0,s0
    3400:	26450004 	addiu	a1,s2,4
    3404:	00115a00 	sll	t3,s1,0x8
    3408:	00006021 	move	t4,zero
    340c:	240affff 	li	t2,-1
    3410:	8ca30000 	lw	v1,0(a1)
    3414:	24a90068 	addiu	t1,a1,104
    3418:	afa30010 	sw	v1,16(sp)
    341c:	8fa20010 	lw	v0,16(sp)
    3420:	24a80018 	addiu	t0,a1,24
    3424:	304200ff 	andi	v0,v0,0xff
    3428:	afa20010 	sw	v0,16(sp)
    342c:	8fa30010 	lw	v1,16(sp)
    3430:	8ca20004 	lw	v0,4(a1)
    3434:	000321c0 	sll	a0,v1,0x7
    3438:	000318c0 	sll	v1,v1,0x3
    343c:	00832023 	subu	a0,a0,v1
    3440:	24840010 	addiu	a0,a0,16
    3444:	02042021 	addu	a0,s0,a0
    3448:	24870004 	addiu	a3,a0,4
    344c:	ace20004 	sw	v0,4(a3)
    3450:	8ca30008 	lw	v1,8(a1)
    3454:	00e03021 	move	a2,a3
    3458:	ace30008 	sw	v1,8(a3)
    345c:	8ca2000c 	lw	v0,12(a1)
    3460:	00000000 	nop
    3464:	ace2000c 	sw	v0,12(a3)
    3468:	8ca30010 	lw	v1,16(a1)
    346c:	acea0014 	sw	t2,20(a3)
    3470:	ace30010 	sw	v1,16(a3)
    3474:	ace00024 	sw	zero,36(a3)
    3478:	8ca30014 	lw	v1,20(a1)
    347c:	8fa20010 	lw	v0,16(sp)
    3480:	ace30018 	sw	v1,24(a3)
    3484:	01621025 	or	v0,t3,v0
    3488:	ac820004 	sw	v0,4(a0)
    348c:	acea001c 	sw	t2,28(a3)
    3490:	8d020000 	lw	v0,0(t0)
    3494:	00000000 	nop
    3498:	01621025 	or	v0,t3,v0
    349c:	acc20028 	sw	v0,40(a2)
    34a0:	8d030004 	lw	v1,4(t0)
    34a4:	25080008 	addiu	t0,t0,8
    34a8:	acc3002c 	sw	v1,44(a2)
    34ac:	104a0005 	beq	v0,t2,34c4 <read_and_create_application+0x140>
    34b0:	24c60008 	addiu	a2,a2,8
    34b4:	8ce20024 	lw	v0,36(a3)
    34b8:	00000000 	nop
    34bc:	24420001 	addiu	v0,v0,1
    34c0:	ace20024 	sw	v0,36(a3)
    34c4:	1509fff2 	bne	t0,t1,3490 <read_and_create_application+0x10c>
    34c8:	00000000 	nop
    34cc:	8e020008 	lw	v0,8(s0)
    34d0:	258c0001 	addiu	t4,t4,1
    34d4:	0182102a 	slt	v0,t4,v0
    34d8:	1440ffcd 	bnez	v0,3410 <read_and_create_application+0x8c>
    34dc:	01002821 	move	a1,t0
    34e0:	02001021 	move	v0,s0
    34e4:	8fbf0024 	lw	ra,36(sp)
    34e8:	8fb20020 	lw	s2,32(sp)
    34ec:	8fb1001c 	lw	s1,28(sp)
    34f0:	8fb00018 	lw	s0,24(sp)
    34f4:	03e00008 	jr	ra
    34f8:	27bd0028 	addiu	sp,sp,40
    34fc:	3c027fff 	lui	v0,0x7fff
    3500:	3442ffff 	ori	v0,v0,0xffff
    3504:	00621024 	and	v0,v1,v0
    3508:	24030001 	li	v1,1
    350c:	ae020008 	sw	v0,8(s0)
    3510:	08000cfc 	j	33f0 <read_and_create_application+0x6c>
    3514:	ae030104 	sw	v1,260(s0)

00003518 <change_task_location_TCB>:
    3518:	27bdffe0 	addiu	sp,sp,-32
    351c:	afb00010 	sw	s0,16(sp)
    3520:	00808021 	move	s0,a0
    3524:	00042203 	sra	a0,a0,0x8
    3528:	afb10014 	sw	s1,20(sp)
    352c:	afbf0018 	sw	ra,24(sp)
    3530:	0c000cb0 	jal	32c0 <get_application_ptr>
    3534:	00c08821 	move	s1,a2
    3538:	8c450008 	lw	a1,8(v0)
    353c:	00000000 	nop
    3540:	18a00011 	blez	a1,3588 <change_task_location_TCB+0x70>
    3544:	00403021 	move	a2,v0
    3548:	00401821 	move	v1,v0
    354c:	08000d58 	j	3560 <change_task_location_TCB+0x48>
    3550:	00002021 	move	a0,zero
    3554:	0085102a 	slt	v0,a0,a1
    3558:	1040000b 	beqz	v0,3588 <change_task_location_TCB+0x70>
    355c:	24630078 	addiu	v1,v1,120
    3560:	8c620014 	lw	v0,20(v1)
    3564:	00000000 	nop
    3568:	1602fffa 	bne	s0,v0,3554 <change_task_location_TCB+0x3c>
    356c:	24840001 	addiu	a0,a0,1
    3570:	ac710028 	sw	s1,40(v1)
    3574:	8cc50008 	lw	a1,8(a2)
    3578:	00000000 	nop
    357c:	0085102a 	slt	v0,a0,a1
    3580:	1440fff7 	bnez	v0,3560 <change_task_location_TCB+0x48>
    3584:	24630078 	addiu	v1,v1,120
    3588:	8fbf0018 	lw	ra,24(sp)
    358c:	8fb10014 	lw	s1,20(sp)
    3590:	8fb00010 	lw	s0,16(sp)
    3594:	03e00008 	jr	ra
    3598:	27bd0020 	addiu	sp,sp,32

0000359c <set_task_migrated>:
    359c:	27bdffe0 	addiu	sp,sp,-32
    35a0:	afb00010 	sw	s0,16(sp)
    35a4:	00808021 	move	s0,a0
    35a8:	00042203 	sra	a0,a0,0x8
    35ac:	afbf0018 	sw	ra,24(sp)
    35b0:	afb10014 	sw	s1,20(sp)
    35b4:	0c000cb0 	jal	32c0 <get_application_ptr>
    35b8:	00a08821 	move	s1,a1
    35bc:	00402021 	move	a0,v0
    35c0:	0c000c73 	jal	31cc <get_task_ptr>
    35c4:	02002821 	move	a1,s0
    35c8:	24030003 	li	v1,3
    35cc:	ac510014 	sw	s1,20(v0)
    35d0:	ac430020 	sw	v1,32(v0)
    35d4:	8fbf0018 	lw	ra,24(sp)
    35d8:	8fb10014 	lw	s1,20(sp)
    35dc:	8fb00010 	lw	s0,16(sp)
    35e0:	03e00008 	jr	ra
    35e4:	27bd0020 	addiu	sp,sp,32

000035e8 <set_task_migrating>:
    35e8:	27bdffe8 	addiu	sp,sp,-24
    35ec:	afb00010 	sw	s0,16(sp)
    35f0:	00808021 	move	s0,a0
    35f4:	afbf0014 	sw	ra,20(sp)
    35f8:	0c000cb0 	jal	32c0 <get_application_ptr>
    35fc:	00042203 	sra	a0,a0,0x8
    3600:	00402021 	move	a0,v0
    3604:	0c000c73 	jal	31cc <get_task_ptr>
    3608:	02002821 	move	a1,s0
    360c:	24030005 	li	v1,5
    3610:	ac430020 	sw	v1,32(v0)
    3614:	8fbf0014 	lw	ra,20(sp)
    3618:	8fb00010 	lw	s0,16(sp)
    361c:	03e00008 	jr	ra
    3620:	27bd0018 	addiu	sp,sp,24

00003624 <print_tasks_location>:
    3624:	27bdffd0 	addiu	sp,sp,-48
    3628:	afb20018 	sw	s2,24(sp)
    362c:	afbf0028 	sw	ra,40(sp)
    3630:	afb50024 	sw	s5,36(sp)
    3634:	afb40020 	sw	s4,32(sp)
    3638:	afb3001c 	sw	s3,28(sp)
    363c:	afb10014 	sw	s1,20(sp)
    3640:	0c000cb0 	jal	32c0 <get_application_ptr>
    3644:	afb00010 	sw	s0,16(sp)
    3648:	00409021 	move	s2,v0
    364c:	8c420008 	lw	v0,8(v0)
    3650:	00000000 	nop
    3654:	1840001a 	blez	v0,36c0 <print_tasks_location+0x9c>
    3658:	02408021 	move	s0,s2
    365c:	00008821 	move	s1,zero
    3660:	3c150001 	lui	s5,0x1
    3664:	3c140001 	lui	s4,0x1
    3668:	3c130001 	lui	s3,0x1
    366c:	0c00094a 	jal	2528 <puts>
    3670:	26a48888 	addiu	a0,s5,-30584
    3674:	8e040014 	lw	a0,20(s0)
    3678:	0c000975 	jal	25d4 <itoa>
    367c:	26310001 	addiu	s1,s1,1
    3680:	0c00094a 	jal	2528 <puts>
    3684:	00402021 	move	a0,v0
    3688:	0c00094a 	jal	2528 <puts>
    368c:	26848898 	addiu	a0,s4,-30568
    3690:	8e040028 	lw	a0,40(s0)
    3694:	0c0009bc 	jal	26f0 <itoh>
    3698:	26100078 	addiu	s0,s0,120
    369c:	0c00094a 	jal	2528 <puts>
    36a0:	00402021 	move	a0,v0
    36a4:	0c00094a 	jal	2528 <puts>
    36a8:	266489ac 	addiu	a0,s3,-30292
    36ac:	8e430008 	lw	v1,8(s2)
    36b0:	00000000 	nop
    36b4:	0223182a 	slt	v1,s1,v1
    36b8:	1460ffec 	bnez	v1,366c <print_tasks_location+0x48>
    36bc:	00000000 	nop
    36c0:	8fbf0028 	lw	ra,40(sp)
    36c4:	8fb50024 	lw	s5,36(sp)
    36c8:	8fb40020 	lw	s4,32(sp)
    36cc:	8fb3001c 	lw	s3,28(sp)
    36d0:	8fb20018 	lw	s2,24(sp)
    36d4:	8fb10014 	lw	s1,20(sp)
    36d8:	8fb00010 	lw	s0,16(sp)
    36dc:	03e00008 	jr	ra
    36e0:	27bd0030 	addiu	sp,sp,48

000036e4 <reclustering_setup>:
    36e4:	00042880 	sll	a1,a0,0x2
    36e8:	00041940 	sll	v1,a0,0x5
    36ec:	3c020005 	lui	v0,0x5
    36f0:	00651823 	subu	v1,v1,a1
    36f4:	24428db8 	addiu	v0,v0,-29256
    36f8:	00621821 	addu	v1,v1,v0
    36fc:	8c620008 	lw	v0,8(v1)
    3700:	8c650010 	lw	a1,16(v1)
    3704:	8c67000c 	lw	a3,12(v1)
    3708:	8c660014 	lw	a2,20(v1)
    370c:	00a22823 	subu	a1,a1,v0
    3710:	00c73023 	subu	a2,a2,a3
    3714:	3c020005 	lui	v0,0x5
    3718:	24a50001 	addiu	a1,a1,1
    371c:	3c030005 	lui	v1,0x5
    3720:	24c60001 	addiu	a2,a2,1
    3724:	ac458e3c 	sw	a1,-29124(v0)
    3728:	3c020005 	lui	v0,0x5
    372c:	ac668e38 	sw	a2,-29128(v1)
    3730:	ac448e40 	sw	a0,-29120(v0)
    3734:	3c030005 	lui	v1,0x5
    3738:	3c020005 	lui	v0,0x5
    373c:	ac60a594 	sw	zero,-23148(v1)
    3740:	03e00008 	jr	ra
    3744:	ac408ebc 	sw	zero,-28996(v0)

00003748 <is_reclustering_NOT_active>:
    3748:	3c030005 	lui	v1,0x5
    374c:	8c62a594 	lw	v0,-23148(v1)
    3750:	03e00008 	jr	ra
    3754:	2c420001 	sltiu	v0,v0,1

00003758 <fires_reclustering_protocol>:
    3758:	27bdffe0 	addiu	sp,sp,-32
    375c:	afbf001c 	sw	ra,28(sp)
    3760:	afb20018 	sw	s2,24(sp)
    3764:	afb10014 	sw	s1,20(sp)
    3768:	afb00010 	sw	s0,16(sp)
    376c:	3c030005 	lui	v1,0x5
    3770:	8c628e40 	lw	v0,-29120(v1)
    3774:	3c040005 	lui	a0,0x5
    3778:	00021940 	sll	v1,v0,0x5
    377c:	00021080 	sll	v0,v0,0x2
    3780:	24858db8 	addiu	a1,a0,-29256
    3784:	00621823 	subu	v1,v1,v0
    3788:	00651821 	addu	v1,v1,a1
    378c:	8c828db8 	lw	v0,-29256(a0)
    3790:	8c720000 	lw	s2,0(v1)
    3794:	3c080005 	lui	t0,0x5
    3798:	00523023 	subu	a2,v0,s2
    379c:	3c0200ff 	lui	v0,0xff
    37a0:	2509a590 	addiu	t1,t0,-23152
    37a4:	2404ffff 	li	a0,-1
    37a8:	3442ffff 	ori	v0,v0,0xffff
    37ac:	ad240014 	sw	a0,20(t1)
    37b0:	ad22000c 	sw	v0,12(t1)
    37b4:	ad200008 	sw	zero,8(t1)
    37b8:	ad240010 	sw	a0,16(t1)
    37bc:	8c710004 	lw	s1,4(v1)
    37c0:	8ca30004 	lw	v1,4(a1)
    37c4:	04c0001f 	bltz	a2,3844 <fires_reclustering_protocol+0xec>
    37c8:	01203821 	move	a3,t1
    37cc:	28c20006 	slti	v0,a2,6
    37d0:	10400005 	beqz	v0,37e8 <fires_reclustering_protocol+0x90>
    37d4:	00711823 	subu	v1,v1,s1
    37d8:	0460001c 	bltz	v1,384c <fires_reclustering_protocol+0xf4>
    37dc:	28620006 	slti	v0,v1,6
    37e0:	14400016 	bnez	v0,383c <fires_reclustering_protocol+0xe4>
    37e4:	24020001 	li	v0,1
    37e8:	8d220008 	lw	v0,8(t1)
    37ec:	8d03a590 	lw	v1,-23152(t0)
    37f0:	2442ffff 	addiu	v0,v0,-1
    37f4:	ad220008 	sw	v0,8(t1)
    37f8:	8c700000 	lw	s0,0(v1)
    37fc:	0c000946 	jal	2518 <get_net_address>
    3800:	00000000 	nop
    3804:	00103903 	sra	a3,s0,0x4
    3808:	00123200 	sll	a2,s2,0x8
    380c:	3210000f 	andi	s0,s0,0xf
    3810:	30e70030 	andi	a3,a3,0x30
    3814:	00d13025 	or	a2,a2,s1
    3818:	00f03825 	or	a3,a3,s0
    381c:	8fbf001c 	lw	ra,28(sp)
    3820:	8fb20018 	lw	s2,24(sp)
    3824:	8fb10014 	lw	s1,20(sp)
    3828:	8fb00010 	lw	s0,16(sp)
    382c:	00402821 	move	a1,v0
    3830:	24040013 	li	a0,19
    3834:	08001546 	j	5518 <Seek>
    3838:	27bd0020 	addiu	sp,sp,32
    383c:	08000dfa 	j	37e8 <fires_reclustering_protocol+0x90>
    3840:	ace20008 	sw	v0,8(a3)
    3844:	08000df3 	j	37cc <fires_reclustering_protocol+0x74>
    3848:	00063023 	negu	a2,a2
    384c:	00031823 	negu	v1,v1
    3850:	28620006 	slti	v0,v1,6
    3854:	1040ffe4 	beqz	v0,37e8 <fires_reclustering_protocol+0x90>
    3858:	24020001 	li	v0,1
    385c:	08000dfa 	j	37e8 <fires_reclustering_protocol+0x90>
    3860:	ace20008 	sw	v0,8(a3)

00003864 <reclustering_next_task>:
    3864:	27bdffe8 	addiu	sp,sp,-24
    3868:	afbf0010 	sw	ra,16(sp)
    386c:	8c870008 	lw	a3,8(a0)
    3870:	00000000 	nop
    3874:	18e0000e 	blez	a3,38b0 <reclustering_next_task+0x4c>
    3878:	2402ffff 	li	v0,-1
    387c:	8c830028 	lw	v1,40(a0)
    3880:	00000000 	nop
    3884:	10620020 	beq	v1,v0,3908 <reclustering_next_task+0xa4>
    3888:	00802821 	move	a1,a0
    388c:	08000e29 	j	38a4 <reclustering_next_task+0x40>
    3890:	00003021 	move	a2,zero
    3894:	8ca300a0 	lw	v1,160(a1)
    3898:	00000000 	nop
    389c:	10620008 	beq	v1,v0,38c0 <reclustering_next_task+0x5c>
    38a0:	24a50078 	addiu	a1,a1,120
    38a4:	24c60001 	addiu	a2,a2,1
    38a8:	14c7fffa 	bne	a2,a3,3894 <reclustering_next_task+0x30>
    38ac:	2402ffff 	li	v0,-1
    38b0:	8fbf0010 	lw	ra,16(sp)
    38b4:	24020001 	li	v0,1
    38b8:	03e00008 	jr	ra
    38bc:	27bd0018 	addiu	sp,sp,24
    38c0:	00c01821 	move	v1,a2
    38c4:	000311c0 	sll	v0,v1,0x7
    38c8:	000318c0 	sll	v1,v1,0x3
    38cc:	00431023 	subu	v0,v0,v1
    38d0:	00441021 	addu	v0,v0,a0
    38d4:	24450014 	addiu	a1,v0,20
    38d8:	10a0fff5 	beqz	a1,38b0 <reclustering_next_task+0x4c>
    38dc:	3c020005 	lui	v0,0x5
    38e0:	2444a590 	addiu	a0,v0,-23152
    38e4:	24030001 	li	v1,1
    38e8:	ac830018 	sw	v1,24(a0)
    38ec:	ac830004 	sw	v1,4(a0)
    38f0:	0c000dd6 	jal	3758 <fires_reclustering_protocol>
    38f4:	ac45a590 	sw	a1,-23152(v0)
    38f8:	8fbf0010 	lw	ra,16(sp)
    38fc:	00001021 	move	v0,zero
    3900:	03e00008 	jr	ra
    3904:	27bd0018 	addiu	sp,sp,24
    3908:	08000e31 	j	38c4 <reclustering_next_task+0x60>
    390c:	00001821 	move	v1,zero

00003910 <handle_reclustering_release_from_seek>:
    3910:	27bdffe0 	addiu	sp,sp,-32
    3914:	afb20018 	sw	s2,24(sp)
    3918:	afb10014 	sw	s1,20(sp)
    391c:	afbf001c 	sw	ra,28(sp)
    3920:	afb00010 	sw	s0,16(sp)
    3924:	3c120005 	lui	s2,0x5
    3928:	8e438e40 	lw	v1,-29120(s2)
    392c:	3c020005 	lui	v0,0x5
    3930:	00033940 	sll	a3,v1,0x5
    3934:	00031880 	sll	v1,v1,0x2
    3938:	24428db8 	addiu	v0,v0,-29256
    393c:	00e33823 	subu	a3,a3,v1
    3940:	00e23821 	addu	a3,a3,v0
    3944:	8ce20000 	lw	v0,0(a3)
    3948:	308800ff 	andi	t0,a0,0xff
    394c:	00042203 	sra	a0,a0,0x8
    3950:	00821023 	subu	v0,a0,v0
    3954:	8ce40004 	lw	a0,4(a3)
    3958:	04400022 	bltz	v0,39e4 <handle_reclustering_release_from_seek+0xd4>
    395c:	00a08821 	move	s1,a1
    3960:	28420006 	slti	v0,v0,6
    3964:	10400019 	beqz	v0,39cc <handle_reclustering_release_from_seek+0xbc>
    3968:	01042823 	subu	a1,t0,a0
    396c:	30c20030 	andi	v0,a2,0x30
    3970:	00021100 	sll	v0,v0,0x4
    3974:	30c3000f 	andi	v1,a2,0xf
    3978:	00438025 	or	s0,v0,v1
    397c:	04a0001b 	bltz	a1,39ec <handle_reclustering_release_from_seek+0xdc>
    3980:	02002021 	move	a0,s0
    3984:	28a20006 	slti	v0,a1,6
    3988:	10400010 	beqz	v0,39cc <handle_reclustering_release_from_seek+0xbc>
    398c:	00000000 	nop
    3990:	0c0011be 	jal	46f8 <get_task_location>
    3994:	00000000 	nop
    3998:	00401821 	move	v1,v0
    399c:	2402ffff 	li	v0,-1
    39a0:	1062000a 	beq	v1,v0,39cc <handle_reclustering_release_from_seek+0xbc>
    39a4:	00602821 	move	a1,v1
    39a8:	10710008 	beq	v1,s1,39cc <handle_reclustering_release_from_seek+0xbc>
    39ac:	02003021 	move	a2,s0
    39b0:	8e448e40 	lw	a0,-29120(s2)
    39b4:	8fbf001c 	lw	ra,28(sp)
    39b8:	8fb20018 	lw	s2,24(sp)
    39bc:	8fb10014 	lw	s1,20(sp)
    39c0:	8fb00010 	lw	s0,16(sp)
    39c4:	080014e3 	j	538c <page_released>
    39c8:	27bd0020 	addiu	sp,sp,32
    39cc:	8fbf001c 	lw	ra,28(sp)
    39d0:	8fb20018 	lw	s2,24(sp)
    39d4:	8fb10014 	lw	s1,20(sp)
    39d8:	8fb00010 	lw	s0,16(sp)
    39dc:	03e00008 	jr	ra
    39e0:	27bd0020 	addiu	sp,sp,32
    39e4:	08000e58 	j	3960 <handle_reclustering_release_from_seek+0x50>
    39e8:	00021023 	negu	v0,v0
    39ec:	00052823 	negu	a1,a1
    39f0:	28a20006 	slti	v0,a1,6
    39f4:	1040fff5 	beqz	v0,39cc <handle_reclustering_release_from_seek+0xbc>
    39f8:	00000000 	nop
    39fc:	08000e64 	j	3990 <handle_reclustering_release_from_seek+0x80>
    3a00:	00000000 	nop

00003a04 <send_loan_proc_release>:
    3a04:	27bdffe0 	addiu	sp,sp,-32
    3a08:	afbf001c 	sw	ra,28(sp)
    3a0c:	afb20018 	sw	s2,24(sp)
    3a10:	afb10014 	sw	s1,20(sp)
    3a14:	00a09021 	move	s2,a1
    3a18:	00c08821 	move	s1,a2
    3a1c:	afb00010 	sw	s0,16(sp)
    3a20:	0c000aac 	jal	2ab0 <get_service_header_slot>
    3a24:	00808021 	move	s0,a0
    3a28:	24030090 	li	v1,144
    3a2c:	ac50007c 	sw	s0,124(v0)
    3a30:	ac430084 	sw	v1,132(v0)
    3a34:	ac510088 	sw	s1,136(v0)
    3a38:	ac52009c 	sw	s2,156(v0)
    3a3c:	8fbf001c 	lw	ra,28(sp)
    3a40:	8fb20018 	lw	s2,24(sp)
    3a44:	8fb10014 	lw	s1,20(sp)
    3a48:	8fb00010 	lw	s0,16(sp)
    3a4c:	00402021 	move	a0,v0
    3a50:	00002821 	move	a1,zero
    3a54:	00003021 	move	a2,zero
    3a58:	08000b7a 	j	2de8 <send_packet>
    3a5c:	27bd0020 	addiu	sp,sp,32

00003a60 <send_loan_proc_delivery>:
    3a60:	27bdffd8 	addiu	sp,sp,-40
    3a64:	afbf0020 	sw	ra,32(sp)
    3a68:	afb3001c 	sw	s3,28(sp)
    3a6c:	afb20018 	sw	s2,24(sp)
    3a70:	00c09821 	move	s3,a2
    3a74:	00a09021 	move	s2,a1
    3a78:	afb10014 	sw	s1,20(sp)
    3a7c:	afb00010 	sw	s0,16(sp)
    3a80:	00e08821 	move	s1,a3
    3a84:	0c000aac 	jal	2ab0 <get_service_header_slot>
    3a88:	00808021 	move	s0,a0
    3a8c:	24030200 	li	v1,512
    3a90:	ac50007c 	sw	s0,124(v0)
    3a94:	ac430084 	sw	v1,132(v0)
    3a98:	ac520088 	sw	s2,136(v0)
    3a9c:	ac51008c 	sw	s1,140(v0)
    3aa0:	ac53009c 	sw	s3,156(v0)
    3aa4:	8fbf0020 	lw	ra,32(sp)
    3aa8:	8fb3001c 	lw	s3,28(sp)
    3aac:	8fb20018 	lw	s2,24(sp)
    3ab0:	8fb10014 	lw	s1,20(sp)
    3ab4:	8fb00010 	lw	s0,16(sp)
    3ab8:	00402021 	move	a0,v0
    3abc:	00002821 	move	a1,zero
    3ac0:	00003021 	move	a2,zero
    3ac4:	08000b7a 	j	2de8 <send_packet>
    3ac8:	27bd0028 	addiu	sp,sp,40

00003acc <handle_reclustering>:
    3acc:	27bdffd8 	addiu	sp,sp,-40
    3ad0:	afb20018 	sw	s2,24(sp)
    3ad4:	afbf0020 	sw	ra,32(sp)
    3ad8:	afb3001c 	sw	s3,28(sp)
    3adc:	afb10014 	sw	s1,20(sp)
    3ae0:	afb00010 	sw	s0,16(sp)
    3ae4:	8c830084 	lw	v1,132(a0)
    3ae8:	24020190 	li	v0,400
    3aec:	1062000d 	beq	v1,v0,3b24 <handle_reclustering+0x58>
    3af0:	00809021 	move	s2,a0
    3af4:	24020200 	li	v0,512
    3af8:	10620030 	beq	v1,v0,3bbc <handle_reclustering+0xf0>
    3afc:	24020090 	li	v0,144
    3b00:	10620085 	beq	v1,v0,3d18 <handle_reclustering+0x24c>
    3b04:	3c020005 	lui	v0,0x5
    3b08:	8fbf0020 	lw	ra,32(sp)
    3b0c:	8fb3001c 	lw	s3,28(sp)
    3b10:	8fb20018 	lw	s2,24(sp)
    3b14:	8fb10014 	lw	s1,20(sp)
    3b18:	8fb00010 	lw	s0,16(sp)
    3b1c:	03e00008 	jr	ra
    3b20:	27bd0028 	addiu	sp,sp,40
    3b24:	3c110005 	lui	s1,0x5
    3b28:	8e238e40 	lw	v1,-29120(s1)
    3b2c:	3c020005 	lui	v0,0x5
    3b30:	00032140 	sll	a0,v1,0x5
    3b34:	00031880 	sll	v1,v1,0x2
    3b38:	00832023 	subu	a0,a0,v1
    3b3c:	24428db8 	addiu	v0,v0,-29256
    3b40:	00822021 	addu	a0,a0,v0
    3b44:	8c830018 	lw	v1,24(a0)
    3b48:	00000000 	nop
    3b4c:	18600085 	blez	v1,3d64 <handle_reclustering+0x298>
    3b50:	00002021 	move	a0,zero
    3b54:	8e450088 	lw	a1,136(s2)
    3b58:	0c0013a5 	jal	4e94 <map_task>
    3b5c:	00003021 	move	a2,zero
    3b60:	8e47009c 	lw	a3,156(s2)
    3b64:	00408021 	move	s0,v0
    3b68:	304400ff 	andi	a0,v0,0xff
    3b6c:	00101a03 	sra	v1,s0,0x8
    3b70:	00071202 	srl	v0,a3,0x8
    3b74:	30e700ff 	andi	a3,a3,0xff
    3b78:	8e450088 	lw	a1,136(s2)
    3b7c:	00e43821 	addu	a3,a3,a0
    3b80:	00431021 	addu	v0,v0,v1
    3b84:	8e440090 	lw	a0,144(s2)
    3b88:	02003021 	move	a2,s0
    3b8c:	0c000e98 	jal	3a60 <send_loan_proc_delivery>
    3b90:	00e23821 	addu	a3,a3,v0
    3b94:	8e248e40 	lw	a0,-29120(s1)
    3b98:	8e460088 	lw	a2,136(s2)
    3b9c:	02002821 	move	a1,s0
    3ba0:	8fbf0020 	lw	ra,32(sp)
    3ba4:	8fb3001c 	lw	s3,28(sp)
    3ba8:	8fb20018 	lw	s2,24(sp)
    3bac:	8fb10014 	lw	s1,20(sp)
    3bb0:	8fb00010 	lw	s0,16(sp)
    3bb4:	08001470 	j	51c0 <page_used>
    3bb8:	27bd0028 	addiu	sp,sp,40
    3bbc:	3c130005 	lui	s3,0x5
    3bc0:	2670a590 	addiu	s0,s3,-23152
    3bc4:	8e030008 	lw	v1,8(s0)
    3bc8:	8e02000c 	lw	v0,12(s0)
    3bcc:	2464ffff 	addiu	a0,v1,-1
    3bd0:	ae040008 	sw	a0,8(s0)
    3bd4:	8e43008c 	lw	v1,140(s2)
    3bd8:	00000000 	nop
    3bdc:	0062102b 	sltu	v0,v1,v0
    3be0:	14400057 	bnez	v0,3d40 <handle_reclustering+0x274>
    3be4:	00000000 	nop
    3be8:	1480ffc7 	bnez	a0,3b08 <handle_reclustering+0x3c>
    3bec:	00000000 	nop
    3bf0:	0c000946 	jal	2518 <get_net_address>
    3bf4:	00000000 	nop
    3bf8:	00402821 	move	a1,v0
    3bfc:	24040003 	li	a0,3
    3c00:	00003021 	move	a2,zero
    3c04:	0c001546 	jal	5518 <Seek>
    3c08:	00003821 	move	a3,zero
    3c0c:	8e030010 	lw	v1,16(s0)
    3c10:	2402ffff 	li	v0,-1
    3c14:	1062005e 	beq	v1,v0,3d90 <handle_reclustering+0x2c4>
    3c18:	3c040001 	lui	a0,0x1
    3c1c:	0c00094a 	jal	2528 <puts>
    3c20:	248488a4 	addiu	a0,a0,-30556
    3c24:	8e040010 	lw	a0,16(s0)
    3c28:	0c0009bc 	jal	26f0 <itoh>
    3c2c:	3c110001 	lui	s1,0x1
    3c30:	0c00094a 	jal	2528 <puts>
    3c34:	00402021 	move	a0,v0
    3c38:	3c040001 	lui	a0,0x1
    3c3c:	0c00094a 	jal	2528 <puts>
    3c40:	248488e0 	addiu	a0,a0,-30496
    3c44:	8e63a590 	lw	v1,-23152(s3)
    3c48:	00000000 	nop
    3c4c:	8c640000 	lw	a0,0(v1)
    3c50:	0c000975 	jal	25d4 <itoa>
    3c54:	00000000 	nop
    3c58:	0c00094a 	jal	2528 <puts>
    3c5c:	00402021 	move	a0,v0
    3c60:	0c00094a 	jal	2528 <puts>
    3c64:	262489ac 	addiu	a0,s1,-30292
    3c68:	8e64a590 	lw	a0,-23152(s3)
    3c6c:	8e030010 	lw	v1,16(s0)
    3c70:	ae000004 	sw	zero,4(s0)
    3c74:	ac830014 	sw	v1,20(a0)
    3c78:	8e020014 	lw	v0,20(s0)
    3c7c:	00000000 	nop
    3c80:	ac82001c 	sw	v0,28(a0)
    3c84:	8e500088 	lw	s0,136(s2)
    3c88:	0c000946 	jal	2518 <get_net_address>
    3c8c:	00000000 	nop
    3c90:	8e63a590 	lw	v1,-23152(s3)
    3c94:	00103902 	srl	a3,s0,0x4
    3c98:	8c660014 	lw	a2,20(v1)
    3c9c:	3210000f 	andi	s0,s0,0xf
    3ca0:	30e70030 	andi	a3,a3,0x30
    3ca4:	00f03825 	or	a3,a3,s0
    3ca8:	00402821 	move	a1,v0
    3cac:	0c001546 	jal	5518 <Seek>
    3cb0:	24040014 	li	a0,20
    3cb4:	8e62a590 	lw	v0,-23152(s3)
    3cb8:	00000000 	nop
    3cbc:	8c440000 	lw	a0,0(v0)
    3cc0:	0c000cb0 	jal	32c0 <get_application_ptr>
    3cc4:	00042203 	sra	a0,a0,0x8
    3cc8:	0c000946 	jal	2518 <get_net_address>
    3ccc:	00408021 	move	s0,v0
    3cd0:	00402821 	move	a1,v0
    3cd4:	00003021 	move	a2,zero
    3cd8:	00003821 	move	a3,zero
    3cdc:	0c001546 	jal	5518 <Seek>
    3ce0:	24040003 	li	a0,3
    3ce4:	3c040001 	lui	a0,0x1
    3ce8:	0c00094a 	jal	2528 <puts>
    3cec:	248488ec 	addiu	a0,a0,-30484
    3cf0:	0c00094a 	jal	2528 <puts>
    3cf4:	262489ac 	addiu	a0,s1,-30292
    3cf8:	02002021 	move	a0,s0
    3cfc:	8fbf0020 	lw	ra,32(sp)
    3d00:	8fb3001c 	lw	s3,28(sp)
    3d04:	8fb20018 	lw	s2,24(sp)
    3d08:	8fb10014 	lw	s1,20(sp)
    3d0c:	8fb00010 	lw	s0,16(sp)
    3d10:	08000e19 	j	3864 <reclustering_next_task>
    3d14:	27bd0028 	addiu	sp,sp,40
    3d18:	8e460088 	lw	a2,136(s2)
    3d1c:	8e45009c 	lw	a1,156(s2)
    3d20:	8c448e40 	lw	a0,-29120(v0)
    3d24:	8fbf0020 	lw	ra,32(sp)
    3d28:	8fb3001c 	lw	s3,28(sp)
    3d2c:	8fb20018 	lw	s2,24(sp)
    3d30:	8fb10014 	lw	s1,20(sp)
    3d34:	8fb00010 	lw	s0,16(sp)
    3d38:	080014e3 	j	538c <page_released>
    3d3c:	27bd0028 	addiu	sp,sp,40
    3d40:	ae03000c 	sw	v1,12(s0)
    3d44:	8e42009c 	lw	v0,156(s2)
    3d48:	00000000 	nop
    3d4c:	ae020010 	sw	v0,16(s0)
    3d50:	8e430090 	lw	v1,144(s2)
    3d54:	1480ff6c 	bnez	a0,3b08 <handle_reclustering+0x3c>
    3d58:	ae030014 	sw	v1,20(s0)
    3d5c:	08000efc 	j	3bf0 <handle_reclustering+0x124>
    3d60:	00000000 	nop
    3d64:	8e450088 	lw	a1,136(s2)
    3d68:	8e440090 	lw	a0,144(s2)
    3d6c:	8fbf0020 	lw	ra,32(sp)
    3d70:	8fb3001c 	lw	s3,28(sp)
    3d74:	8fb20018 	lw	s2,24(sp)
    3d78:	8fb10014 	lw	s1,20(sp)
    3d7c:	8fb00010 	lw	s0,16(sp)
    3d80:	2406ffff 	li	a2,-1
    3d84:	2407ffff 	li	a3,-1
    3d88:	08000e98 	j	3a60 <send_loan_proc_delivery>
    3d8c:	27bd0028 	addiu	sp,sp,40
    3d90:	3c040001 	lui	a0,0x1
    3d94:	8fbf0020 	lw	ra,32(sp)
    3d98:	8fb3001c 	lw	s3,28(sp)
    3d9c:	8fb20018 	lw	s2,24(sp)
    3da0:	8fb10014 	lw	s1,20(sp)
    3da4:	8fb00010 	lw	s0,16(sp)
    3da8:	248488f0 	addiu	a0,a0,-30480
    3dac:	0800094a 	j	2528 <puts>
    3db0:	27bd0028 	addiu	sp,sp,40

00003db4 <handle_reclustering_request_from_seek>:
    3db4:	27bdffd8 	addiu	sp,sp,-40
    3db8:	afb40020 	sw	s4,32(sp)
    3dbc:	afb3001c 	sw	s3,28(sp)
    3dc0:	afb10014 	sw	s1,20(sp)
    3dc4:	afbf0024 	sw	ra,36(sp)
    3dc8:	afb20018 	sw	s2,24(sp)
    3dcc:	afb00010 	sw	s0,16(sp)
    3dd0:	3c140005 	lui	s4,0x5
    3dd4:	8e838e40 	lw	v1,-29120(s4)
    3dd8:	3c020005 	lui	v0,0x5
    3ddc:	00033940 	sll	a3,v1,0x5
    3de0:	00031880 	sll	v1,v1,0x2
    3de4:	00e33823 	subu	a3,a3,v1
    3de8:	24428db8 	addiu	v0,v0,-29256
    3dec:	00e23821 	addu	a3,a3,v0
    3df0:	8ce30000 	lw	v1,0(a3)
    3df4:	00041203 	sra	v0,a0,0x8
    3df8:	00431023 	subu	v0,v0,v1
    3dfc:	00a09821 	move	s3,a1
    3e00:	00808821 	move	s1,a0
    3e04:	8ce50004 	lw	a1,4(a3)
    3e08:	04400032 	bltz	v0,3ed4 <handle_reclustering_request_from_seek+0x120>
    3e0c:	308800ff 	andi	t0,a0,0xff
    3e10:	28420006 	slti	v0,v0,6
    3e14:	10400009 	beqz	v0,3e3c <handle_reclustering_request_from_seek+0x88>
    3e18:	01054023 	subu	t0,t0,a1
    3e1c:	30c20030 	andi	v0,a2,0x30
    3e20:	00021100 	sll	v0,v0,0x4
    3e24:	30c3000f 	andi	v1,a2,0xf
    3e28:	0500002c 	bltz	t0,3edc <handle_reclustering_request_from_seek+0x128>
    3e2c:	00439025 	or	s2,v0,v1
    3e30:	29020006 	slti	v0,t0,6
    3e34:	14400009 	bnez	v0,3e5c <handle_reclustering_request_from_seek+0xa8>
    3e38:	00000000 	nop
    3e3c:	8fbf0024 	lw	ra,36(sp)
    3e40:	8fb40020 	lw	s4,32(sp)
    3e44:	8fb3001c 	lw	s3,28(sp)
    3e48:	8fb20018 	lw	s2,24(sp)
    3e4c:	8fb10014 	lw	s1,20(sp)
    3e50:	8fb00010 	lw	s0,16(sp)
    3e54:	03e00008 	jr	ra
    3e58:	27bd0028 	addiu	sp,sp,40
    3e5c:	8ce20018 	lw	v0,24(a3)
    3e60:	02402821 	move	a1,s2
    3e64:	00003021 	move	a2,zero
    3e68:	18400022 	blez	v0,3ef4 <handle_reclustering_request_from_seek+0x140>
    3e6c:	2407ffff 	li	a3,-1
    3e70:	0c0013a5 	jal	4e94 <map_task>
    3e74:	00002021 	move	a0,zero
    3e78:	00408021 	move	s0,v0
    3e7c:	00101a03 	sra	v1,s0,0x8
    3e80:	320400ff 	andi	a0,s0,0xff
    3e84:	326200ff 	andi	v0,s3,0xff
    3e88:	00133a03 	sra	a3,s3,0x8
    3e8c:	00441021 	addu	v0,v0,a0
    3e90:	00e33821 	addu	a3,a3,v1
    3e94:	02202021 	move	a0,s1
    3e98:	02402821 	move	a1,s2
    3e9c:	02003021 	move	a2,s0
    3ea0:	0c000e98 	jal	3a60 <send_loan_proc_delivery>
    3ea4:	00e23821 	addu	a3,a3,v0
    3ea8:	8e848e40 	lw	a0,-29120(s4)
    3eac:	02002821 	move	a1,s0
    3eb0:	02403021 	move	a2,s2
    3eb4:	8fbf0024 	lw	ra,36(sp)
    3eb8:	8fb40020 	lw	s4,32(sp)
    3ebc:	8fb3001c 	lw	s3,28(sp)
    3ec0:	8fb20018 	lw	s2,24(sp)
    3ec4:	8fb10014 	lw	s1,20(sp)
    3ec8:	8fb00010 	lw	s0,16(sp)
    3ecc:	08001470 	j	51c0 <page_used>
    3ed0:	27bd0028 	addiu	sp,sp,40
    3ed4:	08000f84 	j	3e10 <handle_reclustering_request_from_seek+0x5c>
    3ed8:	00021023 	negu	v0,v0
    3edc:	00084023 	negu	t0,t0
    3ee0:	29020006 	slti	v0,t0,6
    3ee4:	1040ffd5 	beqz	v0,3e3c <handle_reclustering_request_from_seek+0x88>
    3ee8:	00000000 	nop
    3eec:	08000f97 	j	3e5c <handle_reclustering_request_from_seek+0xa8>
    3ef0:	00000000 	nop
    3ef4:	8fbf0024 	lw	ra,36(sp)
    3ef8:	8fb40020 	lw	s4,32(sp)
    3efc:	8fb3001c 	lw	s3,28(sp)
    3f00:	8fb20018 	lw	s2,24(sp)
    3f04:	8fb10014 	lw	s1,20(sp)
    3f08:	8fb00010 	lw	s0,16(sp)
    3f0c:	2406ffff 	li	a2,-1
    3f10:	08000e98 	j	3a60 <send_loan_proc_delivery>
    3f14:	27bd0028 	addiu	sp,sp,40

00003f18 <send_loan_proc_request>:
    3f18:	27bdffe0 	addiu	sp,sp,-32
    3f1c:	afbf0018 	sw	ra,24(sp)
    3f20:	afb10014 	sw	s1,20(sp)
    3f24:	afb00010 	sw	s0,16(sp)
    3f28:	00a08821 	move	s1,a1
    3f2c:	0c000aac 	jal	2ab0 <get_service_header_slot>
    3f30:	00808021 	move	s0,a0
    3f34:	3c040005 	lui	a0,0x5
    3f38:	8c838e40 	lw	v1,-29120(a0)
    3f3c:	ac50007c 	sw	s0,124(v0)
    3f40:	00032940 	sll	a1,v1,0x5
    3f44:	00031880 	sll	v1,v1,0x2
    3f48:	00a32823 	subu	a1,a1,v1
    3f4c:	24030190 	li	v1,400
    3f50:	ac430084 	sw	v1,132(v0)
    3f54:	3c030005 	lui	v1,0x5
    3f58:	24638db8 	addiu	v1,v1,-29256
    3f5c:	ac510088 	sw	s1,136(v0)
    3f60:	00a32821 	addu	a1,a1,v1
    3f64:	8ca40000 	lw	a0,0(a1)
    3f68:	8ca30004 	lw	v1,4(a1)
    3f6c:	00042200 	sll	a0,a0,0x8
    3f70:	00832025 	or	a0,a0,v1
    3f74:	ac44009c 	sw	a0,156(v0)
    3f78:	8fbf0018 	lw	ra,24(sp)
    3f7c:	8fb10014 	lw	s1,20(sp)
    3f80:	8fb00010 	lw	s0,16(sp)
    3f84:	00402021 	move	a0,v0
    3f88:	00002821 	move	a1,zero
    3f8c:	00003021 	move	a2,zero
    3f90:	08000b7a 	j	2de8 <send_packet>
    3f94:	27bd0020 	addiu	sp,sp,32

00003f98 <init_new_task_list>:
    3f98:	3c020005 	lui	v0,0x5
    3f9c:	2403ffff 	li	v1,-1
    3fa0:	2444a5ac 	addiu	a0,v0,-23124
    3fa4:	ac830028 	sw	v1,40(a0)
    3fa8:	ac43a5ac 	sw	v1,-23124(v0)
    3fac:	03e00008 	jr	ra
    3fb0:	ac830014 	sw	v1,20(a0)

00003fb4 <get_next_new_task>:
    3fb4:	3c070005 	lui	a3,0x5
    3fb8:	8ce68ec8 	lw	a2,-28984(a3)
    3fbc:	3c050005 	lui	a1,0x5
    3fc0:	10c0000e 	beqz	a2,3ffc <get_next_new_task+0x48>
    3fc4:	00001021 	move	v0,zero
    3fc8:	8ca38ec0 	lw	v1,-28992(a1)
    3fcc:	24020002 	li	v0,2
    3fd0:	1062000c 	beq	v1,v0,4004 <get_next_new_task+0x50>
    3fd4:	24640001 	addiu	a0,v1,1
    3fd8:	aca48ec0 	sw	a0,-28992(a1)
    3fdc:	24c2ffff 	addiu	v0,a2,-1
    3fe0:	00032100 	sll	a0,v1,0x4
    3fe4:	ace28ec8 	sw	v0,-28984(a3)
    3fe8:	00031880 	sll	v1,v1,0x2
    3fec:	3c020005 	lui	v0,0x5
    3ff0:	00641821 	addu	v1,v1,a0
    3ff4:	2442a5ac 	addiu	v0,v0,-23124
    3ff8:	00621021 	addu	v0,v1,v0
    3ffc:	03e00008 	jr	ra
    4000:	00000000 	nop
    4004:	08000ff7 	j	3fdc <get_next_new_task+0x28>
    4008:	aca08ec0 	sw	zero,-28992(a1)

0000400c <add_new_task>:
    400c:	3c0a0005 	lui	t2,0x5
    4010:	27bdffe8 	addiu	sp,sp,-24
    4014:	8d438ec8 	lw	v1,-28984(t2)
    4018:	afbf0010 	sw	ra,16(sp)
    401c:	3c060005 	lui	a2,0x5
    4020:	24020003 	li	v0,3
    4024:	8cc58ec4 	lw	a1,-28988(a2)
    4028:	1062001e 	beq	v1,v0,40a4 <add_new_task+0x98>
    402c:	00804821 	move	t1,a0
    4030:	24020002 	li	v0,2
    4034:	10a20019 	beq	a1,v0,409c <add_new_task+0x90>
    4038:	24a20001 	addiu	v0,a1,1
    403c:	acc28ec4 	sw	v0,-28988(a2)
    4040:	00051100 	sll	v0,a1,0x4
    4044:	00051880 	sll	v1,a1,0x2
    4048:	8d448ec8 	lw	a0,-28984(t2)
    404c:	00621821 	addu	v1,v1,v0
    4050:	3c020005 	lui	v0,0x5
    4054:	8d250010 	lw	a1,16(t1)
    4058:	8d260000 	lw	a2,0(t1)
    405c:	8d270004 	lw	a3,4(t1)
    4060:	8d280008 	lw	t0,8(t1)
    4064:	2442a5ac 	addiu	v0,v0,-23124
    4068:	8d29000c 	lw	t1,12(t1)
    406c:	00621821 	addu	v1,v1,v0
    4070:	24840001 	addiu	a0,a0,1
    4074:	ac650010 	sw	a1,16(v1)
    4078:	ad448ec8 	sw	a0,-28984(t2)
    407c:	ac660000 	sw	a2,0(v1)
    4080:	ac670004 	sw	a3,4(v1)
    4084:	ac680008 	sw	t0,8(v1)
    4088:	ac69000c 	sw	t1,12(v1)
    408c:	8fbf0010 	lw	ra,16(sp)
    4090:	00000000 	nop
    4094:	03e00008 	jr	ra
    4098:	27bd0018 	addiu	sp,sp,24
    409c:	08001010 	j	4040 <add_new_task+0x34>
    40a0:	acc08ec4 	sw	zero,-28988(a2)
    40a4:	3c040001 	lui	a0,0x1
    40a8:	0c00094a 	jal	2528 <puts>
    40ac:	2484890c 	addiu	a0,a0,-30452
    40b0:	0800102c 	j	40b0 <add_new_task+0xa4>
    40b4:	00000000 	nop

000040b8 <get_proc_address>:
    40b8:	00041900 	sll	v1,a0,0x4
    40bc:	3c020005 	lui	v0,0x5
    40c0:	00042080 	sll	a0,a0,0x2
    40c4:	00832021 	addu	a0,a0,v1
    40c8:	24429088 	addiu	v0,v0,-28536
    40cc:	00822021 	addu	a0,a0,v0
    40d0:	8c820000 	lw	v0,0(a0)
    40d4:	03e00008 	jr	ra
    40d8:	00000000 	nop

000040dc <clear_free_page_processor>:
    40dc:	3c020005 	lui	v0,0x5
    40e0:	3c030005 	lui	v1,0x5
    40e4:	24459088 	addiu	a1,v0,-28536
    40e8:	0800103f 	j	40fc <clear_free_page_processor+0x20>
    40ec:	246391c8 	addiu	v1,v1,-28216
    40f0:	24a50014 	addiu	a1,a1,20
    40f4:	10a30009 	beq	a1,v1,411c <clear_free_page_processor+0x40>
    40f8:	00000000 	nop
    40fc:	8ca20000 	lw	v0,0(a1)
    4100:	00000000 	nop
    4104:	1444fffa 	bne	v0,a0,40f0 <clear_free_page_processor+0x14>
    4108:	00000000 	nop
    410c:	aca00004 	sw	zero,4(a1)
    4110:	24a50014 	addiu	a1,a1,20
    4114:	14a3fff9 	bne	a1,v1,40fc <clear_free_page_processor+0x20>
    4118:	00000000 	nop
    411c:	03e00008 	jr	ra
    4120:	00000000 	nop

00004124 <init_procesors>:
    4124:	3c020005 	lui	v0,0x5
    4128:	3c030005 	lui	v1,0x5
    412c:	24429088 	addiu	v0,v0,-28536
    4130:	246391c8 	addiu	v1,v1,-28216
    4134:	2404ffff 	li	a0,-1
    4138:	ac440000 	sw	a0,0(v0)
    413c:	ac400004 	sw	zero,4(v0)
    4140:	ac440010 	sw	a0,16(v0)
    4144:	24420014 	addiu	v0,v0,20
    4148:	1443fffb 	bne	v0,v1,4138 <init_procesors+0x14>
    414c:	00000000 	nop
    4150:	03e00008 	jr	ra
    4154:	00000000 	nop

00004158 <initialize_migration_list>:
    4158:	3c020005 	lui	v0,0x5
    415c:	3c030005 	lui	v1,0x5
    4160:	2442a388 	addiu	v0,v0,-23672
    4164:	2463a428 	addiu	v1,v1,-23512
    4168:	ac400000 	sw	zero,0(v0)
    416c:	24420010 	addiu	v0,v0,16
    4170:	1443fffd 	bne	v0,v1,4168 <initialize_migration_list+0x10>
    4174:	00000000 	nop
    4178:	03e00008 	jr	ra
    417c:	00000000 	nop

00004180 <get_task_id_FREEZING_in_migration_list>:
    4180:	3c020005 	lui	v0,0x5
    4184:	2443a388 	addiu	v1,v0,-23672
    4188:	00002821 	move	a1,zero
    418c:	24080002 	li	t0,2
    4190:	2407000a 	li	a3,10
    4194:	24660008 	addiu	a2,v1,8
    4198:	8c620000 	lw	v0,0(v1)
    419c:	00000000 	nop
    41a0:	14480005 	bne	v0,t0,41b8 <get_task_id_FREEZING_in_migration_list+0x38>
    41a4:	24a50001 	addiu	a1,a1,1
    41a8:	8c620004 	lw	v0,4(v1)
    41ac:	00000000 	nop
    41b0:	10440006 	beq	v0,a0,41cc <get_task_id_FREEZING_in_migration_list+0x4c>
    41b4:	00000000 	nop
    41b8:	24c60010 	addiu	a2,a2,16
    41bc:	14a7fff6 	bne	a1,a3,4198 <get_task_id_FREEZING_in_migration_list+0x18>
    41c0:	24630010 	addiu	v1,v1,16
    41c4:	03e00008 	jr	ra
    41c8:	2402ffff 	li	v0,-1
    41cc:	8cc20000 	lw	v0,0(a2)
    41d0:	03e00008 	jr	ra
    41d4:	00000000 	nop

000041d8 <set_migration_list_status>:
    41d8:	3c020005 	lui	v0,0x5
    41dc:	2446a388 	addiu	a2,v0,-23672
    41e0:	00001821 	move	v1,zero
    41e4:	24090002 	li	t1,2
    41e8:	2408000a 	li	t0,10
    41ec:	08001080 	j	4200 <set_migration_list_status+0x28>
    41f0:	00c03821 	move	a3,a2
    41f4:	24e70010 	addiu	a3,a3,16
    41f8:	1068000d 	beq	v1,t0,4230 <set_migration_list_status+0x58>
    41fc:	24c60010 	addiu	a2,a2,16
    4200:	8cc20000 	lw	v0,0(a2)
    4204:	00000000 	nop
    4208:	1449fffa 	bne	v0,t1,41f4 <set_migration_list_status+0x1c>
    420c:	24630001 	addiu	v1,v1,1
    4210:	8cc20004 	lw	v0,4(a2)
    4214:	00000000 	nop
    4218:	1444fff7 	bne	v0,a0,41f8 <set_migration_list_status+0x20>
    421c:	24e70010 	addiu	a3,a3,16
    4220:	24e7fff0 	addiu	a3,a3,-16
    4224:	24020001 	li	v0,1
    4228:	03e00008 	jr	ra
    422c:	ace50000 	sw	a1,0(a3)
    4230:	03e00008 	jr	ra
    4234:	00001021 	move	v0,zero

00004238 <proc_is_migrating>:
    4238:	3c020005 	lui	v0,0x5
    423c:	3c030005 	lui	v1,0x5
    4240:	2445a38c 	addiu	a1,v0,-23668
    4244:	08001096 	j	4258 <proc_is_migrating+0x20>
    4248:	2463a42c 	addiu	v1,v1,-23508
    424c:	24a50010 	addiu	a1,a1,16
    4250:	10a3000b 	beq	a1,v1,4280 <proc_is_migrating+0x48>
    4254:	00000000 	nop
    4258:	8ca20000 	lw	v0,0(a1)
    425c:	00000000 	nop
    4260:	1444fffa 	bne	v0,a0,424c <proc_is_migrating+0x14>
    4264:	00000000 	nop
    4268:	8ca2fffc 	lw	v0,-4(a1)
    426c:	00000000 	nop
    4270:	1040fff7 	beqz	v0,4250 <proc_is_migrating+0x18>
    4274:	24a50010 	addiu	a1,a1,16
    4278:	03e00008 	jr	ra
    427c:	24020001 	li	v0,1
    4280:	03e00008 	jr	ra
    4284:	00001021 	move	v0,zero

00004288 <print_migrating_list>:
    4288:	27bdffd0 	addiu	sp,sp,-48
    428c:	3c020005 	lui	v0,0x5
    4290:	3c030005 	lui	v1,0x5
    4294:	afb50024 	sw	s5,36(sp)
    4298:	afb40020 	sw	s4,32(sp)
    429c:	afb3001c 	sw	s3,28(sp)
    42a0:	afb20018 	sw	s2,24(sp)
    42a4:	afb10014 	sw	s1,20(sp)
    42a8:	afb00010 	sw	s0,16(sp)
    42ac:	2473a428 	addiu	s3,v1,-23512
    42b0:	2450a388 	addiu	s0,v0,-23672
    42b4:	3c120001 	lui	s2,0x1
    42b8:	3c110001 	lui	s1,0x1
    42bc:	3c150001 	lui	s5,0x1
    42c0:	3c140001 	lui	s4,0x1
    42c4:	080010b6 	j	42d8 <print_migrating_list+0x50>
    42c8:	afbf0028 	sw	ra,40(sp)
    42cc:	26100010 	addiu	s0,s0,16
    42d0:	12130022 	beq	s0,s3,435c <print_migrating_list+0xd4>
    42d4:	00000000 	nop
    42d8:	8e020000 	lw	v0,0(s0)
    42dc:	00000000 	nop
    42e0:	1040fffa 	beqz	v0,42cc <print_migrating_list+0x44>
    42e4:	26448928 	addiu	a0,s2,-30424
    42e8:	0c00094a 	jal	2528 <puts>
    42ec:	00000000 	nop
    42f0:	8e040004 	lw	a0,4(s0)
    42f4:	0c0009bc 	jal	26f0 <itoh>
    42f8:	00000000 	nop
    42fc:	0c00094a 	jal	2528 <puts>
    4300:	00402021 	move	a0,v0
    4304:	0c00094a 	jal	2528 <puts>
    4308:	262489ac 	addiu	a0,s1,-30292
    430c:	0c00094a 	jal	2528 <puts>
    4310:	26a4893c 	addiu	a0,s5,-30404
    4314:	8e040008 	lw	a0,8(s0)
    4318:	0c0009bc 	jal	26f0 <itoh>
    431c:	00000000 	nop
    4320:	0c00094a 	jal	2528 <puts>
    4324:	00402021 	move	a0,v0
    4328:	0c00094a 	jal	2528 <puts>
    432c:	262489ac 	addiu	a0,s1,-30292
    4330:	0c00094a 	jal	2528 <puts>
    4334:	26848950 	addiu	a0,s4,-30384
    4338:	8e040000 	lw	a0,0(s0)
    433c:	0c0009bc 	jal	26f0 <itoh>
    4340:	26100010 	addiu	s0,s0,16
    4344:	0c00094a 	jal	2528 <puts>
    4348:	00402021 	move	a0,v0
    434c:	0c00094a 	jal	2528 <puts>
    4350:	262489ac 	addiu	a0,s1,-30292
    4354:	1613ffe0 	bne	s0,s3,42d8 <print_migrating_list+0x50>
    4358:	00000000 	nop
    435c:	8fbf0028 	lw	ra,40(sp)
    4360:	8fb50024 	lw	s5,36(sp)
    4364:	8fb40020 	lw	s4,32(sp)
    4368:	8fb3001c 	lw	s3,28(sp)
    436c:	8fb20018 	lw	s2,24(sp)
    4370:	8fb10014 	lw	s1,20(sp)
    4374:	8fb00010 	lw	s0,16(sp)
    4378:	03e00008 	jr	ra
    437c:	27bd0030 	addiu	sp,sp,48

00004380 <remove_from_migration_list>:
    4380:	27bdffe0 	addiu	sp,sp,-32
    4384:	afbf001c 	sw	ra,28(sp)
    4388:	afb20018 	sw	s2,24(sp)
    438c:	afb10014 	sw	s1,20(sp)
    4390:	00a09021 	move	s2,a1
    4394:	00808821 	move	s1,a0
    4398:	0c0010a2 	jal	4288 <print_migrating_list>
    439c:	afb00010 	sw	s0,16(sp)
    43a0:	3c040001 	lui	a0,0x1
    43a4:	0c00094a 	jal	2528 <puts>
    43a8:	24848964 	addiu	a0,a0,-30364
    43ac:	0c0009bc 	jal	26f0 <itoh>
    43b0:	02202021 	move	a0,s1
    43b4:	3c100001 	lui	s0,0x1
    43b8:	0c00094a 	jal	2528 <puts>
    43bc:	00402021 	move	a0,v0
    43c0:	0c00094a 	jal	2528 <puts>
    43c4:	260489ac 	addiu	a0,s0,-30292
    43c8:	3c040001 	lui	a0,0x1
    43cc:	0c00094a 	jal	2528 <puts>
    43d0:	2484897c 	addiu	a0,a0,-30340
    43d4:	0c0009bc 	jal	26f0 <itoh>
    43d8:	02402021 	move	a0,s2
    43dc:	0c00094a 	jal	2528 <puts>
    43e0:	00402021 	move	a0,v0
    43e4:	0c00094a 	jal	2528 <puts>
    43e8:	260489ac 	addiu	a0,s0,-30292
    43ec:	3c030005 	lui	v1,0x5
    43f0:	2463a388 	addiu	v1,v1,-23672
    43f4:	00002021 	move	a0,zero
    43f8:	24060004 	li	a2,4
    43fc:	2405000a 	li	a1,10
    4400:	08001105 	j	4414 <remove_from_migration_list+0x94>
    4404:	00608021 	move	s0,v1
    4408:	26100010 	addiu	s0,s0,16
    440c:	10850014 	beq	a0,a1,4460 <remove_from_migration_list+0xe0>
    4410:	24630010 	addiu	v1,v1,16
    4414:	8c620000 	lw	v0,0(v1)
    4418:	00000000 	nop
    441c:	1446fffa 	bne	v0,a2,4408 <remove_from_migration_list+0x88>
    4420:	24840001 	addiu	a0,a0,1
    4424:	8c620004 	lw	v0,4(v1)
    4428:	00000000 	nop
    442c:	1622fff6 	bne	s1,v0,4408 <remove_from_migration_list+0x88>
    4430:	00000000 	nop
    4434:	8c620008 	lw	v0,8(v1)
    4438:	00000000 	nop
    443c:	1642fff3 	bne	s2,v0,440c <remove_from_migration_list+0x8c>
    4440:	26100010 	addiu	s0,s0,16
    4444:	2610fff0 	addiu	s0,s0,-16
    4448:	3c040001 	lui	a0,0x1
    444c:	0c00094a 	jal	2528 <puts>
    4450:	24848998 	addiu	a0,a0,-30312
    4454:	24020001 	li	v0,1
    4458:	0800111c 	j	4470 <remove_from_migration_list+0xf0>
    445c:	ae000000 	sw	zero,0(s0)
    4460:	3c040001 	lui	a0,0x1
    4464:	0c00094a 	jal	2528 <puts>
    4468:	24848994 	addiu	a0,a0,-30316
    446c:	00001021 	move	v0,zero
    4470:	8fbf001c 	lw	ra,28(sp)
    4474:	8fb20018 	lw	s2,24(sp)
    4478:	8fb10014 	lw	s1,20(sp)
    447c:	8fb00010 	lw	s0,16(sp)
    4480:	03e00008 	jr	ra
    4484:	27bd0020 	addiu	sp,sp,32

00004488 <freeze_application>:
    4488:	27bdffd0 	addiu	sp,sp,-48
    448c:	3c020005 	lui	v0,0x5
    4490:	3c030005 	lui	v1,0x5
    4494:	afb50024 	sw	s5,36(sp)
    4498:	afb40020 	sw	s4,32(sp)
    449c:	afb3001c 	sw	s3,28(sp)
    44a0:	afb10014 	sw	s1,20(sp)
    44a4:	2474a428 	addiu	s4,v1,-23512
    44a8:	2451a388 	addiu	s1,v0,-23672
    44ac:	24130001 	li	s3,1
    44b0:	24150002 	li	s5,2
    44b4:	afbf0028 	sw	ra,40(sp)
    44b8:	afb20018 	sw	s2,24(sp)
    44bc:	08001134 	j	44d0 <freeze_application+0x48>
    44c0:	afb00010 	sw	s0,16(sp)
    44c4:	26310010 	addiu	s1,s1,16
    44c8:	12340017 	beq	s1,s4,4528 <freeze_application+0xa0>
    44cc:	00000000 	nop
    44d0:	8e300000 	lw	s0,0(s1)
    44d4:	00000000 	nop
    44d8:	1613fffa 	bne	s0,s3,44c4 <freeze_application+0x3c>
    44dc:	00000000 	nop
    44e0:	8e220008 	lw	v0,8(s1)
    44e4:	ae350000 	sw	s5,0(s1)
    44e8:	00029203 	sra	s2,v0,0x8
    44ec:	0c000c28 	jal	30a0 <add_migrations>
    44f0:	02402021 	move	a0,s2
    44f4:	1450fff3 	bne	v0,s0,44c4 <freeze_application+0x3c>
    44f8:	00000000 	nop
    44fc:	0c000946 	jal	2518 <get_net_address>
    4500:	26310010 	addiu	s1,s1,16
    4504:	3042ffff 	andi	v0,v0,0xffff
    4508:	00122c00 	sll	a1,s2,0x10
    450c:	00a22825 	or	a1,a1,v0
    4510:	02403021 	move	a2,s2
    4514:	2404000d 	li	a0,13
    4518:	0c001546 	jal	5518 <Seek>
    451c:	00003821 	move	a3,zero
    4520:	1634ffeb 	bne	s1,s4,44d0 <freeze_application+0x48>
    4524:	00000000 	nop
    4528:	8fbf0028 	lw	ra,40(sp)
    452c:	8fb50024 	lw	s5,36(sp)
    4530:	8fb40020 	lw	s4,32(sp)
    4534:	8fb3001c 	lw	s3,28(sp)
    4538:	8fb20018 	lw	s2,24(sp)
    453c:	8fb10014 	lw	s1,20(sp)
    4540:	8fb00010 	lw	s0,16(sp)
    4544:	03e00008 	jr	ra
    4548:	27bd0030 	addiu	sp,sp,48

0000454c <get_free_processor>:
    454c:	27bdffd0 	addiu	sp,sp,-48
    4550:	afb50024 	sw	s5,36(sp)
    4554:	afb40020 	sw	s4,32(sp)
    4558:	afb20018 	sw	s2,24(sp)
    455c:	afb00010 	sw	s0,16(sp)
    4560:	3c020005 	lui	v0,0x5
    4564:	afbf0028 	sw	ra,40(sp)
    4568:	afb3001c 	sw	s3,28(sp)
    456c:	afb10014 	sw	s1,20(sp)
    4570:	8c5390a0 	lw	s3,-28512(v0)
    4574:	3c030005 	lui	v1,0x5
    4578:	3c020005 	lui	v0,0x5
    457c:	247091b8 	addiu	s0,v1,-28232
    4580:	2454908c 	addiu	s4,v0,-28532
    4584:	2415ffff 	li	s5,-1
    4588:	08001167 	j	459c <get_free_processor+0x50>
    458c:	24120001 	li	s2,1
    4590:	2610ffec 	addiu	s0,s0,-20
    4594:	12140013 	beq	s0,s4,45e4 <get_free_processor+0x98>
    4598:	02a08821 	move	s1,s5
    459c:	8e020000 	lw	v0,0(s0)
    45a0:	00000000 	nop
    45a4:	10520019 	beq	v0,s2,460c <get_free_processor+0xc0>
    45a8:	0262182a 	slt	v1,s3,v0
    45ac:	1060fff8 	beqz	v1,4590 <get_free_processor+0x44>
    45b0:	00000000 	nop
    45b4:	8e04fffc 	lw	a0,-4(s0)
    45b8:	00000000 	nop
    45bc:	308500ff 	andi	a1,a0,0xff
    45c0:	0c001db8 	jal	76e0 <PE_belong_SZ>
    45c4:	00042203 	sra	a0,a0,0x8
    45c8:	1052fff1 	beq	v0,s2,4590 <get_free_processor+0x44>
    45cc:	00000000 	nop
    45d0:	8e15fffc 	lw	s5,-4(s0)
    45d4:	8e130000 	lw	s3,0(s0)
    45d8:	2610ffec 	addiu	s0,s0,-20
    45dc:	1614ffef 	bne	s0,s4,459c <get_free_processor+0x50>
    45e0:	02a08821 	move	s1,s5
    45e4:	02201021 	move	v0,s1
    45e8:	8fbf0028 	lw	ra,40(sp)
    45ec:	8fb50024 	lw	s5,36(sp)
    45f0:	8fb40020 	lw	s4,32(sp)
    45f4:	8fb3001c 	lw	s3,28(sp)
    45f8:	8fb20018 	lw	s2,24(sp)
    45fc:	8fb10014 	lw	s1,20(sp)
    4600:	8fb00010 	lw	s0,16(sp)
    4604:	03e00008 	jr	ra
    4608:	27bd0030 	addiu	sp,sp,48
    460c:	8e11fffc 	lw	s1,-4(s0)
    4610:	00000000 	nop
    4614:	00112203 	sra	a0,s1,0x8
    4618:	0c001db8 	jal	76e0 <PE_belong_SZ>
    461c:	322500ff 	andi	a1,s1,0xff
    4620:	1052ffdc 	beq	v0,s2,4594 <get_free_processor+0x48>
    4624:	2610ffec 	addiu	s0,s0,-20
    4628:	0800117a 	j	45e8 <get_free_processor+0x9c>
    462c:	02201021 	move	v0,s1

00004630 <manage_SZ_migration>:
    4630:	3c020005 	lui	v0,0x5
    4634:	27bdffe0 	addiu	sp,sp,-32
    4638:	2444a388 	addiu	a0,v0,-23672
    463c:	afb10014 	sw	s1,20(sp)
    4640:	afbf0018 	sw	ra,24(sp)
    4644:	afb00010 	sw	s0,16(sp)
    4648:	00001821 	move	v1,zero
    464c:	24060003 	li	a2,3
    4650:	2405000a 	li	a1,10
    4654:	00808821 	move	s1,a0
    4658:	8c820000 	lw	v0,0(a0)
    465c:	24630001 	addiu	v1,v1,1
    4660:	10460008 	beq	v0,a2,4684 <manage_SZ_migration+0x54>
    4664:	24840010 	addiu	a0,a0,16
    4668:	1465fffb 	bne	v1,a1,4658 <manage_SZ_migration+0x28>
    466c:	26310010 	addiu	s1,s1,16
    4670:	8fbf0018 	lw	ra,24(sp)
    4674:	8fb10014 	lw	s1,20(sp)
    4678:	8fb00010 	lw	s0,16(sp)
    467c:	03e00008 	jr	ra
    4680:	27bd0020 	addiu	sp,sp,32
    4684:	0c001153 	jal	454c <get_free_processor>
    4688:	00000000 	nop
    468c:	3c040001 	lui	a0,0x1
    4690:	00408021 	move	s0,v0
    4694:	0c00094a 	jal	2528 <puts>
    4698:	248489b0 	addiu	a0,a0,-30288
    469c:	0c0009bc 	jal	26f0 <itoh>
    46a0:	02002021 	move	a0,s0
    46a4:	0c00094a 	jal	2528 <puts>
    46a8:	00402021 	move	a0,v0
    46ac:	3c040001 	lui	a0,0x1
    46b0:	0c00094a 	jal	2528 <puts>
    46b4:	248489ac 	addiu	a0,a0,-30292
    46b8:	3c030005 	lui	v1,0x5
    46bc:	8c648e40 	lw	a0,-29120(v1)
    46c0:	8e260008 	lw	a2,8(s1)
    46c4:	24020004 	li	v0,4
    46c8:	02002821 	move	a1,s0
    46cc:	ae30000c 	sw	s0,12(s1)
    46d0:	0c001470 	jal	51c0 <page_used>
    46d4:	ae220000 	sw	v0,0(s1)
    46d8:	8e250004 	lw	a1,4(s1)
    46dc:	8e240008 	lw	a0,8(s1)
    46e0:	02003021 	move	a2,s0
    46e4:	8fbf0018 	lw	ra,24(sp)
    46e8:	8fb10014 	lw	s1,20(sp)
    46ec:	8fb00010 	lw	s0,16(sp)
    46f0:	08000532 	j	14c8 <send_full_task_migration>
    46f4:	27bd0020 	addiu	sp,sp,32

000046f8 <get_task_location>:
    46f8:	27bdffe8 	addiu	sp,sp,-24
    46fc:	3c020005 	lui	v0,0x5
    4700:	3c030005 	lui	v1,0x5
    4704:	afb00010 	sw	s0,16(sp)
    4708:	afbf0014 	sw	ra,20(sp)
    470c:	00808021 	move	s0,a0
    4710:	2445908c 	addiu	a1,v0,-28532
    4714:	246391cc 	addiu	v1,v1,-28212
    4718:	24060001 	li	a2,1
    471c:	2407ffff 	li	a3,-1
    4720:	8ca20000 	lw	v0,0(a1)
    4724:	00000000 	nop
    4728:	10460009 	beq	v0,a2,4750 <get_task_location+0x58>
    472c:	00000000 	nop
    4730:	8ca4fffc 	lw	a0,-4(a1)
    4734:	00000000 	nop
    4738:	10870005 	beq	a0,a3,4750 <get_task_location+0x58>
    473c:	00000000 	nop
    4740:	8ca2000c 	lw	v0,12(a1)
    4744:	00000000 	nop
    4748:	1202000e 	beq	s0,v0,4784 <get_task_location+0x8c>
    474c:	00000000 	nop
    4750:	24a50014 	addiu	a1,a1,20
    4754:	14a3fff2 	bne	a1,v1,4720 <get_task_location+0x28>
    4758:	3c040001 	lui	a0,0x1
    475c:	0c00094a 	jal	2528 <puts>
    4760:	248489c0 	addiu	a0,a0,-30272
    4764:	0c000975 	jal	25d4 <itoa>
    4768:	02002021 	move	a0,s0
    476c:	0c00094a 	jal	2528 <puts>
    4770:	00402021 	move	a0,v0
    4774:	3c040001 	lui	a0,0x1
    4778:	0c00094a 	jal	2528 <puts>
    477c:	248489ac 	addiu	a0,a0,-30292
    4780:	2404ffff 	li	a0,-1
    4784:	8fbf0014 	lw	ra,20(sp)
    4788:	8fb00010 	lw	s0,16(sp)
    478c:	00801021 	move	v0,a0
    4790:	03e00008 	jr	ra
    4794:	27bd0018 	addiu	sp,sp,24

00004798 <search_processor>:
    4798:	27bdffe8 	addiu	sp,sp,-24
    479c:	3c060005 	lui	a2,0x5
    47a0:	afb00010 	sw	s0,16(sp)
    47a4:	24c39088 	addiu	v1,a2,-28536
    47a8:	00808021 	move	s0,a0
    47ac:	24050010 	li	a1,16
    47b0:	00002021 	move	a0,zero
    47b4:	080011f2 	j	47c8 <search_processor+0x30>
    47b8:	afbf0014 	sw	ra,20(sp)
    47bc:	24840001 	addiu	a0,a0,1
    47c0:	1085000e 	beq	a0,a1,47fc <search_processor+0x64>
    47c4:	00000000 	nop
    47c8:	8c620000 	lw	v0,0(v1)
    47cc:	00000000 	nop
    47d0:	1602fffa 	bne	s0,v0,47bc <search_processor+0x24>
    47d4:	24630014 	addiu	v1,v1,20
    47d8:	00041900 	sll	v1,a0,0x4
    47dc:	00041080 	sll	v0,a0,0x2
    47e0:	00431021 	addu	v0,v0,v1
    47e4:	24c49088 	addiu	a0,a2,-28536
    47e8:	8fbf0014 	lw	ra,20(sp)
    47ec:	8fb00010 	lw	s0,16(sp)
    47f0:	00441021 	addu	v0,v0,a0
    47f4:	03e00008 	jr	ra
    47f8:	27bd0018 	addiu	sp,sp,24
    47fc:	3c040001 	lui	a0,0x1
    4800:	0c00094a 	jal	2528 <puts>
    4804:	248489ec 	addiu	a0,a0,-30228
    4808:	0c000975 	jal	25d4 <itoa>
    480c:	02002021 	move	a0,s0
    4810:	0c00094a 	jal	2528 <puts>
    4814:	00402021 	move	a0,v0
    4818:	3c040001 	lui	a0,0x1
    481c:	0c00094a 	jal	2528 <puts>
    4820:	248489ac 	addiu	a0,a0,-30292
    4824:	08001209 	j	4824 <search_processor+0x8c>
    4828:	00000000 	nop

0000482c <get_task_id_processor>:
    482c:	27bdffe8 	addiu	sp,sp,-24
    4830:	afbf0010 	sw	ra,16(sp)
    4834:	0c0011e6 	jal	4798 <search_processor>
    4838:	00000000 	nop
    483c:	8c430010 	lw	v1,16(v0)
    4840:	8fbf0010 	lw	ra,16(sp)
    4844:	3c02ffff 	lui	v0,0xffff
    4848:	00621025 	or	v0,v1,v0
    484c:	03e00008 	jr	ra
    4850:	27bd0018 	addiu	sp,sp,24

00004854 <get_proc_free_pages>:
    4854:	27bdffe8 	addiu	sp,sp,-24
    4858:	afbf0010 	sw	ra,16(sp)
    485c:	0c0011e6 	jal	4798 <search_processor>
    4860:	00000000 	nop
    4864:	8c420004 	lw	v0,4(v0)
    4868:	8fbf0010 	lw	ra,16(sp)
    486c:	00000000 	nop
    4870:	03e00008 	jr	ra
    4874:	27bd0018 	addiu	sp,sp,24

00004878 <remove_task>:
    4878:	27bdffe0 	addiu	sp,sp,-32
    487c:	afb10014 	sw	s1,20(sp)
    4880:	afb00010 	sw	s0,16(sp)
    4884:	00808821 	move	s1,a0
    4888:	afbf0018 	sw	ra,24(sp)
    488c:	0c0011e6 	jal	4798 <search_processor>
    4890:	00a08021 	move	s0,a1
    4894:	8c450004 	lw	a1,4(v0)
    4898:	00401821 	move	v1,v0
    489c:	3c040001 	lui	a0,0x1
    48a0:	24020001 	li	v0,1
    48a4:	10a2001b 	beq	a1,v0,4914 <remove_task+0x9c>
    48a8:	24848a08 	addiu	a0,a0,-30200
    48ac:	8c620010 	lw	v0,16(v1)
    48b0:	3c040001 	lui	a0,0x1
    48b4:	24848a28 	addiu	a0,a0,-30168
    48b8:	1202000e 	beq	s0,v0,48f4 <remove_task+0x7c>
    48bc:	24a50001 	addiu	a1,a1,1
    48c0:	0c00094a 	jal	2528 <puts>
    48c4:	00000000 	nop
    48c8:	0c000975 	jal	25d4 <itoa>
    48cc:	02002021 	move	a0,s0
    48d0:	0c00094a 	jal	2528 <puts>
    48d4:	00402021 	move	a0,v0
    48d8:	3c040001 	lui	a0,0x1
    48dc:	8fbf0018 	lw	ra,24(sp)
    48e0:	8fb10014 	lw	s1,20(sp)
    48e4:	8fb00010 	lw	s0,16(sp)
    48e8:	248489ac 	addiu	a0,a0,-30292
    48ec:	0800094a 	j	2528 <puts>
    48f0:	27bd0020 	addiu	sp,sp,32
    48f4:	2402ffff 	li	v0,-1
    48f8:	ac650004 	sw	a1,4(v1)
    48fc:	ac620010 	sw	v0,16(v1)
    4900:	8fbf0018 	lw	ra,24(sp)
    4904:	8fb10014 	lw	s1,20(sp)
    4908:	8fb00010 	lw	s0,16(sp)
    490c:	03e00008 	jr	ra
    4910:	27bd0020 	addiu	sp,sp,32
    4914:	0c00094a 	jal	2528 <puts>
    4918:	00000000 	nop
    491c:	0c000975 	jal	25d4 <itoa>
    4920:	02202021 	move	a0,s1
    4924:	0c00094a 	jal	2528 <puts>
    4928:	00402021 	move	a0,v0
    492c:	3c040001 	lui	a0,0x1
    4930:	8fbf0018 	lw	ra,24(sp)
    4934:	8fb10014 	lw	s1,20(sp)
    4938:	8fb00010 	lw	s0,16(sp)
    493c:	248489ac 	addiu	a0,a0,-30292
    4940:	0800094a 	j	2528 <puts>
    4944:	27bd0020 	addiu	sp,sp,32

00004948 <change_task>:
    4948:	27bdffd8 	addiu	sp,sp,-40
    494c:	afb00010 	sw	s0,16(sp)
    4950:	00808021 	move	s0,a0
    4954:	afbf0020 	sw	ra,32(sp)
    4958:	afb3001c 	sw	s3,28(sp)
    495c:	afb20018 	sw	s2,24(sp)
    4960:	00a09821 	move	s3,a1
    4964:	0c0011e6 	jal	4798 <search_processor>
    4968:	afb10014 	sw	s1,20(sp)
    496c:	02002021 	move	a0,s0
    4970:	0c001060 	jal	4180 <get_task_id_FREEZING_in_migration_list>
    4974:	00409021 	move	s2,v0
    4978:	02002021 	move	a0,s0
    497c:	24050003 	li	a1,3
    4980:	0c001076 	jal	41d8 <set_migration_list_status>
    4984:	00408821 	move	s1,v0
    4988:	8e420010 	lw	v0,16(s2)
    498c:	3c040001 	lui	a0,0x1
    4990:	12220008 	beq	s1,v0,49b4 <change_task+0x6c>
    4994:	24848a4c 	addiu	a0,a0,-30132
    4998:	8fbf0020 	lw	ra,32(sp)
    499c:	8fb3001c 	lw	s3,28(sp)
    49a0:	8fb20018 	lw	s2,24(sp)
    49a4:	8fb10014 	lw	s1,20(sp)
    49a8:	8fb00010 	lw	s0,16(sp)
    49ac:	03e00008 	jr	ra
    49b0:	27bd0028 	addiu	sp,sp,40
    49b4:	0c00094a 	jal	2528 <puts>
    49b8:	00000000 	nop
    49bc:	ae530010 	sw	s3,16(s2)
    49c0:	8fbf0020 	lw	ra,32(sp)
    49c4:	8fb3001c 	lw	s3,28(sp)
    49c8:	8fb20018 	lw	s2,24(sp)
    49cc:	8fb10014 	lw	s1,20(sp)
    49d0:	8fb00010 	lw	s0,16(sp)
    49d4:	03e00008 	jr	ra
    49d8:	27bd0028 	addiu	sp,sp,40

000049dc <add_task>:
    49dc:	27bdffe0 	addiu	sp,sp,-32
    49e0:	afb10014 	sw	s1,20(sp)
    49e4:	afb00010 	sw	s0,16(sp)
    49e8:	afbf0018 	sw	ra,24(sp)
    49ec:	00a08021 	move	s0,a1
    49f0:	0c0011e6 	jal	4798 <search_processor>
    49f4:	00808821 	move	s1,a0
    49f8:	8c430004 	lw	v1,4(v0)
    49fc:	00000000 	nop
    4a00:	10600021 	beqz	v1,4a88 <add_task+0xac>
    4a04:	00402821 	move	a1,v0
    4a08:	8c460010 	lw	a2,16(v0)
    4a0c:	2402ffff 	li	v0,-1
    4a10:	10c2000f 	beq	a2,v0,4a50 <add_task+0x74>
    4a14:	00000000 	nop
    4a18:	1206000f 	beq	s0,a2,4a58 <add_task+0x7c>
    4a1c:	2404ffff 	li	a0,-1
    4a20:	28820000 	slti	v0,a0,0
    4a24:	14400024 	bnez	v0,4ab8 <add_task+0xdc>
    4a28:	00041080 	sll	v0,a0,0x2
    4a2c:	00451021 	addu	v0,v0,a1
    4a30:	2463ffff 	addiu	v1,v1,-1
    4a34:	ac500010 	sw	s0,16(v0)
    4a38:	aca30004 	sw	v1,4(a1)
    4a3c:	8fbf0018 	lw	ra,24(sp)
    4a40:	8fb10014 	lw	s1,20(sp)
    4a44:	8fb00010 	lw	s0,16(sp)
    4a48:	03e00008 	jr	ra
    4a4c:	27bd0020 	addiu	sp,sp,32
    4a50:	1606fff3 	bne	s0,a2,4a20 <add_task+0x44>
    4a54:	00002021 	move	a0,zero
    4a58:	3c040001 	lui	a0,0x1
    4a5c:	0c00094a 	jal	2528 <puts>
    4a60:	24848aa0 	addiu	a0,a0,-30048
    4a64:	0c000975 	jal	25d4 <itoa>
    4a68:	02002021 	move	a0,s0
    4a6c:	0c00094a 	jal	2528 <puts>
    4a70:	00402021 	move	a0,v0
    4a74:	3c040001 	lui	a0,0x1
    4a78:	0c00094a 	jal	2528 <puts>
    4a7c:	248489ac 	addiu	a0,a0,-30292
    4a80:	080012a0 	j	4a80 <add_task+0xa4>
    4a84:	00000000 	nop
    4a88:	3c040001 	lui	a0,0x1
    4a8c:	0c00094a 	jal	2528 <puts>
    4a90:	24848a68 	addiu	a0,a0,-30104
    4a94:	0c0009bc 	jal	26f0 <itoh>
    4a98:	02202021 	move	a0,s1
    4a9c:	0c00094a 	jal	2528 <puts>
    4aa0:	00402021 	move	a0,v0
    4aa4:	3c040001 	lui	a0,0x1
    4aa8:	0c00094a 	jal	2528 <puts>
    4aac:	248489ac 	addiu	a0,a0,-30292
    4ab0:	080012ac 	j	4ab0 <add_task+0xd4>
    4ab4:	00000000 	nop
    4ab8:	3c040001 	lui	a0,0x1
    4abc:	0c00094a 	jal	2528 <puts>
    4ac0:	24848abc 	addiu	a0,a0,-30020
    4ac4:	0c000975 	jal	25d4 <itoa>
    4ac8:	02202021 	move	a0,s1
    4acc:	0c00094a 	jal	2528 <puts>
    4ad0:	00402021 	move	a0,v0
    4ad4:	3c040001 	lui	a0,0x1
    4ad8:	0c00094a 	jal	2528 <puts>
    4adc:	248489ac 	addiu	a0,a0,-30292
    4ae0:	080012b8 	j	4ae0 <add_task+0x104>
    4ae4:	00000000 	nop

00004ae8 <add_procesor>:
    4ae8:	27bdffe8 	addiu	sp,sp,-24
    4aec:	afb00010 	sw	s0,16(sp)
    4af0:	00808021 	move	s0,a0
    4af4:	afbf0014 	sw	ra,20(sp)
    4af8:	0c0011e6 	jal	4798 <search_processor>
    4afc:	2404ffff 	li	a0,-1
    4b00:	00402021 	move	a0,v0
    4b04:	3c020005 	lui	v0,0x5
    4b08:	8c438e34 	lw	v1,-29132(v0)
    4b0c:	00000000 	nop
    4b10:	10700002 	beq	v1,s0,4b1c <add_procesor+0x34>
    4b14:	24020001 	li	v0,1
    4b18:	ac820004 	sw	v0,4(a0)
    4b1c:	2402ffff 	li	v0,-1
    4b20:	ac820010 	sw	v0,16(a0)
    4b24:	ac900000 	sw	s0,0(a0)
    4b28:	ac800008 	sw	zero,8(a0)
    4b2c:	ac80000c 	sw	zero,12(a0)
    4b30:	8fbf0014 	lw	ra,20(sp)
    4b34:	8fb00010 	lw	s0,16(sp)
    4b38:	03e00008 	jr	ra
    4b3c:	27bd0018 	addiu	sp,sp,24

00004b40 <get_proc_slack_time>:
    4b40:	27bdffe8 	addiu	sp,sp,-24
    4b44:	afbf0010 	sw	ra,16(sp)
    4b48:	0c0011e6 	jal	4798 <search_processor>
    4b4c:	00000000 	nop
    4b50:	8c43000c 	lw	v1,12(v0)
    4b54:	00000000 	nop
    4b58:	10600007 	beqz	v1,4b78 <get_proc_slack_time+0x38>
    4b5c:	00002021 	move	a0,zero
    4b60:	8c420008 	lw	v0,8(v0)
    4b64:	00000000 	nop
    4b68:	14600002 	bnez	v1,4b74 <get_proc_slack_time+0x34>
    4b6c:	0043001b 	divu	zero,v0,v1
    4b70:	0007000d 	break	0x7
    4b74:	00002012 	mflo	a0
    4b78:	8fbf0010 	lw	ra,16(sp)
    4b7c:	00801021 	move	v0,a0
    4b80:	03e00008 	jr	ra
    4b84:	27bd0018 	addiu	sp,sp,24

00004b88 <update_proc_slack_time>:
    4b88:	27bdffe8 	addiu	sp,sp,-24
    4b8c:	afbf0014 	sw	ra,20(sp)
    4b90:	afb00010 	sw	s0,16(sp)
    4b94:	0c0011e6 	jal	4798 <search_processor>
    4b98:	00a08021 	move	s0,a1
    4b9c:	8c440008 	lw	a0,8(v0)
    4ba0:	8c43000c 	lw	v1,12(v0)
    4ba4:	00902021 	addu	a0,a0,s0
    4ba8:	24630001 	addiu	v1,v1,1
    4bac:	ac43000c 	sw	v1,12(v0)
    4bb0:	ac440008 	sw	a0,8(v0)
    4bb4:	8fbf0014 	lw	ra,20(sp)
    4bb8:	8fb00010 	lw	s0,16(sp)
    4bbc:	03e00008 	jr	ra
    4bc0:	27bd0018 	addiu	sp,sp,24

00004bc4 <allocate_cluster_resource>:
    4bc4:	00043140 	sll	a2,a0,0x5
    4bc8:	3c020005 	lui	v0,0x5
    4bcc:	00042080 	sll	a0,a0,0x2
    4bd0:	24428db8 	addiu	v0,v0,-29256
    4bd4:	00c43023 	subu	a2,a2,a0
    4bd8:	00c23021 	addu	a2,a2,v0
    4bdc:	8cc30018 	lw	v1,24(a2)
    4be0:	00000000 	nop
    4be4:	00651023 	subu	v0,v1,a1
    4be8:	0065182a 	slt	v1,v1,a1
    4bec:	14600003 	bnez	v1,4bfc <allocate_cluster_resource+0x38>
    4bf0:	00000000 	nop
    4bf4:	03e00008 	jr	ra
    4bf8:	acc20018 	sw	v0,24(a2)
    4bfc:	03e00008 	jr	ra
    4c00:	acc00018 	sw	zero,24(a2)

00004c04 <release_cluster_resources>:
    4c04:	00043140 	sll	a2,a0,0x5
    4c08:	3c020005 	lui	v0,0x5
    4c0c:	00042080 	sll	a0,a0,0x2
    4c10:	00c43023 	subu	a2,a2,a0
    4c14:	24428db8 	addiu	v0,v0,-29256
    4c18:	00c23021 	addu	a2,a2,v0
    4c1c:	8cc30018 	lw	v1,24(a2)
    4c20:	00000000 	nop
    4c24:	00651821 	addu	v1,v1,a1
    4c28:	03e00008 	jr	ra
    4c2c:	acc30018 	sw	v1,24(a2)

00004c30 <new_master_candidate>:
    4c30:	27bdffe0 	addiu	sp,sp,-32
    4c34:	afbf0018 	sw	ra,24(sp)
    4c38:	afb10014 	sw	s1,20(sp)
    4c3c:	0c001742 	jal	5d08 <get_master_other_cluster>
    4c40:	afb00010 	sw	s0,16(sp)
    4c44:	0c001153 	jal	454c <get_free_processor>
    4c48:	00408821 	move	s1,v0
    4c4c:	00408021 	move	s0,v0
    4c50:	0c001215 	jal	4854 <get_proc_free_pages>
    4c54:	00402021 	move	a0,v0
    4c58:	0c00120b 	jal	482c <get_task_id_processor>
    4c5c:	02002021 	move	a0,s0
    4c60:	00022a03 	sra	a1,v0,0x8
    4c64:	00101903 	sra	v1,s0,0x4
    4c68:	304200ff 	andi	v0,v0,0xff
    4c6c:	3207000f 	andi	a3,s0,0xf
    4c70:	30a5ff00 	andi	a1,a1,0xff00
    4c74:	02203021 	move	a2,s1
    4c78:	2404000f 	li	a0,15
    4c7c:	00a22825 	or	a1,a1,v0
    4c80:	0c001546 	jal	5518 <Seek>
    4c84:	00673825 	or	a3,v1,a3
    4c88:	02002021 	move	a0,s0
    4c8c:	8fbf0018 	lw	ra,24(sp)
    4c90:	8fb10014 	lw	s1,20(sp)
    4c94:	8fb00010 	lw	s0,16(sp)
    4c98:	0800171b 	j	5c6c <set_slave_candidate_my_cluster>
    4c9c:	27bd0020 	addiu	sp,sp,32

00004ca0 <get_master_address>:
    4ca0:	27bdffe8 	addiu	sp,sp,-24
    4ca4:	3c060005 	lui	a2,0x5
    4ca8:	afbf0010 	sw	ra,16(sp)
    4cac:	24c58db8 	addiu	a1,a2,-29256
    4cb0:	8ca20008 	lw	v0,8(a1)
    4cb4:	00041a03 	sra	v1,a0,0x8
    4cb8:	0062102a 	slt	v0,v1,v0
    4cbc:	14400017 	bnez	v0,4d1c <get_master_address+0x7c>
    4cc0:	00000000 	nop
    4cc4:	8ca20010 	lw	v0,16(a1)
    4cc8:	00000000 	nop
    4ccc:	0043102a 	slt	v0,v0,v1
    4cd0:	14400012 	bnez	v0,4d1c <get_master_address+0x7c>
    4cd4:	00000000 	nop
    4cd8:	8ca2000c 	lw	v0,12(a1)
    4cdc:	308400ff 	andi	a0,a0,0xff
    4ce0:	0082102a 	slt	v0,a0,v0
    4ce4:	1440000d 	bnez	v0,4d1c <get_master_address+0x7c>
    4ce8:	00000000 	nop
    4cec:	8ca20014 	lw	v0,20(a1)
    4cf0:	00000000 	nop
    4cf4:	0044102a 	slt	v0,v0,a0
    4cf8:	14400008 	bnez	v0,4d1c <get_master_address+0x7c>
    4cfc:	00000000 	nop
    4d00:	8cc28db8 	lw	v0,-29256(a2)
    4d04:	8ca30004 	lw	v1,4(a1)
    4d08:	00021200 	sll	v0,v0,0x8
    4d0c:	8fbf0010 	lw	ra,16(sp)
    4d10:	00431025 	or	v0,v0,v1
    4d14:	03e00008 	jr	ra
    4d18:	27bd0018 	addiu	sp,sp,24
    4d1c:	3c040001 	lui	a0,0x1
    4d20:	0c00094a 	jal	2528 <puts>
    4d24:	24848ae4 	addiu	a0,a0,-29980
    4d28:	0800134a 	j	4d28 <get_master_address+0x88>
    4d2c:	00000000 	nop

00004d30 <get_cluster_ID>:
    4d30:	27bdffe8 	addiu	sp,sp,-24
    4d34:	3c020005 	lui	v0,0x5
    4d38:	afbf0010 	sw	ra,16(sp)
    4d3c:	8c438db8 	lw	v1,-29256(v0)
    4d40:	00000000 	nop
    4d44:	14640005 	bne	v1,a0,4d5c <get_cluster_ID+0x2c>
    4d48:	24468db8 	addiu	a2,v0,-29256
    4d4c:	8cc20004 	lw	v0,4(a2)
    4d50:	00000000 	nop
    4d54:	10450005 	beq	v0,a1,4d6c <get_cluster_ID+0x3c>
    4d58:	00001821 	move	v1,zero
    4d5c:	3c040001 	lui	a0,0x1
    4d60:	0c00094a 	jal	2528 <puts>
    4d64:	24848b04 	addiu	a0,a0,-29948
    4d68:	2403ffff 	li	v1,-1
    4d6c:	8fbf0010 	lw	ra,16(sp)
    4d70:	00601021 	move	v0,v1
    4d74:	03e00008 	jr	ra
    4d78:	27bd0018 	addiu	sp,sp,24

00004d7c <SearchCluster>:
    4d7c:	27bdffe8 	addiu	sp,sp,-24
    4d80:	afbf0010 	sw	ra,16(sp)
    4d84:	3c030005 	lui	v1,0x5
    4d88:	8c628df4 	lw	v0,-29196(v1)
    4d8c:	00000000 	nop
    4d90:	00021202 	srl	v0,v0,0x8
    4d94:	1045003d 	beq	v0,a1,4e8c <SearchCluster+0x110>
    4d98:	00803821 	move	a3,a0
    4d9c:	24648df4 	addiu	a0,v1,-29196
    4da0:	8c820008 	lw	v0,8(a0)
    4da4:	00000000 	nop
    4da8:	00021202 	srl	v0,v0,0x8
    4dac:	1045002c 	beq	v0,a1,4e60 <SearchCluster+0xe4>
    4db0:	24020001 	li	v0,1
    4db4:	8c820010 	lw	v0,16(a0)
    4db8:	00000000 	nop
    4dbc:	00021202 	srl	v0,v0,0x8
    4dc0:	10450027 	beq	v0,a1,4e60 <SearchCluster+0xe4>
    4dc4:	24020002 	li	v0,2
    4dc8:	8c820018 	lw	v0,24(a0)
    4dcc:	00000000 	nop
    4dd0:	00021202 	srl	v0,v0,0x8
    4dd4:	10450022 	beq	v0,a1,4e60 <SearchCluster+0xe4>
    4dd8:	24020003 	li	v0,3
    4ddc:	10e00018 	beqz	a3,4e40 <SearchCluster+0xc4>
    4de0:	3c040005 	lui	a0,0x5
    4de4:	24828db8 	addiu	v0,a0,-29256
    4de8:	8c450018 	lw	a1,24(v0)
    4dec:	00000000 	nop
    4df0:	04a00014 	bltz	a1,4e44 <SearchCluster+0xc8>
    4df4:	2406ffff 	li	a2,-1
    4df8:	00003021 	move	a2,zero
    4dfc:	00071080 	sll	v0,a3,0x2
    4e00:	00071940 	sll	v1,a3,0x5
    4e04:	00621823 	subu	v1,v1,v0
    4e08:	24848db8 	addiu	a0,a0,-29256
    4e0c:	00641821 	addu	v1,v1,a0
    4e10:	8c620018 	lw	v0,24(v1)
    4e14:	00000000 	nop
    4e18:	0045102a 	slt	v0,v0,a1
    4e1c:	14400002 	bnez	v0,4e28 <SearchCluster+0xac>
    4e20:	2402ffff 	li	v0,-1
    4e24:	00e03021 	move	a2,a3
    4e28:	10c20008 	beq	a2,v0,4e4c <SearchCluster+0xd0>
    4e2c:	00c01021 	move	v0,a2
    4e30:	8fbf0010 	lw	ra,16(sp)
    4e34:	00000000 	nop
    4e38:	03e00008 	jr	ra
    4e3c:	27bd0018 	addiu	sp,sp,24
    4e40:	2406ffff 	li	a2,-1
    4e44:	0800137f 	j	4dfc <SearchCluster+0x80>
    4e48:	00002821 	move	a1,zero
    4e4c:	3c040001 	lui	a0,0x1
    4e50:	0c00094a 	jal	2528 <puts>
    4e54:	24848b24 	addiu	a0,a0,-29916
    4e58:	08001396 	j	4e58 <SearchCluster+0xdc>
    4e5c:	00000000 	nop
    4e60:	24638df4 	addiu	v1,v1,-29196
    4e64:	000210c0 	sll	v0,v0,0x3
    4e68:	00431021 	addu	v0,v0,v1
    4e6c:	8c440004 	lw	a0,4(v0)
    4e70:	0c001328 	jal	4ca0 <get_master_address>
    4e74:	00000000 	nop
    4e78:	304500ff 	andi	a1,v0,0xff
    4e7c:	8fbf0010 	lw	ra,16(sp)
    4e80:	00022203 	sra	a0,v0,0x8
    4e84:	0800134c 	j	4d30 <get_cluster_ID>
    4e88:	27bd0018 	addiu	sp,sp,24
    4e8c:	08001398 	j	4e60 <SearchCluster+0xe4>
    4e90:	00001021 	move	v0,zero

00004e94 <map_task>:
    4e94:	3c020005 	lui	v0,0x5
    4e98:	27bdffc8 	addiu	sp,sp,-56
    4e9c:	24478df4 	addiu	a3,v0,-29196
    4ea0:	afb7002c 	sw	s7,44(sp)
    4ea4:	afb00010 	sw	s0,16(sp)
    4ea8:	00804021 	move	t0,a0
    4eac:	afbf0030 	sw	ra,48(sp)
    4eb0:	afb60028 	sw	s6,40(sp)
    4eb4:	afb50024 	sw	s5,36(sp)
    4eb8:	afb40020 	sw	s4,32(sp)
    4ebc:	afb3001c 	sw	s3,28(sp)
    4ec0:	afb20018 	sw	s2,24(sp)
    4ec4:	afb10014 	sw	s1,20(sp)
    4ec8:	00a0b821 	move	s7,a1
    4ecc:	00001821 	move	v1,zero
    4ed0:	24040004 	li	a0,4
    4ed4:	00e08021 	move	s0,a3
    4ed8:	8ce20000 	lw	v0,0(a3)
    4edc:	24630001 	addiu	v1,v1,1
    4ee0:	12e2009a 	beq	s7,v0,514c <map_task+0x2b8>
    4ee4:	24e70008 	addiu	a3,a3,8
    4ee8:	1464fffb 	bne	v1,a0,4ed8 <map_task+0x44>
    4eec:	26100008 	addiu	s0,s0,8
    4ef0:	24020001 	li	v0,1
    4ef4:	10c2005d 	beq	a2,v0,506c <map_task+0x1d8>
    4ef8:	00009021 	move	s2,zero
    4efc:	2416ffff 	li	s6,-1
    4f00:	2414ffff 	li	s4,-1
    4f04:	24150001 	li	s5,1
    4f08:	24130010 	li	s3,16
    4f0c:	0c00102e 	jal	40b8 <get_proc_address>
    4f10:	02402021 	move	a0,s2
    4f14:	00402021 	move	a0,v0
    4f18:	0c001215 	jal	4854 <get_proc_free_pages>
    4f1c:	00408821 	move	s1,v0
    4f20:	00408021 	move	s0,v0
    4f24:	00112203 	sra	a0,s1,0x8
    4f28:	322500ff 	andi	a1,s1,0xff
    4f2c:	0c001db8 	jal	76e0 <PE_belong_SZ>
    4f30:	26520001 	addiu	s2,s2,1
    4f34:	1a00000b 	blez	s0,4f64 <map_task+0xd0>
    4f38:	00000000 	nop
    4f3c:	10550009 	beq	v0,s5,4f64 <map_task+0xd0>
    4f40:	02202021 	move	a0,s1
    4f44:	0c0012d0 	jal	4b40 <get_proc_slack_time>
    4f48:	00000000 	nop
    4f4c:	00401821 	move	v1,v0
    4f50:	0282102a 	slt	v0,s4,v0
    4f54:	10400003 	beqz	v0,4f64 <map_task+0xd0>
    4f58:	00000000 	nop
    4f5c:	0220b021 	move	s6,s1
    4f60:	0060a021 	move	s4,v1
    4f64:	1653ffe9 	bne	s2,s3,4f0c <map_task+0x78>
    4f68:	2402ffff 	li	v0,-1
    4f6c:	12c20033 	beq	s6,v0,503c <map_task+0x1a8>
    4f70:	00000000 	nop
    4f74:	3c040001 	lui	a0,0x1
    4f78:	0c00094a 	jal	2528 <puts>
    4f7c:	24848ba4 	addiu	a0,a0,-29788
    4f80:	0c000975 	jal	25d4 <itoa>
    4f84:	02e02021 	move	a0,s7
    4f88:	0c00094a 	jal	2528 <puts>
    4f8c:	00402021 	move	a0,v0
    4f90:	3c040001 	lui	a0,0x1
    4f94:	0c00094a 	jal	2528 <puts>
    4f98:	24848bbc 	addiu	a0,a0,-29764
    4f9c:	0c0009bc 	jal	26f0 <itoh>
    4fa0:	02c02021 	move	a0,s6
    4fa4:	0c00094a 	jal	2528 <puts>
    4fa8:	00402021 	move	a0,v0
    4fac:	3c040001 	lui	a0,0x1
    4fb0:	0c00094a 	jal	2528 <puts>
    4fb4:	248489ac 	addiu	a0,a0,-30292
    4fb8:	02c08021 	move	s0,s6
    4fbc:	02001021 	move	v0,s0
    4fc0:	8fbf0030 	lw	ra,48(sp)
    4fc4:	8fb7002c 	lw	s7,44(sp)
    4fc8:	8fb60028 	lw	s6,40(sp)
    4fcc:	8fb50024 	lw	s5,36(sp)
    4fd0:	8fb40020 	lw	s4,32(sp)
    4fd4:	8fb3001c 	lw	s3,28(sp)
    4fd8:	8fb20018 	lw	s2,24(sp)
    4fdc:	8fb10014 	lw	s1,20(sp)
    4fe0:	8fb00010 	lw	s0,16(sp)
    4fe4:	03e00008 	jr	ra
    4fe8:	27bd0038 	addiu	sp,sp,56
    4fec:	01204021 	move	t0,t1
    4ff0:	00e03021 	move	a2,a3
    4ff4:	01a02821 	move	a1,t5
    4ff8:	00006021 	move	t4,zero
    4ffc:	14a70002 	bne	a1,a3,5008 <map_task+0x174>
    5000:	00000000 	nop
    5004:	240c0001 	li	t4,1
    5008:	24a50004 	addiu	a1,a1,4
    500c:	0065102a 	slt	v0,v1,a1
    5010:	1040fffa 	beqz	v0,4ffc <map_task+0x168>
    5014:	00000000 	nop
    5018:	1590003c 	bne	t4,s0,510c <map_task+0x278>
    501c:	00000000 	nop
    5020:	25080001 	addiu	t0,t0,1
    5024:	150efff2 	bne	t0,t6,4ff0 <map_task+0x15c>
    5028:	24e70001 	addiu	a3,a3,1
    502c:	254a0001 	addiu	t2,t2,1
    5030:	24840004 	addiu	a0,a0,4
    5034:	1551002f 	bne	t2,s1,50f4 <map_task+0x260>
    5038:	01604821 	move	t1,t3
    503c:	3c040001 	lui	a0,0x1
    5040:	0c00094a 	jal	2528 <puts>
    5044:	24848bcc 	addiu	a0,a0,-29748
    5048:	0c000975 	jal	25d4 <itoa>
    504c:	02e02021 	move	a0,s7
    5050:	0c00094a 	jal	2528 <puts>
    5054:	00402021 	move	a0,v0
    5058:	3c040001 	lui	a0,0x1
    505c:	0c00094a 	jal	2528 <puts>
    5060:	248489ac 	addiu	a0,a0,-30292
    5064:	080013ef 	j	4fbc <map_task+0x128>
    5068:	2410ffff 	li	s0,-1
    506c:	3c020005 	lui	v0,0x5
    5070:	8c438e30 	lw	v1,-29136(v0)
    5074:	3c0c0005 	lui	t4,0x5
    5078:	00032940 	sll	a1,v1,0x5
    507c:	25828ee8 	addiu	v0,t4,-28952
    5080:	00a21021 	addu	v0,a1,v0
    5084:	8c440008 	lw	a0,8(v0)
    5088:	904b001e 	lbu	t3,30(v0)
    508c:	9046001f 	lbu	a2,31(v0)
    5090:	8c430004 	lw	v1,4(v0)
    5094:	00c45021 	addu	t2,a2,a0
    5098:	15000028 	bnez	t0,513c <map_task+0x2a8>
    509c:	01637021 	addu	t6,t3,v1
    50a0:	00c03821 	move	a3,a2
    50a4:	01604821 	move	t1,t3
    50a8:	25828ee8 	addiu	v0,t4,-28952
    50ac:	00a21021 	addu	v0,a1,v0
    50b0:	8c430018 	lw	v1,24(v0)
    50b4:	00ea302a 	slt	a2,a3,t2
    50b8:	3065ffff 	andi	a1,v1,0xffff
    50bc:	306200ff 	andi	v0,v1,0xff
    50c0:	00032382 	srl	a0,v1,0xe
    50c4:	00021080 	sll	v0,v0,0x2
    50c8:	00052a03 	sra	a1,a1,0x8
    50cc:	308403fc 	andi	a0,a0,0x3fc
    50d0:	00031e03 	sra	v1,v1,0x18
    50d4:	00456821 	addu	t5,v0,a1
    50d8:	10c0ffd8 	beqz	a2,503c <map_task+0x1a8>
    50dc:	00831821 	addu	v1,a0,v1
    50e0:	01478823 	subu	s1,t2,a3
    50e4:	00072080 	sll	a0,a3,0x2
    50e8:	00005021 	move	t2,zero
    50ec:	006d782a 	slt	t7,v1,t5
    50f0:	24100001 	li	s0,1
    50f4:	012e102a 	slt	v0,t1,t6
    50f8:	1040ffcc 	beqz	v0,502c <map_task+0x198>
    50fc:	00000000 	nop
    5100:	11e0ffba 	beqz	t7,4fec <map_task+0x158>
    5104:	01243821 	addu	a3,t1,a0
    5108:	00e03021 	move	a2,a3
    510c:	8fbf0030 	lw	ra,48(sp)
    5110:	8fb7002c 	lw	s7,44(sp)
    5114:	8fb60028 	lw	s6,40(sp)
    5118:	8fb50024 	lw	s5,36(sp)
    511c:	8fb40020 	lw	s4,32(sp)
    5120:	8fb3001c 	lw	s3,28(sp)
    5124:	8fb20018 	lw	s2,24(sp)
    5128:	8fb10014 	lw	s1,20(sp)
    512c:	8fb00010 	lw	s0,16(sp)
    5130:	00c02021 	move	a0,a2
    5134:	0800102e 	j	40b8 <get_proc_address>
    5138:	27bd0038 	addiu	sp,sp,56
    513c:	00081203 	sra	v0,t0,0x8
    5140:	24490001 	addiu	t1,v0,1
    5144:	0800142a 	j	50a8 <map_task+0x214>
    5148:	310700ff 	andi	a3,t0,0xff
    514c:	3c040001 	lui	a0,0x1
    5150:	0c00094a 	jal	2528 <puts>
    5154:	24848b4c 	addiu	a0,a0,-29876
    5158:	8e040000 	lw	a0,0(s0)
    515c:	0c000975 	jal	25d4 <itoa>
    5160:	00000000 	nop
    5164:	0c00094a 	jal	2528 <puts>
    5168:	00402021 	move	a0,v0
    516c:	3c040001 	lui	a0,0x1
    5170:	0c00094a 	jal	2528 <puts>
    5174:	24848b58 	addiu	a0,a0,-29864
    5178:	8e040004 	lw	a0,4(s0)
    517c:	0c0009bc 	jal	26f0 <itoh>
    5180:	00000000 	nop
    5184:	0c00094a 	jal	2528 <puts>
    5188:	00402021 	move	a0,v0
    518c:	3c040001 	lui	a0,0x1
    5190:	0c00094a 	jal	2528 <puts>
    5194:	248489ac 	addiu	a0,a0,-30292
    5198:	8e100004 	lw	s0,4(s0)
    519c:	0c001215 	jal	4854 <get_proc_free_pages>
    51a0:	02002021 	move	a0,s0
    51a4:	1c40ff86 	bgtz	v0,4fc0 <map_task+0x12c>
    51a8:	02001021 	move	v0,s0
    51ac:	3c040001 	lui	a0,0x1
    51b0:	0c00094a 	jal	2528 <puts>
    51b4:	24848b78 	addiu	a0,a0,-29832
    51b8:	0800146e 	j	51b8 <map_task+0x324>
    51bc:	00000000 	nop

000051c0 <page_used>:
    51c0:	27bdffe8 	addiu	sp,sp,-24
    51c4:	afb00010 	sw	s0,16(sp)
    51c8:	00808021 	move	s0,a0
    51cc:	00a02021 	move	a0,a1
    51d0:	afbf0014 	sw	ra,20(sp)
    51d4:	0c001277 	jal	49dc <add_task>
    51d8:	00c02821 	move	a1,a2
    51dc:	00101940 	sll	v1,s0,0x5
    51e0:	3c020005 	lui	v0,0x5
    51e4:	00108080 	sll	s0,s0,0x2
    51e8:	24428db8 	addiu	v0,v0,-29256
    51ec:	00701823 	subu	v1,v1,s0
    51f0:	00621821 	addu	v1,v1,v0
    51f4:	8c640018 	lw	a0,24(v1)
    51f8:	00000000 	nop
    51fc:	18800006 	blez	a0,5218 <page_used+0x58>
    5200:	2482ffff 	addiu	v0,a0,-1
    5204:	ac620018 	sw	v0,24(v1)
    5208:	8fbf0014 	lw	ra,20(sp)
    520c:	8fb00010 	lw	s0,16(sp)
    5210:	03e00008 	jr	ra
    5214:	27bd0018 	addiu	sp,sp,24
    5218:	ac600018 	sw	zero,24(v1)
    521c:	8fbf0014 	lw	ra,20(sp)
    5220:	8fb00010 	lw	s0,16(sp)
    5224:	03e00008 	jr	ra
    5228:	27bd0018 	addiu	sp,sp,24

0000522c <application_mapping>:
    522c:	27bdffc8 	addiu	sp,sp,-56
    5230:	afb7002c 	sw	s7,44(sp)
    5234:	0080b821 	move	s7,a0
    5238:	00a02021 	move	a0,a1
    523c:	afb20018 	sw	s2,24(sp)
    5240:	afbf0030 	sw	ra,48(sp)
    5244:	afb60028 	sw	s6,40(sp)
    5248:	afb50024 	sw	s5,36(sp)
    524c:	afb40020 	sw	s4,32(sp)
    5250:	afb3001c 	sw	s3,28(sp)
    5254:	afb10014 	sw	s1,20(sp)
    5258:	0c000cb0 	jal	32c0 <get_application_ptr>
    525c:	afb00010 	sw	s0,16(sp)
    5260:	00409021 	move	s2,v0
    5264:	8c420008 	lw	v0,8(v0)
    5268:	00000000 	nop
    526c:	1840002e 	blez	v0,5328 <application_mapping+0xfc>
    5270:	3c020005 	lui	v0,0x5
    5274:	24568ee8 	addiu	s6,v0,-28952
    5278:	00008821 	move	s1,zero
    527c:	00009821 	move	s3,zero
    5280:	3c150005 	lui	s5,0x5
    5284:	2414ffff 	li	s4,-1
    5288:	080014ac 	j	52b0 <application_mapping+0x84>
    528c:	26500010 	addiu	s0,s2,16
    5290:	8e050004 	lw	a1,4(s0)
    5294:	0c001252 	jal	4948 <change_task>
    5298:	26730001 	addiu	s3,s3,1
    529c:	8e420008 	lw	v0,8(s2)
    52a0:	00000000 	nop
    52a4:	0262102a 	slt	v0,s3,v0
    52a8:	1040001f 	beqz	v0,5328 <application_mapping+0xfc>
    52ac:	26100078 	addiu	s0,s0,120
    52b0:	8ea28e30 	lw	v0,-29136(s5)
    52b4:	00000000 	nop
    52b8:	00021140 	sll	v0,v0,0x5
    52bc:	00561021 	addu	v0,v0,s6
    52c0:	8c440010 	lw	a0,16(v0)
    52c4:	8c430000 	lw	v1,0(v0)
    52c8:	00000000 	nop
    52cc:	00641823 	subu	v1,v1,a0
    52d0:	10730024 	beq	v1,s3,5364 <application_mapping+0x138>
    52d4:	00000000 	nop
    52d8:	8e050004 	lw	a1,4(s0)
    52dc:	8e460104 	lw	a2,260(s2)
    52e0:	0c0013a5 	jal	4e94 <map_task>
    52e4:	02202021 	move	a0,s1
    52e8:	00408821 	move	s1,v0
    52ec:	10540025 	beq	v0,s4,5384 <application_mapping+0x158>
    52f0:	00402021 	move	a0,v0
    52f4:	0c00108e 	jal	4238 <proc_is_migrating>
    52f8:	ae020018 	sw	v0,24(s0)
    52fc:	02202021 	move	a0,s1
    5300:	1440ffe3 	bnez	v0,5290 <application_mapping+0x64>
    5304:	02202821 	move	a1,s1
    5308:	8e060004 	lw	a2,4(s0)
    530c:	0c001470 	jal	51c0 <page_used>
    5310:	02e02021 	move	a0,s7
    5314:	8e420008 	lw	v0,8(s2)
    5318:	26730001 	addiu	s3,s3,1
    531c:	0262102a 	slt	v0,s3,v0
    5320:	1440ffe3 	bnez	v0,52b0 <application_mapping+0x84>
    5324:	26100078 	addiu	s0,s0,120
    5328:	3c040001 	lui	a0,0x1
    532c:	0c00094a 	jal	2528 <puts>
    5330:	24848c04 	addiu	a0,a0,-29692
    5334:	24020001 	li	v0,1
    5338:	8fbf0030 	lw	ra,48(sp)
    533c:	8fb7002c 	lw	s7,44(sp)
    5340:	8fb60028 	lw	s6,40(sp)
    5344:	8fb50024 	lw	s5,36(sp)
    5348:	8fb40020 	lw	s4,32(sp)
    534c:	8fb3001c 	lw	s3,28(sp)
    5350:	8fb20018 	lw	s2,24(sp)
    5354:	8fb10014 	lw	s1,20(sp)
    5358:	8fb00010 	lw	s0,16(sp)
    535c:	03e00008 	jr	ra
    5360:	27bd0038 	addiu	sp,sp,56
    5364:	00008821 	move	s1,zero
    5368:	8e050004 	lw	a1,4(s0)
    536c:	8e460104 	lw	a2,260(s2)
    5370:	0c0013a5 	jal	4e94 <map_task>
    5374:	02202021 	move	a0,s1
    5378:	00408821 	move	s1,v0
    537c:	1454ffdd 	bne	v0,s4,52f4 <application_mapping+0xc8>
    5380:	00402021 	move	a0,v0
    5384:	080014ce 	j	5338 <application_mapping+0x10c>
    5388:	00001021 	move	v0,zero

0000538c <page_released>:
    538c:	27bdffe8 	addiu	sp,sp,-24
    5390:	afb00010 	sw	s0,16(sp)
    5394:	00808021 	move	s0,a0
    5398:	00a02021 	move	a0,a1
    539c:	afbf0014 	sw	ra,20(sp)
    53a0:	0c00121e 	jal	4878 <remove_task>
    53a4:	00c02821 	move	a1,a2
    53a8:	00102140 	sll	a0,s0,0x5
    53ac:	3c020005 	lui	v0,0x5
    53b0:	00108080 	sll	s0,s0,0x2
    53b4:	00902023 	subu	a0,a0,s0
    53b8:	24428db8 	addiu	v0,v0,-29256
    53bc:	00822021 	addu	a0,a0,v0
    53c0:	8c830018 	lw	v1,24(a0)
    53c4:	00000000 	nop
    53c8:	24630001 	addiu	v1,v1,1
    53cc:	ac830018 	sw	v1,24(a0)
    53d0:	8fbf0014 	lw	ra,20(sp)
    53d4:	8fb00010 	lw	s0,16(sp)
    53d8:	03e00008 	jr	ra
    53dc:	27bd0018 	addiu	sp,sp,24

000053e0 <initSRstructs>:
    53e0:	3c022000 	lui	v0,0x2000
    53e4:	34420140 	ori	v0,v0,0x140
    53e8:	8c440000 	lw	a0,0(v0)
    53ec:	3c030005 	lui	v1,0x5
    53f0:	ac648e58 	sw	a0,-29096(v1)
    53f4:	3c020005 	lui	v0,0x5
    53f8:	3c030005 	lui	v1,0x5
    53fc:	2442a998 	addiu	v0,v0,-22120
    5400:	2463b488 	addiu	v1,v1,-19320
    5404:	ac400000 	sw	zero,0(v0)
    5408:	2442008c 	addiu	v0,v0,140
    540c:	1443fffd 	bne	v0,v1,5404 <initSRstructs+0x24>
    5410:	00000000 	nop
    5414:	03e00008 	jr	ra
    5418:	24020001 	li	v0,1

0000541c <SearchSourceRoutingDestination>:
    541c:	3c020005 	lui	v0,0x5
    5420:	2443a99c 	addiu	v1,v0,-22116
    5424:	00002821 	move	a1,zero
    5428:	24070001 	li	a3,1
    542c:	2406000a 	li	a2,10
    5430:	8c620000 	lw	v0,0(v1)
    5434:	00000000 	nop
    5438:	14820005 	bne	a0,v0,5450 <SearchSourceRoutingDestination+0x34>
    543c:	00000000 	nop
    5440:	8c62fffc 	lw	v0,-4(v1)
    5444:	00000000 	nop
    5448:	10470005 	beq	v0,a3,5460 <SearchSourceRoutingDestination+0x44>
    544c:	00000000 	nop
    5450:	24a50001 	addiu	a1,a1,1
    5454:	14a6fff6 	bne	a1,a2,5430 <SearchSourceRoutingDestination+0x14>
    5458:	2463008c 	addiu	v1,v1,140
    545c:	2405ffff 	li	a1,-1
    5460:	03e00008 	jr	ra
    5464:	00a01021 	move	v0,a1

00005468 <ClearSlotSourceRouting>:
    5468:	3c020005 	lui	v0,0x5
    546c:	3c030005 	lui	v1,0x5
    5470:	2442a918 	addiu	v0,v0,-22248
    5474:	2463a99c 	addiu	v1,v1,-22116
    5478:	24460080 	addiu	a2,v0,128
    547c:	00002821 	move	a1,zero
    5480:	24080001 	li	t0,1
    5484:	2407000a 	li	a3,10
    5488:	8c620000 	lw	v0,0(v1)
    548c:	00000000 	nop
    5490:	14820005 	bne	a0,v0,54a8 <ClearSlotSourceRouting+0x40>
    5494:	00000000 	nop
    5498:	8c62fffc 	lw	v0,-4(v1)
    549c:	00000000 	nop
    54a0:	10480008 	beq	v0,t0,54c4 <ClearSlotSourceRouting+0x5c>
    54a4:	00a01021 	move	v0,a1
    54a8:	24a50001 	addiu	a1,a1,1
    54ac:	24c6008c 	addiu	a2,a2,140
    54b0:	14a7fff5 	bne	a1,a3,5488 <ClearSlotSourceRouting+0x20>
    54b4:	2463008c 	addiu	v1,v1,140
    54b8:	2405ffff 	li	a1,-1
    54bc:	03e00008 	jr	ra
    54c0:	00a01021 	move	v0,a1
    54c4:	03e00008 	jr	ra
    54c8:	acc00000 	sw	zero,0(a2)

000054cc <ClearAllSourceRouting>:
    54cc:	3c020005 	lui	v0,0x5
    54d0:	3c030005 	lui	v1,0x5
    54d4:	2444a998 	addiu	a0,v0,-22120
    54d8:	2463af10 	addiu	v1,v1,-20720
    54dc:	0800153c 	j	54f0 <ClearAllSourceRouting+0x24>
    54e0:	24050001 	li	a1,1
    54e4:	2484008c 	addiu	a0,a0,140
    54e8:	10830009 	beq	a0,v1,5510 <ClearAllSourceRouting+0x44>
    54ec:	00000000 	nop
    54f0:	8c820000 	lw	v0,0(a0)
    54f4:	00000000 	nop
    54f8:	1445fffa 	bne	v0,a1,54e4 <ClearAllSourceRouting+0x18>
    54fc:	00000000 	nop
    5500:	ac800000 	sw	zero,0(a0)
    5504:	2484008c 	addiu	a0,a0,140
    5508:	1483fff9 	bne	a0,v1,54f0 <ClearAllSourceRouting+0x24>
    550c:	00000000 	nop
    5510:	03e00008 	jr	ra
    5514:	00000000 	nop

00005518 <Seek>:
    5518:	240d0001 	li	t5,1
    551c:	3c02f03f 	lui	v0,0xf03f
    5520:	3c0a2000 	lui	t2,0x2000
    5524:	34427dca 	ori	v0,v0,0x7dca
    5528:	008d5804 	sllv	t3,t5,a0
    552c:	01626024 	and	t4,t3,v0
    5530:	35430370 	ori	v1,t2,0x370
    5534:	35420390 	ori	v0,t2,0x390
    5538:	35480394 	ori	t0,t2,0x394
    553c:	2c890020 	sltiu	t1,a0,32
    5540:	ac640000 	sw	a0,0(v1)
    5544:	ac450000 	sw	a1,0(v0)
    5548:	ad070000 	sw	a3,0(t0)
    554c:	1120000d 	beqz	t1,5584 <Seek+0x6c>
    5550:	3c022000 	lui	v0,0x2000
    5554:	31640234 	andi	a0,t3,0x234
    5558:	11800007 	beqz	t4,5578 <Seek+0x60>
    555c:	35420550 	ori	v0,t2,0x550
    5560:	ac400000 	sw	zero,0(v0)
    5564:	3c022000 	lui	v0,0x2000
    5568:	34420380 	ori	v0,v0,0x380
    556c:	ac460000 	sw	a2,0(v0)
    5570:	03e00008 	jr	ra
    5574:	00000000 	nop
    5578:	14800004 	bnez	a0,558c <Seek+0x74>
    557c:	00000000 	nop
    5580:	3c022000 	lui	v0,0x2000
    5584:	08001558 	j	5560 <Seek+0x48>
    5588:	34420550 	ori	v0,v0,0x550
    558c:	ac4d0000 	sw	t5,0(v0)
    5590:	3c022000 	lui	v0,0x2000
    5594:	34420380 	ori	v0,v0,0x380
    5598:	ac460000 	sw	a2,0(v0)
    559c:	03e00008 	jr	ra
    55a0:	00000000 	nop

000055a4 <print_port>:
    55a4:	2c820008 	sltiu	v0,a0,8
    55a8:	10400008 	beqz	v0,55cc <print_port+0x28>
    55ac:	3c030001 	lui	v1,0x1
    55b0:	00041080 	sll	v0,a0,0x2
    55b4:	24638c90 	addiu	v1,v1,-29552
    55b8:	00431021 	addu	v0,v0,v1
    55bc:	8c440000 	lw	a0,0(v0)
    55c0:	00000000 	nop
    55c4:	00800008 	jr	a0
    55c8:	00000000 	nop
    55cc:	3c040001 	lui	a0,0x1
    55d0:	0800094a 	j	2528 <puts>
    55d4:	24848c44 	addiu	a0,a0,-29628
    55d8:	3c040001 	lui	a0,0x1
    55dc:	0800094a 	j	2528 <puts>
    55e0:	24848c24 	addiu	a0,a0,-29660
    55e4:	3c040001 	lui	a0,0x1
    55e8:	0800094a 	j	2528 <puts>
    55ec:	24848c40 	addiu	a0,a0,-29632
    55f0:	3c040001 	lui	a0,0x1
    55f4:	0800094a 	j	2528 <puts>
    55f8:	24848c38 	addiu	a0,a0,-29640
    55fc:	3c040001 	lui	a0,0x1
    5600:	0800094a 	j	2528 <puts>
    5604:	24848c30 	addiu	a0,a0,-29648
    5608:	3c040001 	lui	a0,0x1
    560c:	0800094a 	j	2528 <puts>
    5610:	24848c28 	addiu	a0,a0,-29656
    5614:	3c040001 	lui	a0,0x1
    5618:	0800094a 	j	2528 <puts>
    561c:	24848c3c 	addiu	a0,a0,-29636
    5620:	3c040001 	lui	a0,0x1
    5624:	0800094a 	j	2528 <puts>
    5628:	24848c34 	addiu	a0,a0,-29644
    562c:	3c040001 	lui	a0,0x1
    5630:	0800094a 	j	2528 <puts>
    5634:	24848c2c 	addiu	a0,a0,-29652

00005638 <GetFreeSlotSourceRouting>:
    5638:	27bdffe8 	addiu	sp,sp,-24
    563c:	3c020005 	lui	v0,0x5
    5640:	3c030005 	lui	v1,0x5
    5644:	afbf0010 	sw	ra,16(sp)
    5648:	2445a99c 	addiu	a1,v0,-22116
    564c:	2463af14 	addiu	v1,v1,-20716
    5650:	24060001 	li	a2,1
    5654:	8ca20000 	lw	v0,0(a1)
    5658:	00000000 	nop
    565c:	10820016 	beq	a0,v0,56b8 <GetFreeSlotSourceRouting+0x80>
    5660:	00000000 	nop
    5664:	24a5008c 	addiu	a1,a1,140
    5668:	14a3fffa 	bne	a1,v1,5654 <GetFreeSlotSourceRouting+0x1c>
    566c:	3c020005 	lui	v0,0x5
    5670:	2443a998 	addiu	v1,v0,-22120
    5674:	00002021 	move	a0,zero
    5678:	24050014 	li	a1,20
    567c:	8c620000 	lw	v0,0(v1)
    5680:	00000000 	nop
    5684:	10400008 	beqz	v0,56a8 <GetFreeSlotSourceRouting+0x70>
    5688:	2463008c 	addiu	v1,v1,140
    568c:	24840001 	addiu	a0,a0,1
    5690:	1485fffa 	bne	a0,a1,567c <GetFreeSlotSourceRouting+0x44>
    5694:	00000000 	nop
    5698:	3c040001 	lui	a0,0x1
    569c:	0c00094a 	jal	2528 <puts>
    56a0:	24848c48 	addiu	a0,a0,-29624
    56a4:	2404ffff 	li	a0,-1
    56a8:	8fbf0010 	lw	ra,16(sp)
    56ac:	00801021 	move	v0,a0
    56b0:	03e00008 	jr	ra
    56b4:	27bd0018 	addiu	sp,sp,24
    56b8:	8ca2fffc 	lw	v0,-4(a1)
    56bc:	00000000 	nop
    56c0:	1446ffe9 	bne	v0,a2,5668 <GetFreeSlotSourceRouting+0x30>
    56c4:	24a5008c 	addiu	a1,a1,140
    56c8:	24a5ff74 	addiu	a1,a1,-140
    56cc:	080015aa 	j	56a8 <GetFreeSlotSourceRouting+0x70>
    56d0:	2404ffff 	li	a0,-1

000056d4 <ProcessTurns>:
    56d4:	27bdff78 	addiu	sp,sp,-136
    56d8:	afb40070 	sw	s4,112(sp)
    56dc:	afb10064 	sw	s1,100(sp)
    56e0:	27b40010 	addiu	s4,sp,16
    56e4:	00008821 	move	s1,zero
    56e8:	30820003 	andi	v0,a0,0x3
    56ec:	02803821 	move	a3,s4
    56f0:	00042082 	srl	a0,a0,0x2
    56f4:	240a0010 	li	t2,16
    56f8:	26310001 	addiu	s1,s1,1
    56fc:	afbf0084 	sw	ra,132(sp)
    5700:	afbe0080 	sw	s8,128(sp)
    5704:	afb7007c 	sw	s7,124(sp)
    5708:	afb60078 	sw	s6,120(sp)
    570c:	afb50074 	sw	s5,116(sp)
    5710:	afb3006c 	sw	s3,108(sp)
    5714:	afb20068 	sw	s2,104(sp)
    5718:	afb00060 	sw	s0,96(sp)
    571c:	240b0020 	li	t3,32
    5720:	24090001 	li	t1,1
    5724:	240c0003 	li	t4,3
    5728:	ace20000 	sw	v0,0(a3)
    572c:	122a0010 	beq	s1,t2,5770 <ProcessTurns+0x9c>
    5730:	30830003 	andi	v1,a0,0x3
    5734:	122b00be 	beq	s1,t3,5a30 <ProcessTurns+0x35c>
    5738:	00000000 	nop
    573c:	8ce20000 	lw	v0,0(a3)
    5740:	00000000 	nop
    5744:	1440000e 	bnez	v0,5780 <ProcessTurns+0xac>
    5748:	00000000 	nop
    574c:	10690015 	beq	v1,t1,57a4 <ProcessTurns+0xd0>
    5750:	00111080 	sll	v0,s1,0x2
    5754:	24e70004 	addiu	a3,a3,4
    5758:	30820003 	andi	v0,a0,0x3
    575c:	26310001 	addiu	s1,s1,1
    5760:	00042082 	srl	a0,a0,0x2
    5764:	ace20000 	sw	v0,0(a3)
    5768:	162afff2 	bne	s1,t2,5734 <ProcessTurns+0x60>
    576c:	30830003 	andi	v1,a0,0x3
    5770:	8ce20000 	lw	v0,0(a3)
    5774:	00000000 	nop
    5778:	1040fff4 	beqz	v0,574c <ProcessTurns+0x78>
    577c:	00a02021 	move	a0,a1
    5780:	104900ad 	beq	v0,t1,5a38 <ProcessTurns+0x364>
    5784:	24080002 	li	t0,2
    5788:	104800af 	beq	v0,t0,5a48 <ProcessTurns+0x374>
    578c:	00000000 	nop
    5790:	144cfff0 	bne	v0,t4,5754 <ProcessTurns+0x80>
    5794:	00000000 	nop
    5798:	1468ffef 	bne	v1,t0,5758 <ProcessTurns+0x84>
    579c:	24e70004 	addiu	a3,a3,4
    57a0:	00111080 	sll	v0,s1,0x2
    57a4:	00541021 	addu	v0,v0,s4
    57a8:	1a2000df 	blez	s1,5b28 <ProcessTurns+0x454>
    57ac:	ac430000 	sw	v1,0(v0)
    57b0:	00002021 	move	a0,zero
    57b4:	00002821 	move	a1,zero
    57b8:	00003821 	move	a3,zero
    57bc:	02801821 	move	v1,s4
    57c0:	24060001 	li	a2,1
    57c4:	24080002 	li	t0,2
    57c8:	080015fb 	j	57ec <ProcessTurns+0x118>
    57cc:	24090003 	li	t1,3
    57d0:	104800a3 	beq	v0,t0,5a60 <ProcessTurns+0x38c>
    57d4:	00000000 	nop
    57d8:	104900bf 	beq	v0,t1,5ad8 <ProcessTurns+0x404>
    57dc:	00000000 	nop
    57e0:	24840001 	addiu	a0,a0,1
    57e4:	1091000b 	beq	a0,s1,5814 <ProcessTurns+0x140>
    57e8:	24630004 	addiu	v1,v1,4
    57ec:	8c620000 	lw	v0,0(v1)
    57f0:	00000000 	nop
    57f4:	10460098 	beq	v0,a2,5a58 <ProcessTurns+0x384>
    57f8:	00000000 	nop
    57fc:	1440fff4 	bnez	v0,57d0 <ProcessTurns+0xfc>
    5800:	00000000 	nop
    5804:	24840001 	addiu	a0,a0,1
    5808:	24a50001 	addiu	a1,a1,1
    580c:	1491fff7 	bne	a0,s1,57ec <ProcessTurns+0x118>
    5810:	24630004 	addiu	v1,v1,4
    5814:	00a09821 	move	s3,a1
    5818:	00e09021 	move	s2,a3
    581c:	3c040001 	lui	a0,0x1
    5820:	3c100005 	lui	s0,0x5
    5824:	0c00094a 	jal	2528 <puts>
    5828:	24848c84 	addiu	a0,a0,-29564
    582c:	8e038e34 	lw	v1,-29132(s0)
    5830:	3c170001 	lui	s7,0x1
    5834:	00032202 	srl	a0,v1,0x8
    5838:	00932021 	addu	a0,a0,s3
    583c:	00721821 	addu	v1,v1,s2
    5840:	306300ff 	andi	v1,v1,0xff
    5844:	00042200 	sll	a0,a0,0x8
    5848:	0c0009bc 	jal	26f0 <itoh>
    584c:	00832025 	or	a0,a0,v1
    5850:	0c00094a 	jal	2528 <puts>
    5854:	00402021 	move	a0,v0
    5858:	0c00094a 	jal	2528 <puts>
    585c:	26e489ac 	addiu	a0,s7,-30292
    5860:	8e038e34 	lw	v1,-29132(s0)
    5864:	3c1e0005 	lui	s8,0x5
    5868:	00032202 	srl	a0,v1,0x8
    586c:	00932021 	addu	a0,a0,s3
    5870:	00721821 	addu	v1,v1,s2
    5874:	306300ff 	andi	v1,v1,0xff
    5878:	00042200 	sll	a0,a0,0x8
    587c:	0c001507 	jal	541c <SearchSourceRoutingDestination>
    5880:	00832025 	or	a0,a0,v1
    5884:	00409821 	move	s3,v0
    5888:	3c022aaa 	lui	v0,0x2aaa
    588c:	3442aaab 	ori	v0,v0,0xaaab
    5890:	02220018 	mult	s1,v0
    5894:	0013a880 	sll	s5,s3,0x2
    5898:	0013b100 	sll	s6,s3,0x4
    589c:	02b62821 	addu	a1,s5,s6
    58a0:	000518c0 	sll	v1,a1,0x3
    58a4:	001137c3 	sra	a2,s1,0x1f
    58a8:	00651823 	subu	v1,v1,a1
    58ac:	27c4a918 	addiu	a0,s8,-22248
    58b0:	00648021 	addu	s0,v1,a0
    58b4:	00001010 	mfhi	v0
    58b8:	00461023 	subu	v0,v0,a2
    58bc:	24420001 	addiu	v0,v0,1
    58c0:	1a200089 	blez	s1,5ae8 <ProcessTurns+0x414>
    58c4:	ae020088 	sw	v0,136(s0)
    58c8:	00003021 	move	a2,zero
    58cc:	24070001 	li	a3,1
    58d0:	24080001 	li	t0,1
    58d4:	02802021 	move	a0,s4
    58d8:	14e0006a 	bnez	a3,5a84 <ProcessTurns+0x3b0>
    58dc:	00000000 	nop
    58e0:	8c820000 	lw	v0,0(a0)
    58e4:	00000000 	nop
    58e8:	2442fffe 	addiu	v0,v0,-2
    58ec:	2c420002 	sltiu	v0,v0,2
    58f0:	1440005d 	bnez	v0,5a68 <ProcessTurns+0x394>
    58f4:	00000000 	nop
    58f8:	24c60001 	addiu	a2,a2,1
    58fc:	24840004 	addiu	a0,a0,4
    5900:	00d1102a 	slt	v0,a2,s1
    5904:	1440fff4 	bnez	v0,58d8 <ProcessTurns+0x204>
    5908:	00000000 	nop
    590c:	00009021 	move	s2,zero
    5910:	02808021 	move	s0,s4
    5914:	8e040000 	lw	a0,0(s0)
    5918:	0c001569 	jal	55a4 <print_port>
    591c:	26520001 	addiu	s2,s2,1
    5920:	0232102a 	slt	v0,s1,s2
    5924:	1040fffb 	beqz	v0,5914 <ProcessTurns+0x240>
    5928:	26100004 	addiu	s0,s0,4
    592c:	0c00094a 	jal	2528 <puts>
    5930:	26e489ac 	addiu	a0,s7,-30292
    5934:	02b62021 	addu	a0,s5,s6
    5938:	000410c0 	sll	v0,a0,0x3
    593c:	00441023 	subu	v0,v0,a0
    5940:	27c3a918 	addiu	v1,s8,-22248
    5944:	3c047000 	lui	a0,0x7000
    5948:	00431821 	addu	v1,v0,v1
    594c:	34847000 	ori	a0,a0,0x7000
    5950:	0640002a 	bltz	s2,59fc <ProcessTurns+0x328>
    5954:	ac640000 	sw	a0,0(v1)
    5958:	8fa20010 	lw	v0,16(sp)
    595c:	24090014 	li	t1,20
    5960:	3042000f 	andi	v0,v0,0xf
    5964:	00021600 	sll	v0,v0,0x18
    5968:	00441025 	or	v0,v0,a0
    596c:	24080001 	li	t0,1
    5970:	ac620000 	sw	v0,0(v1)
    5974:	0248102a 	slt	v0,s2,t0
    5978:	14400021 	bnez	v0,5a00 <ProcessTurns+0x32c>
    597c:	02601021 	move	v0,s3
    5980:	3c042aaa 	lui	a0,0x2aaa
    5984:	3484aaab 	ori	a0,a0,0xaaab
    5988:	01040018 	mult	t0,a0
    598c:	00131940 	sll	v1,s3,0x5
    5990:	00083fc3 	sra	a3,t0,0x1f
    5994:	02a31821 	addu	v1,s5,v1
    5998:	00081080 	sll	v0,t0,0x2
    599c:	00731823 	subu	v1,v1,s3
    59a0:	00541021 	addu	v0,v0,s4
    59a4:	8c450000 	lw	a1,0(v0)
    59a8:	27c6a918 	addiu	a2,s8,-22248
    59ac:	30a5000f 	andi	a1,a1,0xf
    59b0:	01252804 	sllv	a1,a1,t1
    59b4:	25080001 	addiu	t0,t0,1
    59b8:	00002010 	mfhi	a0
    59bc:	00872023 	subu	a0,a0,a3
    59c0:	00641821 	addu	v1,v1,a0
    59c4:	00031880 	sll	v1,v1,0x2
    59c8:	00661821 	addu	v1,v1,a2
    59cc:	8c620000 	lw	v0,0(v1)
    59d0:	00000000 	nop
    59d4:	00451025 	or	v0,v0,a1
    59d8:	1120003a 	beqz	t1,5ac4 <ProcessTurns+0x3f0>
    59dc:	ac620000 	sw	v0,0(v1)
    59e0:	24020010 	li	v0,16
    59e4:	1122003e 	beq	t1,v0,5ae0 <ProcessTurns+0x40c>
    59e8:	00000000 	nop
    59ec:	2529fffc 	addiu	t1,t1,-4
    59f0:	0248102a 	slt	v0,s2,t0
    59f4:	1040ffe3 	beqz	v0,5984 <ProcessTurns+0x2b0>
    59f8:	3c042aaa 	lui	a0,0x2aaa
    59fc:	02601021 	move	v0,s3
    5a00:	8fbf0084 	lw	ra,132(sp)
    5a04:	8fbe0080 	lw	s8,128(sp)
    5a08:	8fb7007c 	lw	s7,124(sp)
    5a0c:	8fb60078 	lw	s6,120(sp)
    5a10:	8fb50074 	lw	s5,116(sp)
    5a14:	8fb40070 	lw	s4,112(sp)
    5a18:	8fb3006c 	lw	s3,108(sp)
    5a1c:	8fb20068 	lw	s2,104(sp)
    5a20:	8fb10064 	lw	s1,100(sp)
    5a24:	8fb00060 	lw	s0,96(sp)
    5a28:	03e00008 	jr	ra
    5a2c:	27bd0088 	addiu	sp,sp,136
    5a30:	080015cf 	j	573c <ProcessTurns+0x68>
    5a34:	00c02021 	move	a0,a2
    5a38:	1060ff59 	beqz	v1,57a0 <ProcessTurns+0xcc>
    5a3c:	24e70004 	addiu	a3,a3,4
    5a40:	080015d7 	j	575c <ProcessTurns+0x88>
    5a44:	30820003 	andi	v0,a0,0x3
    5a48:	106cff55 	beq	v1,t4,57a0 <ProcessTurns+0xcc>
    5a4c:	24e70004 	addiu	a3,a3,4
    5a50:	080015d7 	j	575c <ProcessTurns+0x88>
    5a54:	30820003 	andi	v0,a0,0x3
    5a58:	080015f8 	j	57e0 <ProcessTurns+0x10c>
    5a5c:	24a5ffff 	addiu	a1,a1,-1
    5a60:	080015f8 	j	57e0 <ProcessTurns+0x10c>
    5a64:	24e70001 	addiu	a3,a3,1
    5a68:	24840004 	addiu	a0,a0,4
    5a6c:	8c820000 	lw	v0,0(a0)
    5a70:	00000000 	nop
    5a74:	1448ffa2 	bne	v0,t0,5900 <ProcessTurns+0x22c>
    5a78:	24c60001 	addiu	a2,a2,1
    5a7c:	08001640 	j	5900 <ProcessTurns+0x22c>
    5a80:	24070001 	li	a3,1
    5a84:	8c850000 	lw	a1,0(a0)
    5a88:	00000000 	nop
    5a8c:	24a2fffe 	addiu	v0,a1,-2
    5a90:	2c420002 	sltiu	v0,v0,2
    5a94:	14400005 	bnez	v0,5aac <ProcessTurns+0x3d8>
    5a98:	00061880 	sll	v1,a2,0x2
    5a9c:	00741821 	addu	v1,v1,s4
    5aa0:	24a20004 	addiu	v0,a1,4
    5aa4:	0800163e 	j	58f8 <ProcessTurns+0x224>
    5aa8:	ac620000 	sw	v0,0(v1)
    5aac:	8c820004 	lw	v0,4(a0)
    5ab0:	00000000 	nop
    5ab4:	1440fff9 	bnez	v0,5a9c <ProcessTurns+0x3c8>
    5ab8:	00000000 	nop
    5abc:	080016a7 	j	5a9c <ProcessTurns+0x3c8>
    5ac0:	00003821 	move	a3,zero
    5ac4:	3c027000 	lui	v0,0x7000
    5ac8:	34427000 	ori	v0,v0,0x7000
    5acc:	24090018 	li	t1,24
    5ad0:	0800165d 	j	5974 <ProcessTurns+0x2a0>
    5ad4:	ac620004 	sw	v0,4(v1)
    5ad8:	080015f8 	j	57e0 <ProcessTurns+0x10c>
    5adc:	24e7ffff 	addiu	a3,a3,-1
    5ae0:	0800165d 	j	5974 <ProcessTurns+0x2a0>
    5ae4:	24090008 	li	t1,8
    5ae8:	1220ff88 	beqz	s1,590c <ProcessTurns+0x238>
    5aec:	00000000 	nop
    5af0:	0c00094a 	jal	2528 <puts>
    5af4:	26e489ac 	addiu	a0,s7,-30292
    5af8:	8fa30010 	lw	v1,16(sp)
    5afc:	3c027000 	lui	v0,0x7000
    5b00:	3063000f 	andi	v1,v1,0xf
    5b04:	00031e00 	sll	v1,v1,0x18
    5b08:	34427000 	ori	v0,v0,0x7000
    5b0c:	24090018 	li	t1,24
    5b10:	00621825 	or	v1,v1,v0
    5b14:	00009021 	move	s2,zero
    5b18:	24080001 	li	t0,1
    5b1c:	2529fffc 	addiu	t1,t1,-4
    5b20:	0800167c 	j	59f0 <ProcessTurns+0x31c>
    5b24:	ae030000 	sw	v1,0(s0)
    5b28:	00009821 	move	s3,zero
    5b2c:	08001607 	j	581c <ProcessTurns+0x148>
    5b30:	00009021 	move	s2,zero

00005b34 <initialize_struct_pairs>:
    5b34:	3c020005 	lui	v0,0x5
    5b38:	3c030005 	lui	v1,0x5
    5b3c:	2442a5e8 	addiu	v0,v0,-23064
    5b40:	2463a908 	addiu	v1,v1,-22264
    5b44:	2406ffff 	li	a2,-1
    5b48:	ac460000 	sw	a2,0(v0)
    5b4c:	ac460004 	sw	a2,4(v0)
    5b50:	ac460008 	sw	a2,8(v0)
    5b54:	ac40000c 	sw	zero,12(v0)
    5b58:	ac460010 	sw	a2,16(v0)
    5b5c:	ac460014 	sw	a2,20(v0)
    5b60:	ac460018 	sw	a2,24(v0)
    5b64:	ac46001c 	sw	a2,28(v0)
    5b68:	ac460020 	sw	a2,32(v0)
    5b6c:	ac460024 	sw	a2,36(v0)
    5b70:	24420028 	addiu	v0,v0,40
    5b74:	1443fff4 	bne	v0,v1,5b48 <initialize_struct_pairs+0x14>
    5b78:	3c050005 	lui	a1,0x5
    5b7c:	3c020005 	lui	v0,0x5
    5b80:	24448e48 	addiu	a0,v0,-29112
    5b84:	24a3a908 	addiu	v1,a1,-22264
    5b88:	ac468e48 	sw	a2,-29112(v0)
    5b8c:	3c020005 	lui	v0,0x5
    5b90:	ac660004 	sw	a2,4(v1)
    5b94:	ac468e44 	sw	a2,-29116(v0)
    5b98:	ac860004 	sw	a2,4(a0)
    5b9c:	03e00008 	jr	ra
    5ba0:	aca6a908 	sw	a2,-22264(a1)

00005ba4 <define_pairs>:
    5ba4:	27bdffe0 	addiu	sp,sp,-32
    5ba8:	afb10014 	sw	s1,20(sp)
    5bac:	afb00010 	sw	s0,16(sp)
    5bb0:	afbf0018 	sw	ra,24(sp)
    5bb4:	00a08821 	move	s1,a1
    5bb8:	0c0016cd 	jal	5b34 <initialize_struct_pairs>
    5bbc:	00808021 	move	s0,a0
    5bc0:	3c020005 	lui	v0,0x5
    5bc4:	2447a5e8 	addiu	a3,v0,-23064
    5bc8:	3c090005 	lui	t1,0x5
    5bcc:	252ba908 	addiu	t3,t1,-22264
    5bd0:	240a0100 	li	t2,256
    5bd4:	ac40a5e8 	sw	zero,-23064(v0)
    5bd8:	ace00004 	sw	zero,4(a3)
    5bdc:	12000006 	beqz	s0,5bf8 <define_pairs+0x54>
    5be0:	ace00008 	sw	zero,8(a3)
    5be4:	8fbf0018 	lw	ra,24(sp)
    5be8:	8fb10014 	lw	s1,20(sp)
    5bec:	8fb00010 	lw	s0,16(sp)
    5bf0:	03e00008 	jr	ra
    5bf4:	27bd0020 	addiu	sp,sp,32
    5bf8:	8ce20014 	lw	v0,20(a3)
    5bfc:	8ce30018 	lw	v1,24(a3)
    5c00:	8ce40010 	lw	a0,16(a3)
    5c04:	8ce8001c 	lw	t0,28(a3)
    5c08:	8ce5000c 	lw	a1,12(a3)
    5c0c:	8ce60020 	lw	a2,32(a3)
    5c10:	8ce70024 	lw	a3,36(a3)
    5c14:	ae220014 	sw	v0,20(s1)
    5c18:	3c020005 	lui	v0,0x5
    5c1c:	ae230018 	sw	v1,24(s1)
    5c20:	ae240010 	sw	a0,16(s1)
    5c24:	ae25000c 	sw	a1,12(s1)
    5c28:	ae260020 	sw	a2,32(s1)
    5c2c:	ae270024 	sw	a3,36(s1)
    5c30:	ae28001c 	sw	t0,28(s1)
    5c34:	ac4a8e48 	sw	t2,-29112(v0)
    5c38:	ad2aa908 	sw	t2,-22264(t1)
    5c3c:	ad600004 	sw	zero,4(t3)
    5c40:	8e230014 	lw	v1,20(s1)
    5c44:	8e240018 	lw	a0,24(s1)
    5c48:	00031a00 	sll	v1,v1,0x8
    5c4c:	00641821 	addu	v1,v1,a0
    5c50:	3c020005 	lui	v0,0x5
    5c54:	080016f9 	j	5be4 <define_pairs+0x40>
    5c58:	ac438e50 	sw	v1,-29104(v0)

00005c5c <get_slave_candidate_my_cluster>:
    5c5c:	3c030005 	lui	v1,0x5
    5c60:	8c628e44 	lw	v0,-29116(v1)
    5c64:	03e00008 	jr	ra
    5c68:	00000000 	nop

00005c6c <set_slave_candidate_my_cluster>:
    5c6c:	3c020005 	lui	v0,0x5
    5c70:	03e00008 	jr	ra
    5c74:	ac448e44 	sw	a0,-29116(v0)

00005c78 <get_slave_candidate_other_cluster>:
    5c78:	3c030005 	lui	v1,0x5
    5c7c:	8c62a908 	lw	v0,-22264(v1)
    5c80:	03e00008 	jr	ra
    5c84:	00000000 	nop

00005c88 <get_task_candidate_other_cluster>:
    5c88:	3c030005 	lui	v1,0x5
    5c8c:	8c62a90c 	lw	v0,-22260(v1)
    5c90:	03e00008 	jr	ra
    5c94:	00000000 	nop

00005c98 <get_task0_candidate_other_cluster>:
    5c98:	3c030005 	lui	v1,0x5
    5c9c:	8c62a910 	lw	v0,-22256(v1)
    5ca0:	03e00008 	jr	ra
    5ca4:	00000000 	nop

00005ca8 <get_task1_candidate_other_cluster>:
    5ca8:	3c030005 	lui	v1,0x5
    5cac:	8c62a914 	lw	v0,-22252(v1)
    5cb0:	03e00008 	jr	ra
    5cb4:	00000000 	nop

00005cb8 <set_slave_candidate_other_cluster>:
    5cb8:	00051203 	sra	v0,a1,0x8
    5cbc:	3c030005 	lui	v1,0x5
    5cc0:	00021600 	sll	v0,v0,0x18
    5cc4:	2466a908 	addiu	a2,v1,-22264
    5cc8:	00021603 	sra	v0,v0,0x18
    5ccc:	00052e00 	sll	a1,a1,0x18
    5cd0:	00052e03 	sra	a1,a1,0x18
    5cd4:	acc2000c 	sw	v0,12(a2)
    5cd8:	2402ffff 	li	v0,-1
    5cdc:	ac64a908 	sw	a0,-22264(v1)
    5ce0:	acc00004 	sw	zero,4(a2)
    5ce4:	10a20003 	beq	a1,v0,5cf4 <set_slave_candidate_other_cluster+0x3c>
    5ce8:	acc50008 	sw	a1,8(a2)
    5cec:	24020001 	li	v0,1
    5cf0:	acc20004 	sw	v0,4(a2)
    5cf4:	03e00008 	jr	ra
    5cf8:	00000000 	nop

00005cfc <set_master_other_cluster>:
    5cfc:	3c020005 	lui	v0,0x5
    5d00:	03e00008 	jr	ra
    5d04:	ac448e50 	sw	a0,-29104(v0)

00005d08 <get_master_other_cluster>:
    5d08:	3c030005 	lui	v1,0x5
    5d0c:	8c628e50 	lw	v0,-29104(v1)
    5d10:	03e00008 	jr	ra
    5d14:	00000000 	nop

00005d18 <search_Service>:
    5d18:	3c020005 	lui	v0,0x5
    5d1c:	8c428ecc 	lw	v0,-28980(v0)
    5d20:	00000000 	nop
    5d24:	14400002 	bnez	v0,5d30 <search_Service+0x18>
    5d28:	2445ffff 	addiu	a1,v0,-1
    5d2c:	2405000f 	li	a1,15
    5d30:	3c020005 	lui	v0,0x5
    5d34:	2448b408 	addiu	t0,v0,-19448
    5d38:	00003021 	move	a2,zero
    5d3c:	24070010 	li	a3,16
    5d40:	00051100 	sll	v0,a1,0x4
    5d44:	00051980 	sll	v1,a1,0x6
    5d48:	00621823 	subu	v1,v1,v0
    5d4c:	00651823 	subu	v1,v1,a1
    5d50:	00031880 	sll	v1,v1,0x2
    5d54:	00681821 	addu	v1,v1,t0
    5d58:	8c620084 	lw	v0,132(v1)
    5d5c:	00000000 	nop
    5d60:	10440007 	beq	v0,a0,5d80 <search_Service+0x68>
    5d64:	24c60001 	addiu	a2,a2,1
    5d68:	24a5ffff 	addiu	a1,a1,-1
    5d6c:	04a00006 	bltz	a1,5d88 <search_Service+0x70>
    5d70:	00000000 	nop
    5d74:	14c7fff2 	bne	a2,a3,5d40 <search_Service+0x28>
    5d78:	00000000 	nop
    5d7c:	2405ffff 	li	a1,-1
    5d80:	03e00008 	jr	ra
    5d84:	00a01021 	move	v0,a1
    5d88:	14c7ffed 	bne	a2,a3,5d40 <search_Service+0x28>
    5d8c:	2405000f 	li	a1,15
    5d90:	08001760 	j	5d80 <search_Service+0x68>
    5d94:	2405ffff 	li	a1,-1

00005d98 <search_Target>:
    5d98:	3c020005 	lui	v0,0x5
    5d9c:	8c428ecc 	lw	v0,-28980(v0)
    5da0:	00000000 	nop
    5da4:	14400002 	bnez	v0,5db0 <search_Target+0x18>
    5da8:	2447ffff 	addiu	a3,v0,-1
    5dac:	2407000f 	li	a3,15
    5db0:	00004021 	move	t0,zero
    5db4:	3c090005 	lui	t1,0x5
    5db8:	00071100 	sll	v0,a3,0x4
    5dbc:	00071980 	sll	v1,a3,0x6
    5dc0:	00621823 	subu	v1,v1,v0
    5dc4:	00671823 	subu	v1,v1,a3
    5dc8:	00031880 	sll	v1,v1,0x2
    5dcc:	2525b408 	addiu	a1,t1,-19448
    5dd0:	00651021 	addu	v0,v1,a1
    5dd4:	9446007e 	lhu	a2,126(v0)
    5dd8:	00000000 	nop
    5ddc:	10c40015 	beq	a2,a0,5e34 <search_Target+0x9c>
    5de0:	00000000 	nop
    5de4:	24620078 	addiu	v0,v1,120
    5de8:	00451821 	addu	v1,v0,a1
    5dec:	2405001e 	li	a1,30
    5df0:	10c00008 	beqz	a2,5e14 <search_Target+0x7c>
    5df4:	24a5ffff 	addiu	a1,a1,-1
    5df8:	94660002 	lhu	a2,2(v1)
    5dfc:	00000000 	nop
    5e00:	10c4000c 	beq	a2,a0,5e34 <search_Target+0x9c>
    5e04:	2463fffc 	addiu	v1,v1,-4
    5e08:	2402ffff 	li	v0,-1
    5e0c:	14a2fff8 	bne	a1,v0,5df0 <search_Target+0x58>
    5e10:	00000000 	nop
    5e14:	24e7ffff 	addiu	a3,a3,-1
    5e18:	04e00008 	bltz	a3,5e3c <search_Target+0xa4>
    5e1c:	00000000 	nop
    5e20:	25080001 	addiu	t0,t0,1
    5e24:	24020010 	li	v0,16
    5e28:	1502ffe3 	bne	t0,v0,5db8 <search_Target+0x20>
    5e2c:	00000000 	nop
    5e30:	2407ffff 	li	a3,-1
    5e34:	03e00008 	jr	ra
    5e38:	00e01021 	move	v0,a3
    5e3c:	08001788 	j	5e20 <search_Target+0x88>
    5e40:	2407000f 	li	a3,15

00005e44 <initialize_CM_FIFO>:
    5e44:	3c020005 	lui	v0,0x5
    5e48:	3c030005 	lui	v1,0x5
    5e4c:	2442b48c 	addiu	v0,v0,-19316
    5e50:	2463c04c 	addiu	v1,v1,-16308
    5e54:	ac400000 	sw	zero,0(v0)
    5e58:	244200bc 	addiu	v0,v0,188
    5e5c:	1443fffd 	bne	v0,v1,5e54 <initialize_CM_FIFO+0x10>
    5e60:	00000000 	nop
    5e64:	03e00008 	jr	ra
    5e68:	00000000 	nop

00005e6c <resend_control_message>:
    5e6c:	27bdffe8 	addiu	sp,sp,-24
    5e70:	afb00010 	sw	s0,16(sp)
    5e74:	afbf0014 	sw	ra,20(sp)
    5e78:	0c001766 	jal	5d98 <search_Target>
    5e7c:	00000000 	nop
    5e80:	00022100 	sll	a0,v0,0x4
    5e84:	00021980 	sll	v1,v0,0x6
    5e88:	00641823 	subu	v1,v1,a0
    5e8c:	00621823 	subu	v1,v1,v0
    5e90:	3c040005 	lui	a0,0x5
    5e94:	00031880 	sll	v1,v1,0x2
    5e98:	2484b408 	addiu	a0,a0,-19448
    5e9c:	00648021 	addu	s0,v1,a0
    5ea0:	2403ffff 	li	v1,-1
    5ea4:	1043000d 	beq	v0,v1,5edc <resend_control_message+0x70>
    5ea8:	02002021 	move	a0,s0
    5eac:	8e0500b0 	lw	a1,176(s0)
    5eb0:	8e0600b4 	lw	a2,180(s0)
    5eb4:	0c000b7a 	jal	2de8 <send_packet>
    5eb8:	00000000 	nop
    5ebc:	24020001 	li	v0,1
    5ec0:	24030001 	li	v1,1
    5ec4:	ae0200b8 	sw	v0,184(s0)
    5ec8:	8fbf0014 	lw	ra,20(sp)
    5ecc:	8fb00010 	lw	s0,16(sp)
    5ed0:	00601021 	move	v0,v1
    5ed4:	03e00008 	jr	ra
    5ed8:	27bd0018 	addiu	sp,sp,24
    5edc:	3c040001 	lui	a0,0x1
    5ee0:	0c00094a 	jal	2528 <puts>
    5ee4:	24848cb0 	addiu	a0,a0,-29520
    5ee8:	080017b2 	j	5ec8 <resend_control_message+0x5c>
    5eec:	2403ffff 	li	v1,-1

00005ef0 <insert_CM_FIFO>:
    5ef0:	27bdffe0 	addiu	sp,sp,-32
    5ef4:	afb20018 	sw	s2,24(sp)
    5ef8:	afb10014 	sw	s1,20(sp)
    5efc:	afb00010 	sw	s0,16(sp)
    5f00:	afbf001c 	sw	ra,28(sp)
    5f04:	8c980084 	lw	t8,132(a0)
    5f08:	24020190 	li	v0,400
    5f0c:	00808021 	move	s0,a0
    5f10:	00a08821 	move	s1,a1
    5f14:	13020074 	beq	t8,v0,60e8 <insert_CM_FIFO+0x1f8>
    5f18:	00c09021 	move	s2,a2
    5f1c:	2f020191 	sltiu	v0,t8,401
    5f20:	10400015 	beqz	v0,5f78 <insert_CM_FIFO+0x88>
    5f24:	24020235 	li	v0,565
    5f28:	24020070 	li	v0,112
    5f2c:	13020065 	beq	t8,v0,60c4 <insert_CM_FIFO+0x1d4>
    5f30:	2f020071 	sltiu	v0,t8,113
    5f34:	10400073 	beqz	v0,6104 <insert_CM_FIFO+0x214>
    5f38:	24020150 	li	v0,336
    5f3c:	24020020 	li	v0,32
    5f40:	13020054 	beq	t8,v0,6094 <insert_CM_FIFO+0x1a4>
    5f44:	2f020021 	sltiu	v0,t8,33
    5f48:	1040008a 	beqz	v0,6174 <insert_CM_FIFO+0x284>
    5f4c:	24020040 	li	v0,64
    5f50:	24020010 	li	v0,16
    5f54:	1302004f 	beq	t8,v0,6094 <insert_CM_FIFO+0x1a4>
    5f58:	24020015 	li	v0,21
    5f5c:	1302004d 	beq	t8,v0,6094 <insert_CM_FIFO+0x1a4>
    5f60:	00000000 	nop
    5f64:	3c040001 	lui	a0,0x1
    5f68:	0c00094a 	jal	2528 <puts>
    5f6c:	24848cd8 	addiu	a0,a0,-29480
    5f70:	080017dc 	j	5f70 <insert_CM_FIFO+0x80>
    5f74:	00000000 	nop
    5f78:	13020052 	beq	t8,v0,60c4 <insert_CM_FIFO+0x1d4>
    5f7c:	2f020236 	sltiu	v0,t8,566
    5f80:	1040006b 	beqz	v0,6130 <insert_CM_FIFO+0x240>
    5f84:	24020250 	li	v0,592
    5f88:	2f020228 	sltiu	v0,t8,552
    5f8c:	10400073 	beqz	v0,615c <insert_CM_FIFO+0x26c>
    5f90:	24020230 	li	v0,560
    5f94:	2f020220 	sltiu	v0,t8,544
    5f98:	1440007e 	bnez	v0,6194 <insert_CM_FIFO+0x2a4>
    5f9c:	24020200 	li	v0,512
    5fa0:	3c190005 	lui	t9,0x5
    5fa4:	8f238ecc 	lw	v1,-28980(t9)
    5fa8:	3c050005 	lui	a1,0x5
    5fac:	00032100 	sll	a0,v1,0x4
    5fb0:	00031180 	sll	v0,v1,0x6
    5fb4:	00441023 	subu	v0,v0,a0
    5fb8:	00431023 	subu	v0,v0,v1
    5fbc:	00021080 	sll	v0,v0,0x2
    5fc0:	24a3b408 	addiu	v1,a1,-19448
    5fc4:	00431021 	addu	v0,v0,v1
    5fc8:	ac5200b4 	sw	s2,180(v0)
    5fcc:	ac5100b0 	sw	s1,176(v0)
    5fd0:	8e180084 	lw	t8,132(s0)
    5fd4:	8f288ecc 	lw	t0,-28980(t9)
    5fd8:	24a3b408 	addiu	v1,a1,-19448
    5fdc:	00084900 	sll	t1,t0,0x4
    5fe0:	00085180 	sll	t2,t0,0x6
    5fe4:	01491023 	subu	v0,t2,t1
    5fe8:	00481023 	subu	v0,v0,t0
    5fec:	00021080 	sll	v0,v0,0x2
    5ff0:	00432021 	addu	a0,v0,v1
    5ff4:	00003021 	move	a2,zero
    5ff8:	24070080 	li	a3,128
    5ffc:	00d01021 	addu	v0,a2,s0
    6000:	8c430000 	lw	v1,0(v0)
    6004:	24c60004 	addiu	a2,a2,4
    6008:	ac830000 	sw	v1,0(a0)
    600c:	14c7fffb 	bne	a2,a3,5ffc <insert_CM_FIFO+0x10c>
    6010:	24840004 	addiu	a0,a0,4
    6014:	01491023 	subu	v0,t2,t1
    6018:	00481023 	subu	v0,v0,t0
    601c:	8e0400ac 	lw	a0,172(s0)
    6020:	8e060080 	lw	a2,128(s0)
    6024:	8e070088 	lw	a3,136(s0)
    6028:	8e090090 	lw	t1,144(s0)
    602c:	8e0a0094 	lw	t2,148(s0)
    6030:	8e0b0098 	lw	t3,152(s0)
    6034:	8e0c009c 	lw	t4,156(s0)
    6038:	8e0d00a0 	lw	t5,160(s0)
    603c:	8e0e00a4 	lw	t6,164(s0)
    6040:	8e0f00a8 	lw	t7,168(s0)
    6044:	25030001 	addiu	v1,t0,1
    6048:	00021080 	sll	v0,v0,0x2
    604c:	8e08008c 	lw	t0,140(s0)
    6050:	24a5b408 	addiu	a1,a1,-19448
    6054:	00451021 	addu	v0,v0,a1
    6058:	3063000f 	andi	v1,v1,0xf
    605c:	af238ecc 	sw	v1,-28980(t9)
    6060:	ac460080 	sw	a2,128(v0)
    6064:	ac580084 	sw	t8,132(v0)
    6068:	ac470088 	sw	a3,136(v0)
    606c:	ac48008c 	sw	t0,140(v0)
    6070:	ac490090 	sw	t1,144(v0)
    6074:	ac4a0094 	sw	t2,148(v0)
    6078:	ac4b0098 	sw	t3,152(v0)
    607c:	ac4c009c 	sw	t4,156(v0)
    6080:	ac4d00a0 	sw	t5,160(v0)
    6084:	ac4e00a4 	sw	t6,164(v0)
    6088:	ac4f00a8 	sw	t7,168(v0)
    608c:	ac4400ac 	sw	a0,172(v0)
    6090:	ac4000b8 	sw	zero,184(v0)
    6094:	8fbf001c 	lw	ra,28(sp)
    6098:	8fb20018 	lw	s2,24(sp)
    609c:	8fb10014 	lw	s1,20(sp)
    60a0:	8fb00010 	lw	s0,16(sp)
    60a4:	03e00008 	jr	ra
    60a8:	27bd0020 	addiu	sp,sp,32
    60ac:	13020005 	beq	t8,v0,60c4 <insert_CM_FIFO+0x1d4>
    60b0:	24020280 	li	v0,640
    60b4:	13020003 	beq	t8,v0,60c4 <insert_CM_FIFO+0x1d4>
    60b8:	24020255 	li	v0,597
    60bc:	1702ffa9 	bne	t8,v0,5f64 <insert_CM_FIFO+0x74>
    60c0:	00000000 	nop
    60c4:	3c190005 	lui	t9,0x5
    60c8:	080017f5 	j	5fd4 <insert_CM_FIFO+0xe4>
    60cc:	3c050005 	lui	a1,0x5
    60d0:	13020005 	beq	t8,v0,60e8 <insert_CM_FIFO+0x1f8>
    60d4:	24020180 	li	v0,384
    60d8:	1302fffa 	beq	t8,v0,60c4 <insert_CM_FIFO+0x1d4>
    60dc:	24020160 	li	v0,352
    60e0:	1702ffa1 	bne	t8,v0,5f68 <insert_CM_FIFO+0x78>
    60e4:	3c040001 	lui	a0,0x1
    60e8:	0c001746 	jal	5d18 <search_Service>
    60ec:	03002021 	move	a0,t8
    60f0:	2403ffff 	li	v1,-1
    60f4:	1443ffab 	bne	v0,v1,5fa4 <insert_CM_FIFO+0xb4>
    60f8:	3c190005 	lui	t9,0x5
    60fc:	08001825 	j	6094 <insert_CM_FIFO+0x1a4>
    6100:	00000000 	nop
    6104:	1302ffa6 	beq	t8,v0,5fa0 <insert_CM_FIFO+0xb0>
    6108:	2f020151 	sltiu	v0,t8,337
    610c:	1040fff0 	beqz	v0,60d0 <insert_CM_FIFO+0x1e0>
    6110:	24020170 	li	v0,368
    6114:	24020090 	li	v0,144
    6118:	1302ffea 	beq	t8,v0,60c4 <insert_CM_FIFO+0x1d4>
    611c:	24020140 	li	v0,320
    6120:	1702ff90 	bne	t8,v0,5f64 <insert_CM_FIFO+0x74>
    6124:	3c190005 	lui	t9,0x5
    6128:	080017e9 	j	5fa4 <insert_CM_FIFO+0xb4>
    612c:	00000000 	nop
    6130:	1302ff9b 	beq	t8,v0,5fa0 <insert_CM_FIFO+0xb0>
    6134:	2f020251 	sltiu	v0,t8,593
    6138:	1040ffdc 	beqz	v0,60ac <insert_CM_FIFO+0x1bc>
    613c:	24020260 	li	v0,608
    6140:	24020240 	li	v0,576
    6144:	1302ff96 	beq	t8,v0,5fa0 <insert_CM_FIFO+0xb0>
    6148:	24020245 	li	v0,581
    614c:	1702ff85 	bne	t8,v0,5f64 <insert_CM_FIFO+0x74>
    6150:	3c190005 	lui	t9,0x5
    6154:	080017f5 	j	5fd4 <insert_CM_FIFO+0xe4>
    6158:	3c050005 	lui	a1,0x5
    615c:	1302ffd9 	beq	t8,v0,60c4 <insert_CM_FIFO+0x1d4>
    6160:	24020231 	li	v0,561
    6164:	1702ff7f 	bne	t8,v0,5f64 <insert_CM_FIFO+0x74>
    6168:	3c190005 	lui	t9,0x5
    616c:	080017e9 	j	5fa4 <insert_CM_FIFO+0xb4>
    6170:	00000000 	nop
    6174:	1302ff8a 	beq	t8,v0,5fa0 <insert_CM_FIFO+0xb0>
    6178:	24020050 	li	v0,80
    617c:	1302ffd1 	beq	t8,v0,60c4 <insert_CM_FIFO+0x1d4>
    6180:	24020025 	li	v0,37
    6184:	1702ff78 	bne	t8,v0,5f68 <insert_CM_FIFO+0x78>
    6188:	3c040001 	lui	a0,0x1
    618c:	08001825 	j	6094 <insert_CM_FIFO+0x1a4>
    6190:	00000000 	nop
    6194:	1302ffcb 	beq	t8,v0,60c4 <insert_CM_FIFO+0x1d4>
    6198:	24020210 	li	v0,528
    619c:	1702ff71 	bne	t8,v0,5f64 <insert_CM_FIFO+0x74>
    61a0:	3c190005 	lui	t9,0x5
    61a4:	080017f5 	j	5fd4 <insert_CM_FIFO+0xe4>
    61a8:	3c050005 	lui	a1,0x5

000061ac <print_CM_FIFO>:
    61ac:	27bdffd0 	addiu	sp,sp,-48
    61b0:	afb60028 	sw	s6,40(sp)
    61b4:	3c160001 	lui	s6,0x1
    61b8:	afb50024 	sw	s5,36(sp)
    61bc:	afb40020 	sw	s4,32(sp)
    61c0:	afb3001c 	sw	s3,28(sp)
    61c4:	afb20018 	sw	s2,24(sp)
    61c8:	afb10014 	sw	s1,20(sp)
    61cc:	afb00010 	sw	s0,16(sp)
    61d0:	afbf002c 	sw	ra,44(sp)
    61d4:	0c00094a 	jal	2528 <puts>
    61d8:	26c489ac 	addiu	a0,s6,-30292
    61dc:	3c030005 	lui	v1,0x5
    61e0:	2471b48c 	addiu	s1,v1,-19316
    61e4:	00008021 	move	s0,zero
    61e8:	3c150001 	lui	s5,0x1
    61ec:	3c140001 	lui	s4,0x1
    61f0:	3c130001 	lui	s3,0x1
    61f4:	24120010 	li	s2,16
    61f8:	0c00094a 	jal	2528 <puts>
    61fc:	26a484d8 	addiu	a0,s5,-31528
    6200:	0c0009bc 	jal	26f0 <itoh>
    6204:	02002021 	move	a0,s0
    6208:	0c00094a 	jal	2528 <puts>
    620c:	00402021 	move	a0,v0
    6210:	0c00094a 	jal	2528 <puts>
    6214:	26848d10 	addiu	a0,s4,-29424
    6218:	8e240000 	lw	a0,0(s1)
    621c:	0c0009bc 	jal	26f0 <itoh>
    6220:	26100001 	addiu	s0,s0,1
    6224:	0c00094a 	jal	2528 <puts>
    6228:	00402021 	move	a0,v0
    622c:	0c00094a 	jal	2528 <puts>
    6230:	26648d1c 	addiu	a0,s3,-29412
    6234:	8e24fff8 	lw	a0,-8(s1)
    6238:	0c0009bc 	jal	26f0 <itoh>
    623c:	263100bc 	addiu	s1,s1,188
    6240:	0c00094a 	jal	2528 <puts>
    6244:	00402021 	move	a0,v0
    6248:	0c00094a 	jal	2528 <puts>
    624c:	26c489ac 	addiu	a0,s6,-30292
    6250:	1612ffe9 	bne	s0,s2,61f8 <print_CM_FIFO+0x4c>
    6254:	00000000 	nop
    6258:	8fbf002c 	lw	ra,44(sp)
    625c:	8fb60028 	lw	s6,40(sp)
    6260:	8fb50024 	lw	s5,36(sp)
    6264:	8fb40020 	lw	s4,32(sp)
    6268:	8fb3001c 	lw	s3,28(sp)
    626c:	8fb20018 	lw	s2,24(sp)
    6270:	8fb10014 	lw	s1,20(sp)
    6274:	8fb00010 	lw	s0,16(sp)
    6278:	03e00008 	jr	ra
    627c:	27bd0030 	addiu	sp,sp,48

00006280 <le64toh>:
    6280:	00043c02 	srl	a3,a0,0x10
    6284:	30e700ff 	andi	a3,a3,0xff
    6288:	00041e02 	srl	v1,a0,0x18
    628c:	00074602 	srl	t0,a3,0x18
    6290:	00047200 	sll	t6,a0,0x8
    6294:	00073a00 	sll	a3,a3,0x8
    6298:	00054e02 	srl	t1,a1,0x18
    629c:	00003021 	move	a2,zero
    62a0:	306300ff 	andi	v1,v1,0xff
    62a4:	00671825 	or	v1,v1,a3
    62a8:	01c94825 	or	t1,t6,t1
    62ac:	00053a02 	srl	a3,a1,0x8
    62b0:	00047600 	sll	t6,a0,0x18
    62b4:	00063200 	sll	a2,a2,0x8
    62b8:	01063025 	or	a2,t0,a2
    62bc:	00045a02 	srl	t3,a0,0x8
    62c0:	312900ff 	andi	t1,t1,0xff
    62c4:	01c73825 	or	a3,t6,a3
    62c8:	00001021 	move	v0,zero
    62cc:	01204021 	move	t0,t1
    62d0:	316b00ff 	andi	t3,t3,0xff
    62d4:	00461025 	or	v0,v0,a2
    62d8:	00004821 	move	t1,zero
    62dc:	30e700ff 	andi	a3,a3,0xff
    62e0:	00005021 	move	t2,zero
    62e4:	00073400 	sll	a2,a3,0x10
    62e8:	00481025 	or	v0,v0,t0
    62ec:	00691825 	or	v1,v1,t1
    62f0:	000b4402 	srl	t0,t3,0x10
    62f4:	00003821 	move	a3,zero
    62f8:	000a5400 	sll	t2,t2,0x10
    62fc:	308d00ff 	andi	t5,a0,0xff
    6300:	00671825 	or	v1,v1,a3
    6304:	010a5025 	or	t2,t0,t2
    6308:	00053c02 	srl	a3,a1,0x10
    630c:	00044400 	sll	t0,a0,0x10
    6310:	00006021 	move	t4,zero
    6314:	00461025 	or	v0,v0,a2
    6318:	01073825 	or	a3,t0,a3
    631c:	000d3202 	srl	a2,t5,0x8
    6320:	000c6600 	sll	t4,t4,0x18
    6324:	00cc6025 	or	t4,a2,t4
    6328:	000d6e00 	sll	t5,t5,0x18
    632c:	30e700ff 	andi	a3,a3,0xff
    6330:	000b5c00 	sll	t3,t3,0x10
    6334:	00073200 	sll	a2,a3,0x8
    6338:	014c5025 	or	t2,t2,t4
    633c:	016d5825 	or	t3,t3,t5
    6340:	30a500ff 	andi	a1,a1,0xff
    6344:	00003821 	move	a3,zero
    6348:	00052600 	sll	a0,a1,0x18
    634c:	01465025 	or	t2,t2,a2
    6350:	00002821 	move	a1,zero
    6354:	01675825 	or	t3,t3,a3
    6358:	01445025 	or	t2,t2,a0
    635c:	01655825 	or	t3,t3,a1
    6360:	004a1025 	or	v0,v0,t2
    6364:	03e00008 	jr	ra
    6368:	006b1825 	or	v1,v1,t3

0000636c <siphash24>:
    636c:	27bdfe40 	addiu	sp,sp,-448
    6370:	afbf01bc 	sw	ra,444(sp)
    6374:	afbe01b8 	sw	s8,440(sp)
    6378:	afb701b4 	sw	s7,436(sp)
    637c:	afb601b0 	sw	s6,432(sp)
    6380:	afb501ac 	sw	s5,428(sp)
    6384:	afb401a8 	sw	s4,424(sp)
    6388:	afb301a4 	sw	s3,420(sp)
    638c:	afb201a0 	sw	s2,416(sp)
    6390:	afb1019c 	sw	s1,412(sp)
    6394:	afb00198 	sw	s0,408(sp)
    6398:	00801021 	move	v0,a0
    639c:	afa501c4 	sw	a1,452(sp)
    63a0:	8cc40000 	lw	a0,0(a2)
    63a4:	8cc50004 	lw	a1,4(a2)
    63a8:	00c09021 	move	s2,a2
    63ac:	0c0018a0 	jal	6280 <le64toh>
    63b0:	0040f021 	move	s8,v0
    63b4:	8e45000c 	lw	a1,12(s2)
    63b8:	8e440008 	lw	a0,8(s2)
    63bc:	00408021 	move	s0,v0
    63c0:	00608821 	move	s1,v1
    63c4:	00001021 	move	v0,zero
    63c8:	00001821 	move	v1,zero
    63cc:	afa30024 	sw	v1,36(sp)
    63d0:	0c0018a0 	jal	6280 <le64toh>
    63d4:	afa20020 	sw	v0,32(sp)
    63d8:	8fa401c4 	lw	a0,452(sp)
    63dc:	3c057073 	lui	a1,0x7073
    63e0:	2c860008 	sltiu	a2,a0,8
    63e4:	3c04736f 	lui	a0,0x736f
    63e8:	34846d65 	ori	a0,a0,0x6d65
    63ec:	0204b026 	xor	s6,s0,a0
    63f0:	34a56575 	ori	a1,a1,0x6575
    63f4:	3c04646f 	lui	a0,0x646f
    63f8:	34847261 	ori	a0,a0,0x7261
    63fc:	0225b826 	xor	s7,s1,a1
    6400:	3c056e64 	lui	a1,0x6e64
    6404:	34a56f6d 	ori	a1,a1,0x6f6d
    6408:	00449026 	xor	s2,v0,a0
    640c:	3c046c79 	lui	a0,0x6c79
    6410:	00659826 	xor	s3,v1,a1
    6414:	34846765 	ori	a0,a0,0x6765
    6418:	3c056e65 	lui	a1,0x6e65
    641c:	02042026 	xor	a0,s0,a0
    6420:	34a57261 	ori	a1,a1,0x7261
    6424:	afa40018 	sw	a0,24(sp)
    6428:	02258026 	xor	s0,s1,a1
    642c:	3c047465 	lui	a0,0x7465
    6430:	3c057974 	lui	a1,0x7974
    6434:	00006821 	move	t5,zero
    6438:	00006021 	move	t4,zero
    643c:	34846462 	ori	a0,a0,0x6462
    6440:	34a56573 	ori	a1,a1,0x6573
    6444:	afb0001c 	sw	s0,28(sp)
    6448:	afad002c 	sw	t5,44(sp)
    644c:	afac0028 	sw	t4,40(sp)
    6450:	afad0034 	sw	t5,52(sp)
    6454:	afac0030 	sw	t4,48(sp)
    6458:	afad003c 	sw	t5,60(sp)
    645c:	afac0038 	sw	t4,56(sp)
    6460:	afad0044 	sw	t5,68(sp)
    6464:	afac0040 	sw	t4,64(sp)
    6468:	afad004c 	sw	t5,76(sp)
    646c:	afac0048 	sw	t4,72(sp)
    6470:	afad0054 	sw	t5,84(sp)
    6474:	afac0050 	sw	t4,80(sp)
    6478:	afad005c 	sw	t5,92(sp)
    647c:	afac0058 	sw	t4,88(sp)
    6480:	afad0064 	sw	t5,100(sp)
    6484:	afac0060 	sw	t4,96(sp)
    6488:	afad006c 	sw	t5,108(sp)
    648c:	afac0068 	sw	t4,104(sp)
    6490:	afad0074 	sw	t5,116(sp)
    6494:	afac0070 	sw	t4,112(sp)
    6498:	afad007c 	sw	t5,124(sp)
    649c:	afac0078 	sw	t4,120(sp)
    64a0:	afad0084 	sw	t5,132(sp)
    64a4:	afac0080 	sw	t4,128(sp)
    64a8:	afad008c 	sw	t5,140(sp)
    64ac:	afac0088 	sw	t4,136(sp)
    64b0:	afad0094 	sw	t5,148(sp)
    64b4:	afac0090 	sw	t4,144(sp)
    64b8:	afad009c 	sw	t5,156(sp)
    64bc:	afac0098 	sw	t4,152(sp)
    64c0:	0044a026 	xor	s4,v0,a0
    64c4:	afad00a4 	sw	t5,164(sp)
    64c8:	0065a826 	xor	s5,v1,a1
    64cc:	afac00a0 	sw	t4,160(sp)
    64d0:	afad00ac 	sw	t5,172(sp)
    64d4:	afac00a8 	sw	t4,168(sp)
    64d8:	afad00b4 	sw	t5,180(sp)
    64dc:	afac00b0 	sw	t4,176(sp)
    64e0:	afad00bc 	sw	t5,188(sp)
    64e4:	afac00b8 	sw	t4,184(sp)
    64e8:	afad00c4 	sw	t5,196(sp)
    64ec:	afac00c0 	sw	t4,192(sp)
    64f0:	afad00cc 	sw	t5,204(sp)
    64f4:	afac00c8 	sw	t4,200(sp)
    64f8:	afad00d4 	sw	t5,212(sp)
    64fc:	afac00d0 	sw	t4,208(sp)
    6500:	afad00dc 	sw	t5,220(sp)
    6504:	afac00d8 	sw	t4,216(sp)
    6508:	afad00e4 	sw	t5,228(sp)
    650c:	afac00e0 	sw	t4,224(sp)
    6510:	afad00ec 	sw	t5,236(sp)
    6514:	afac00e8 	sw	t4,232(sp)
    6518:	afad00f4 	sw	t5,244(sp)
    651c:	afac00f0 	sw	t4,240(sp)
    6520:	afad00fc 	sw	t5,252(sp)
    6524:	afac00f8 	sw	t4,248(sp)
    6528:	afad0104 	sw	t5,260(sp)
    652c:	afac0100 	sw	t4,256(sp)
    6530:	afad010c 	sw	t5,268(sp)
    6534:	afac0108 	sw	t4,264(sp)
    6538:	afad0114 	sw	t5,276(sp)
    653c:	afac0110 	sw	t4,272(sp)
    6540:	afad011c 	sw	t5,284(sp)
    6544:	afac0118 	sw	t4,280(sp)
    6548:	afad0124 	sw	t5,292(sp)
    654c:	afac0120 	sw	t4,288(sp)
    6550:	afad012c 	sw	t5,300(sp)
    6554:	afac0128 	sw	t4,296(sp)
    6558:	afad0134 	sw	t5,308(sp)
    655c:	afac0130 	sw	t4,304(sp)
    6560:	afad013c 	sw	t5,316(sp)
    6564:	afac0138 	sw	t4,312(sp)
    6568:	afad0144 	sw	t5,324(sp)
    656c:	afac0140 	sw	t4,320(sp)
    6570:	afad014c 	sw	t5,332(sp)
    6574:	afac0148 	sw	t4,328(sp)
    6578:	afad0154 	sw	t5,340(sp)
    657c:	afac0150 	sw	t4,336(sp)
    6580:	afad015c 	sw	t5,348(sp)
    6584:	afac0158 	sw	t4,344(sp)
    6588:	afad0164 	sw	t5,356(sp)
    658c:	afac0160 	sw	t4,352(sp)
    6590:	afad016c 	sw	t5,364(sp)
    6594:	afac0168 	sw	t4,360(sp)
    6598:	afad0174 	sw	t5,372(sp)
    659c:	afac0170 	sw	t4,368(sp)
    65a0:	afad017c 	sw	t5,380(sp)
    65a4:	afac0178 	sw	t4,376(sp)
    65a8:	afad0184 	sw	t5,388(sp)
    65ac:	afac0180 	sw	t4,384(sp)
    65b0:	afad018c 	sw	t5,396(sp)
    65b4:	afac0188 	sw	t4,392(sp)
    65b8:	afad0194 	sw	t5,404(sp)
    65bc:	14c00289 	bnez	a2,6fe4 <siphash24+0xc78>
    65c0:	afac0190 	sw	t4,400(sp)
    65c4:	8fb101c4 	lw	s1,452(sp)
    65c8:	8fc50004 	lw	a1,4(s8)
    65cc:	8fc40000 	lw	a0,0(s8)
    65d0:	0c0018a0 	jal	6280 <le64toh>
    65d4:	2631fff8 	addiu	s1,s1,-8
    65d8:	00123340 	sll	a2,s2,0xd
    65dc:	8fad001c 	lw	t5,28(sp)
    65e0:	00133cc2 	srl	a3,s3,0x13
    65e4:	00752826 	xor	a1,v1,s5
    65e8:	00e63825 	or	a3,a3,a2
    65ec:	8fa60018 	lw	a2,24(sp)
    65f0:	00ad4821 	addu	t1,a1,t5
    65f4:	02f35821 	addu	t3,s7,s3
    65f8:	00542026 	xor	a0,v0,s4
    65fc:	00137340 	sll	t6,s3,0xd
    6600:	00126cc2 	srl	t5,s2,0x13
    6604:	02d25021 	addu	t2,s6,s2
    6608:	0177602b 	sltu	t4,t3,s7
    660c:	afa70090 	sw	a3,144(sp)
    6610:	00864021 	addu	t0,a0,a2
    6614:	01ae6825 	or	t5,t5,t6
    6618:	00043400 	sll	a2,a0,0x10
    661c:	00053c02 	srl	a3,a1,0x10
    6620:	018a6021 	addu	t4,t4,t2
    6624:	afad0094 	sw	t5,148(sp)
    6628:	00e63825 	or	a3,a3,a2
    662c:	00056c00 	sll	t5,a1,0x10
    6630:	00042402 	srl	a0,a0,0x10
    6634:	afa70098 	sw	a3,152(sp)
    6638:	afac005c 	sw	t4,92(sp)
    663c:	01803821 	move	a3,t4
    6640:	008d2025 	or	a0,a0,t5
    6644:	8fac0090 	lw	t4,144(sp)
    6648:	afa4009c 	sw	a0,156(sp)
    664c:	00ec3026 	xor	a2,a3,t4
    6650:	0125782b 	sltu	t7,t1,a1
    6654:	8faa0098 	lw	t2,152(sp)
    6658:	8fa50094 	lw	a1,148(sp)
    665c:	8fac009c 	lw	t4,156(sp)
    6660:	01e84021 	addu	t0,t7,t0
    6664:	01653826 	xor	a3,t3,a1
    6668:	010a2026 	xor	a0,t0,t2
    666c:	012c2826 	xor	a1,t1,t4
    6670:	01066021 	addu	t4,t0,a2
    6674:	8fa8005c 	lw	t0,92(sp)
    6678:	01276821 	addu	t5,t1,a3
    667c:	afab0058 	sw	t3,88(sp)
    6680:	01a9702b 	sltu	t6,t5,t1
    6684:	00a85821 	addu	t3,a1,t0
    6688:	00074bc2 	srl	t1,a3,0xf
    668c:	00064440 	sll	t0,a2,0x11
    6690:	01284825 	or	t1,t1,t0
    6694:	00077c40 	sll	t7,a3,0x11
    6698:	8fa70058 	lw	a3,88(sp)
    669c:	afa900a0 	sw	t1,160(sp)
    66a0:	00044540 	sll	t0,a0,0x15
    66a4:	00054ac2 	srl	t1,a1,0xb
    66a8:	01284825 	or	t1,t1,t0
    66ac:	00875021 	addu	t2,a0,a3
    66b0:	00054540 	sll	t0,a1,0x15
    66b4:	000633c2 	srl	a2,a2,0xf
    66b8:	000422c2 	srl	a0,a0,0xb
    66bc:	0165802b 	sltu	s0,t3,a1
    66c0:	00cf3025 	or	a2,a2,t7
    66c4:	8fa500a0 	lw	a1,160(sp)
    66c8:	00882025 	or	a0,a0,t0
    66cc:	01cc7021 	addu	t6,t6,t4
    66d0:	afa600a4 	sw	a2,164(sp)
    66d4:	afa400ac 	sw	a0,172(sp)
    66d8:	01c53026 	xor	a2,t6,a1
    66dc:	8fac00ac 	lw	t4,172(sp)
    66e0:	8fa500a4 	lw	a1,164(sp)
    66e4:	020a5021 	addu	t2,s0,t2
    66e8:	afae0024 	sw	t6,36(sp)
    66ec:	01a53826 	xor	a3,t5,a1
    66f0:	01492026 	xor	a0,t2,t1
    66f4:	016c2826 	xor	a1,t3,t4
    66f8:	01466021 	addu	t4,t2,a2
    66fc:	8faa0024 	lw	t2,36(sp)
    6700:	afad0020 	sw	t5,32(sp)
    6704:	01676821 	addu	t5,t3,a3
    6708:	01ab702b 	sltu	t6,t5,t3
    670c:	afa900a8 	sw	t1,168(sp)
    6710:	00075cc2 	srl	t3,a3,0x13
    6714:	00aa4821 	addu	t1,a1,t2
    6718:	00065340 	sll	t2,a2,0xd
    671c:	016a5825 	or	t3,t3,t2
    6720:	afab00b0 	sw	t3,176(sp)
    6724:	00075340 	sll	t2,a3,0xd
    6728:	000634c2 	srl	a2,a2,0x13
    672c:	00ca3025 	or	a2,a2,t2
    6730:	8faa00b0 	lw	t2,176(sp)
    6734:	01cc7021 	addu	t6,t6,t4
    6738:	afa600b4 	sw	a2,180(sp)
    673c:	8fa70020 	lw	a3,32(sp)
    6740:	01ca3026 	xor	a2,t6,t2
    6744:	8faa00b4 	lw	t2,180(sp)
    6748:	0125582b 	sltu	t3,t1,a1
    674c:	00874021 	addu	t0,a0,a3
    6750:	00057c00 	sll	t7,a1,0x10
    6754:	01aa3826 	xor	a3,t5,t2
    6758:	00045400 	sll	t2,a0,0x10
    675c:	00042402 	srl	a0,a0,0x10
    6760:	01684021 	addu	t0,t3,t0
    6764:	008f2025 	or	a0,a0,t7
    6768:	00055c02 	srl	t3,a1,0x10
    676c:	016a5825 	or	t3,t3,t2
    6770:	afa400bc 	sw	a0,188(sp)
    6774:	afab00b8 	sw	t3,184(sp)
    6778:	afad0050 	sw	t5,80(sp)
    677c:	8fad00bc 	lw	t5,188(sp)
    6780:	8fac00b8 	lw	t4,184(sp)
    6784:	012d2826 	xor	a1,t1,t5
    6788:	000783c2 	srl	s0,a3,0xf
    678c:	00066c40 	sll	t5,a2,0x11
    6790:	01275821 	addu	t3,t1,a3
    6794:	010c2026 	xor	a0,t0,t4
    6798:	020d8025 	or	s0,s0,t5
    679c:	00046540 	sll	t4,a0,0x15
    67a0:	afae0054 	sw	t6,84(sp)
    67a4:	0169782b 	sltu	t7,t3,t1
    67a8:	afb000c0 	sw	s0,192(sp)
    67ac:	00ae4821 	addu	t1,a1,t6
    67b0:	00076c40 	sll	t5,a3,0x11
    67b4:	000572c2 	srl	t6,a1,0xb
    67b8:	8fa70050 	lw	a3,80(sp)
    67bc:	01cc7025 	or	t6,t6,t4
    67c0:	01065021 	addu	t2,t0,a2
    67c4:	afae00c8 	sw	t6,200(sp)
    67c8:	00874021 	addu	t0,a0,a3
    67cc:	00057540 	sll	t6,a1,0x15
    67d0:	000422c2 	srl	a0,a0,0xb
    67d4:	000633c2 	srl	a2,a2,0xf
    67d8:	008e2025 	or	a0,a0,t6
    67dc:	00cd3025 	or	a2,a2,t5
    67e0:	afa400cc 	sw	a0,204(sp)
    67e4:	0125602b 	sltu	t4,t1,a1
    67e8:	afa600c4 	sw	a2,196(sp)
    67ec:	01669826 	xor	s3,t3,a2
    67f0:	8fa700cc 	lw	a3,204(sp)
    67f4:	8fa600c8 	lw	a2,200(sp)
    67f8:	01ea7821 	addu	t7,t7,t2
    67fc:	01884021 	addu	t0,t4,t0
    6800:	2e250008 	sltiu	a1,s1,8
    6804:	afaf001c 	sw	t7,28(sp)
    6808:	27de0008 	addiu	s8,s8,8
    680c:	afab0018 	sw	t3,24(sp)
    6810:	01f09026 	xor	s2,t7,s0
    6814:	0106a026 	xor	s4,t0,a2
    6818:	0127a826 	xor	s5,t1,a3
    681c:	0048b026 	xor	s6,v0,t0
    6820:	10a0ff69 	beqz	a1,65c8 <siphash24+0x25c>
    6824:	0069b826 	xor	s7,v1,t1
    6828:	00006821 	move	t5,zero
    682c:	00006021 	move	t4,zero
    6830:	afad0014 	sw	t5,20(sp)
    6834:	afac0010 	sw	t4,16(sp)
    6838:	10a00012 	beqz	a1,6884 <siphash24+0x518>
    683c:	27a60010 	addiu	a2,sp,16
    6840:	3c030001 	lui	v1,0x1
    6844:	00111080 	sll	v0,s1,0x2
    6848:	24638d28 	addiu	v1,v1,-29400
    684c:	00431021 	addu	v0,v0,v1
    6850:	8c440000 	lw	a0,0(v0)
    6854:	00000000 	nop
    6858:	00800008 	jr	a0
    685c:	00000000 	nop
    6860:	93c20002 	lbu	v0,2(s8)
    6864:	00000000 	nop
    6868:	a0c20002 	sb	v0,2(a2)
    686c:	93c20001 	lbu	v0,1(s8)
    6870:	00000000 	nop
    6874:	a0c20001 	sb	v0,1(a2)
    6878:	93c20000 	lbu	v0,0(s8)
    687c:	00000000 	nop
    6880:	a0c20000 	sb	v0,0(a2)
    6884:	8fb101c4 	lw	s1,452(sp)
    6888:	8fa50014 	lw	a1,20(sp)
    688c:	8fa40010 	lw	a0,16(sp)
    6890:	0c0018a0 	jal	6280 <le64toh>
    6894:	00118600 	sll	s0,s1,0x18
    6898:	02028025 	or	s0,s0,v0
    689c:	8fa40018 	lw	a0,24(sp)
    68a0:	02141026 	xor	v0,s0,s4
    68a4:	00008821 	move	s1,zero
    68a8:	8fad001c 	lw	t5,28(sp)
    68ac:	00445021 	addu	t2,v0,a0
    68b0:	02238825 	or	s1,s1,v1
    68b4:	00122340 	sll	a0,s2,0xd
    68b8:	00132cc2 	srl	a1,s3,0x13
    68bc:	02351826 	xor	v1,s1,s5
    68c0:	00a42825 	or	a1,a1,a0
    68c4:	02f33821 	addu	a3,s7,s3
    68c8:	006d5821 	addu	t3,v1,t5
    68cc:	afa500d0 	sw	a1,208(sp)
    68d0:	00136b40 	sll	t5,s3,0xd
    68d4:	00022400 	sll	a0,v0,0x10
    68d8:	00122cc2 	srl	a1,s2,0x13
    68dc:	00034402 	srl	t0,v1,0x10
    68e0:	02d23021 	addu	a2,s6,s2
    68e4:	00f7602b 	sltu	t4,a3,s7
    68e8:	00ad2825 	or	a1,a1,t5
    68ec:	01044025 	or	t0,t0,a0
    68f0:	01866021 	addu	t4,t4,a2
    68f4:	afa500d4 	sw	a1,212(sp)
    68f8:	afa800d8 	sw	t0,216(sp)
    68fc:	00021402 	srl	v0,v0,0x10
    6900:	00034400 	sll	t0,v1,0x10
    6904:	afac008c 	sw	t4,140(sp)
    6908:	8fad00d4 	lw	t5,212(sp)
    690c:	01802821 	move	a1,t4
    6910:	00481025 	or	v0,v0,t0
    6914:	8fac00d0 	lw	t4,208(sp)
    6918:	afa200dc 	sw	v0,220(sp)
    691c:	00ac2026 	xor	a0,a1,t4
    6920:	afa70088 	sw	a3,136(sp)
    6924:	00ed2826 	xor	a1,a3,t5
    6928:	8fa600d8 	lw	a2,216(sp)
    692c:	8fa700dc 	lw	a3,220(sp)
    6930:	0163482b 	sltu	t1,t3,v1
    6934:	012a4821 	addu	t1,t1,t2
    6938:	8fac0088 	lw	t4,136(sp)
    693c:	8faa008c 	lw	t2,140(sp)
    6940:	01671826 	xor	v1,t3,a3
    6944:	01261026 	xor	v0,t1,a2
    6948:	01653821 	addu	a3,t3,a1
    694c:	01243021 	addu	a2,t1,a0
    6950:	004c4021 	addu	t0,v0,t4
    6954:	006a4821 	addu	t1,v1,t2
    6958:	000362c2 	srl	t4,v1,0xb
    695c:	00025540 	sll	t2,v0,0x15
    6960:	00eb682b 	sltu	t5,a3,t3
    6964:	018a6025 	or	t4,t4,t2
    6968:	00045c40 	sll	t3,a0,0x11
    696c:	00055440 	sll	t2,a1,0x11
    6970:	000423c2 	srl	a0,a0,0xf
    6974:	008a2025 	or	a0,a0,t2
    6978:	000573c2 	srl	t6,a1,0xf
    697c:	01cb7025 	or	t6,t6,t3
    6980:	afa400e4 	sw	a0,228(sp)
    6984:	00035d40 	sll	t3,v1,0x15
    6988:	000212c2 	srl	v0,v0,0xb
    698c:	0123782b 	sltu	t7,t1,v1
    6990:	004b1025 	or	v0,v0,t3
    6994:	8fa300e4 	lw	v1,228(sp)
    6998:	afac00e8 	sw	t4,232(sp)
    699c:	afa200ec 	sw	v0,236(sp)
    69a0:	00e32826 	xor	a1,a3,v1
    69a4:	01a66821 	addu	t5,t5,a2
    69a8:	afa70048 	sw	a3,72(sp)
    69ac:	8fa600e8 	lw	a2,232(sp)
    69b0:	8fa700ec 	lw	a3,236(sp)
    69b4:	01e87821 	addu	t7,t7,t0
    69b8:	01a06021 	move	t4,t5
    69bc:	8fa80048 	lw	t0,72(sp)
    69c0:	01271826 	xor	v1,t1,a3
    69c4:	018e2026 	xor	a0,t4,t6
    69c8:	01e61026 	xor	v0,t7,a2
    69cc:	01253821 	addu	a3,t1,a1
    69d0:	00485021 	addu	t2,v0,t0
    69d4:	afad004c 	sw	t5,76(sp)
    69d8:	00044340 	sll	t0,a0,0xd
    69dc:	00e9682b 	sltu	t5,a3,t1
    69e0:	00054cc2 	srl	t1,a1,0x13
    69e4:	006c5821 	addu	t3,v1,t4
    69e8:	01e43021 	addu	a2,t7,a0
    69ec:	afae00e0 	sw	t6,224(sp)
    69f0:	01284825 	or	t1,t1,t0
    69f4:	00057340 	sll	t6,a1,0xd
    69f8:	000424c2 	srl	a0,a0,0x13
    69fc:	afa900f0 	sw	t1,240(sp)
    6a00:	0163602b 	sltu	t4,t3,v1
    6a04:	00024400 	sll	t0,v0,0x10
    6a08:	008e2025 	or	a0,a0,t6
    6a0c:	00034c02 	srl	t1,v1,0x10
    6a10:	01a66821 	addu	t5,t5,a2
    6a14:	afa400f4 	sw	a0,244(sp)
    6a18:	01284825 	or	t1,t1,t0
    6a1c:	018a6021 	addu	t4,t4,t2
    6a20:	00034400 	sll	t0,v1,0x10
    6a24:	00021402 	srl	v0,v0,0x10
    6a28:	01805021 	move	t2,t4
    6a2c:	afad0084 	sw	t5,132(sp)
    6a30:	8fa300f4 	lw	v1,244(sp)
    6a34:	01a06021 	move	t4,t5
    6a38:	00481025 	or	v0,v0,t0
    6a3c:	8fad00f0 	lw	t5,240(sp)
    6a40:	afa200fc 	sw	v0,252(sp)
    6a44:	00e32826 	xor	a1,a3,v1
    6a48:	018d2026 	xor	a0,t4,t5
    6a4c:	afa70080 	sw	a3,128(sp)
    6a50:	8fa700fc 	lw	a3,252(sp)
    6a54:	01491026 	xor	v0,t2,t1
    6a58:	01446021 	addu	t4,t2,a0
    6a5c:	8fa60080 	lw	a2,128(sp)
    6a60:	8faa0084 	lw	t2,132(sp)
    6a64:	01671826 	xor	v1,t3,a3
    6a68:	01656821 	addu	t5,t3,a1
    6a6c:	00464021 	addu	t0,v0,a2
    6a70:	afa900f8 	sw	t1,248(sp)
    6a74:	01ab702b 	sltu	t6,t5,t3
    6a78:	006a4821 	addu	t1,v1,t2
    6a7c:	00043c40 	sll	a3,a0,0x11
    6a80:	00023540 	sll	a2,v0,0x15
    6a84:	00055bc2 	srl	t3,a1,0xf
    6a88:	000352c2 	srl	t2,v1,0xb
    6a8c:	01675825 	or	t3,t3,a3
    6a90:	01465025 	or	t2,t2,a2
    6a94:	00033d40 	sll	a3,v1,0x15
    6a98:	00053440 	sll	a2,a1,0x11
    6a9c:	000423c2 	srl	a0,a0,0xf
    6aa0:	000212c2 	srl	v0,v0,0xb
    6aa4:	00862025 	or	a0,a0,a2
    6aa8:	00471025 	or	v0,v0,a3
    6aac:	afab0100 	sw	t3,256(sp)
    6ab0:	afa40104 	sw	a0,260(sp)
    6ab4:	afaa0108 	sw	t2,264(sp)
    6ab8:	afa2010c 	sw	v0,268(sp)
    6abc:	8faa0108 	lw	t2,264(sp)
    6ac0:	8fa2010c 	lw	v0,268(sp)
    6ac4:	0123782b 	sltu	t7,t1,v1
    6ac8:	8fa30104 	lw	v1,260(sp)
    6acc:	01cc7021 	addu	t6,t6,t4
    6ad0:	01e87821 	addu	t7,t7,t0
    6ad4:	01a32826 	xor	a1,t5,v1
    6ad8:	01223826 	xor	a3,t1,v0
    6adc:	01cb2026 	xor	a0,t6,t3
    6ae0:	01ea3026 	xor	a2,t7,t2
    6ae4:	01a01021 	move	v0,t5
    6ae8:	00c25021 	addu	t2,a2,v0
    6aec:	39c300ff 	xori	v1,t6,0xff
    6af0:	00041340 	sll	v0,a0,0xd
    6af4:	000564c2 	srl	t4,a1,0x13
    6af8:	00e35821 	addu	t3,a3,v1
    6afc:	020f8026 	xor	s0,s0,t7
    6b00:	01826025 	or	t4,t4,v0
    6b04:	00071c02 	srl	v1,a3,0x10
    6b08:	00061400 	sll	v0,a2,0x10
    6b0c:	00904021 	addu	t0,a0,s0
    6b10:	afac0110 	sw	t4,272(sp)
    6b14:	00621825 	or	v1,v1,v0
    6b18:	00056340 	sll	t4,a1,0xd
    6b1c:	00071400 	sll	v0,a3,0x10
    6b20:	000424c2 	srl	a0,a0,0x13
    6b24:	00063402 	srl	a2,a2,0x10
    6b28:	afad0040 	sw	t5,64(sp)
    6b2c:	008c2025 	or	a0,a0,t4
    6b30:	0167682b 	sltu	t5,t3,a3
    6b34:	00c23025 	or	a2,a2,v0
    6b38:	02298826 	xor	s1,s1,t1
    6b3c:	00b14821 	addu	t1,a1,s1
    6b40:	afa40114 	sw	a0,276(sp)
    6b44:	afa30118 	sw	v1,280(sp)
    6b48:	afa6011c 	sw	a2,284(sp)
    6b4c:	01aa6821 	addu	t5,t5,t2
    6b50:	01a05021 	move	t2,t5
    6b54:	8fa30114 	lw	v1,276(sp)
    6b58:	8fad0110 	lw	t5,272(sp)
    6b5c:	8fa60118 	lw	a2,280(sp)
    6b60:	8fa7011c 	lw	a3,284(sp)
    6b64:	afae0044 	sw	t6,68(sp)
    6b68:	0125702b 	sltu	t6,t1,a1
    6b6c:	01c87021 	addu	t6,t6,t0
    6b70:	01232826 	xor	a1,t1,v1
    6b74:	01cd2026 	xor	a0,t6,t5
    6b78:	01671826 	xor	v1,t3,a3
    6b7c:	01461026 	xor	v0,t2,a2
    6b80:	01653821 	addu	a3,t3,a1
    6b84:	01443021 	addu	a2,t2,a0
    6b88:	000362c2 	srl	t4,v1,0xb
    6b8c:	00025540 	sll	t2,v0,0x15
    6b90:	00eb682b 	sltu	t5,a3,t3
    6b94:	018a6025 	or	t4,t4,t2
    6b98:	00045c40 	sll	t3,a0,0x11
    6b9c:	00055440 	sll	t2,a1,0x11
    6ba0:	000423c2 	srl	a0,a0,0xf
    6ba4:	afae007c 	sw	t6,124(sp)
    6ba8:	afa90078 	sw	t1,120(sp)
    6bac:	008a2025 	or	a0,a0,t2
    6bb0:	01204021 	move	t0,t1
    6bb4:	006e4821 	addu	t1,v1,t6
    6bb8:	000573c2 	srl	t6,a1,0xf
    6bbc:	01cb7025 	or	t6,t6,t3
    6bc0:	afa40124 	sw	a0,292(sp)
    6bc4:	00484021 	addu	t0,v0,t0
    6bc8:	00035d40 	sll	t3,v1,0x15
    6bcc:	000212c2 	srl	v0,v0,0xb
    6bd0:	0123782b 	sltu	t7,t1,v1
    6bd4:	004b1025 	or	v0,v0,t3
    6bd8:	8fa30124 	lw	v1,292(sp)
    6bdc:	afac0128 	sw	t4,296(sp)
    6be0:	afa2012c 	sw	v0,300(sp)
    6be4:	00e32826 	xor	a1,a3,v1
    6be8:	01a66821 	addu	t5,t5,a2
    6bec:	afa70038 	sw	a3,56(sp)
    6bf0:	8fa60128 	lw	a2,296(sp)
    6bf4:	8fa7012c 	lw	a3,300(sp)
    6bf8:	01e87821 	addu	t7,t7,t0
    6bfc:	01a06021 	move	t4,t5
    6c00:	8fa80038 	lw	t0,56(sp)
    6c04:	01271826 	xor	v1,t1,a3
    6c08:	018e2026 	xor	a0,t4,t6
    6c0c:	01e61026 	xor	v0,t7,a2
    6c10:	01253821 	addu	a3,t1,a1
    6c14:	01e43021 	addu	a2,t7,a0
    6c18:	00485021 	addu	t2,v0,t0
    6c1c:	afae0120 	sw	t6,288(sp)
    6c20:	afad003c 	sw	t5,60(sp)
    6c24:	00044340 	sll	t0,a0,0xd
    6c28:	00e9682b 	sltu	t5,a3,t1
    6c2c:	00057340 	sll	t6,a1,0xd
    6c30:	00054cc2 	srl	t1,a1,0x13
    6c34:	000424c2 	srl	a0,a0,0x13
    6c38:	01284825 	or	t1,t1,t0
    6c3c:	008e2025 	or	a0,a0,t6
    6c40:	006c5821 	addu	t3,v1,t4
    6c44:	afa90130 	sw	t1,304(sp)
    6c48:	afa40134 	sw	a0,308(sp)
    6c4c:	00024400 	sll	t0,v0,0x10
    6c50:	00034c02 	srl	t1,v1,0x10
    6c54:	01284825 	or	t1,t1,t0
    6c58:	0163602b 	sltu	t4,t3,v1
    6c5c:	00034400 	sll	t0,v1,0x10
    6c60:	00021402 	srl	v0,v0,0x10
    6c64:	8fa30134 	lw	v1,308(sp)
    6c68:	01a66821 	addu	t5,t5,a2
    6c6c:	00481025 	or	v0,v0,t0
    6c70:	018a6021 	addu	t4,t4,t2
    6c74:	00e32826 	xor	a1,a3,v1
    6c78:	01805021 	move	t2,t4
    6c7c:	afa90138 	sw	t1,312(sp)
    6c80:	01a06021 	move	t4,t5
    6c84:	afad0074 	sw	t5,116(sp)
    6c88:	8fad0130 	lw	t5,304(sp)
    6c8c:	afa2013c 	sw	v0,316(sp)
    6c90:	afa70070 	sw	a3,112(sp)
    6c94:	8fa7013c 	lw	a3,316(sp)
    6c98:	018d2026 	xor	a0,t4,t5
    6c9c:	01671826 	xor	v1,t3,a3
    6ca0:	01491026 	xor	v0,t2,t1
    6ca4:	006c4821 	addu	t1,v1,t4
    6ca8:	8fac0070 	lw	t4,112(sp)
    6cac:	01653821 	addu	a3,t3,a1
    6cb0:	01443021 	addu	a2,t2,a0
    6cb4:	004c4021 	addu	t0,v0,t4
    6cb8:	00025540 	sll	t2,v0,0x15
    6cbc:	000362c2 	srl	t4,v1,0xb
    6cc0:	00eb682b 	sltu	t5,a3,t3
    6cc4:	018a6025 	or	t4,t4,t2
    6cc8:	00045c40 	sll	t3,a0,0x11
    6ccc:	00055440 	sll	t2,a1,0x11
    6cd0:	000423c2 	srl	a0,a0,0xf
    6cd4:	008a2025 	or	a0,a0,t2
    6cd8:	000573c2 	srl	t6,a1,0xf
    6cdc:	01cb7025 	or	t6,t6,t3
    6ce0:	afa40144 	sw	a0,324(sp)
    6ce4:	00035d40 	sll	t3,v1,0x15
    6ce8:	000212c2 	srl	v0,v0,0xb
    6cec:	0123782b 	sltu	t7,t1,v1
    6cf0:	004b1025 	or	v0,v0,t3
    6cf4:	8fa30144 	lw	v1,324(sp)
    6cf8:	afac0148 	sw	t4,328(sp)
    6cfc:	afa2014c 	sw	v0,332(sp)
    6d00:	00e32826 	xor	a1,a3,v1
    6d04:	01a66821 	addu	t5,t5,a2
    6d08:	afa70030 	sw	a3,48(sp)
    6d0c:	8fa60148 	lw	a2,328(sp)
    6d10:	8fa7014c 	lw	a3,332(sp)
    6d14:	01e87821 	addu	t7,t7,t0
    6d18:	01a06021 	move	t4,t5
    6d1c:	8fa80030 	lw	t0,48(sp)
    6d20:	01271826 	xor	v1,t1,a3
    6d24:	018e2026 	xor	a0,t4,t6
    6d28:	01e61026 	xor	v0,t7,a2
    6d2c:	01253821 	addu	a3,t1,a1
    6d30:	00485021 	addu	t2,v0,t0
    6d34:	afad0034 	sw	t5,52(sp)
    6d38:	00044340 	sll	t0,a0,0xd
    6d3c:	00e9682b 	sltu	t5,a3,t1
    6d40:	00054cc2 	srl	t1,a1,0x13
    6d44:	01e43021 	addu	a2,t7,a0
    6d48:	afae0140 	sw	t6,320(sp)
    6d4c:	01284825 	or	t1,t1,t0
    6d50:	00057340 	sll	t6,a1,0xd
    6d54:	000424c2 	srl	a0,a0,0x13
    6d58:	afa90150 	sw	t1,336(sp)
    6d5c:	00024400 	sll	t0,v0,0x10
    6d60:	008e2025 	or	a0,a0,t6
    6d64:	00034c02 	srl	t1,v1,0x10
    6d68:	006c5821 	addu	t3,v1,t4
    6d6c:	afa40154 	sw	a0,340(sp)
    6d70:	01284825 	or	t1,t1,t0
    6d74:	00021402 	srl	v0,v0,0x10
    6d78:	00034400 	sll	t0,v1,0x10
    6d7c:	0163602b 	sltu	t4,t3,v1
    6d80:	00481025 	or	v0,v0,t0
    6d84:	8fa30154 	lw	v1,340(sp)
    6d88:	afa2015c 	sw	v0,348(sp)
    6d8c:	00e32826 	xor	a1,a3,v1
    6d90:	01a66821 	addu	t5,t5,a2
    6d94:	afa70068 	sw	a3,104(sp)
    6d98:	018a6021 	addu	t4,t4,t2
    6d9c:	8fa7015c 	lw	a3,348(sp)
    6da0:	01805021 	move	t2,t4
    6da4:	afad006c 	sw	t5,108(sp)
    6da8:	01a06021 	move	t4,t5
    6dac:	8fad0150 	lw	t5,336(sp)
    6db0:	01671826 	xor	v1,t3,a3
    6db4:	018d2026 	xor	a0,t4,t5
    6db8:	01491026 	xor	v0,t2,t1
    6dbc:	afa90158 	sw	t1,344(sp)
    6dc0:	006c4821 	addu	t1,v1,t4
    6dc4:	8fac0068 	lw	t4,104(sp)
    6dc8:	01653821 	addu	a3,t3,a1
    6dcc:	01443021 	addu	a2,t2,a0
    6dd0:	004c4021 	addu	t0,v0,t4
    6dd4:	00025540 	sll	t2,v0,0x15
    6dd8:	000362c2 	srl	t4,v1,0xb
    6ddc:	00eb682b 	sltu	t5,a3,t3
    6de0:	018a6025 	or	t4,t4,t2
    6de4:	00045c40 	sll	t3,a0,0x11
    6de8:	00055440 	sll	t2,a1,0x11
    6dec:	000423c2 	srl	a0,a0,0xf
    6df0:	008a2025 	or	a0,a0,t2
    6df4:	000573c2 	srl	t6,a1,0xf
    6df8:	01cb7025 	or	t6,t6,t3
    6dfc:	afa40164 	sw	a0,356(sp)
    6e00:	00035d40 	sll	t3,v1,0x15
    6e04:	000212c2 	srl	v0,v0,0xb
    6e08:	0123782b 	sltu	t7,t1,v1
    6e0c:	004b1025 	or	v0,v0,t3
    6e10:	8fa30164 	lw	v1,356(sp)
    6e14:	afac0168 	sw	t4,360(sp)
    6e18:	afa2016c 	sw	v0,364(sp)
    6e1c:	00e32826 	xor	a1,a3,v1
    6e20:	01a66821 	addu	t5,t5,a2
    6e24:	afa70028 	sw	a3,40(sp)
    6e28:	8fa60168 	lw	a2,360(sp)
    6e2c:	8fa7016c 	lw	a3,364(sp)
    6e30:	01e87821 	addu	t7,t7,t0
    6e34:	01a06021 	move	t4,t5
    6e38:	8fa80028 	lw	t0,40(sp)
    6e3c:	01271826 	xor	v1,t1,a3
    6e40:	018e2026 	xor	a0,t4,t6
    6e44:	01e61026 	xor	v0,t7,a2
    6e48:	01253821 	addu	a3,t1,a1
    6e4c:	00485021 	addu	t2,v0,t0
    6e50:	afad002c 	sw	t5,44(sp)
    6e54:	00044340 	sll	t0,a0,0xd
    6e58:	00e9682b 	sltu	t5,a3,t1
    6e5c:	00054cc2 	srl	t1,a1,0x13
    6e60:	01e43021 	addu	a2,t7,a0
    6e64:	afae0160 	sw	t6,352(sp)
    6e68:	01284825 	or	t1,t1,t0
    6e6c:	00057340 	sll	t6,a1,0xd
    6e70:	000424c2 	srl	a0,a0,0x13
    6e74:	afa90170 	sw	t1,368(sp)
    6e78:	00024400 	sll	t0,v0,0x10
    6e7c:	008e2025 	or	a0,a0,t6
    6e80:	00034c02 	srl	t1,v1,0x10
    6e84:	006c5821 	addu	t3,v1,t4
    6e88:	01284825 	or	t1,t1,t0
    6e8c:	afa40174 	sw	a0,372(sp)
    6e90:	00034400 	sll	t0,v1,0x10
    6e94:	00021402 	srl	v0,v0,0x10
    6e98:	0163602b 	sltu	t4,t3,v1
    6e9c:	00481025 	or	v0,v0,t0
    6ea0:	8fa30174 	lw	v1,372(sp)
    6ea4:	afa2017c 	sw	v0,380(sp)
    6ea8:	00e32826 	xor	a1,a3,v1
    6eac:	01a66821 	addu	t5,t5,a2
    6eb0:	afa70060 	sw	a3,96(sp)
    6eb4:	018a6021 	addu	t4,t4,t2
    6eb8:	8fa7017c 	lw	a3,380(sp)
    6ebc:	01805021 	move	t2,t4
    6ec0:	afad0064 	sw	t5,100(sp)
    6ec4:	01a06021 	move	t4,t5
    6ec8:	8fad0170 	lw	t5,368(sp)
    6ecc:	01671826 	xor	v1,t3,a3
    6ed0:	018d2026 	xor	a0,t4,t5
    6ed4:	01491026 	xor	v0,t2,t1
    6ed8:	afa90178 	sw	t1,376(sp)
    6edc:	006c4821 	addu	t1,v1,t4
    6ee0:	8fac0060 	lw	t4,96(sp)
    6ee4:	01653821 	addu	a3,t3,a1
    6ee8:	01443021 	addu	a2,t2,a0
    6eec:	004c4021 	addu	t0,v0,t4
    6ef0:	00025540 	sll	t2,v0,0x15
    6ef4:	000362c2 	srl	t4,v1,0xb
    6ef8:	00eb682b 	sltu	t5,a3,t3
    6efc:	018a6025 	or	t4,t4,t2
    6f00:	00045c40 	sll	t3,a0,0x11
    6f04:	00055440 	sll	t2,a1,0x11
    6f08:	000423c2 	srl	a0,a0,0xf
    6f0c:	000573c2 	srl	t6,a1,0xf
    6f10:	008a2025 	or	a0,a0,t2
    6f14:	01cb7025 	or	t6,t6,t3
    6f18:	afa40184 	sw	a0,388(sp)
    6f1c:	00035d40 	sll	t3,v1,0x15
    6f20:	000212c2 	srl	v0,v0,0xb
    6f24:	8fa50184 	lw	a1,388(sp)
    6f28:	004b1025 	or	v0,v0,t3
    6f2c:	01a66821 	addu	t5,t5,a2
    6f30:	afac0188 	sw	t4,392(sp)
    6f34:	afa2018c 	sw	v0,396(sp)
    6f38:	01a06021 	move	t4,t5
    6f3c:	0123782b 	sltu	t7,t1,v1
    6f40:	afad0194 	sw	t5,404(sp)
    6f44:	00e51826 	xor	v1,a3,a1
    6f48:	00e06821 	move	t5,a3
    6f4c:	afa70190 	sw	a3,400(sp)
    6f50:	8fa60188 	lw	a2,392(sp)
    6f54:	8fa7018c 	lw	a3,396(sp)
    6f58:	01e87821 	addu	t7,t7,t0
    6f5c:	018e1026 	xor	v0,t4,t6
    6f60:	01e62026 	xor	a0,t7,a2
    6f64:	01272826 	xor	a1,t1,a3
    6f68:	01e21026 	xor	v0,t7,v0
    6f6c:	01231826 	xor	v1,t1,v1
    6f70:	008d2026 	xor	a0,a0,t5
    6f74:	00ac2826 	xor	a1,a1,t4
    6f78:	8fbf01bc 	lw	ra,444(sp)
    6f7c:	8fbe01b8 	lw	s8,440(sp)
    6f80:	8fb701b4 	lw	s7,436(sp)
    6f84:	8fb601b0 	lw	s6,432(sp)
    6f88:	8fb501ac 	lw	s5,428(sp)
    6f8c:	8fb401a8 	lw	s4,424(sp)
    6f90:	8fb301a4 	lw	s3,420(sp)
    6f94:	8fb201a0 	lw	s2,416(sp)
    6f98:	8fb1019c 	lw	s1,412(sp)
    6f9c:	8fb00198 	lw	s0,408(sp)
    6fa0:	afae0180 	sw	t6,384(sp)
    6fa4:	00441026 	xor	v0,v0,a0
    6fa8:	00651826 	xor	v1,v1,a1
    6fac:	03e00008 	jr	ra
    6fb0:	27bd01c0 	addiu	sp,sp,448
    6fb4:	93c20006 	lbu	v0,6(s8)
    6fb8:	00000000 	nop
    6fbc:	a0c20006 	sb	v0,6(a2)
    6fc0:	93c20005 	lbu	v0,5(s8)
    6fc4:	00000000 	nop
    6fc8:	a0c20005 	sb	v0,5(a2)
    6fcc:	93c20004 	lbu	v0,4(s8)
    6fd0:	00000000 	nop
    6fd4:	a0c20004 	sb	v0,4(a2)
    6fd8:	8fc20000 	lw	v0,0(s8)
    6fdc:	08001a21 	j	6884 <siphash24+0x518>
    6fe0:	acc20000 	sw	v0,0(a2)
    6fe4:	8fb101c4 	lw	s1,452(sp)
    6fe8:	08001a0a 	j	6828 <siphash24+0x4bc>
    6fec:	24050001 	li	a1,1

00006ff0 <GLFSR_init>:
    6ff0:	00806821 	move	t5,a0
    6ff4:	34e40001 	ori	a0,a3,0x1
    6ff8:	ada4000c 	sw	a0,12(t5)
    6ffc:	8fa30014 	lw	v1,20(sp)
    7000:	8fa20010 	lw	v0,16(sp)
    7004:	00004821 	move	t1,zero
    7008:	3c088000 	lui	t0,0x8000
    700c:	240b003e 	li	t3,62
    7010:	240cffff 	li	t4,-1
    7014:	ada30004 	sw	v1,4(t5)
    7018:	ada20000 	sw	v0,0(t5)
    701c:	08001c0f 	j	703c <GLFSR_init+0x4c>
    7020:	ada60008 	sw	a2,8(t5)
    7024:	116c000e 	beq	t3,t4,7060 <GLFSR_init+0x70>
    7028:	00092842 	srl	a1,t1,0x1
    702c:	01452825 	or	a1,t2,a1
    7030:	00082042 	srl	a0,t0,0x1
    7034:	00a04821 	move	t1,a1
    7038:	00804021 	move	t0,a0
    703c:	00c81024 	and	v0,a2,t0
    7040:	00e91824 	and	v1,a3,t1
    7044:	00431025 	or	v0,v0,v1
    7048:	000857c0 	sll	t2,t0,0x1f
    704c:	1040fff5 	beqz	v0,7024 <GLFSR_init+0x34>
    7050:	256bffff 	addiu	t3,t3,-1
    7054:	ada90014 	sw	t1,20(t5)
    7058:	03e00008 	jr	ra
    705c:	ada80010 	sw	t0,16(t5)
    7060:	03e00008 	jr	ra
    7064:	00000000 	nop

00007068 <GLFSR_next>:
    7068:	8c830004 	lw	v1,4(a0)
    706c:	8c820000 	lw	v0,0(a0)
    7070:	00803821 	move	a3,a0
    7074:	8c860010 	lw	a2,16(a0)
    7078:	00024040 	sll	t0,v0,0x1
    707c:	000327c2 	srl	a0,v1,0x1f
    7080:	8ce50014 	lw	a1,20(a3)
    7084:	00884025 	or	t0,a0,t0
    7088:	00034840 	sll	t1,v1,0x1
    708c:	00a91824 	and	v1,a1,t1
    7090:	00c81024 	and	v0,a2,t0
    7094:	00431025 	or	v0,v0,v1
    7098:	ace90004 	sw	t1,4(a3)
    709c:	00001821 	move	v1,zero
    70a0:	10400008 	beqz	v0,70c4 <GLFSR_next+0x5c>
    70a4:	ace80000 	sw	t0,0(a3)
    70a8:	8ce30008 	lw	v1,8(a3)
    70ac:	8ce2000c 	lw	v0,12(a3)
    70b0:	00681826 	xor	v1,v1,t0
    70b4:	00491026 	xor	v0,v0,t1
    70b8:	ace30000 	sw	v1,0(a3)
    70bc:	ace20004 	sw	v0,4(a3)
    70c0:	24030001 	li	v1,1
    70c4:	03e00008 	jr	ra
    70c8:	00601021 	move	v0,v1

000070cc <init_Secure_Zone>:
    70cc:	3c020005 	lui	v0,0x5
    70d0:	3c030005 	lui	v1,0x5
    70d4:	2442a1f4 	addiu	v0,v0,-24076
    70d8:	2463a394 	addiu	v1,v1,-23660
    70dc:	ac400000 	sw	zero,0(v0)
    70e0:	24420020 	addiu	v0,v0,32
    70e4:	1443fffd 	bne	v0,v1,70dc <init_Secure_Zone+0x10>
    70e8:	00000000 	nop
    70ec:	03e00008 	jr	ra
    70f0:	00000000 	nop

000070f4 <get_static_SZ>:
    70f4:	3c020005 	lui	v0,0x5
    70f8:	3c030005 	lui	v1,0x5
    70fc:	24458df4 	addiu	a1,v0,-29196
    7100:	246e8e14 	addiu	t6,v1,-29164
    7104:	00003821 	move	a3,zero
    7108:	240c00ff 	li	t4,255
    710c:	240d00ff 	li	t5,255
    7110:	00003021 	move	a2,zero
    7114:	8ca20000 	lw	v0,0(a1)
    7118:	00000000 	nop
    711c:	00021202 	srl	v0,v0,0x8
    7120:	10820020 	beq	a0,v0,71a4 <get_static_SZ+0xb0>
    7124:	00000000 	nop
    7128:	24a50008 	addiu	a1,a1,8
    712c:	14aefff9 	bne	a1,t6,7114 <get_static_SZ+0x20>
    7130:	240200ff 	li	v0,255
    7134:	1182002f 	beq	t4,v0,71f4 <get_static_SZ+0x100>
    7138:	00cc3023 	subu	a2,a2,t4
    713c:	00ed3823 	subu	a3,a3,t5
    7140:	24c60001 	addiu	a2,a2,1
    7144:	24e70001 	addiu	a3,a3,1
    7148:	00c70018 	mult	a2,a3
    714c:	000c1a00 	sll	v1,t4,0x8
    7150:	00062e00 	sll	a1,a2,0x18
    7154:	00071400 	sll	v0,a3,0x10
    7158:	01a21025 	or	v0,t5,v0
    715c:	00a32825 	or	a1,a1,v1
    7160:	3c030005 	lui	v1,0x5
    7164:	24648ee8 	addiu	a0,v1,-28952
    7168:	00a22825 	or	a1,a1,v0
    716c:	2402ffff 	li	v0,-1
    7170:	ac820018 	sw	v0,24(a0)
    7174:	3c020005 	lui	v0,0x5
    7178:	00004012 	mflo	t0
    717c:	ac408e30 	sw	zero,-29136(v0)
    7180:	ac688ee8 	sw	t0,-28952(v1)
    7184:	00a01021 	move	v0,a1
    7188:	24030001 	li	v1,1
    718c:	ac830014 	sw	v1,20(a0)
    7190:	ac800010 	sw	zero,16(a0)
    7194:	ac860004 	sw	a2,4(a0)
    7198:	ac870008 	sw	a3,8(a0)
    719c:	03e00008 	jr	ra
    71a0:	ac85001c 	sw	a1,28(a0)
    71a4:	8ca20004 	lw	v0,4(a1)
    71a8:	00000000 	nop
    71ac:	304800ff 	andi	t0,v0,0xff
    71b0:	00021202 	srl	v0,v0,0x8
    71b4:	004c182b 	sltu	v1,v0,t4
    71b8:	010d482b 	sltu	t1,t0,t5
    71bc:	00c2502b 	sltu	t2,a2,v0
    71c0:	10600002 	beqz	v1,71cc <get_static_SZ+0xd8>
    71c4:	00e8582b 	sltu	t3,a3,t0
    71c8:	00406021 	move	t4,v0
    71cc:	11200002 	beqz	t1,71d8 <get_static_SZ+0xe4>
    71d0:	00000000 	nop
    71d4:	01006821 	move	t5,t0
    71d8:	11400002 	beqz	t2,71e4 <get_static_SZ+0xf0>
    71dc:	00000000 	nop
    71e0:	00403021 	move	a2,v0
    71e4:	1160ffd0 	beqz	t3,7128 <get_static_SZ+0x34>
    71e8:	00000000 	nop
    71ec:	08001c4a 	j	7128 <get_static_SZ+0x34>
    71f0:	01003821 	move	a3,t0
    71f4:	03e00008 	jr	ra
    71f8:	00001021 	move	v0,zero

000071fc <create_valid_shapes>:
    71fc:	27bdfff8 	addiu	sp,sp,-8
    7200:	afb00000 	sw	s0,0(sp)
    7204:	afb10004 	sw	s1,4(sp)
    7208:	00807021 	move	t6,a0
    720c:	1880002a 	blez	a0,72b8 <create_valid_shapes+0xbc>
    7210:	00a08021 	move	s0,a1
    7214:	24050001 	li	a1,1
    7218:	3c110005 	lui	s1,0x5
    721c:	00b01021 	addu	v0,a1,s0
    7220:	26238ee8 	addiu	v1,s1,-28952
    7224:	00021140 	sll	v0,v0,0x5
    7228:	00431021 	addu	v0,v0,v1
    722c:	2446ffe4 	addiu	a2,v0,-28
    7230:	acc50000 	sw	a1,0(a2)
    7234:	24a50001 	addiu	a1,a1,1
    7238:	24020001 	li	v0,1
    723c:	01c5182a 	slt	v1,t6,a1
    7240:	acc40004 	sw	a0,4(a2)
    7244:	1460001c 	bnez	v1,72b8 <create_valid_shapes+0xbc>
    7248:	acc20008 	sw	v0,8(a2)
    724c:	14a00002 	bnez	a1,7258 <create_valid_shapes+0x5c>
    7250:	01c5001a 	div	zero,t6,a1
    7254:	0007000d 	break	0x7
    7258:	00001812 	mflo	v1
	...
    7264:	00650018 	mult	v1,a1
    7268:	00001012 	mflo	v0
    726c:	004e102a 	slt	v0,v0,t6
    7270:	1040ffea 	beqz	v0,721c <create_valid_shapes+0x20>
    7274:	00602021 	move	a0,v1
    7278:	24620001 	addiu	v0,v1,1
    727c:	00a20018 	mult	a1,v0
    7280:	00001812 	mflo	v1
    7284:	00651821 	addu	v1,v1,a1
    7288:	00651023 	subu	v0,v1,a1
    728c:	004e102a 	slt	v0,v0,t6
    7290:	1440fffc 	bnez	v0,7284 <create_valid_shapes+0x88>
    7294:	24840001 	addiu	a0,a0,1
    7298:	24c60020 	addiu	a2,a2,32
    729c:	acc50000 	sw	a1,0(a2)
    72a0:	24a50001 	addiu	a1,a1,1
    72a4:	24020001 	li	v0,1
    72a8:	01c5182a 	slt	v1,t6,a1
    72ac:	acc40004 	sw	a0,4(a2)
    72b0:	1060ffe6 	beqz	v1,724c <create_valid_shapes+0x50>
    72b4:	acc20008 	sw	v0,8(a2)
    72b8:	25d8ffff 	addiu	t8,t6,-1
    72bc:	1b00003f 	blez	t8,73bc <create_valid_shapes+0x1c0>
    72c0:	3c110005 	lui	s1,0x5
    72c4:	00101940 	sll	v1,s0,0x5
    72c8:	26228ee8 	addiu	v0,s1,-28952
    72cc:	0062c821 	addu	t9,v1,v0
    72d0:	03006821 	move	t5,t8
    72d4:	00007821 	move	t7,zero
    72d8:	27250004 	addiu	a1,t9,4
    72dc:	00006021 	move	t4,zero
    72e0:	8ca90000 	lw	t1,0(a1)
    72e4:	8caa0004 	lw	t2,4(a1)
    72e8:	00000000 	nop
    72ec:	0149102a 	slt	v0,t2,t1
    72f0:	14400002 	bnez	v0,72fc <create_valid_shapes+0x100>
    72f4:	012a5823 	subu	t3,t1,t2
    72f8:	01495823 	subu	t3,t2,t1
    72fc:	8ca60020 	lw	a2,32(a1)
    7300:	8ca70024 	lw	a3,36(a1)
    7304:	00000000 	nop
    7308:	00e6102a 	slt	v0,a3,a2
    730c:	14400002 	bnez	v0,7318 <create_valid_shapes+0x11c>
    7310:	00c74023 	subu	t0,a2,a3
    7314:	00e64023 	subu	t0,a3,a2
    7318:	258c0001 	addiu	t4,t4,1
    731c:	010b102a 	slt	v0,t0,t3
    7320:	10400005 	beqz	v0,7338 <create_valid_shapes+0x13c>
    7324:	018d402a 	slt	t0,t4,t5
    7328:	aca60000 	sw	a2,0(a1)
    732c:	aca90020 	sw	t1,32(a1)
    7330:	aca70004 	sw	a3,4(a1)
    7334:	acaa0024 	sw	t2,36(a1)
    7338:	1500ffe9 	bnez	t0,72e0 <create_valid_shapes+0xe4>
    733c:	24a50020 	addiu	a1,a1,32
    7340:	01cf1023 	subu	v0,t6,t7
    7344:	2445fffe 	addiu	a1,v0,-2
    7348:	25ef0001 	addiu	t7,t7,1
    734c:	00a06821 	move	t5,a1
    7350:	01f8102a 	slt	v0,t7,t8
    7354:	24a5ffff 	addiu	a1,a1,-1
    7358:	10400009 	beqz	v0,7380 <create_valid_shapes+0x184>
    735c:	24a60001 	addiu	a2,a1,1
    7360:	1cc0ffdd 	bgtz	a2,72d8 <create_valid_shapes+0xdc>
    7364:	00000000 	nop
    7368:	25ef0001 	addiu	t7,t7,1
    736c:	00a06821 	move	t5,a1
    7370:	01f8102a 	slt	v0,t7,t8
    7374:	24a5ffff 	addiu	a1,a1,-1
    7378:	1440fff9 	bnez	v0,7360 <create_valid_shapes+0x164>
    737c:	24a60001 	addiu	a2,a1,1
    7380:	24630008 	addiu	v1,v1,8
    7384:	26228ee8 	addiu	v0,s1,-28952
    7388:	00622021 	addu	a0,v1,v0
    738c:	08001ce7 	j	739c <create_valid_shapes+0x1a0>
    7390:	24050001 	li	a1,1
    7394:	10ae0009 	beq	a1,t6,73bc <create_valid_shapes+0x1c0>
    7398:	24840020 	addiu	a0,a0,32
    739c:	8c830000 	lw	v1,0(a0)
    73a0:	8c820020 	lw	v0,32(a0)
    73a4:	00000000 	nop
    73a8:	1462fffa 	bne	v1,v0,7394 <create_valid_shapes+0x198>
    73ac:	24a50001 	addiu	a1,a1,1
    73b0:	ac800024 	sw	zero,36(a0)
    73b4:	14aefff9 	bne	a1,t6,739c <create_valid_shapes+0x1a0>
    73b8:	24840020 	addiu	a0,a0,32
    73bc:	19c0003a 	blez	t6,74a8 <create_valid_shapes+0x2ac>
    73c0:	3c110005 	lui	s1,0x5
    73c4:	00101940 	sll	v1,s0,0x5
    73c8:	26228ee8 	addiu	v0,s1,-28952
    73cc:	00621021 	addu	v0,v1,v0
    73d0:	24450004 	addiu	a1,v0,4
    73d4:	00003021 	move	a2,zero
    73d8:	8ca20000 	lw	v0,0(a1)
    73dc:	00000000 	nop
    73e0:	28420005 	slti	v0,v0,5
    73e4:	1040002b 	beqz	v0,7494 <create_valid_shapes+0x298>
    73e8:	24c60001 	addiu	a2,a2,1
    73ec:	8ca20004 	lw	v0,4(a1)
    73f0:	00000000 	nop
    73f4:	28420005 	slti	v0,v0,5
    73f8:	10400026 	beqz	v0,7494 <create_valid_shapes+0x298>
    73fc:	00000000 	nop
    7400:	15c6fff5 	bne	t6,a2,73d8 <create_valid_shapes+0x1dc>
    7404:	24a50020 	addiu	a1,a1,32
    7408:	26228ee8 	addiu	v0,s1,-28952
    740c:	00622021 	addu	a0,v1,v0
    7410:	00101940 	sll	v1,s0,0x5
    7414:	00623821 	addu	a3,v1,v0
    7418:	2486000c 	addiu	a2,a0,12
    741c:	00004021 	move	t0,zero
    7420:	00004821 	move	t1,zero
    7424:	8cc20000 	lw	v0,0(a2)
    7428:	00000000 	nop
    742c:	10400012 	beqz	v0,7478 <create_valid_shapes+0x27c>
    7430:	25080001 	addiu	t0,t0,1
    7434:	8cc3fff8 	lw	v1,-8(a2)
    7438:	8cc5fffc 	lw	a1,-4(a2)
    743c:	ace30004 	sw	v1,4(a3)
    7440:	00650018 	mult	v1,a1
    7444:	ace50008 	sw	a1,8(a3)
    7448:	ace2000c 	sw	v0,12(a3)
    744c:	8cc4fffc 	lw	a0,-4(a2)
    7450:	8cc2fff8 	lw	v0,-8(a2)
    7454:	25290001 	addiu	t1,t1,1
    7458:	00001812 	mflo	v1
    745c:	ace30000 	sw	v1,0(a3)
    7460:	00000000 	nop
    7464:	00440018 	mult	v0,a0
    7468:	00001012 	mflo	v0
    746c:	004e1023 	subu	v0,v0,t6
    7470:	ace20010 	sw	v0,16(a3)
    7474:	24e70020 	addiu	a3,a3,32
    7478:	15c8ffea 	bne	t6,t0,7424 <create_valid_shapes+0x228>
    747c:	24c60020 	addiu	a2,a2,32
    7480:	01301021 	addu	v0,t1,s0
    7484:	8fb10004 	lw	s1,4(sp)
    7488:	8fb00000 	lw	s0,0(sp)
    748c:	03e00008 	jr	ra
    7490:	27bd0008 	addiu	sp,sp,8
    7494:	aca00008 	sw	zero,8(a1)
    7498:	15c6ffcf 	bne	t6,a2,73d8 <create_valid_shapes+0x1dc>
    749c:	24a50020 	addiu	a1,a1,32
    74a0:	08001d03 	j	740c <create_valid_shapes+0x210>
    74a4:	26228ee8 	addiu	v0,s1,-28952
    74a8:	00004821 	move	t1,zero
    74ac:	01301021 	addu	v0,t1,s0
    74b0:	8fb10004 	lw	s1,4(sp)
    74b4:	8fb00000 	lw	s0,0(sp)
    74b8:	03e00008 	jr	ra
    74bc:	27bd0008 	addiu	sp,sp,8

000074c0 <create_shapes>:
    74c0:	27bdffe0 	addiu	sp,sp,-32
    74c4:	afb20018 	sw	s2,24(sp)
    74c8:	afb10014 	sw	s1,20(sp)
    74cc:	afbf001c 	sw	ra,28(sp)
    74d0:	afb00010 	sw	s0,16(sp)
    74d4:	00809021 	move	s2,a0
    74d8:	1880001f 	blez	a0,7558 <create_shapes+0x98>
    74dc:	00a08821 	move	s1,a1
    74e0:	00a02021 	move	a0,a1
    74e4:	24100001 	li	s0,1
    74e8:	00002821 	move	a1,zero
    74ec:	0c001c7f 	jal	71fc <create_valid_shapes>
    74f0:	26100001 	addiu	s0,s0,1
    74f4:	00402821 	move	a1,v0
    74f8:	0250102a 	slt	v0,s2,s0
    74fc:	1440000f 	bnez	v0,753c <create_shapes+0x7c>
    7500:	00000000 	nop
    7504:	16000002 	bnez	s0,7510 <create_shapes+0x50>
    7508:	0230001a 	div	zero,s1,s0
    750c:	0007000d 	break	0x7
    7510:	00002012 	mflo	a0
    7514:	0091102a 	slt	v0,a0,s1
    7518:	1040fff4 	beqz	v0,74ec <create_shapes+0x2c>
    751c:	00000000 	nop
    7520:	0c001c7f 	jal	71fc <create_valid_shapes>
    7524:	24840001 	addiu	a0,a0,1
    7528:	26100001 	addiu	s0,s0,1
    752c:	00402821 	move	a1,v0
    7530:	0250102a 	slt	v0,s2,s0
    7534:	1040fff3 	beqz	v0,7504 <create_shapes+0x44>
    7538:	00000000 	nop
    753c:	8fbf001c 	lw	ra,28(sp)
    7540:	8fb20018 	lw	s2,24(sp)
    7544:	8fb10014 	lw	s1,20(sp)
    7548:	8fb00010 	lw	s0,16(sp)
    754c:	00a01021 	move	v0,a1
    7550:	03e00008 	jr	ra
    7554:	27bd0020 	addiu	sp,sp,32
    7558:	00002821 	move	a1,zero
    755c:	8fbf001c 	lw	ra,28(sp)
    7560:	8fb20018 	lw	s2,24(sp)
    7564:	8fb10014 	lw	s1,20(sp)
    7568:	8fb00010 	lw	s0,16(sp)
    756c:	00a01021 	move	v0,a1
    7570:	03e00008 	jr	ra
    7574:	27bd0020 	addiu	sp,sp,32

00007578 <shapes_invert_order>:
    7578:	000517c2 	srl	v0,a1,0x1f
    757c:	00451021 	addu	v0,v0,a1
    7580:	00026843 	sra	t5,v0,0x1
    7584:	19a00018 	blez	t5,75e8 <shapes_invert_order+0x70>
    7588:	00051140 	sll	v0,a1,0x5
    758c:	00825821 	addu	t3,a0,v0
    7590:	00805021 	move	t2,a0
    7594:	00006021 	move	t4,zero
    7598:	8d490000 	lw	t1,0(t2)
    759c:	8d65ffe0 	lw	a1,-32(t3)
    75a0:	8d480004 	lw	t0,4(t2)
    75a4:	8d64ffe4 	lw	a0,-28(t3)
    75a8:	8d470008 	lw	a3,8(t2)
    75ac:	8d63ffe8 	lw	v1,-24(t3)
    75b0:	8d460010 	lw	a2,16(t2)
    75b4:	8d62fff0 	lw	v0,-16(t3)
    75b8:	258c0001 	addiu	t4,t4,1
    75bc:	ad450000 	sw	a1,0(t2)
    75c0:	ad440004 	sw	a0,4(t2)
    75c4:	ad430008 	sw	v1,8(t2)
    75c8:	ad420010 	sw	v0,16(t2)
    75cc:	ad69ffe0 	sw	t1,-32(t3)
    75d0:	ad68ffe4 	sw	t0,-28(t3)
    75d4:	ad67ffe8 	sw	a3,-24(t3)
    75d8:	ad66fff0 	sw	a2,-16(t3)
    75dc:	254a0020 	addiu	t2,t2,32
    75e0:	15acffed 	bne	t5,t4,7598 <shapes_invert_order+0x20>
    75e4:	256bffe0 	addiu	t3,t3,-32
    75e8:	03e00008 	jr	ra
    75ec:	00000000 	nop

000075f0 <set_RH_Address>:
    75f0:	3c020005 	lui	v0,0x5
    75f4:	3c030005 	lui	v1,0x5
    75f8:	244691c8 	addiu	a2,v0,-28216
    75fc:	08001d84 	j	7610 <set_RH_Address+0x20>
    7600:	2463a17c 	addiu	v1,v1,-24196
    7604:	24c6010c 	addiu	a2,a2,268
    7608:	10c30009 	beq	a2,v1,7630 <set_RH_Address+0x40>
    760c:	00000000 	nop
    7610:	8cc20000 	lw	v0,0(a2)
    7614:	00000000 	nop
    7618:	1444fffa 	bne	v0,a0,7604 <set_RH_Address+0x14>
    761c:	00000000 	nop
    7620:	acc50108 	sw	a1,264(a2)
    7624:	24c6010c 	addiu	a2,a2,268
    7628:	14c3fff9 	bne	a2,v1,7610 <set_RH_Address+0x20>
    762c:	00000000 	nop
    7630:	03e00008 	jr	ra
    7634:	00000000 	nop

00007638 <get_AppID_with_RH_Address>:
    7638:	3c020005 	lui	v0,0x5
    763c:	3c030005 	lui	v1,0x5
    7640:	244692d0 	addiu	a2,v0,-27952
    7644:	246391c8 	addiu	v1,v1,-28216
    7648:	00002821 	move	a1,zero
    764c:	2407000f 	li	a3,15
    7650:	8cc20000 	lw	v0,0(a2)
    7654:	24a50001 	addiu	a1,a1,1
    7658:	10440005 	beq	v0,a0,7670 <get_AppID_with_RH_Address+0x38>
    765c:	24c6010c 	addiu	a2,a2,268
    7660:	14a7fffb 	bne	a1,a3,7650 <get_AppID_with_RH_Address+0x18>
    7664:	2463010c 	addiu	v1,v1,268
    7668:	03e00008 	jr	ra
    766c:	2402ffff 	li	v0,-1
    7670:	8c620000 	lw	v0,0(v1)
    7674:	03e00008 	jr	ra
    7678:	00000000 	nop

0000767c <get_Secure_Zone_index>:
    767c:	308200f0 	andi	v0,a0,0xf0
    7680:	00021100 	sll	v0,v0,0x4
    7684:	3084000f 	andi	a0,a0,0xf
    7688:	3c030005 	lui	v1,0x5
    768c:	00443821 	addu	a3,v0,a0
    7690:	2465a204 	addiu	a1,v1,-24060
    7694:	00003021 	move	a2,zero
    7698:	24090001 	li	t1,1
    769c:	2408000d 	li	t0,13
    76a0:	8ca30000 	lw	v1,0(a1)
    76a4:	8ca2fff0 	lw	v0,-16(a1)
    76a8:	00032402 	srl	a0,v1,0x10
    76ac:	3063ffff 	andi	v1,v1,0xffff
    76b0:	00641821 	addu	v1,v1,a0
    76b4:	24a50020 	addiu	a1,a1,32
    76b8:	14490003 	bne	v0,t1,76c8 <get_Secure_Zone_index+0x4c>
    76bc:	2463feff 	addiu	v1,v1,-257
    76c0:	10e30005 	beq	a3,v1,76d8 <get_Secure_Zone_index+0x5c>
    76c4:	00000000 	nop
    76c8:	24c60001 	addiu	a2,a2,1
    76cc:	14c8fff4 	bne	a2,t0,76a0 <get_Secure_Zone_index+0x24>
    76d0:	00000000 	nop
    76d4:	2406ffff 	li	a2,-1
    76d8:	03e00008 	jr	ra
    76dc:	00c01021 	move	v0,a2

000076e0 <PE_belong_SZ>:
    76e0:	3c020005 	lui	v0,0x5
    76e4:	3c030005 	lui	v1,0x5
    76e8:	2446a1f4 	addiu	a2,v0,-24076
    76ec:	246aa394 	addiu	t2,v1,-23660
    76f0:	24090001 	li	t1,1
    76f4:	08001dc2 	j	7708 <PE_belong_SZ+0x28>
    76f8:	240cffff 	li	t4,-1
    76fc:	24c60020 	addiu	a2,a2,32
    7700:	10ca0027 	beq	a2,t2,77a0 <PE_belong_SZ+0xc0>
    7704:	00000000 	nop
    7708:	8cc20000 	lw	v0,0(a2)
    770c:	00000000 	nop
    7710:	1449fffa 	bne	v0,t1,76fc <PE_belong_SZ+0x1c>
    7714:	00000000 	nop
    7718:	8cc3000c 	lw	v1,12(a2)
    771c:	8cc70010 	lw	a3,16(a2)
    7720:	8cc8fff8 	lw	t0,-8(a2)
    7724:	8ccbfffc 	lw	t3,-4(a2)
    7728:	106c000d 	beq	v1,t4,7760 <PE_belong_SZ+0x80>
    772c:	00031203 	sra	v0,v1,0x8
    7730:	304200ff 	andi	v0,v0,0xff
    7734:	0082102a 	slt	v0,a0,v0
    7738:	1440000a 	bnez	v0,7764 <PE_belong_SZ+0x84>
    773c:	00071202 	srl	v0,a3,0x8
    7740:	00031602 	srl	v0,v1,0x18
    7744:	0044102a 	slt	v0,v0,a0
    7748:	14400006 	bnez	v0,7764 <PE_belong_SZ+0x84>
    774c:	00071202 	srl	v0,a3,0x8
    7750:	306200ff 	andi	v0,v1,0xff
    7754:	00a2102a 	slt	v0,a1,v0
    7758:	10400013 	beqz	v0,77a8 <PE_belong_SZ+0xc8>
    775c:	00031403 	sra	v0,v1,0x10
    7760:	00071202 	srl	v0,a3,0x8
    7764:	304200ff 	andi	v0,v0,0xff
    7768:	0082182a 	slt	v1,a0,v0
    776c:	1460ffe3 	bnez	v1,76fc <PE_belong_SZ+0x1c>
    7770:	00481021 	addu	v0,v0,t0
    7774:	0082102a 	slt	v0,a0,v0
    7778:	1040ffe0 	beqz	v0,76fc <PE_belong_SZ+0x1c>
    777c:	30e300ff 	andi	v1,a3,0xff
    7780:	00a3102a 	slt	v0,a1,v1
    7784:	1440ffdd 	bnez	v0,76fc <PE_belong_SZ+0x1c>
    7788:	006b1021 	addu	v0,v1,t3
    778c:	00a2102a 	slt	v0,a1,v0
    7790:	1040ffdb 	beqz	v0,7700 <PE_belong_SZ+0x20>
    7794:	24c60020 	addiu	a2,a2,32
    7798:	03e00008 	jr	ra
    779c:	24020001 	li	v0,1
    77a0:	03e00008 	jr	ra
    77a4:	00001021 	move	v0,zero
    77a8:	304200ff 	andi	v0,v0,0xff
    77ac:	0045102a 	slt	v0,v0,a1
    77b0:	1040ffd2 	beqz	v0,76fc <PE_belong_SZ+0x1c>
    77b4:	00071202 	srl	v0,a3,0x8
    77b8:	08001dda 	j	7768 <PE_belong_SZ+0x88>
    77bc:	304200ff 	andi	v0,v0,0xff

000077c0 <free_Secure_Zone>:
    77c0:	00041100 	sll	v0,a0,0x4
    77c4:	27bdffc8 	addiu	sp,sp,-56
    77c8:	30420f00 	andi	v0,v0,0xf00
    77cc:	3084000f 	andi	a0,a0,0xf
    77d0:	afbe0030 	sw	s8,48(sp)
    77d4:	0044f025 	or	s8,v0,a0
    77d8:	3c040001 	lui	a0,0x1
    77dc:	24848d48 	addiu	a0,a0,-29368
    77e0:	afbf0034 	sw	ra,52(sp)
    77e4:	afb7002c 	sw	s7,44(sp)
    77e8:	afb60028 	sw	s6,40(sp)
    77ec:	afb50024 	sw	s5,36(sp)
    77f0:	afb40020 	sw	s4,32(sp)
    77f4:	afb3001c 	sw	s3,28(sp)
    77f8:	afb20018 	sw	s2,24(sp)
    77fc:	afb10014 	sw	s1,20(sp)
    7800:	0c00094a 	jal	2528 <puts>
    7804:	afb00010 	sw	s0,16(sp)
    7808:	0c0009bc 	jal	26f0 <itoh>
    780c:	03c02021 	move	a0,s8
    7810:	00402021 	move	a0,v0
    7814:	0c00094a 	jal	2528 <puts>
    7818:	3c170001 	lui	s7,0x1
    781c:	0c00094a 	jal	2528 <puts>
    7820:	26e489ac 	addiu	a0,s7,-30292
    7824:	3c020005 	lui	v0,0x5
    7828:	3c030005 	lui	v1,0x5
    782c:	2442a1e8 	addiu	v0,v0,-24088
    7830:	2471a204 	addiu	s1,v1,-24060
    7834:	2453000c 	addiu	s3,v0,12
    7838:	00009021 	move	s2,zero
    783c:	3c160001 	lui	s6,0x1
    7840:	24150001 	li	s5,1
    7844:	08001e15 	j	7854 <free_Secure_Zone+0x94>
    7848:	2414000d 	li	s4,13
    784c:	12540015 	beq	s2,s4,78a4 <free_Secure_Zone+0xe4>
    7850:	26730020 	addiu	s3,s3,32
    7854:	8e220000 	lw	v0,0(s1)
    7858:	26c48d60 	addiu	a0,s6,-29344
    785c:	00021c02 	srl	v1,v0,0x10
    7860:	3042ffff 	andi	v0,v0,0xffff
    7864:	00431021 	addu	v0,v0,v1
    7868:	0c00094a 	jal	2528 <puts>
    786c:	2450feff 	addiu	s0,v0,-257
    7870:	0c0009bc 	jal	26f0 <itoh>
    7874:	02002021 	move	a0,s0
    7878:	0c00094a 	jal	2528 <puts>
    787c:	00402021 	move	a0,v0
    7880:	0c00094a 	jal	2528 <puts>
    7884:	26e489ac 	addiu	a0,s7,-30292
    7888:	8e22fff0 	lw	v0,-16(s1)
    788c:	26520001 	addiu	s2,s2,1
    7890:	1455ffee 	bne	v0,s5,784c <free_Secure_Zone+0x8c>
    7894:	26310020 	addiu	s1,s1,32
    7898:	17d0ffec 	bne	s8,s0,784c <free_Secure_Zone+0x8c>
    789c:	00000000 	nop
    78a0:	ae600000 	sw	zero,0(s3)
    78a4:	8fbf0034 	lw	ra,52(sp)
    78a8:	8fbe0030 	lw	s8,48(sp)
    78ac:	8fb7002c 	lw	s7,44(sp)
    78b0:	8fb60028 	lw	s6,40(sp)
    78b4:	8fb50024 	lw	s5,36(sp)
    78b8:	8fb40020 	lw	s4,32(sp)
    78bc:	8fb3001c 	lw	s3,28(sp)
    78c0:	8fb20018 	lw	s2,24(sp)
    78c4:	8fb10014 	lw	s1,20(sp)
    78c8:	8fb00010 	lw	s0,16(sp)
    78cc:	03e00008 	jr	ra
    78d0:	27bd0038 	addiu	sp,sp,56

000078d4 <set_SZ_migrations>:
    78d4:	3c020005 	lui	v0,0x5
    78d8:	27bdffb8 	addiu	sp,sp,-72
    78dc:	2442a1e8 	addiu	v0,v0,-24088
    78e0:	00042140 	sll	a0,a0,0x5
    78e4:	afbf0044 	sw	ra,68(sp)
    78e8:	afbe0040 	sw	s8,64(sp)
    78ec:	afb7003c 	sw	s7,60(sp)
    78f0:	afb60038 	sw	s6,56(sp)
    78f4:	afb50034 	sw	s5,52(sp)
    78f8:	afb40030 	sw	s4,48(sp)
    78fc:	afb3002c 	sw	s3,44(sp)
    7900:	afb20028 	sw	s2,40(sp)
    7904:	afb10024 	sw	s1,36(sp)
    7908:	afb00020 	sw	s0,32(sp)
    790c:	00823021 	addu	a2,a0,v0
    7910:	8cc20004 	lw	v0,4(a2)
    7914:	90c8001e 	lbu	t0,30(a2)
    7918:	90c7001f 	lbu	a3,31(a2)
    791c:	8cc30008 	lw	v1,8(a2)
    7920:	8cc50018 	lw	a1,24(a2)
    7924:	01025021 	addu	t2,t0,v0
    7928:	2402ffff 	li	v0,-1
    792c:	10a2000a 	beq	a1,v0,7958 <set_SZ_migrations+0x84>
    7930:	00e34821 	addu	t1,a3,v1
    7934:	30a4ffff 	andi	a0,a1,0xffff
    7938:	30a200ff 	andi	v0,a1,0xff
    793c:	00051b82 	srl	v1,a1,0xe
    7940:	00021080 	sll	v0,v0,0x2
    7944:	00042203 	sra	a0,a0,0x8
    7948:	306303fc 	andi	v1,v1,0x3fc
    794c:	00052e03 	sra	a1,a1,0x18
    7950:	0044a821 	addu	s5,v0,a0
    7954:	00659021 	addu	s2,v1,a1
    7958:	00e9102a 	slt	v0,a3,t1
    795c:	10400057 	beqz	v0,7abc <set_SZ_migrations+0x1e8>
    7960:	00071880 	sll	v1,a3,0x2
    7964:	01031821 	addu	v1,t0,v1
    7968:	01274823 	subu	t1,t1,a3
    796c:	0148f023 	subu	s8,t2,t0
    7970:	010a402a 	slt	t0,t0,t2
    7974:	afa9001c 	sw	t1,28(sp)
    7978:	afa30010 	sw	v1,16(sp)
    797c:	00c0b821 	move	s7,a2
    7980:	afa00014 	sw	zero,20(sp)
    7984:	afa80018 	sw	t0,24(sp)
    7988:	8fa20018 	lw	v0,24(sp)
    798c:	00000000 	nop
    7990:	10400042 	beqz	v0,7a9c <set_SZ_migrations+0x1c8>
    7994:	3c030001 	lui	v1,0x1
    7998:	24638db0 	addiu	v1,v1,-29264
    799c:	8fb00010 	lw	s0,16(sp)
    79a0:	8c760000 	lw	s6,0(v1)
    79a4:	00009821 	move	s3,zero
    79a8:	24140001 	li	s4,1
    79ac:	8ee30018 	lw	v1,24(s7)
    79b0:	2402ffff 	li	v0,-1
    79b4:	1062000c 	beq	v1,v0,79e8 <set_SZ_migrations+0x114>
    79b8:	0255102a 	slt	v0,s2,s5
    79bc:	1440000a 	bnez	v0,79e8 <set_SZ_migrations+0x114>
    79c0:	02a01821 	move	v1,s5
    79c4:	00002021 	move	a0,zero
    79c8:	10700049 	beq	v1,s0,7af0 <set_SZ_migrations+0x21c>
    79cc:	00000000 	nop
    79d0:	24630004 	addiu	v1,v1,4
    79d4:	0243102a 	slt	v0,s2,v1
    79d8:	1040fffb 	beqz	v0,79c8 <set_SZ_migrations+0xf4>
    79dc:	00000000 	nop
    79e0:	1094002b 	beq	a0,s4,7a90 <set_SZ_migrations+0x1bc>
    79e4:	00000000 	nop
    79e8:	0c00102e 	jal	40b8 <get_proc_address>
    79ec:	02002021 	move	a0,s0
    79f0:	00402021 	move	a0,v0
    79f4:	0c001215 	jal	4854 <get_proc_free_pages>
    79f8:	00408821 	move	s1,v0
    79fc:	10540024 	beq	v0,s4,7a90 <set_SZ_migrations+0x1bc>
    7a00:	00000000 	nop
    7a04:	0c00120b 	jal	482c <get_task_id_processor>
    7a08:	02202021 	move	a0,s1
    7a0c:	00401821 	move	v1,v0
    7a10:	3c020005 	lui	v0,0x5
    7a14:	2444a388 	addiu	a0,v0,-23672
    7a18:	00033c02 	srl	a3,v1,0x10
    7a1c:	00002821 	move	a1,zero
    7a20:	2406000a 	li	a2,10
    7a24:	8c820000 	lw	v0,0(a0)
    7a28:	00000000 	nop
    7a2c:	1040003c 	beqz	v0,7b20 <set_SZ_migrations+0x24c>
    7a30:	24840010 	addiu	a0,a0,16
    7a34:	24a50001 	addiu	a1,a1,1
    7a38:	14a6fffa 	bne	a1,a2,7a24 <set_SZ_migrations+0x150>
    7a3c:	00000000 	nop
    7a40:	3402ffff 	li	v0,0xffff
    7a44:	10e20012 	beq	a3,v0,7a90 <set_SZ_migrations+0x1bc>
    7a48:	28a2000a 	slti	v0,a1,10
    7a4c:	10400010 	beqz	v0,7a90 <set_SZ_migrations+0x1bc>
    7a50:	00052100 	sll	a0,a1,0x4
    7a54:	00961021 	addu	v0,a0,s6
    7a58:	8c430000 	lw	v1,0(v0)
    7a5c:	00000000 	nop
    7a60:	10600026 	beqz	v1,7afc <set_SZ_migrations+0x228>
    7a64:	24820010 	addiu	v0,a0,16
    7a68:	08001ea0 	j	7a80 <set_SZ_migrations+0x1ac>
    7a6c:	00561821 	addu	v1,v0,s6
    7a70:	8c620000 	lw	v0,0(v1)
    7a74:	00000000 	nop
    7a78:	1040001f 	beqz	v0,7af8 <set_SZ_migrations+0x224>
    7a7c:	24630010 	addiu	v1,v1,16
    7a80:	24a50001 	addiu	a1,a1,1
    7a84:	2402000a 	li	v0,10
    7a88:	14a2fff9 	bne	a1,v0,7a70 <set_SZ_migrations+0x19c>
    7a8c:	00000000 	nop
    7a90:	26730001 	addiu	s3,s3,1
    7a94:	167effc5 	bne	s3,s8,79ac <set_SZ_migrations+0xd8>
    7a98:	26100001 	addiu	s0,s0,1
    7a9c:	8fa30010 	lw	v1,16(sp)
    7aa0:	8fa20014 	lw	v0,20(sp)
    7aa4:	24630004 	addiu	v1,v1,4
    7aa8:	afa30010 	sw	v1,16(sp)
    7aac:	8fa3001c 	lw	v1,28(sp)
    7ab0:	24420001 	addiu	v0,v0,1
    7ab4:	1443ffb4 	bne	v0,v1,7988 <set_SZ_migrations+0xb4>
    7ab8:	afa20014 	sw	v0,20(sp)
    7abc:	8fbf0044 	lw	ra,68(sp)
    7ac0:	8fbe0040 	lw	s8,64(sp)
    7ac4:	8fb7003c 	lw	s7,60(sp)
    7ac8:	8fb60038 	lw	s6,56(sp)
    7acc:	8fb50034 	lw	s5,52(sp)
    7ad0:	8fb40030 	lw	s4,48(sp)
    7ad4:	8fb3002c 	lw	s3,44(sp)
    7ad8:	8fb20028 	lw	s2,40(sp)
    7adc:	8fb10024 	lw	s1,36(sp)
    7ae0:	8fb00020 	lw	s0,32(sp)
    7ae4:	00001021 	move	v0,zero
    7ae8:	03e00008 	jr	ra
    7aec:	27bd0048 	addiu	sp,sp,72
    7af0:	08001e74 	j	79d0 <set_SZ_migrations+0xfc>
    7af4:	24040001 	li	a0,1
    7af8:	00052100 	sll	a0,a1,0x4
    7afc:	00961021 	addu	v0,a0,s6
    7b00:	26730001 	addiu	s3,s3,1
    7b04:	ac470008 	sw	a3,8(v0)
    7b08:	ac510004 	sw	s1,4(v0)
    7b0c:	ac540000 	sw	s4,0(v0)
    7b10:	167effa6 	bne	s3,s8,79ac <set_SZ_migrations+0xd8>
    7b14:	26100001 	addiu	s0,s0,1
    7b18:	08001ea7 	j	7a9c <set_SZ_migrations+0x1c8>
    7b1c:	00000000 	nop
    7b20:	00051100 	sll	v0,a1,0x4
    7b24:	00561021 	addu	v0,v0,s6
    7b28:	3063ffff 	andi	v1,v1,0xffff
    7b2c:	ac430008 	sw	v1,8(v0)
    7b30:	ac540000 	sw	s4,0(v0)
    7b34:	08001e90 	j	7a40 <set_SZ_migrations+0x16c>
    7b38:	ac510004 	sw	s1,4(v0)

00007b3c <alloc_Secure_Zone>:
    7b3c:	3c020005 	lui	v0,0x5
    7b40:	00042140 	sll	a0,a0,0x5
    7b44:	24428ee8 	addiu	v0,v0,-28952
    7b48:	00824821 	addu	t1,a0,v0
    7b4c:	27bdffe8 	addiu	sp,sp,-24
    7b50:	3c030005 	lui	v1,0x5
    7b54:	3c020005 	lui	v0,0x5
    7b58:	afbf0010 	sw	ra,16(sp)
    7b5c:	2463a1f4 	addiu	v1,v1,-24076
    7b60:	244ba1e8 	addiu	t3,v0,-24088
    7b64:	00002021 	move	a0,zero
    7b68:	2405000d 	li	a1,13
    7b6c:	8c620000 	lw	v0,0(v1)
    7b70:	00000000 	nop
    7b74:	10400008 	beqz	v0,7b98 <alloc_Secure_Zone+0x5c>
    7b78:	24630020 	addiu	v1,v1,32
    7b7c:	24840001 	addiu	a0,a0,1
    7b80:	1485fffa 	bne	a0,a1,7b6c <alloc_Secure_Zone+0x30>
    7b84:	256b0020 	addiu	t3,t3,32
    7b88:	8fbf0010 	lw	ra,16(sp)
    7b8c:	00000000 	nop
    7b90:	03e00008 	jr	ra
    7b94:	27bd0018 	addiu	sp,sp,24
    7b98:	8d2a001c 	lw	t2,28(t1)
    7b9c:	8d230000 	lw	v1,0(t1)
    7ba0:	8d250004 	lw	a1,4(t1)
    7ba4:	8d260008 	lw	a2,8(t1)
    7ba8:	8d270010 	lw	a3,16(t1)
    7bac:	8d280014 	lw	t0,20(t1)
    7bb0:	8d290018 	lw	t1,24(t1)
    7bb4:	24020001 	li	v0,1
    7bb8:	ad62000c 	sw	v0,12(t3)
    7bbc:	ad630000 	sw	v1,0(t3)
    7bc0:	ad650004 	sw	a1,4(t3)
    7bc4:	ad660008 	sw	a2,8(t3)
    7bc8:	ad670010 	sw	a3,16(t3)
    7bcc:	ad680014 	sw	t0,20(t3)
    7bd0:	ad690018 	sw	t1,24(t3)
    7bd4:	0c001e35 	jal	78d4 <set_SZ_migrations>
    7bd8:	ad6a001c 	sw	t2,28(t3)
    7bdc:	8fbf0010 	lw	ra,16(sp)
    7be0:	08001122 	j	4488 <freeze_application>
    7be4:	27bd0018 	addiu	sp,sp,24

00007be8 <shape_recog>:
    7be8:	27bdffb8 	addiu	sp,sp,-72
    7bec:	afbf0044 	sw	ra,68(sp)
    7bf0:	afbe0040 	sw	s8,64(sp)
    7bf4:	afb7003c 	sw	s7,60(sp)
    7bf8:	afb20028 	sw	s2,40(sp)
    7bfc:	afb10024 	sw	s1,36(sp)
    7c00:	afb00020 	sw	s0,32(sp)
    7c04:	00e08821 	move	s1,a3
    7c08:	00a08021 	move	s0,a1
    7c0c:	00809021 	move	s2,a0
    7c10:	afa60050 	sw	a2,80(sp)
    7c14:	afb60038 	sw	s6,56(sp)
    7c18:	afb50034 	sw	s5,52(sp)
    7c1c:	afb40030 	sw	s4,48(sp)
    7c20:	0c000946 	jal	2518 <get_net_address>
    7c24:	afb3002c 	sw	s3,44(sp)
    7c28:	00021202 	srl	v0,v0,0x8
    7c2c:	0c000946 	jal	2518 <get_net_address>
    7c30:	305700ff 	andi	s7,v0,0xff
    7c34:	02302821 	addu	a1,s1,s0
    7c38:	0225182a 	slt	v1,s1,a1
    7c3c:	10600042 	beqz	v1,7d48 <shape_recog+0x160>
    7c40:	305e00ff 	andi	s8,v0,0xff
    7c44:	8fa20050 	lw	v0,80(sp)
    7c48:	00111880 	sll	v1,s1,0x2
    7c4c:	00431821 	addu	v1,v0,v1
    7c50:	00031100 	sll	v0,v1,0x4
    7c54:	00031880 	sll	v1,v1,0x2
    7c58:	00621821 	addu	v1,v1,v0
    7c5c:	8fa20050 	lw	v0,80(sp)
    7c60:	02209821 	move	s3,s1
    7c64:	00522021 	addu	a0,v0,s2
    7c68:	3c020005 	lui	v0,0x5
    7c6c:	24429088 	addiu	v0,v0,-28536
    7c70:	00621821 	addu	v1,v1,v0
    7c74:	8fa20050 	lw	v0,80(sp)
    7c78:	0080a021 	move	s4,a0
    7c7c:	0044202a 	slt	a0,v0,a0
    7c80:	afa30018 	sw	v1,24(sp)
    7c84:	afa50010 	sw	a1,16(sp)
    7c88:	0000b021 	move	s6,zero
    7c8c:	afa40014 	sw	a0,20(sp)
    7c90:	8fa20014 	lw	v0,20(sp)
    7c94:	00000000 	nop
    7c98:	10400021 	beqz	v0,7d20 <shape_recog+0x138>
    7c9c:	24150001 	li	s5,1
    7ca0:	8fa20018 	lw	v0,24(sp)
    7ca4:	8fb00050 	lw	s0,80(sp)
    7ca8:	08001f2e 	j	7cb8 <shape_recog+0xd0>
    7cac:	24510004 	addiu	s1,v0,4
    7cb0:	1290001b 	beq	s4,s0,7d20 <shape_recog+0x138>
    7cb4:	00000000 	nop
    7cb8:	8e320000 	lw	s2,0(s1)
    7cbc:	02002021 	move	a0,s0
    7cc0:	02602821 	move	a1,s3
    7cc4:	16f00003 	bne	s7,s0,7cd4 <shape_recog+0xec>
    7cc8:	26310014 	addiu	s1,s1,20
    7ccc:	13d30006 	beq	s8,s3,7ce8 <shape_recog+0x100>
    7cd0:	00000000 	nop
    7cd4:	0c001db8 	jal	76e0 <PE_belong_SZ>
    7cd8:	26100001 	addiu	s0,s0,1
    7cdc:	02d21823 	subu	v1,s6,s2
    7ce0:	1455fff3 	bne	v0,s5,7cb0 <shape_recog+0xc8>
    7ce4:	24760001 	addiu	s6,v1,1
    7ce8:	24160064 	li	s6,100
    7cec:	02c01021 	move	v0,s6
    7cf0:	8fbf0044 	lw	ra,68(sp)
    7cf4:	8fbe0040 	lw	s8,64(sp)
    7cf8:	8fb7003c 	lw	s7,60(sp)
    7cfc:	8fb60038 	lw	s6,56(sp)
    7d00:	8fb50034 	lw	s5,52(sp)
    7d04:	8fb40030 	lw	s4,48(sp)
    7d08:	8fb3002c 	lw	s3,44(sp)
    7d0c:	8fb20028 	lw	s2,40(sp)
    7d10:	8fb10024 	lw	s1,36(sp)
    7d14:	8fb00020 	lw	s0,32(sp)
    7d18:	03e00008 	jr	ra
    7d1c:	27bd0048 	addiu	sp,sp,72
    7d20:	8fa20018 	lw	v0,24(sp)
    7d24:	26730001 	addiu	s3,s3,1
    7d28:	24420050 	addiu	v0,v0,80
    7d2c:	afa20018 	sw	v0,24(sp)
    7d30:	8fa20010 	lw	v0,16(sp)
    7d34:	00000000 	nop
    7d38:	1662ffd5 	bne	s3,v0,7c90 <shape_recog+0xa8>
    7d3c:	02c01021 	move	v0,s6
    7d40:	08001f3c 	j	7cf0 <shape_recog+0x108>
    7d44:	00000000 	nop
    7d48:	08001f3b 	j	7cec <shape_recog+0x104>
    7d4c:	0000b021 	move	s6,zero

00007d50 <search_shape_in_cluster>:
    7d50:	27bdffc8 	addiu	sp,sp,-56
    7d54:	24030004 	li	v1,4
    7d58:	afb20018 	sw	s2,24(sp)
    7d5c:	00659023 	subu	s2,v1,a1
    7d60:	afb7002c 	sw	s7,44(sp)
    7d64:	afb50024 	sw	s5,36(sp)
    7d68:	afb40020 	sw	s4,32(sp)
    7d6c:	afb3001c 	sw	s3,28(sp)
    7d70:	afbf0030 	sw	ra,48(sp)
    7d74:	afb60028 	sw	s6,40(sp)
    7d78:	afb10014 	sw	s1,20(sp)
    7d7c:	afb00010 	sw	s0,16(sp)
    7d80:	00a0a021 	move	s4,a1
    7d84:	00809821 	move	s3,a0
    7d88:	8fb50048 	lw	s5,72(sp)
    7d8c:	0640004a 	bltz	s2,7eb8 <search_shape_in_cluster+0x168>
    7d90:	00e0b821 	move	s7,a3
    7d94:	00071140 	sll	v0,a3,0x5
    7d98:	00468821 	addu	s1,v0,a2
    7d9c:	0064b023 	subu	s6,v1,a0
    7da0:	06c00041 	bltz	s6,7ea8 <search_shape_in_cluster+0x158>
    7da4:	02c08021 	move	s0,s6
    7da8:	08001f74 	j	7dd0 <search_shape_in_cluster+0x80>
    7dac:	02602021 	move	a0,s3
    7db0:	ae22001c 	sw	v0,28(s1)
    7db4:	2402ffff 	li	v0,-1
    7db8:	ae250014 	sw	a1,20(s1)
    7dbc:	ae220018 	sw	v0,24(s1)
    7dc0:	2610ffff 	addiu	s0,s0,-1
    7dc4:	2402ffff 	li	v0,-1
    7dc8:	12020037 	beq	s0,v0,7ea8 <search_shape_in_cluster+0x158>
    7dcc:	02602021 	move	a0,s3
    7dd0:	02802821 	move	a1,s4
    7dd4:	02003021 	move	a2,s0
    7dd8:	0c001efa 	jal	7be8 <shape_recog>
    7ddc:	02403821 	move	a3,s2
    7de0:	00402821 	move	a1,v0
    7de4:	00131e00 	sll	v1,s3,0x18
    7de8:	00101200 	sll	v0,s0,0x8
    7dec:	00142400 	sll	a0,s4,0x10
    7df0:	00641825 	or	v1,v1,a0
    7df4:	00521021 	addu	v0,v0,s2
    7df8:	14b5ffed 	bne	a1,s5,7db0 <search_shape_in_cluster+0x60>
    7dfc:	00431025 	or	v0,v0,v1
    7e00:	8e230004 	lw	v1,4(s1)
    7e04:	24020004 	li	v0,4
    7e08:	14620007 	bne	v1,v0,7e28 <search_shape_in_cluster+0xd8>
    7e0c:	00000000 	nop
    7e10:	8e220008 	lw	v0,8(s1)
    7e14:	00000000 	nop
    7e18:	00621023 	subu	v0,v1,v0
    7e1c:	1642ffe9 	bne	s2,v0,7dc4 <search_shape_in_cluster+0x74>
    7e20:	2610ffff 	addiu	s0,s0,-1
    7e24:	26100001 	addiu	s0,s0,1
    7e28:	00141c00 	sll	v1,s4,0x10
    7e2c:	00131600 	sll	v0,s3,0x18
    7e30:	00102a00 	sll	a1,s0,0x8
    7e34:	00431025 	or	v0,v0,v1
    7e38:	00b22021 	addu	a0,a1,s2
    7e3c:	00441025 	or	v0,v0,a0
    7e40:	8e230010 	lw	v1,16(s1)
    7e44:	ae22001c 	sw	v0,28(s1)
    7e48:	2402ffff 	li	v0,-1
    7e4c:	ae350014 	sw	s5,20(s1)
    7e50:	18600009 	blez	v1,7e78 <search_shape_in_cluster+0x128>
    7e54:	ae220018 	sw	v0,24(s1)
    7e58:	00721021 	addu	v0,v1,s2
    7e5c:	2442ffff 	addiu	v0,v0,-1
    7e60:	00101e00 	sll	v1,s0,0x18
    7e64:	00021400 	sll	v0,v0,0x10
    7e68:	00a31825 	or	v1,a1,v1
    7e6c:	00521025 	or	v0,v0,s2
    7e70:	00621825 	or	v1,v1,v0
    7e74:	ae230018 	sw	v1,24(s1)
    7e78:	02e01021 	move	v0,s7
    7e7c:	8fbf0030 	lw	ra,48(sp)
    7e80:	8fb7002c 	lw	s7,44(sp)
    7e84:	8fb60028 	lw	s6,40(sp)
    7e88:	8fb50024 	lw	s5,36(sp)
    7e8c:	8fb40020 	lw	s4,32(sp)
    7e90:	8fb3001c 	lw	s3,28(sp)
    7e94:	8fb20018 	lw	s2,24(sp)
    7e98:	8fb10014 	lw	s1,20(sp)
    7e9c:	8fb00010 	lw	s0,16(sp)
    7ea0:	03e00008 	jr	ra
    7ea4:	27bd0038 	addiu	sp,sp,56
    7ea8:	2652ffff 	addiu	s2,s2,-1
    7eac:	2402ffff 	li	v0,-1
    7eb0:	1642ffbb 	bne	s2,v0,7da0 <search_shape_in_cluster+0x50>
    7eb4:	00000000 	nop
    7eb8:	08001f9e 	j	7e78 <search_shape_in_cluster+0x128>
    7ebc:	2417ffff 	li	s7,-1

00007ec0 <search_shape>:
    7ec0:	27bdffc0 	addiu	sp,sp,-64
    7ec4:	afbe0038 	sw	s8,56(sp)
    7ec8:	afb70034 	sw	s7,52(sp)
    7ecc:	afb5002c 	sw	s5,44(sp)
    7ed0:	afb30024 	sw	s3,36(sp)
    7ed4:	afbf003c 	sw	ra,60(sp)
    7ed8:	afb60030 	sw	s6,48(sp)
    7edc:	afb40028 	sw	s4,40(sp)
    7ee0:	afb20020 	sw	s2,32(sp)
    7ee4:	afb1001c 	sw	s1,28(sp)
    7ee8:	afb00018 	sw	s0,24(sp)
    7eec:	0080a821 	move	s5,a0
    7ef0:	00009821 	move	s3,zero
    7ef4:	241e0001 	li	s8,1
    7ef8:	3c170005 	lui	s7,0x5
    7efc:	127e002a 	beq	s3,s8,7fa8 <search_shape+0xe8>
    7f00:	3c020001 	lui	v0,0x1
    7f04:	1aa00022 	blez	s5,7f90 <search_shape+0xd0>
    7f08:	3c160005 	lui	s6,0x5
    7f0c:	26c28ee8 	addiu	v0,s6,-28952
    7f10:	00008821 	move	s1,zero
    7f14:	26f08eec 	addiu	s0,s7,-28948
    7f18:	2414ffff 	li	s4,-1
    7f1c:	08001fcc 	j	7f30 <search_shape+0x70>
    7f20:	2452001c 	addiu	s2,v0,28
    7f24:	26310001 	addiu	s1,s1,1
    7f28:	12b10019 	beq	s5,s1,7f90 <search_shape+0xd0>
    7f2c:	26520020 	addiu	s2,s2,32
    7f30:	8e040000 	lw	a0,0(s0)
    7f34:	8e050004 	lw	a1,4(s0)
    7f38:	02203821 	move	a3,s1
    7f3c:	26c68ee8 	addiu	a2,s6,-28952
    7f40:	0c001f54 	jal	7d50 <search_shape_in_cluster>
    7f44:	afb30010 	sw	s3,16(sp)
    7f48:	1054fff6 	beq	v0,s4,7f24 <search_shape+0x64>
    7f4c:	26100020 	addiu	s0,s0,32
    7f50:	3c020005 	lui	v0,0x5
    7f54:	8e430000 	lw	v1,0(s2)
    7f58:	ac518e30 	sw	s1,-29136(v0)
    7f5c:	8fbf003c 	lw	ra,60(sp)
    7f60:	8fbe0038 	lw	s8,56(sp)
    7f64:	8fb70034 	lw	s7,52(sp)
    7f68:	8fb60030 	lw	s6,48(sp)
    7f6c:	8fb5002c 	lw	s5,44(sp)
    7f70:	8fb40028 	lw	s4,40(sp)
    7f74:	8fb30024 	lw	s3,36(sp)
    7f78:	8fb20020 	lw	s2,32(sp)
    7f7c:	8fb1001c 	lw	s1,28(sp)
    7f80:	8fb00018 	lw	s0,24(sp)
    7f84:	00601021 	move	v0,v1
    7f88:	03e00008 	jr	ra
    7f8c:	27bd0040 	addiu	sp,sp,64
    7f90:	26730001 	addiu	s3,s3,1
    7f94:	2402000b 	li	v0,11
    7f98:	1662ffd8 	bne	s3,v0,7efc <search_shape+0x3c>
    7f9c:	2403ffff 	li	v1,-1
    7fa0:	08001fd7 	j	7f5c <search_shape+0x9c>
    7fa4:	00000000 	nop
    7fa8:	24448d68 	addiu	a0,v0,-29336
    7fac:	0c00094a 	jal	2528 <puts>
    7fb0:	3c160005 	lui	s6,0x5
    7fb4:	26c48ee8 	addiu	a0,s6,-28952
    7fb8:	0c001d5e 	jal	7578 <shapes_invert_order>
    7fbc:	02a02821 	move	a1,s5
    7fc0:	08001fc1 	j	7f04 <search_shape+0x44>
    7fc4:	00000000 	nop

00007fc8 <print_shapes_found>:
    7fc8:	27bdffc8 	addiu	sp,sp,-56
    7fcc:	afb20018 	sw	s2,24(sp)
    7fd0:	00809021 	move	s2,a0
    7fd4:	3c040001 	lui	a0,0x1
    7fd8:	24848d78 	addiu	a0,a0,-29320
    7fdc:	afbf0030 	sw	ra,48(sp)
    7fe0:	afb7002c 	sw	s7,44(sp)
    7fe4:	afb60028 	sw	s6,40(sp)
    7fe8:	afb50024 	sw	s5,36(sp)
    7fec:	afb40020 	sw	s4,32(sp)
    7ff0:	afb3001c 	sw	s3,28(sp)
    7ff4:	afb10014 	sw	s1,20(sp)
    7ff8:	0c00094a 	jal	2528 <puts>
    7ffc:	afb00010 	sw	s0,16(sp)
    8000:	0c000975 	jal	25d4 <itoa>
    8004:	02402021 	move	a0,s2
    8008:	00402021 	move	a0,v0
    800c:	0c00094a 	jal	2528 <puts>
    8010:	3c170001 	lui	s7,0x1
    8014:	0c00094a 	jal	2528 <puts>
    8018:	26e489ac 	addiu	a0,s7,-30292
    801c:	1a400027 	blez	s2,80bc <print_shapes_found+0xf4>
    8020:	3c020005 	lui	v0,0x5
    8024:	24508eec 	addiu	s0,v0,-28948
    8028:	00008821 	move	s1,zero
    802c:	3c160001 	lui	s6,0x1
    8030:	3c150001 	lui	s5,0x1
    8034:	3c140001 	lui	s4,0x1
    8038:	3c130001 	lui	s3,0x1
    803c:	0c00094a 	jal	2528 <puts>
    8040:	26c48d8c 	addiu	a0,s6,-29300
    8044:	8e040000 	lw	a0,0(s0)
    8048:	0c000975 	jal	25d4 <itoa>
    804c:	26310001 	addiu	s1,s1,1
    8050:	0c00094a 	jal	2528 <puts>
    8054:	00402021 	move	a0,v0
    8058:	0c00094a 	jal	2528 <puts>
    805c:	26a484c4 	addiu	a0,s5,-31548
    8060:	8e040004 	lw	a0,4(s0)
    8064:	0c000975 	jal	25d4 <itoa>
    8068:	00000000 	nop
    806c:	0c00094a 	jal	2528 <puts>
    8070:	00402021 	move	a0,v0
    8074:	0c00094a 	jal	2528 <puts>
    8078:	26848d94 	addiu	a0,s4,-29292
    807c:	8e04000c 	lw	a0,12(s0)
    8080:	0c000975 	jal	25d4 <itoa>
    8084:	00000000 	nop
    8088:	0c00094a 	jal	2528 <puts>
    808c:	00402021 	move	a0,v0
    8090:	0c00094a 	jal	2528 <puts>
    8094:	26648da0 	addiu	a0,s3,-29280
    8098:	8e04fffc 	lw	a0,-4(s0)
    809c:	0c000975 	jal	25d4 <itoa>
    80a0:	26100020 	addiu	s0,s0,32
    80a4:	0c00094a 	jal	2528 <puts>
    80a8:	00402021 	move	a0,v0
    80ac:	0c00094a 	jal	2528 <puts>
    80b0:	26e489ac 	addiu	a0,s7,-30292
    80b4:	1651ffe1 	bne	s2,s1,803c <print_shapes_found+0x74>
    80b8:	00000000 	nop
    80bc:	8fbf0030 	lw	ra,48(sp)
    80c0:	8fb7002c 	lw	s7,44(sp)
    80c4:	8fb60028 	lw	s6,40(sp)
    80c8:	8fb50024 	lw	s5,36(sp)
    80cc:	8fb40020 	lw	s4,32(sp)
    80d0:	8fb3001c 	lw	s3,28(sp)
    80d4:	8fb20018 	lw	s2,24(sp)
    80d8:	8fb10014 	lw	s1,20(sp)
    80dc:	8fb00010 	lw	s0,16(sp)
    80e0:	03e00008 	jr	ra
    80e4:	27bd0038 	addiu	sp,sp,56
